(dp1
S'output'
p2
S"<type 'exceptions.SyntaxError'> Field: unknown field type: auto_increment for confno"
p3
sS'layer'
p4
S'/var/www/conferencia/applications/projeto/models/models.py'
p5
sS'code'
p6
S'usuario = db.define_table("usuario",\n      Field("nome", notnull=True, unique=True),\n      Field("pin"),\n      Field("email"),\n      #auth.signature\n      format="%(nome)s")\n\n\nmeetme = db.define_table("meetme",\n      Field("confno", "auto_increment"), \n      Field("starttime", "datetime"),\n      Field("endtime", "datetime"),\n      Field("membros_user", \'list:reference usuario\'),\n      primarykey=[\'confno\']\n      )\n\n\n\n'
p7
sS'snapshot'
p8
(dp9
S'exception'
p10
(dp11
S'__getslice__'
p12
S"<method-wrapper '__getslice__' of exceptions.SyntaxError object>"
p13
sS'text'
p14
S'None'
p15
sS'__str__'
p16
S"<method-wrapper '__str__' of exceptions.SyntaxError object>"
p17
sS'__reduce__'
p18
S'<built-in method __reduce__ of exceptions.SyntaxError object>'
p19
sS'__dict__'
p20
S'{}'
p21
sS'__sizeof__'
p22
S'<built-in method __sizeof__ of exceptions.SyntaxError object>'
p23
sS'__init__'
p24
S"<method-wrapper '__init__' of exceptions.SyntaxError object>"
p25
sS'__setattr__'
p26
S"<method-wrapper '__setattr__' of exceptions.SyntaxError object>"
p27
sS'__reduce_ex__'
p28
S'<built-in method __reduce_ex__ of exceptions.SyntaxError object>'
p29
sS'__new__'
p30
S'<built-in method __new__ of type object>'
p31
sS'__format__'
p32
S'<built-in method __format__ of exceptions.SyntaxError object>'
p33
sS'__class__'
p34
S"<type 'exceptions.SyntaxError'>"
p35
sS'filename'
p36
S'None'
p37
sS'lineno'
p38
S'None'
p39
sS'msg'
p40
S"'Field: unknown field type: auto_increment for confno'"
p41
sS'__doc__'
p42
S"'Invalid syntax.'"
p43
sS'__getitem__'
p44
S"<method-wrapper '__getitem__' of exceptions.SyntaxError object>"
p45
sS'__setstate__'
p46
S'<built-in method __setstate__ of exceptions.SyntaxError object>'
p47
sS'__getattribute__'
p48
S"<method-wrapper '__getattribute__' of exceptions.SyntaxError object>"
p49
sS'print_file_and_line'
p50
S'None'
p51
sS'args'
p52
S"('Field: unknown field type: auto_increment for confno',)"
p53
sS'__subclasshook__'
p54
S'<built-in method __subclasshook__ of type object>'
p55
sS'offset'
p56
S'None'
p57
sS'__unicode__'
p58
S'<built-in method __unicode__ of exceptions.SyntaxError object>'
p59
sS'__delattr__'
p60
S"<method-wrapper '__delattr__' of exceptions.SyntaxError object>"
p61
sS'__repr__'
p62
S"<method-wrapper '__repr__' of exceptions.SyntaxError object>"
p63
sS'__hash__'
p64
S"<method-wrapper '__hash__' of exceptions.SyntaxError object>"
p65
ssS'evalue'
p66
S'Field: unknown field type: auto_increment for confno'
p67
sS'request'
p68
ccopy_reg
_reconstructor
p69
(cgluon.html
BEAUTIFY
p70
c__builtin__
object
p71
NtRp72
(dp73
S'attributes'
p74
(dp75
sS'components'
p76
(lp77
g69
(cgluon.html
TABLE
p78
g71
NtRp79
(dp80
g74
(dp81
S'level'
p82
I5
ssS'parent'
p83
Nsg76
(lp84
g69
(cgluon.html
TR
p85
g71
NtRp86
(dp87
g74
(dp88
sg83
g79
sg76
(lp89
g69
(cgluon.html
TD
p90
g71
NtRp91
(dp92
g74
(dp93
S'_style'
p94
S'font-weight:bold;vertical-align:top'
p95
ssg83
g86
sg76
(lp96
S'ajax'
p97
asbag69
(g90
g71
NtRp98
(dp99
g74
(dp100
S'_valign'
p101
S'top'
p102
ssg83
g86
sg76
(lp103
S':'
asbag69
(g90
g71
NtRp104
(dp105
g74
(dp106
sg83
g86
sg76
(lp107
g69
(g70
g71
NtRp108
(dp109
g74
(dp110
g82
I5
ssg83
g104
sg76
(lp111
S'False'
p112
asbasbasbag69
(g85
g71
NtRp113
(dp114
g74
(dp115
sg83
g79
sg76
(lp116
g69
(g90
g71
NtRp117
(dp118
g74
(dp119
g94
g95
ssg83
g113
sg76
(lp120
S'application'
p121
asbag69
(g90
g71
NtRp122
(dp123
g74
(dp124
g101
g102
ssg83
g113
sg76
(lp125
S':'
asbag69
(g90
g71
NtRp126
(dp127
g74
(dp128
sg83
g113
sg76
(lp129
g69
(g70
g71
NtRp130
(dp131
g74
(dp132
g82
I5
ssg83
g126
sg76
(lp133
S'projeto'
p134
asbasbasbag69
(g85
g71
NtRp135
(dp136
g74
(dp137
sg83
g79
sg76
(lp138
g69
(g90
g71
NtRp139
(dp140
g74
(dp141
g94
g95
ssg83
g135
sg76
(lp142
g52
asbag69
(g90
g71
NtRp143
(dp144
g74
(dp145
g101
g102
ssg83
g135
sg76
(lp146
S':'
asbag69
(g90
g71
NtRp147
(dp148
g74
(dp149
sg83
g135
sg76
(lp150
g69
(g70
g71
NtRp151
(dp152
g74
(dp153
g82
I5
ssg83
g147
sg76
(lp154
g69
(g78
g71
NtRp155
(dp156
g74
(dp157
g82
I4
ssg83
Nsg76
(lp158
sbasbasbasbag69
(g85
g71
NtRp159
(dp160
g74
(dp161
sg83
g79
sg76
(lp162
g69
(g90
g71
NtRp163
(dp164
g74
(dp165
g94
g95
ssg83
g159
sg76
(lp166
S'body'
p167
asbag69
(g90
g71
NtRp168
(dp169
g74
(dp170
g101
g102
ssg83
g159
sg76
(lp171
S':'
asbag69
(g90
g71
NtRp172
(dp173
g74
(dp174
sg83
g159
sg76
(lp175
g69
(g70
g71
NtRp176
(dp177
g74
(dp178
g82
I5
ssg83
g172
sg76
(lp179
S'<cStringIO.StringO object at 0x7f32fc266b90>'
p180
asbasbasbag69
(g85
g71
NtRp181
(dp182
g74
(dp183
sg83
g79
sg76
(lp184
g69
(g90
g71
NtRp185
(dp186
g74
(dp187
g94
g95
ssg83
g181
sg76
(lp188
S'cid'
p189
asbag69
(g90
g71
NtRp190
(dp191
g74
(dp192
g101
g102
ssg83
g181
sg76
(lp193
S':'
asbag69
(g90
g71
NtRp194
(dp195
g74
(dp196
sg83
g181
sg76
(lp197
g69
(g70
g71
NtRp198
(dp199
g74
(dp200
g82
I5
ssg83
g194
sg76
(lp201
S'None'
p202
asbasbasbag69
(g85
g71
NtRp203
(dp204
g74
(dp205
sg83
g79
sg76
(lp206
g69
(g90
g71
NtRp207
(dp208
g74
(dp209
g94
g95
ssg83
g203
sg76
(lp210
S'client'
p211
asbag69
(g90
g71
NtRp212
(dp213
g74
(dp214
g101
g102
ssg83
g203
sg76
(lp215
S':'
asbag69
(g90
g71
NtRp216
(dp217
g74
(dp218
sg83
g203
sg76
(lp219
g69
(g70
g71
NtRp220
(dp221
g74
(dp222
g82
I5
ssg83
g216
sg76
(lp223
S'127.0.0.1'
p224
asbasbasbag69
(g85
g71
NtRp225
(dp226
g74
(dp227
sg83
g79
sg76
(lp228
g69
(g90
g71
NtRp229
(dp230
g74
(dp231
g94
g95
ssg83
g225
sg76
(lp232
S'controller'
p233
asbag69
(g90
g71
NtRp234
(dp235
g74
(dp236
g101
g102
ssg83
g225
sg76
(lp237
S':'
asbag69
(g90
g71
NtRp238
(dp239
g74
(dp240
sg83
g225
sg76
(lp241
g69
(g70
g71
NtRp242
(dp243
g74
(dp244
g82
I5
ssg83
g238
sg76
(lp245
S'initial'
p246
asbasbasbag69
(g85
g71
NtRp247
(dp248
g74
(dp249
sg83
g79
sg76
(lp250
g69
(g90
g71
NtRp251
(dp252
g74
(dp253
g94
g95
ssg83
g247
sg76
(lp254
S'cookies'
p255
asbag69
(g90
g71
NtRp256
(dp257
g74
(dp258
g101
g102
ssg83
g247
sg76
(lp259
S':'
asbag69
(g90
g71
NtRp260
(dp261
g74
(dp262
sg83
g247
sg76
(lp263
g69
(g70
g71
NtRp264
(dp265
g74
(dp266
g82
I5
ssg83
g260
sg76
(lp267
g69
(g78
g71
NtRp268
(dp269
g74
(dp270
g82
I4
ssg83
Nsg76
(lp271
g69
(g85
g71
NtRp272
(dp273
g74
(dp274
sg83
g268
sg76
(lp275
g69
(g90
g71
NtRp276
(dp277
g74
(dp278
g94
g95
ssg83
g272
sg76
(lp279
S'session_id_admin'
p280
asbag69
(g90
g71
NtRp281
(dp282
g74
(dp283
g101
g102
ssg83
g272
sg76
(lp284
S':'
asbag69
(g90
g71
NtRp285
(dp286
g74
(dp287
sg83
g272
sg76
(lp288
g69
(g70
g71
NtRp289
(dp290
g74
(dp291
g82
I4
ssg83
g285
sg76
(lp292
S'127.0.0.1-f08163e7-63a0-4e97-8334-13b9dc892d78'
p293
ag69
(g78
g71
NtRp294
(dp295
g74
(dp296
g82
I3
ssg83
Nsg76
(lp297
g69
(g85
g71
NtRp298
(dp299
g74
(dp300
sg83
g294
sg76
(lp301
g69
(g90
g71
NtRp302
(dp303
g74
(dp304
g94
g95
ssg83
g298
sg76
(lp305
S'comment'
p306
asbag69
(g90
g71
NtRp307
(dp308
g74
(dp309
g101
g102
ssg83
g298
sg76
(lp310
S':'
asbag69
(g90
g71
NtRp311
(dp312
g74
(dp313
sg83
g298
sg76
(lp314
g69
(g70
g71
NtRp315
(dp316
g74
(dp317
g82
I3
ssg83
g311
sg76
(lp318
S''
asbasbasbag69
(g85
g71
NtRp319
(dp320
g74
(dp321
sg83
g294
sg76
(lp322
g69
(g90
g71
NtRp323
(dp324
g74
(dp325
g94
g95
ssg83
g319
sg76
(lp326
S'domain'
p327
asbag69
(g90
g71
NtRp328
(dp329
g74
(dp330
g101
g102
ssg83
g319
sg76
(lp331
S':'
asbag69
(g90
g71
NtRp332
(dp333
g74
(dp334
sg83
g319
sg76
(lp335
g69
(g70
g71
NtRp336
(dp337
g74
(dp338
g82
I3
ssg83
g332
sg76
(lp339
S''
asbasbasbag69
(g85
g71
NtRp340
(dp341
g74
(dp342
sg83
g294
sg76
(lp343
g69
(g90
g71
NtRp344
(dp345
g74
(dp346
g94
g95
ssg83
g340
sg76
(lp347
S'expires'
p348
asbag69
(g90
g71
NtRp349
(dp350
g74
(dp351
g101
g102
ssg83
g340
sg76
(lp352
S':'
asbag69
(g90
g71
NtRp353
(dp354
g74
(dp355
sg83
g340
sg76
(lp356
g69
(g70
g71
NtRp357
(dp358
g74
(dp359
g82
I3
ssg83
g353
sg76
(lp360
S''
asbasbasbag69
(g85
g71
NtRp361
(dp362
g74
(dp363
sg83
g294
sg76
(lp364
g69
(g90
g71
NtRp365
(dp366
g74
(dp367
g94
g95
ssg83
g361
sg76
(lp368
S'httponly'
p369
asbag69
(g90
g71
NtRp370
(dp371
g74
(dp372
g101
g102
ssg83
g361
sg76
(lp373
S':'
asbag69
(g90
g71
NtRp374
(dp375
g74
(dp376
sg83
g361
sg76
(lp377
g69
(g70
g71
NtRp378
(dp379
g74
(dp380
g82
I3
ssg83
g374
sg76
(lp381
S''
asbasbasbag69
(g85
g71
NtRp382
(dp383
g74
(dp384
sg83
g294
sg76
(lp385
g69
(g90
g71
NtRp386
(dp387
g74
(dp388
g94
g95
ssg83
g382
sg76
(lp389
S'max-age'
p390
asbag69
(g90
g71
NtRp391
(dp392
g74
(dp393
g101
g102
ssg83
g382
sg76
(lp394
S':'
asbag69
(g90
g71
NtRp395
(dp396
g74
(dp397
sg83
g382
sg76
(lp398
g69
(g70
g71
NtRp399
(dp400
g74
(dp401
g82
I3
ssg83
g395
sg76
(lp402
S''
asbasbasbag69
(g85
g71
NtRp403
(dp404
g74
(dp405
sg83
g294
sg76
(lp406
g69
(g90
g71
NtRp407
(dp408
g74
(dp409
g94
g95
ssg83
g403
sg76
(lp410
S'path'
p411
asbag69
(g90
g71
NtRp412
(dp413
g74
(dp414
g101
g102
ssg83
g403
sg76
(lp415
S':'
asbag69
(g90
g71
NtRp416
(dp417
g74
(dp418
sg83
g403
sg76
(lp419
g69
(g70
g71
NtRp420
(dp421
g74
(dp422
g82
I3
ssg83
g416
sg76
(lp423
S''
asbasbasbag69
(g85
g71
NtRp424
(dp425
g74
(dp426
sg83
g294
sg76
(lp427
g69
(g90
g71
NtRp428
(dp429
g74
(dp430
g94
g95
ssg83
g424
sg76
(lp431
S'secure'
p432
asbag69
(g90
g71
NtRp433
(dp434
g74
(dp435
g101
g102
ssg83
g424
sg76
(lp436
S':'
asbag69
(g90
g71
NtRp437
(dp438
g74
(dp439
sg83
g424
sg76
(lp440
g69
(g70
g71
NtRp441
(dp442
g74
(dp443
g82
I3
ssg83
g437
sg76
(lp444
S''
asbasbasbag69
(g85
g71
NtRp445
(dp446
g74
(dp447
sg83
g294
sg76
(lp448
g69
(g90
g71
NtRp449
(dp450
g74
(dp451
g94
g95
ssg83
g445
sg76
(lp452
S'version'
p453
asbag69
(g90
g71
NtRp454
(dp455
g74
(dp456
g101
g102
ssg83
g445
sg76
(lp457
S':'
asbag69
(g90
g71
NtRp458
(dp459
g74
(dp460
sg83
g445
sg76
(lp461
g69
(g70
g71
NtRp462
(dp463
g74
(dp464
g82
I3
ssg83
g458
sg76
(lp465
S''
asbasbasbasbasbasbasbag69
(g85
g71
NtRp466
(dp467
g74
(dp468
sg83
g268
sg76
(lp469
g69
(g90
g71
NtRp470
(dp471
g74
(dp472
g94
g95
ssg83
g466
sg76
(lp473
S'session_id_projeto'
p474
asbag69
(g90
g71
NtRp475
(dp476
g74
(dp477
g101
g102
ssg83
g466
sg76
(lp478
S':'
asbag69
(g90
g71
NtRp479
(dp480
g74
(dp481
sg83
g466
sg76
(lp482
g69
(g70
g71
NtRp483
(dp484
g74
(dp485
g82
I4
ssg83
g479
sg76
(lp486
S'127.0.0.1-0fe02c32-0739-4f06-a369-3bba6377da8b'
p487
ag69
(g78
g71
NtRp488
(dp489
g74
(dp490
g82
I3
ssg83
Nsg76
(lp491
g69
(g85
g71
NtRp492
(dp493
g74
(dp494
sg83
g488
sg76
(lp495
g69
(g90
g71
NtRp496
(dp497
g74
(dp498
g94
g95
ssg83
g492
sg76
(lp499
g306
asbag69
(g90
g71
NtRp500
(dp501
g74
(dp502
g101
g102
ssg83
g492
sg76
(lp503
S':'
asbag69
(g90
g71
NtRp504
(dp505
g74
(dp506
sg83
g492
sg76
(lp507
g69
(g70
g71
NtRp508
(dp509
g74
(dp510
g82
I3
ssg83
g504
sg76
(lp511
S''
asbasbasbag69
(g85
g71
NtRp512
(dp513
g74
(dp514
sg83
g488
sg76
(lp515
g69
(g90
g71
NtRp516
(dp517
g74
(dp518
g94
g95
ssg83
g512
sg76
(lp519
g327
asbag69
(g90
g71
NtRp520
(dp521
g74
(dp522
g101
g102
ssg83
g512
sg76
(lp523
S':'
asbag69
(g90
g71
NtRp524
(dp525
g74
(dp526
sg83
g512
sg76
(lp527
g69
(g70
g71
NtRp528
(dp529
g74
(dp530
g82
I3
ssg83
g524
sg76
(lp531
S''
asbasbasbag69
(g85
g71
NtRp532
(dp533
g74
(dp534
sg83
g488
sg76
(lp535
g69
(g90
g71
NtRp536
(dp537
g74
(dp538
g94
g95
ssg83
g532
sg76
(lp539
g348
asbag69
(g90
g71
NtRp540
(dp541
g74
(dp542
g101
g102
ssg83
g532
sg76
(lp543
S':'
asbag69
(g90
g71
NtRp544
(dp545
g74
(dp546
sg83
g532
sg76
(lp547
g69
(g70
g71
NtRp548
(dp549
g74
(dp550
g82
I3
ssg83
g544
sg76
(lp551
S''
asbasbasbag69
(g85
g71
NtRp552
(dp553
g74
(dp554
sg83
g488
sg76
(lp555
g69
(g90
g71
NtRp556
(dp557
g74
(dp558
g94
g95
ssg83
g552
sg76
(lp559
g369
asbag69
(g90
g71
NtRp560
(dp561
g74
(dp562
g101
g102
ssg83
g552
sg76
(lp563
S':'
asbag69
(g90
g71
NtRp564
(dp565
g74
(dp566
sg83
g552
sg76
(lp567
g69
(g70
g71
NtRp568
(dp569
g74
(dp570
g82
I3
ssg83
g564
sg76
(lp571
S''
asbasbasbag69
(g85
g71
NtRp572
(dp573
g74
(dp574
sg83
g488
sg76
(lp575
g69
(g90
g71
NtRp576
(dp577
g74
(dp578
g94
g95
ssg83
g572
sg76
(lp579
g390
asbag69
(g90
g71
NtRp580
(dp581
g74
(dp582
g101
g102
ssg83
g572
sg76
(lp583
S':'
asbag69
(g90
g71
NtRp584
(dp585
g74
(dp586
sg83
g572
sg76
(lp587
g69
(g70
g71
NtRp588
(dp589
g74
(dp590
g82
I3
ssg83
g584
sg76
(lp591
S''
asbasbasbag69
(g85
g71
NtRp592
(dp593
g74
(dp594
sg83
g488
sg76
(lp595
g69
(g90
g71
NtRp596
(dp597
g74
(dp598
g94
g95
ssg83
g592
sg76
(lp599
g411
asbag69
(g90
g71
NtRp600
(dp601
g74
(dp602
g101
g102
ssg83
g592
sg76
(lp603
S':'
asbag69
(g90
g71
NtRp604
(dp605
g74
(dp606
sg83
g592
sg76
(lp607
g69
(g70
g71
NtRp608
(dp609
g74
(dp610
g82
I3
ssg83
g604
sg76
(lp611
S''
asbasbasbag69
(g85
g71
NtRp612
(dp613
g74
(dp614
sg83
g488
sg76
(lp615
g69
(g90
g71
NtRp616
(dp617
g74
(dp618
g94
g95
ssg83
g612
sg76
(lp619
g432
asbag69
(g90
g71
NtRp620
(dp621
g74
(dp622
g101
g102
ssg83
g612
sg76
(lp623
S':'
asbag69
(g90
g71
NtRp624
(dp625
g74
(dp626
sg83
g612
sg76
(lp627
g69
(g70
g71
NtRp628
(dp629
g74
(dp630
g82
I3
ssg83
g624
sg76
(lp631
S''
asbasbasbag69
(g85
g71
NtRp632
(dp633
g74
(dp634
sg83
g488
sg76
(lp635
g69
(g90
g71
NtRp636
(dp637
g74
(dp638
g94
g95
ssg83
g632
sg76
(lp639
g453
asbag69
(g90
g71
NtRp640
(dp641
g74
(dp642
g101
g102
ssg83
g632
sg76
(lp643
S':'
asbag69
(g90
g71
NtRp644
(dp645
g74
(dp646
sg83
g632
sg76
(lp647
g69
(g70
g71
NtRp648
(dp649
g74
(dp650
g82
I3
ssg83
g644
sg76
(lp651
S''
asbasbasbasbasbasbasbasbasbasbasbag69
(g85
g71
NtRp652
(dp653
g74
(dp654
sg83
g79
sg76
(lp655
g69
(g90
g71
NtRp656
(dp657
g74
(dp658
g94
g95
ssg83
g652
sg76
(lp659
S'env'
p660
asbag69
(g90
g71
NtRp661
(dp662
g74
(dp663
g101
g102
ssg83
g652
sg76
(lp664
S':'
asbag69
(g90
g71
NtRp665
(dp666
g74
(dp667
sg83
g652
sg76
(lp668
g69
(g70
g71
NtRp669
(dp670
g74
(dp671
g82
I5
ssg83
g665
sg76
(lp672
g69
(g78
g71
NtRp673
(dp674
g74
(dp675
g82
I4
ssg83
Nsg76
(lp676
g69
(g85
g71
NtRp677
(dp678
g74
(dp679
sg83
g673
sg76
(lp680
g69
(g90
g71
NtRp681
(dp682
g74
(dp683
g94
g95
ssg83
g677
sg76
(lp684
S'app_folders'
p685
asbag69
(g90
g71
NtRp686
(dp687
g74
(dp688
g101
g102
ssg83
g677
sg76
(lp689
S':'
asbag69
(g90
g71
NtRp690
(dp691
g74
(dp692
sg83
g677
sg76
(lp693
g69
(g70
g71
NtRp694
(dp695
g74
(dp696
g82
I4
ssg83
g690
sg76
(lp697
S"set(['/var/www/conferencia/applications/admin/', '/var/www/conferencia/applications/projeto/'])"
p698
asbasbasbag69
(g85
g71
NtRp699
(dp700
g74
(dp701
sg83
g673
sg76
(lp702
g69
(g90
g71
NtRp703
(dp704
g74
(dp705
g94
g95
ssg83
g699
sg76
(lp706
S'applications_parent'
p707
asbag69
(g90
g71
NtRp708
(dp709
g74
(dp710
g101
g102
ssg83
g699
sg76
(lp711
S':'
asbag69
(g90
g71
NtRp712
(dp713
g74
(dp714
sg83
g699
sg76
(lp715
g69
(g70
g71
NtRp716
(dp717
g74
(dp718
g82
I4
ssg83
g712
sg76
(lp719
S'/var/www/conferencia'
p720
asbasbasbag69
(g85
g71
NtRp721
(dp722
g74
(dp723
sg83
g673
sg76
(lp724
g69
(g90
g71
NtRp725
(dp726
g74
(dp727
g94
g95
ssg83
g721
sg76
(lp728
S'cmd_args'
p729
asbag69
(g90
g71
NtRp730
(dp731
g74
(dp732
g101
g102
ssg83
g721
sg76
(lp733
S':'
asbag69
(g90
g71
NtRp734
(dp735
g74
(dp736
sg83
g721
sg76
(lp737
g69
(g70
g71
NtRp738
(dp739
g74
(dp740
g82
I4
ssg83
g734
sg76
(lp741
g69
(g78
g71
NtRp742
(dp743
g74
(dp744
g82
I3
ssg83
Nsg76
(lp745
sbasbasbasbag69
(g85
g71
NtRp746
(dp747
g74
(dp748
sg83
g673
sg76
(lp749
g69
(g90
g71
NtRp750
(dp751
g74
(dp752
g94
g95
ssg83
g746
sg76
(lp753
S'cmd_options'
p754
asbag69
(g90
g71
NtRp755
(dp756
g74
(dp757
g101
g102
ssg83
g746
sg76
(lp758
S':'
asbag69
(g90
g71
NtRp759
(dp760
g74
(dp761
sg83
g746
sg76
(lp762
g69
(g70
g71
NtRp763
(dp764
g74
(dp765
g82
I4
ssg83
g759
sg76
(lp766
S"<Values at 0x221c248: {'verbose': False, 'ip': '127.0.0.1', 'with_scheduler': False, 'ips': [], 'shutdown_timeout': 5, 'taskbar': False, 'port': 8000, 'maxthreads': None, 'softcron': False, 'server_name': 'fernando-workstation', 'bpython': False, 'nogui': False, 'pid_filename': 'httpserver.pid', 'extcron': False, 'runcron': False, 'run_system_tests': False, 'test': None, 'folder': '/var/www/conferencia', 'config': '', 'minthreads': None, 'winservice': '', 'shell': None, 'run': '', 'log_filename': 'httpserver.log', 'debuglevel': 30, 'args': [''], 'socket_timeout': 5, 'ssl_ca_certificate': None, 'scheduler': None, 'profiler_filename': None, 'ssl_private_key': '', 'scheduler_groups': None, 'password': '123456', 'request_queue_size': 5, 'ssl_certificate': '', 'cronjob': False, 'numthreads': None, 'quiet': False, 'interfaces': None, 'import_models': False, 'timeout': 10, 'plain': False, 'nobanner': False}>"
p767
asbasbasbag69
(g85
g71
NtRp768
(dp769
g74
(dp770
sg83
g673
sg76
(lp771
g69
(g90
g71
NtRp772
(dp773
g74
(dp774
g94
g95
ssg83
g768
sg76
(lp775
S'db_sessions'
p776
asbag69
(g90
g71
NtRp777
(dp778
g74
(dp779
g101
g102
ssg83
g768
sg76
(lp780
S':'
asbag69
(g90
g71
NtRp781
(dp782
g74
(dp783
sg83
g768
sg76
(lp784
g69
(g70
g71
NtRp785
(dp786
g74
(dp787
g82
I4
ssg83
g781
sg76
(lp788
S'set([])'
p789
asbasbasbag69
(g85
g71
NtRp790
(dp791
g74
(dp792
sg83
g673
sg76
(lp793
g69
(g90
g71
NtRp794
(dp795
g74
(dp796
g94
g95
ssg83
g790
sg76
(lp797
S'debugging'
p798
asbag69
(g90
g71
NtRp799
(dp800
g74
(dp801
g101
g102
ssg83
g790
sg76
(lp802
S':'
asbag69
(g90
g71
NtRp803
(dp804
g74
(dp805
sg83
g790
sg76
(lp806
g69
(g70
g71
NtRp807
(dp808
g74
(dp809
g82
I4
ssg83
g803
sg76
(lp810
g112
asbasbasbag69
(g85
g71
NtRp811
(dp812
g74
(dp813
sg83
g673
sg76
(lp814
g69
(g90
g71
NtRp815
(dp816
g74
(dp817
g94
g95
ssg83
g811
sg76
(lp818
S'gluon_parent'
p819
asbag69
(g90
g71
NtRp820
(dp821
g74
(dp822
g101
g102
ssg83
g811
sg76
(lp823
S':'
asbag69
(g90
g71
NtRp824
(dp825
g74
(dp826
sg83
g811
sg76
(lp827
g69
(g70
g71
NtRp828
(dp829
g74
(dp830
g82
I4
ssg83
g824
sg76
(lp831
S'/var/www/conferencia'
p832
asbasbasbag69
(g85
g71
NtRp833
(dp834
g74
(dp835
sg83
g673
sg76
(lp836
g69
(g90
g71
NtRp837
(dp838
g74
(dp839
g94
g95
ssg83
g833
sg76
(lp840
S'http_accept'
p841
asbag69
(g90
g71
NtRp842
(dp843
g74
(dp844
g101
g102
ssg83
g833
sg76
(lp845
S':'
asbag69
(g90
g71
NtRp846
(dp847
g74
(dp848
sg83
g833
sg76
(lp849
g69
(g70
g71
NtRp850
(dp851
g74
(dp852
g82
I4
ssg83
g846
sg76
(lp853
S'text/html,application/xhtml+xml,application/xml;q=0.9,*/*;q=0.8'
p854
asbasbasbag69
(g85
g71
NtRp855
(dp856
g74
(dp857
sg83
g673
sg76
(lp858
g69
(g90
g71
NtRp859
(dp860
g74
(dp861
g94
g95
ssg83
g855
sg76
(lp862
S'http_accept_charset'
p863
asbag69
(g90
g71
NtRp864
(dp865
g74
(dp866
g101
g102
ssg83
g855
sg76
(lp867
S':'
asbag69
(g90
g71
NtRp868
(dp869
g74
(dp870
sg83
g855
sg76
(lp871
g69
(g70
g71
NtRp872
(dp873
g74
(dp874
g82
I4
ssg83
g868
sg76
(lp875
S'ISO-8859-1,utf-8;q=0.7,*;q=0.3'
p876
asbasbasbag69
(g85
g71
NtRp877
(dp878
g74
(dp879
sg83
g673
sg76
(lp880
g69
(g90
g71
NtRp881
(dp882
g74
(dp883
g94
g95
ssg83
g877
sg76
(lp884
S'http_accept_encoding'
p885
asbag69
(g90
g71
NtRp886
(dp887
g74
(dp888
g101
g102
ssg83
g877
sg76
(lp889
S':'
asbag69
(g90
g71
NtRp890
(dp891
g74
(dp892
sg83
g877
sg76
(lp893
g69
(g70
g71
NtRp894
(dp895
g74
(dp896
g82
I4
ssg83
g890
sg76
(lp897
S'gzip,deflate,sdch'
p898
asbasbasbag69
(g85
g71
NtRp899
(dp900
g74
(dp901
sg83
g673
sg76
(lp902
g69
(g90
g71
NtRp903
(dp904
g74
(dp905
g94
g95
ssg83
g899
sg76
(lp906
S'http_accept_language'
p907
asbag69
(g90
g71
NtRp908
(dp909
g74
(dp910
g101
g102
ssg83
g899
sg76
(lp911
S':'
asbag69
(g90
g71
NtRp912
(dp913
g74
(dp914
sg83
g899
sg76
(lp915
g69
(g70
g71
NtRp916
(dp917
g74
(dp918
g82
I4
ssg83
g912
sg76
(lp919
S'pt-BR,pt;q=0.8,en-US;q=0.6,en;q=0.4'
p920
asbasbasbag69
(g85
g71
NtRp921
(dp922
g74
(dp923
sg83
g673
sg76
(lp924
g69
(g90
g71
NtRp925
(dp926
g74
(dp927
g94
g95
ssg83
g921
sg76
(lp928
S'http_cache_control'
p929
asbag69
(g90
g71
NtRp930
(dp931
g74
(dp932
g101
g102
ssg83
g921
sg76
(lp933
S':'
asbag69
(g90
g71
NtRp934
(dp935
g74
(dp936
sg83
g921
sg76
(lp937
g69
(g70
g71
NtRp938
(dp939
g74
(dp940
g82
I4
ssg83
g934
sg76
(lp941
S'max-age=0'
p942
asbasbasbag69
(g85
g71
NtRp943
(dp944
g74
(dp945
sg83
g673
sg76
(lp946
g69
(g90
g71
NtRp947
(dp948
g74
(dp949
g94
g95
ssg83
g943
sg76
(lp950
S'http_connection'
p951
asbag69
(g90
g71
NtRp952
(dp953
g74
(dp954
g101
g102
ssg83
g943
sg76
(lp955
S':'
asbag69
(g90
g71
NtRp956
(dp957
g74
(dp958
sg83
g943
sg76
(lp959
g69
(g70
g71
NtRp960
(dp961
g74
(dp962
g82
I4
ssg83
g956
sg76
(lp963
S'keep-alive'
p964
asbasbasbag69
(g85
g71
NtRp965
(dp966
g74
(dp967
sg83
g673
sg76
(lp968
g69
(g90
g71
NtRp969
(dp970
g74
(dp971
g94
g95
ssg83
g965
sg76
(lp972
S'http_cookie'
p973
asbag69
(g90
g71
NtRp974
(dp975
g74
(dp976
g101
g102
ssg83
g965
sg76
(lp977
S':'
asbag69
(g90
g71
NtRp978
(dp979
g74
(dp980
sg83
g965
sg76
(lp981
g69
(g70
g71
NtRp982
(dp983
g74
(dp984
g82
I4
ssg83
g978
sg76
(lp985
S'session_id_admin=127.0.0.1-f08163e7-63a0-4e97-8334-13b9dc892d78; session_id_projeto=127.0.0.1-0fe02c32-0739-4f06-a369-3bba6377da8b'
p986
asbasbasbag69
(g85
g71
NtRp987
(dp988
g74
(dp989
sg83
g673
sg76
(lp990
g69
(g90
g71
NtRp991
(dp992
g74
(dp993
g94
g95
ssg83
g987
sg76
(lp994
S'http_host'
p995
asbag69
(g90
g71
NtRp996
(dp997
g74
(dp998
g101
g102
ssg83
g987
sg76
(lp999
S':'
asbag69
(g90
g71
NtRp1000
(dp1001
g74
(dp1002
sg83
g987
sg76
(lp1003
g69
(g70
g71
NtRp1004
(dp1005
g74
(dp1006
g82
I4
ssg83
g1000
sg76
(lp1007
S'127.0.0.1:8000'
p1008
asbasbasbag69
(g85
g71
NtRp1009
(dp1010
g74
(dp1011
sg83
g673
sg76
(lp1012
g69
(g90
g71
NtRp1013
(dp1014
g74
(dp1015
g94
g95
ssg83
g1009
sg76
(lp1016
S'http_referer'
p1017
asbag69
(g90
g71
NtRp1018
(dp1019
g74
(dp1020
g101
g102
ssg83
g1009
sg76
(lp1021
S':'
asbag69
(g90
g71
NtRp1022
(dp1023
g74
(dp1024
sg83
g1009
sg76
(lp1025
g69
(g70
g71
NtRp1026
(dp1027
g74
(dp1028
g82
I4
ssg83
g1022
sg76
(lp1029
S'http://127.0.0.1:8000/show_cliente/new/meetme'
p1030
asbasbasbag69
(g85
g71
NtRp1031
(dp1032
g74
(dp1033
sg83
g673
sg76
(lp1034
g69
(g90
g71
NtRp1035
(dp1036
g74
(dp1037
g94
g95
ssg83
g1031
sg76
(lp1038
S'http_user_agent'
p1039
asbag69
(g90
g71
NtRp1040
(dp1041
g74
(dp1042
g101
g102
ssg83
g1031
sg76
(lp1043
S':'
asbag69
(g90
g71
NtRp1044
(dp1045
g74
(dp1046
sg83
g1031
sg76
(lp1047
g69
(g70
g71
NtRp1048
(dp1049
g74
(dp1050
g82
I4
ssg83
g1044
sg76
(lp1051
S'Mozilla/5.0 (X11; Linux x86_64) AppleWebKit/537.4 (KHTML, like Gecko) Ubuntu/12.10 Chromium/22.0.1229.94 Chrome/22.0.1229.94 Safari/537.4'
p1052
asbasbasbag69
(g85
g71
NtRp1053
(dp1054
g74
(dp1055
sg83
g673
sg76
(lp1056
g69
(g90
g71
NtRp1057
(dp1058
g74
(dp1059
g94
g95
ssg83
g1053
sg76
(lp1060
S'is_jython'
p1061
asbag69
(g90
g71
NtRp1062
(dp1063
g74
(dp1064
g101
g102
ssg83
g1053
sg76
(lp1065
S':'
asbag69
(g90
g71
NtRp1066
(dp1067
g74
(dp1068
sg83
g1053
sg76
(lp1069
g69
(g70
g71
NtRp1070
(dp1071
g74
(dp1072
g82
I4
ssg83
g1066
sg76
(lp1073
g112
asbasbasbag69
(g85
g71
NtRp1074
(dp1075
g74
(dp1076
sg83
g673
sg76
(lp1077
g69
(g90
g71
NtRp1078
(dp1079
g74
(dp1080
g94
g95
ssg83
g1074
sg76
(lp1081
S'is_pypy'
p1082
asbag69
(g90
g71
NtRp1083
(dp1084
g74
(dp1085
g101
g102
ssg83
g1074
sg76
(lp1086
S':'
asbag69
(g90
g71
NtRp1087
(dp1088
g74
(dp1089
sg83
g1074
sg76
(lp1090
g69
(g70
g71
NtRp1091
(dp1092
g74
(dp1093
g82
I4
ssg83
g1087
sg76
(lp1094
g112
asbasbasbag69
(g85
g71
NtRp1095
(dp1096
g74
(dp1097
sg83
g673
sg76
(lp1098
g69
(g90
g71
NtRp1099
(dp1100
g74
(dp1101
g94
g95
ssg83
g1095
sg76
(lp1102
S'local_hosts'
p1103
asbag69
(g90
g71
NtRp1104
(dp1105
g74
(dp1106
g101
g102
ssg83
g1095
sg76
(lp1107
S':'
asbag69
(g90
g71
NtRp1108
(dp1109
g74
(dp1110
sg83
g1095
sg76
(lp1111
g69
(g70
g71
NtRp1112
(dp1113
g74
(dp1114
g82
I4
ssg83
g1108
sg76
(lp1115
g69
(g78
g71
NtRp1116
(dp1117
g74
(dp1118
g82
I3
ssg83
Nsg76
(lp1119
g69
(g85
g71
NtRp1120
(dp1121
g74
(dp1122
sg83
g1116
sg76
(lp1123
g69
(g90
g71
NtRp1124
(dp1125
g74
(dp1126
sg83
g1120
sg76
(lp1127
g69
(g70
g71
NtRp1128
(dp1129
g74
(dp1130
g82
I3
ssg83
g1124
sg76
(lp1131
S'::1'
p1132
asbasbasbag69
(g85
g71
NtRp1133
(dp1134
g74
(dp1135
sg83
g1116
sg76
(lp1136
g69
(g90
g71
NtRp1137
(dp1138
g74
(dp1139
sg83
g1133
sg76
(lp1140
g69
(g70
g71
NtRp1141
(dp1142
g74
(dp1143
g82
I3
ssg83
g1137
sg76
(lp1144
S'::ffff:127.0.0.1'
p1145
asbasbasbag69
(g85
g71
NtRp1146
(dp1147
g74
(dp1148
sg83
g1116
sg76
(lp1149
g69
(g90
g71
NtRp1150
(dp1151
g74
(dp1152
sg83
g1146
sg76
(lp1153
g69
(g70
g71
NtRp1154
(dp1155
g74
(dp1156
g82
I3
ssg83
g1150
sg76
(lp1157
S'127.0.0.1'
p1158
asbasbasbag69
(g85
g71
NtRp1159
(dp1160
g74
(dp1161
sg83
g1116
sg76
(lp1162
g69
(g90
g71
NtRp1163
(dp1164
g74
(dp1165
sg83
g1159
sg76
(lp1166
g69
(g70
g71
NtRp1167
(dp1168
g74
(dp1169
g82
I3
ssg83
g1163
sg76
(lp1170
S'fernando-workstation'
p1171
asbasbasbasbasbasbasbag69
(g85
g71
NtRp1172
(dp1173
g74
(dp1174
sg83
g673
sg76
(lp1175
g69
(g90
g71
NtRp1176
(dp1177
g74
(dp1178
g94
g95
ssg83
g1172
sg76
(lp1179
S'path_info'
p1180
asbag69
(g90
g71
NtRp1181
(dp1182
g74
(dp1183
g101
g102
ssg83
g1172
sg76
(lp1184
S':'
asbag69
(g90
g71
NtRp1185
(dp1186
g74
(dp1187
sg83
g1172
sg76
(lp1188
g69
(g70
g71
NtRp1189
(dp1190
g74
(dp1191
g82
I4
ssg83
g1185
sg76
(lp1192
S'/show_cliente'
p1193
asbasbasbag69
(g85
g71
NtRp1194
(dp1195
g74
(dp1196
sg83
g673
sg76
(lp1197
g69
(g90
g71
NtRp1198
(dp1199
g74
(dp1200
g94
g95
ssg83
g1194
sg76
(lp1201
S'query_string'
p1202
asbag69
(g90
g71
NtRp1203
(dp1204
g74
(dp1205
g101
g102
ssg83
g1194
sg76
(lp1206
S':'
asbag69
(g90
g71
NtRp1207
(dp1208
g74
(dp1209
sg83
g1194
sg76
(lp1210
g69
(g70
g71
NtRp1211
(dp1212
g74
(dp1213
g82
I4
ssg83
g1207
sg76
(lp1214
S''
asbasbasbag69
(g85
g71
NtRp1215
(dp1216
g74
(dp1217
sg83
g673
sg76
(lp1218
g69
(g90
g71
NtRp1219
(dp1220
g74
(dp1221
g94
g95
ssg83
g1215
sg76
(lp1222
S'remote_addr'
p1223
asbag69
(g90
g71
NtRp1224
(dp1225
g74
(dp1226
g101
g102
ssg83
g1215
sg76
(lp1227
S':'
asbag69
(g90
g71
NtRp1228
(dp1229
g74
(dp1230
sg83
g1215
sg76
(lp1231
g69
(g70
g71
NtRp1232
(dp1233
g74
(dp1234
g82
I4
ssg83
g1228
sg76
(lp1235
g224
asbasbasbag69
(g85
g71
NtRp1236
(dp1237
g74
(dp1238
sg83
g673
sg76
(lp1239
g69
(g90
g71
NtRp1240
(dp1241
g74
(dp1242
g94
g95
ssg83
g1236
sg76
(lp1243
S'remote_port'
p1244
asbag69
(g90
g71
NtRp1245
(dp1246
g74
(dp1247
g101
g102
ssg83
g1236
sg76
(lp1248
S':'
asbag69
(g90
g71
NtRp1249
(dp1250
g74
(dp1251
sg83
g1236
sg76
(lp1252
g69
(g70
g71
NtRp1253
(dp1254
g74
(dp1255
g82
I4
ssg83
g1249
sg76
(lp1256
S'45410'
p1257
asbasbasbag69
(g85
g71
NtRp1258
(dp1259
g74
(dp1260
sg83
g673
sg76
(lp1261
g69
(g90
g71
NtRp1262
(dp1263
g74
(dp1264
g94
g95
ssg83
g1258
sg76
(lp1265
S'request_method'
p1266
asbag69
(g90
g71
NtRp1267
(dp1268
g74
(dp1269
g101
g102
ssg83
g1258
sg76
(lp1270
S':'
asbag69
(g90
g71
NtRp1271
(dp1272
g74
(dp1273
sg83
g1258
sg76
(lp1274
g69
(g70
g71
NtRp1275
(dp1276
g74
(dp1277
g82
I4
ssg83
g1271
sg76
(lp1278
S'GET'
p1279
asbasbasbag69
(g85
g71
NtRp1280
(dp1281
g74
(dp1282
sg83
g673
sg76
(lp1283
g69
(g90
g71
NtRp1284
(dp1285
g74
(dp1286
g94
g95
ssg83
g1280
sg76
(lp1287
S'request_uri'
p1288
asbag69
(g90
g71
NtRp1289
(dp1290
g74
(dp1291
g101
g102
ssg83
g1280
sg76
(lp1292
S':'
asbag69
(g90
g71
NtRp1293
(dp1294
g74
(dp1295
sg83
g1280
sg76
(lp1296
g69
(g70
g71
NtRp1297
(dp1298
g74
(dp1299
g82
I4
ssg83
g1293
sg76
(lp1300
S'/projeto/initial/show_cliente'
p1301
asbasbasbag69
(g85
g71
NtRp1302
(dp1303
g74
(dp1304
sg83
g673
sg76
(lp1305
g69
(g90
g71
NtRp1306
(dp1307
g74
(dp1308
g94
g95
ssg83
g1302
sg76
(lp1309
S'script_name'
p1310
asbag69
(g90
g71
NtRp1311
(dp1312
g74
(dp1313
g101
g102
ssg83
g1302
sg76
(lp1314
S':'
asbag69
(g90
g71
NtRp1315
(dp1316
g74
(dp1317
sg83
g1302
sg76
(lp1318
g69
(g70
g71
NtRp1319
(dp1320
g74
(dp1321
g82
I4
ssg83
g1315
sg76
(lp1322
S''
asbasbasbag69
(g85
g71
NtRp1323
(dp1324
g74
(dp1325
sg83
g673
sg76
(lp1326
g69
(g90
g71
NtRp1327
(dp1328
g74
(dp1329
g94
g95
ssg83
g1323
sg76
(lp1330
S'server_name'
p1331
asbag69
(g90
g71
NtRp1332
(dp1333
g74
(dp1334
g101
g102
ssg83
g1323
sg76
(lp1335
S':'
asbag69
(g90
g71
NtRp1336
(dp1337
g74
(dp1338
sg83
g1323
sg76
(lp1339
g69
(g70
g71
NtRp1340
(dp1341
g74
(dp1342
g82
I4
ssg83
g1336
sg76
(lp1343
S'fernando-workstation'
p1344
asbasbasbag69
(g85
g71
NtRp1345
(dp1346
g74
(dp1347
sg83
g673
sg76
(lp1348
g69
(g90
g71
NtRp1349
(dp1350
g74
(dp1351
g94
g95
ssg83
g1345
sg76
(lp1352
S'server_port'
p1353
asbag69
(g90
g71
NtRp1354
(dp1355
g74
(dp1356
g101
g102
ssg83
g1345
sg76
(lp1357
S':'
asbag69
(g90
g71
NtRp1358
(dp1359
g74
(dp1360
sg83
g1345
sg76
(lp1361
g69
(g70
g71
NtRp1362
(dp1363
g74
(dp1364
g82
I4
ssg83
g1358
sg76
(lp1365
S'8000'
p1366
asbasbasbag69
(g85
g71
NtRp1367
(dp1368
g74
(dp1369
sg83
g673
sg76
(lp1370
g69
(g90
g71
NtRp1371
(dp1372
g74
(dp1373
g94
g95
ssg83
g1367
sg76
(lp1374
S'server_protocol'
p1375
asbag69
(g90
g71
NtRp1376
(dp1377
g74
(dp1378
g101
g102
ssg83
g1367
sg76
(lp1379
S':'
asbag69
(g90
g71
NtRp1380
(dp1381
g74
(dp1382
sg83
g1367
sg76
(lp1383
g69
(g70
g71
NtRp1384
(dp1385
g74
(dp1386
g82
I4
ssg83
g1380
sg76
(lp1387
S'HTTP/1.1'
p1388
asbasbasbag69
(g85
g71
NtRp1389
(dp1390
g74
(dp1391
sg83
g673
sg76
(lp1392
g69
(g90
g71
NtRp1393
(dp1394
g74
(dp1395
g94
g95
ssg83
g1389
sg76
(lp1396
S'server_software'
p1397
asbag69
(g90
g71
NtRp1398
(dp1399
g74
(dp1400
g101
g102
ssg83
g1389
sg76
(lp1401
S':'
asbag69
(g90
g71
NtRp1402
(dp1403
g74
(dp1404
sg83
g1389
sg76
(lp1405
g69
(g70
g71
NtRp1406
(dp1407
g74
(dp1408
g82
I4
ssg83
g1402
sg76
(lp1409
S'Rocket 1.2.6'
p1410
asbasbasbag69
(g85
g71
NtRp1411
(dp1412
g74
(dp1413
sg83
g673
sg76
(lp1414
g69
(g90
g71
NtRp1415
(dp1416
g74
(dp1417
g94
g95
ssg83
g1411
sg76
(lp1418
S'web2py_original_uri'
p1419
asbag69
(g90
g71
NtRp1420
(dp1421
g74
(dp1422
g101
g102
ssg83
g1411
sg76
(lp1423
S':'
asbag69
(g90
g71
NtRp1424
(dp1425
g74
(dp1426
sg83
g1411
sg76
(lp1427
g69
(g70
g71
NtRp1428
(dp1429
g74
(dp1430
g82
I4
ssg83
g1424
sg76
(lp1431
g1193
asbasbasbag69
(g85
g71
NtRp1432
(dp1433
g74
(dp1434
sg83
g673
sg76
(lp1435
g69
(g90
g71
NtRp1436
(dp1437
g74
(dp1438
g94
g95
ssg83
g1432
sg76
(lp1439
S'web2py_path'
p1440
asbag69
(g90
g71
NtRp1441
(dp1442
g74
(dp1443
g101
g102
ssg83
g1432
sg76
(lp1444
S':'
asbag69
(g90
g71
NtRp1445
(dp1446
g74
(dp1447
sg83
g1432
sg76
(lp1448
g69
(g70
g71
NtRp1449
(dp1450
g74
(dp1451
g82
I4
ssg83
g1445
sg76
(lp1452
g720
asbasbasbag69
(g85
g71
NtRp1453
(dp1454
g74
(dp1455
sg83
g673
sg76
(lp1456
g69
(g90
g71
NtRp1457
(dp1458
g74
(dp1459
g94
g95
ssg83
g1453
sg76
(lp1460
S'web2py_version'
p1461
asbag69
(g90
g71
NtRp1462
(dp1463
g74
(dp1464
g101
g102
ssg83
g1453
sg76
(lp1465
S':'
asbag69
(g90
g71
NtRp1466
(dp1467
g74
(dp1468
sg83
g1453
sg76
(lp1469
g69
(g70
g71
NtRp1470
(dp1471
g74
(dp1472
g82
I4
ssg83
g1466
sg76
(lp1473
g69
(g78
g71
NtRp1474
(dp1475
g74
(dp1476
g82
I3
ssg83
Nsg76
(lp1477
g69
(g85
g71
NtRp1478
(dp1479
g74
(dp1480
sg83
g1474
sg76
(lp1481
g69
(g90
g71
NtRp1482
(dp1483
g74
(dp1484
sg83
g1478
sg76
(lp1485
g69
(g70
g71
NtRp1486
(dp1487
g74
(dp1488
g82
I3
ssg83
g1482
sg76
(lp1489
S'2'
asbasbasbag69
(g85
g71
NtRp1490
(dp1491
g74
(dp1492
sg83
g1474
sg76
(lp1493
g69
(g90
g71
NtRp1494
(dp1495
g74
(dp1496
sg83
g1490
sg76
(lp1497
g69
(g70
g71
NtRp1498
(dp1499
g74
(dp1500
g82
I3
ssg83
g1494
sg76
(lp1501
S'3'
asbasbasbag69
(g85
g71
NtRp1502
(dp1503
g74
(dp1504
sg83
g1474
sg76
(lp1505
g69
(g90
g71
NtRp1506
(dp1507
g74
(dp1508
sg83
g1502
sg76
(lp1509
g69
(g70
g71
NtRp1510
(dp1511
g74
(dp1512
g82
I3
ssg83
g1506
sg76
(lp1513
S'2'
asbasbasbag69
(g85
g71
NtRp1514
(dp1515
g74
(dp1516
sg83
g1474
sg76
(lp1517
g69
(g90
g71
NtRp1518
(dp1519
g74
(dp1520
sg83
g1514
sg76
(lp1521
g69
(g70
g71
NtRp1522
(dp1523
g74
(dp1524
g82
I3
ssg83
g1518
sg76
(lp1525
S'datetime.datetime(2012, 12, 17, 15, 3, 30)'
p1526
asbasbasbag69
(g85
g71
NtRp1527
(dp1528
g74
(dp1529
sg83
g1474
sg76
(lp1530
g69
(g90
g71
NtRp1531
(dp1532
g74
(dp1533
sg83
g1527
sg76
(lp1534
g69
(g70
g71
NtRp1535
(dp1536
g74
(dp1537
g82
I3
ssg83
g1531
sg76
(lp1538
S'stable'
p1539
asbasbasbasbasbasbasbag69
(g85
g71
NtRp1540
(dp1541
g74
(dp1542
sg83
g673
sg76
(lp1543
g69
(g90
g71
NtRp1544
(dp1545
g74
(dp1546
g94
g95
ssg83
g1540
sg76
(lp1547
S'wsgi_errors'
p1548
asbag69
(g90
g71
NtRp1549
(dp1550
g74
(dp1551
g101
g102
ssg83
g1540
sg76
(lp1552
S':'
asbag69
(g90
g71
NtRp1553
(dp1554
g74
(dp1555
sg83
g1540
sg76
(lp1556
g69
(g70
g71
NtRp1557
(dp1558
g74
(dp1559
g82
I4
ssg83
g1553
sg76
(lp1560
S"<open file '<stderr>', mode 'w' at 0x7f3308ed3270>"
p1561
asbasbasbag69
(g85
g71
NtRp1562
(dp1563
g74
(dp1564
sg83
g673
sg76
(lp1565
g69
(g90
g71
NtRp1566
(dp1567
g74
(dp1568
g94
g95
ssg83
g1562
sg76
(lp1569
S'wsgi_file_wrapper'
p1570
asbag69
(g90
g71
NtRp1571
(dp1572
g74
(dp1573
g101
g102
ssg83
g1562
sg76
(lp1574
S':'
asbag69
(g90
g71
NtRp1575
(dp1576
g74
(dp1577
sg83
g1562
sg76
(lp1578
g69
(g70
g71
NtRp1579
(dp1580
g74
(dp1581
g82
I4
ssg83
g1575
sg76
(lp1582
S'<class wsgiref.util.FileWrapper at 0x2194598>'
p1583
asbasbasbag69
(g85
g71
NtRp1584
(dp1585
g74
(dp1586
sg83
g673
sg76
(lp1587
g69
(g90
g71
NtRp1588
(dp1589
g74
(dp1590
g94
g95
ssg83
g1584
sg76
(lp1591
S'wsgi_input'
p1592
asbag69
(g90
g71
NtRp1593
(dp1594
g74
(dp1595
g101
g102
ssg83
g1584
sg76
(lp1596
S':'
asbag69
(g90
g71
NtRp1597
(dp1598
g74
(dp1599
sg83
g1584
sg76
(lp1600
g69
(g70
g71
NtRp1601
(dp1602
g74
(dp1603
g82
I4
ssg83
g1597
sg76
(lp1604
S'<socket._fileobject object at 0x7f32e4384dd0>'
p1605
asbasbasbag69
(g85
g71
NtRp1606
(dp1607
g74
(dp1608
sg83
g673
sg76
(lp1609
g69
(g90
g71
NtRp1610
(dp1611
g74
(dp1612
g94
g95
ssg83
g1606
sg76
(lp1613
S'wsgi_multiprocess'
p1614
asbag69
(g90
g71
NtRp1615
(dp1616
g74
(dp1617
g101
g102
ssg83
g1606
sg76
(lp1618
S':'
asbag69
(g90
g71
NtRp1619
(dp1620
g74
(dp1621
sg83
g1606
sg76
(lp1622
g69
(g70
g71
NtRp1623
(dp1624
g74
(dp1625
g82
I4
ssg83
g1619
sg76
(lp1626
g112
asbasbasbag69
(g85
g71
NtRp1627
(dp1628
g74
(dp1629
sg83
g673
sg76
(lp1630
g69
(g90
g71
NtRp1631
(dp1632
g74
(dp1633
g94
g95
ssg83
g1627
sg76
(lp1634
S'wsgi_multithread'
p1635
asbag69
(g90
g71
NtRp1636
(dp1637
g74
(dp1638
g101
g102
ssg83
g1627
sg76
(lp1639
S':'
asbag69
(g90
g71
NtRp1640
(dp1641
g74
(dp1642
sg83
g1627
sg76
(lp1643
g69
(g70
g71
NtRp1644
(dp1645
g74
(dp1646
g82
I4
ssg83
g1640
sg76
(lp1647
S'True'
p1648
asbasbasbag69
(g85
g71
NtRp1649
(dp1650
g74
(dp1651
sg83
g673
sg76
(lp1652
g69
(g90
g71
NtRp1653
(dp1654
g74
(dp1655
g94
g95
ssg83
g1649
sg76
(lp1656
S'wsgi_run_once'
p1657
asbag69
(g90
g71
NtRp1658
(dp1659
g74
(dp1660
g101
g102
ssg83
g1649
sg76
(lp1661
S':'
asbag69
(g90
g71
NtRp1662
(dp1663
g74
(dp1664
sg83
g1649
sg76
(lp1665
g69
(g70
g71
NtRp1666
(dp1667
g74
(dp1668
g82
I4
ssg83
g1662
sg76
(lp1669
g112
asbasbasbag69
(g85
g71
NtRp1670
(dp1671
g74
(dp1672
sg83
g673
sg76
(lp1673
g69
(g90
g71
NtRp1674
(dp1675
g74
(dp1676
g94
g95
ssg83
g1670
sg76
(lp1677
S'wsgi_url_scheme'
p1678
asbag69
(g90
g71
NtRp1679
(dp1680
g74
(dp1681
g101
g102
ssg83
g1670
sg76
(lp1682
S':'
asbag69
(g90
g71
NtRp1683
(dp1684
g74
(dp1685
sg83
g1670
sg76
(lp1686
g69
(g70
g71
NtRp1687
(dp1688
g74
(dp1689
g82
I4
ssg83
g1683
sg76
(lp1690
S'http'
p1691
asbasbasbag69
(g85
g71
NtRp1692
(dp1693
g74
(dp1694
sg83
g673
sg76
(lp1695
g69
(g90
g71
NtRp1696
(dp1697
g74
(dp1698
g94
g95
ssg83
g1692
sg76
(lp1699
S'wsgi_version'
p1700
asbag69
(g90
g71
NtRp1701
(dp1702
g74
(dp1703
g101
g102
ssg83
g1692
sg76
(lp1704
S':'
asbag69
(g90
g71
NtRp1705
(dp1706
g74
(dp1707
sg83
g1692
sg76
(lp1708
g69
(g70
g71
NtRp1709
(dp1710
g74
(dp1711
g82
I4
ssg83
g1705
sg76
(lp1712
g69
(g78
g71
NtRp1713
(dp1714
g74
(dp1715
g82
I3
ssg83
Nsg76
(lp1716
g69
(g85
g71
NtRp1717
(dp1718
g74
(dp1719
sg83
g1713
sg76
(lp1720
g69
(g90
g71
NtRp1721
(dp1722
g74
(dp1723
sg83
g1717
sg76
(lp1724
g69
(g70
g71
NtRp1725
(dp1726
g74
(dp1727
g82
I3
ssg83
g1721
sg76
(lp1728
S'1'
asbasbasbag69
(g85
g71
NtRp1729
(dp1730
g74
(dp1731
sg83
g1713
sg76
(lp1732
g69
(g90
g71
NtRp1733
(dp1734
g74
(dp1735
sg83
g1729
sg76
(lp1736
g69
(g70
g71
NtRp1737
(dp1738
g74
(dp1739
g82
I3
ssg83
g1733
sg76
(lp1740
S'0'
asbasbasbasbasbasbasbasbasbasbasbag69
(g85
g71
NtRp1741
(dp1742
g74
(dp1743
sg83
g79
sg76
(lp1744
g69
(g90
g71
NtRp1745
(dp1746
g74
(dp1747
g94
g95
ssg83
g1741
sg76
(lp1748
S'extension'
p1749
asbag69
(g90
g71
NtRp1750
(dp1751
g74
(dp1752
g101
g102
ssg83
g1741
sg76
(lp1753
S':'
asbag69
(g90
g71
NtRp1754
(dp1755
g74
(dp1756
sg83
g1741
sg76
(lp1757
g69
(g70
g71
NtRp1758
(dp1759
g74
(dp1760
g82
I5
ssg83
g1754
sg76
(lp1761
S'html'
p1762
asbasbasbag69
(g85
g71
NtRp1763
(dp1764
g74
(dp1765
sg83
g79
sg76
(lp1766
g69
(g90
g71
NtRp1767
(dp1768
g74
(dp1769
g94
g95
ssg83
g1763
sg76
(lp1770
S'folder'
p1771
asbag69
(g90
g71
NtRp1772
(dp1773
g74
(dp1774
g101
g102
ssg83
g1763
sg76
(lp1775
S':'
asbag69
(g90
g71
NtRp1776
(dp1777
g74
(dp1778
sg83
g1763
sg76
(lp1779
g69
(g70
g71
NtRp1780
(dp1781
g74
(dp1782
g82
I5
ssg83
g1776
sg76
(lp1783
S'/var/www/conferencia/applications/projeto/'
p1784
asbasbasbag69
(g85
g71
NtRp1785
(dp1786
g74
(dp1787
sg83
g79
sg76
(lp1788
g69
(g90
g71
NtRp1789
(dp1790
g74
(dp1791
g94
g95
ssg83
g1785
sg76
(lp1792
S'function'
p1793
asbag69
(g90
g71
NtRp1794
(dp1795
g74
(dp1796
g101
g102
ssg83
g1785
sg76
(lp1797
S':'
asbag69
(g90
g71
NtRp1798
(dp1799
g74
(dp1800
sg83
g1785
sg76
(lp1801
g69
(g70
g71
NtRp1802
(dp1803
g74
(dp1804
g82
I5
ssg83
g1798
sg76
(lp1805
S'show_cliente'
p1806
asbasbasbag69
(g85
g71
NtRp1807
(dp1808
g74
(dp1809
sg83
g79
sg76
(lp1810
g69
(g90
g71
NtRp1811
(dp1812
g74
(dp1813
g94
g95
ssg83
g1807
sg76
(lp1814
S'get_vars'
p1815
asbag69
(g90
g71
NtRp1816
(dp1817
g74
(dp1818
g101
g102
ssg83
g1807
sg76
(lp1819
S':'
asbag69
(g90
g71
NtRp1820
(dp1821
g74
(dp1822
sg83
g1807
sg76
(lp1823
g69
(g70
g71
NtRp1824
(dp1825
g74
(dp1826
g82
I5
ssg83
g1820
sg76
(lp1827
g69
(g78
g71
NtRp1828
(dp1829
g74
(dp1830
g82
I4
ssg83
Nsg76
(lp1831
sbasbasbasbag69
(g85
g71
NtRp1832
(dp1833
g74
(dp1834
sg83
g79
sg76
(lp1835
g69
(g90
g71
NtRp1836
(dp1837
g74
(dp1838
g94
g95
ssg83
g1832
sg76
(lp1839
S'global_settings'
p1840
asbag69
(g90
g71
NtRp1841
(dp1842
g74
(dp1843
g101
g102
ssg83
g1832
sg76
(lp1844
S':'
asbag69
(g90
g71
NtRp1845
(dp1846
g74
(dp1847
sg83
g1832
sg76
(lp1848
g69
(g70
g71
NtRp1849
(dp1850
g74
(dp1851
g82
I5
ssg83
g1845
sg76
(lp1852
g69
(g78
g71
NtRp1853
(dp1854
g74
(dp1855
g82
I4
ssg83
Nsg76
(lp1856
g69
(g85
g71
NtRp1857
(dp1858
g74
(dp1859
sg83
g1853
sg76
(lp1860
g69
(g90
g71
NtRp1861
(dp1862
g74
(dp1863
g94
g95
ssg83
g1857
sg76
(lp1864
g685
asbag69
(g90
g71
NtRp1865
(dp1866
g74
(dp1867
g101
g102
ssg83
g1857
sg76
(lp1868
S':'
asbag69
(g90
g71
NtRp1869
(dp1870
g74
(dp1871
sg83
g1857
sg76
(lp1872
g69
(g70
g71
NtRp1873
(dp1874
g74
(dp1875
g82
I4
ssg83
g1869
sg76
(lp1876
S"set(['/var/www/conferencia/applications/admin/', '/var/www/conferencia/applications/projeto/'])"
p1877
asbasbasbag69
(g85
g71
NtRp1878
(dp1879
g74
(dp1880
sg83
g1853
sg76
(lp1881
g69
(g90
g71
NtRp1882
(dp1883
g74
(dp1884
g94
g95
ssg83
g1878
sg76
(lp1885
g707
asbag69
(g90
g71
NtRp1886
(dp1887
g74
(dp1888
g101
g102
ssg83
g1878
sg76
(lp1889
S':'
asbag69
(g90
g71
NtRp1890
(dp1891
g74
(dp1892
sg83
g1878
sg76
(lp1893
g69
(g70
g71
NtRp1894
(dp1895
g74
(dp1896
g82
I4
ssg83
g1890
sg76
(lp1897
g720
asbasbasbag69
(g85
g71
NtRp1898
(dp1899
g74
(dp1900
sg83
g1853
sg76
(lp1901
g69
(g90
g71
NtRp1902
(dp1903
g74
(dp1904
g94
g95
ssg83
g1898
sg76
(lp1905
g729
asbag69
(g90
g71
NtRp1906
(dp1907
g74
(dp1908
g101
g102
ssg83
g1898
sg76
(lp1909
S':'
asbag69
(g90
g71
NtRp1910
(dp1911
g74
(dp1912
sg83
g1898
sg76
(lp1913
g69
(g70
g71
NtRp1914
(dp1915
g74
(dp1916
g82
I4
ssg83
g1910
sg76
(lp1917
g69
(g78
g71
NtRp1918
(dp1919
g74
(dp1920
g82
I3
ssg83
Nsg76
(lp1921
sbasbasbasbag69
(g85
g71
NtRp1922
(dp1923
g74
(dp1924
sg83
g1853
sg76
(lp1925
g69
(g90
g71
NtRp1926
(dp1927
g74
(dp1928
g94
g95
ssg83
g1922
sg76
(lp1929
g754
asbag69
(g90
g71
NtRp1930
(dp1931
g74
(dp1932
g101
g102
ssg83
g1922
sg76
(lp1933
S':'
asbag69
(g90
g71
NtRp1934
(dp1935
g74
(dp1936
sg83
g1922
sg76
(lp1937
g69
(g70
g71
NtRp1938
(dp1939
g74
(dp1940
g82
I4
ssg83
g1934
sg76
(lp1941
S"<Values at 0x221c248: {'verbose': False, 'ip': '127.0.0.1', 'with_scheduler': False, 'ips': [], 'shutdown_timeout': 5, 'taskbar': False, 'port': 8000, 'maxthreads': None, 'softcron': False, 'server_name': 'fernando-workstation', 'bpython': False, 'nogui': False, 'pid_filename': 'httpserver.pid', 'extcron': False, 'runcron': False, 'run_system_tests': False, 'test': None, 'folder': '/var/www/conferencia', 'config': '', 'minthreads': None, 'winservice': '', 'shell': None, 'run': '', 'log_filename': 'httpserver.log', 'debuglevel': 30, 'args': [''], 'socket_timeout': 5, 'ssl_ca_certificate': None, 'scheduler': None, 'profiler_filename': None, 'ssl_private_key': '', 'scheduler_groups': None, 'password': '123456', 'request_queue_size': 5, 'ssl_certificate': '', 'cronjob': False, 'numthreads': None, 'quiet': False, 'interfaces': None, 'import_models': False, 'timeout': 10, 'plain': False, 'nobanner': False}>"
p1942
asbasbasbag69
(g85
g71
NtRp1943
(dp1944
g74
(dp1945
sg83
g1853
sg76
(lp1946
g69
(g90
g71
NtRp1947
(dp1948
g74
(dp1949
g94
g95
ssg83
g1943
sg76
(lp1950
g776
asbag69
(g90
g71
NtRp1951
(dp1952
g74
(dp1953
g101
g102
ssg83
g1943
sg76
(lp1954
S':'
asbag69
(g90
g71
NtRp1955
(dp1956
g74
(dp1957
sg83
g1943
sg76
(lp1958
g69
(g70
g71
NtRp1959
(dp1960
g74
(dp1961
g82
I4
ssg83
g1955
sg76
(lp1962
S'set([])'
p1963
asbasbasbag69
(g85
g71
NtRp1964
(dp1965
g74
(dp1966
sg83
g1853
sg76
(lp1967
g69
(g90
g71
NtRp1968
(dp1969
g74
(dp1970
g94
g95
ssg83
g1964
sg76
(lp1971
g798
asbag69
(g90
g71
NtRp1972
(dp1973
g74
(dp1974
g101
g102
ssg83
g1964
sg76
(lp1975
S':'
asbag69
(g90
g71
NtRp1976
(dp1977
g74
(dp1978
sg83
g1964
sg76
(lp1979
g69
(g70
g71
NtRp1980
(dp1981
g74
(dp1982
g82
I4
ssg83
g1976
sg76
(lp1983
g112
asbasbasbag69
(g85
g71
NtRp1984
(dp1985
g74
(dp1986
sg83
g1853
sg76
(lp1987
g69
(g90
g71
NtRp1988
(dp1989
g74
(dp1990
g94
g95
ssg83
g1984
sg76
(lp1991
g819
asbag69
(g90
g71
NtRp1992
(dp1993
g74
(dp1994
g101
g102
ssg83
g1984
sg76
(lp1995
S':'
asbag69
(g90
g71
NtRp1996
(dp1997
g74
(dp1998
sg83
g1984
sg76
(lp1999
g69
(g70
g71
NtRp2000
(dp2001
g74
(dp2002
g82
I4
ssg83
g1996
sg76
(lp2003
g832
asbasbasbag69
(g85
g71
NtRp2004
(dp2005
g74
(dp2006
sg83
g1853
sg76
(lp2007
g69
(g90
g71
NtRp2008
(dp2009
g74
(dp2010
g94
g95
ssg83
g2004
sg76
(lp2011
g1061
asbag69
(g90
g71
NtRp2012
(dp2013
g74
(dp2014
g101
g102
ssg83
g2004
sg76
(lp2015
S':'
asbag69
(g90
g71
NtRp2016
(dp2017
g74
(dp2018
sg83
g2004
sg76
(lp2019
g69
(g70
g71
NtRp2020
(dp2021
g74
(dp2022
g82
I4
ssg83
g2016
sg76
(lp2023
g112
asbasbasbag69
(g85
g71
NtRp2024
(dp2025
g74
(dp2026
sg83
g1853
sg76
(lp2027
g69
(g90
g71
NtRp2028
(dp2029
g74
(dp2030
g94
g95
ssg83
g2024
sg76
(lp2031
g1082
asbag69
(g90
g71
NtRp2032
(dp2033
g74
(dp2034
g101
g102
ssg83
g2024
sg76
(lp2035
S':'
asbag69
(g90
g71
NtRp2036
(dp2037
g74
(dp2038
sg83
g2024
sg76
(lp2039
g69
(g70
g71
NtRp2040
(dp2041
g74
(dp2042
g82
I4
ssg83
g2036
sg76
(lp2043
g112
asbasbasbag69
(g85
g71
NtRp2044
(dp2045
g74
(dp2046
sg83
g1853
sg76
(lp2047
g69
(g90
g71
NtRp2048
(dp2049
g74
(dp2050
g94
g95
ssg83
g2044
sg76
(lp2051
g1103
asbag69
(g90
g71
NtRp2052
(dp2053
g74
(dp2054
g101
g102
ssg83
g2044
sg76
(lp2055
S':'
asbag69
(g90
g71
NtRp2056
(dp2057
g74
(dp2058
sg83
g2044
sg76
(lp2059
g69
(g70
g71
NtRp2060
(dp2061
g74
(dp2062
g82
I4
ssg83
g2056
sg76
(lp2063
g69
(g78
g71
NtRp2064
(dp2065
g74
(dp2066
g82
I3
ssg83
Nsg76
(lp2067
g69
(g85
g71
NtRp2068
(dp2069
g74
(dp2070
sg83
g2064
sg76
(lp2071
g69
(g90
g71
NtRp2072
(dp2073
g74
(dp2074
sg83
g2068
sg76
(lp2075
g69
(g70
g71
NtRp2076
(dp2077
g74
(dp2078
g82
I3
ssg83
g2072
sg76
(lp2079
g1132
asbasbasbag69
(g85
g71
NtRp2080
(dp2081
g74
(dp2082
sg83
g2064
sg76
(lp2083
g69
(g90
g71
NtRp2084
(dp2085
g74
(dp2086
sg83
g2080
sg76
(lp2087
g69
(g70
g71
NtRp2088
(dp2089
g74
(dp2090
g82
I3
ssg83
g2084
sg76
(lp2091
g1145
asbasbasbag69
(g85
g71
NtRp2092
(dp2093
g74
(dp2094
sg83
g2064
sg76
(lp2095
g69
(g90
g71
NtRp2096
(dp2097
g74
(dp2098
sg83
g2092
sg76
(lp2099
g69
(g70
g71
NtRp2100
(dp2101
g74
(dp2102
g82
I3
ssg83
g2096
sg76
(lp2103
g1158
asbasbasbag69
(g85
g71
NtRp2104
(dp2105
g74
(dp2106
sg83
g2064
sg76
(lp2107
g69
(g90
g71
NtRp2108
(dp2109
g74
(dp2110
sg83
g2104
sg76
(lp2111
g69
(g70
g71
NtRp2112
(dp2113
g74
(dp2114
g82
I3
ssg83
g2108
sg76
(lp2115
g1171
asbasbasbasbasbasbasbag69
(g85
g71
NtRp2116
(dp2117
g74
(dp2118
sg83
g1853
sg76
(lp2119
g69
(g90
g71
NtRp2120
(dp2121
g74
(dp2122
g94
g95
ssg83
g2116
sg76
(lp2123
g1461
asbag69
(g90
g71
NtRp2124
(dp2125
g74
(dp2126
g101
g102
ssg83
g2116
sg76
(lp2127
S':'
asbag69
(g90
g71
NtRp2128
(dp2129
g74
(dp2130
sg83
g2116
sg76
(lp2131
g69
(g70
g71
NtRp2132
(dp2133
g74
(dp2134
g82
I4
ssg83
g2128
sg76
(lp2135
g69
(g78
g71
NtRp2136
(dp2137
g74
(dp2138
g82
I3
ssg83
Nsg76
(lp2139
g69
(g85
g71
NtRp2140
(dp2141
g74
(dp2142
sg83
g2136
sg76
(lp2143
g69
(g90
g71
NtRp2144
(dp2145
g74
(dp2146
sg83
g2140
sg76
(lp2147
g69
(g70
g71
NtRp2148
(dp2149
g74
(dp2150
g82
I3
ssg83
g2144
sg76
(lp2151
S'2'
asbasbasbag69
(g85
g71
NtRp2152
(dp2153
g74
(dp2154
sg83
g2136
sg76
(lp2155
g69
(g90
g71
NtRp2156
(dp2157
g74
(dp2158
sg83
g2152
sg76
(lp2159
g69
(g70
g71
NtRp2160
(dp2161
g74
(dp2162
g82
I3
ssg83
g2156
sg76
(lp2163
S'3'
asbasbasbag69
(g85
g71
NtRp2164
(dp2165
g74
(dp2166
sg83
g2136
sg76
(lp2167
g69
(g90
g71
NtRp2168
(dp2169
g74
(dp2170
sg83
g2164
sg76
(lp2171
g69
(g70
g71
NtRp2172
(dp2173
g74
(dp2174
g82
I3
ssg83
g2168
sg76
(lp2175
S'2'
asbasbasbag69
(g85
g71
NtRp2176
(dp2177
g74
(dp2178
sg83
g2136
sg76
(lp2179
g69
(g90
g71
NtRp2180
(dp2181
g74
(dp2182
sg83
g2176
sg76
(lp2183
g69
(g70
g71
NtRp2184
(dp2185
g74
(dp2186
g82
I3
ssg83
g2180
sg76
(lp2187
S'datetime.datetime(2012, 12, 17, 15, 3, 30)'
p2188
asbasbasbag69
(g85
g71
NtRp2189
(dp2190
g74
(dp2191
sg83
g2136
sg76
(lp2192
g69
(g90
g71
NtRp2193
(dp2194
g74
(dp2195
sg83
g2189
sg76
(lp2196
g69
(g70
g71
NtRp2197
(dp2198
g74
(dp2199
g82
I3
ssg83
g2193
sg76
(lp2200
g1539
asbasbasbasbasbasbasbasbasbasbasbag69
(g85
g71
NtRp2201
(dp2202
g74
(dp2203
sg83
g79
sg76
(lp2204
g69
(g90
g71
NtRp2205
(dp2206
g74
(dp2207
g94
g95
ssg83
g2201
sg76
(lp2208
S'is_https'
p2209
asbag69
(g90
g71
NtRp2210
(dp2211
g74
(dp2212
g101
g102
ssg83
g2201
sg76
(lp2213
S':'
asbag69
(g90
g71
NtRp2214
(dp2215
g74
(dp2216
sg83
g2201
sg76
(lp2217
g69
(g70
g71
NtRp2218
(dp2219
g74
(dp2220
g82
I5
ssg83
g2214
sg76
(lp2221
g112
asbasbasbag69
(g85
g71
NtRp2222
(dp2223
g74
(dp2224
sg83
g79
sg76
(lp2225
g69
(g90
g71
NtRp2226
(dp2227
g74
(dp2228
g94
g95
ssg83
g2222
sg76
(lp2229
S'is_local'
p2230
asbag69
(g90
g71
NtRp2231
(dp2232
g74
(dp2233
g101
g102
ssg83
g2222
sg76
(lp2234
S':'
asbag69
(g90
g71
NtRp2235
(dp2236
g74
(dp2237
sg83
g2222
sg76
(lp2238
g69
(g70
g71
NtRp2239
(dp2240
g74
(dp2241
g82
I5
ssg83
g2235
sg76
(lp2242
g1648
asbasbasbag69
(g85
g71
NtRp2243
(dp2244
g74
(dp2245
sg83
g79
sg76
(lp2246
g69
(g90
g71
NtRp2247
(dp2248
g74
(dp2249
g94
g95
ssg83
g2243
sg76
(lp2250
S'is_restful'
p2251
asbag69
(g90
g71
NtRp2252
(dp2253
g74
(dp2254
g101
g102
ssg83
g2243
sg76
(lp2255
S':'
asbag69
(g90
g71
NtRp2256
(dp2257
g74
(dp2258
sg83
g2243
sg76
(lp2259
g69
(g70
g71
NtRp2260
(dp2261
g74
(dp2262
g82
I5
ssg83
g2256
sg76
(lp2263
g112
asbasbasbag69
(g85
g71
NtRp2264
(dp2265
g74
(dp2266
sg83
g79
sg76
(lp2267
g69
(g90
g71
NtRp2268
(dp2269
g74
(dp2270
g94
g95
ssg83
g2264
sg76
(lp2271
S'now'
p2272
asbag69
(g90
g71
NtRp2273
(dp2274
g74
(dp2275
g101
g102
ssg83
g2264
sg76
(lp2276
S':'
asbag69
(g90
g71
NtRp2277
(dp2278
g74
(dp2279
sg83
g2264
sg76
(lp2280
g69
(g70
g71
NtRp2281
(dp2282
g74
(dp2283
g82
I5
ssg83
g2277
sg76
(lp2284
S'datetime.datetime(2013, 4, 2, 18, 44, 39, 801126)'
p2285
asbasbasbag69
(g85
g71
NtRp2286
(dp2287
g74
(dp2288
sg83
g79
sg76
(lp2289
g69
(g90
g71
NtRp2290
(dp2291
g74
(dp2292
g94
g95
ssg83
g2286
sg76
(lp2293
S'post_vars'
p2294
asbag69
(g90
g71
NtRp2295
(dp2296
g74
(dp2297
g101
g102
ssg83
g2286
sg76
(lp2298
S':'
asbag69
(g90
g71
NtRp2299
(dp2300
g74
(dp2301
sg83
g2286
sg76
(lp2302
g69
(g70
g71
NtRp2303
(dp2304
g74
(dp2305
g82
I5
ssg83
g2299
sg76
(lp2306
g69
(g78
g71
NtRp2307
(dp2308
g74
(dp2309
g82
I4
ssg83
Nsg76
(lp2310
sbasbasbasbag69
(g85
g71
NtRp2311
(dp2312
g74
(dp2313
sg83
g79
sg76
(lp2314
g69
(g90
g71
NtRp2315
(dp2316
g74
(dp2317
g94
g95
ssg83
g2311
sg76
(lp2318
S'url'
p2319
asbag69
(g90
g71
NtRp2320
(dp2321
g74
(dp2322
g101
g102
ssg83
g2311
sg76
(lp2323
S':'
asbag69
(g90
g71
NtRp2324
(dp2325
g74
(dp2326
sg83
g2311
sg76
(lp2327
g69
(g70
g71
NtRp2328
(dp2329
g74
(dp2330
g82
I5
ssg83
g2324
sg76
(lp2331
g1193
asbasbasbag69
(g85
g71
NtRp2332
(dp2333
g74
(dp2334
sg83
g79
sg76
(lp2335
g69
(g90
g71
NtRp2336
(dp2337
g74
(dp2338
g94
g95
ssg83
g2332
sg76
(lp2339
S'utcnow'
p2340
asbag69
(g90
g71
NtRp2341
(dp2342
g74
(dp2343
g101
g102
ssg83
g2332
sg76
(lp2344
S':'
asbag69
(g90
g71
NtRp2345
(dp2346
g74
(dp2347
sg83
g2332
sg76
(lp2348
g69
(g70
g71
NtRp2349
(dp2350
g74
(dp2351
g82
I5
ssg83
g2345
sg76
(lp2352
S'datetime.datetime(2013, 4, 2, 21, 44, 39, 801177)'
p2353
asbasbasbag69
(g85
g71
NtRp2354
(dp2355
g74
(dp2356
sg83
g79
sg76
(lp2357
g69
(g90
g71
NtRp2358
(dp2359
g74
(dp2360
g94
g95
ssg83
g2354
sg76
(lp2361
S'uuid'
p2362
asbag69
(g90
g71
NtRp2363
(dp2364
g74
(dp2365
g101
g102
ssg83
g2354
sg76
(lp2366
S':'
asbag69
(g90
g71
NtRp2367
(dp2368
g74
(dp2369
sg83
g2354
sg76
(lp2370
g69
(g70
g71
NtRp2371
(dp2372
g74
(dp2373
g82
I5
ssg83
g2367
sg76
(lp2374
S'projeto/127.0.0.1.2013-04-02.18-44-39.3cb80001-fd44-417c-8ebe-681eea2bd85d'
p2375
asbasbasbag69
(g85
g71
NtRp2376
(dp2377
g74
(dp2378
sg83
g79
sg76
(lp2379
g69
(g90
g71
NtRp2380
(dp2381
g74
(dp2382
g94
g95
ssg83
g2376
sg76
(lp2383
S'vars'
p2384
asbag69
(g90
g71
NtRp2385
(dp2386
g74
(dp2387
g101
g102
ssg83
g2376
sg76
(lp2388
S':'
asbag69
(g90
g71
NtRp2389
(dp2390
g74
(dp2391
sg83
g2376
sg76
(lp2392
g69
(g70
g71
NtRp2393
(dp2394
g74
(dp2395
g82
I5
ssg83
g2389
sg76
(lp2396
g69
(g78
g71
NtRp2397
(dp2398
g74
(dp2399
g82
I4
ssg83
Nsg76
(lp2400
sbasbasbasbag69
(g85
g71
NtRp2401
(dp2402
g74
(dp2403
sg83
g79
sg76
(lp2404
g69
(g90
g71
NtRp2405
(dp2406
g74
(dp2407
g94
g95
ssg83
g2401
sg76
(lp2408
S'wsgi'
p2409
asbag69
(g90
g71
NtRp2410
(dp2411
g74
(dp2412
g101
g102
ssg83
g2401
sg76
(lp2413
S':'
asbag69
(g90
g71
NtRp2414
(dp2415
g74
(dp2416
sg83
g2401
sg76
(lp2417
g69
(g70
g71
NtRp2418
(dp2419
g74
(dp2420
g82
I5
ssg83
g2414
sg76
(lp2421
g69
(g78
g71
NtRp2422
(dp2423
g74
(dp2424
g82
I4
ssg83
Nsg76
(lp2425
g69
(g85
g71
NtRp2426
(dp2427
g74
(dp2428
sg83
g2422
sg76
(lp2429
g69
(g90
g71
NtRp2430
(dp2431
g74
(dp2432
g94
g95
ssg83
g2426
sg76
(lp2433
S'environ'
p2434
asbag69
(g90
g71
NtRp2435
(dp2436
g74
(dp2437
g101
g102
ssg83
g2426
sg76
(lp2438
S':'
asbag69
(g90
g71
NtRp2439
(dp2440
g74
(dp2441
sg83
g2426
sg76
(lp2442
g69
(g70
g71
NtRp2443
(dp2444
g74
(dp2445
g82
I4
ssg83
g2439
sg76
(lp2446
g69
(g78
g71
NtRp2447
(dp2448
g74
(dp2449
g82
I3
ssg83
Nsg76
(lp2450
g69
(g85
g71
NtRp2451
(dp2452
g74
(dp2453
sg83
g2447
sg76
(lp2454
g69
(g90
g71
NtRp2455
(dp2456
g74
(dp2457
g94
g95
ssg83
g2451
sg76
(lp2458
S'HTTP_ACCEPT'
p2459
asbag69
(g90
g71
NtRp2460
(dp2461
g74
(dp2462
g101
g102
ssg83
g2451
sg76
(lp2463
S':'
asbag69
(g90
g71
NtRp2464
(dp2465
g74
(dp2466
sg83
g2451
sg76
(lp2467
g69
(g70
g71
NtRp2468
(dp2469
g74
(dp2470
g82
I3
ssg83
g2464
sg76
(lp2471
g854
asbasbasbag69
(g85
g71
NtRp2472
(dp2473
g74
(dp2474
sg83
g2447
sg76
(lp2475
g69
(g90
g71
NtRp2476
(dp2477
g74
(dp2478
g94
g95
ssg83
g2472
sg76
(lp2479
S'HTTP_ACCEPT_CHARSET'
p2480
asbag69
(g90
g71
NtRp2481
(dp2482
g74
(dp2483
g101
g102
ssg83
g2472
sg76
(lp2484
S':'
asbag69
(g90
g71
NtRp2485
(dp2486
g74
(dp2487
sg83
g2472
sg76
(lp2488
g69
(g70
g71
NtRp2489
(dp2490
g74
(dp2491
g82
I3
ssg83
g2485
sg76
(lp2492
g876
asbasbasbag69
(g85
g71
NtRp2493
(dp2494
g74
(dp2495
sg83
g2447
sg76
(lp2496
g69
(g90
g71
NtRp2497
(dp2498
g74
(dp2499
g94
g95
ssg83
g2493
sg76
(lp2500
S'HTTP_ACCEPT_ENCODING'
p2501
asbag69
(g90
g71
NtRp2502
(dp2503
g74
(dp2504
g101
g102
ssg83
g2493
sg76
(lp2505
S':'
asbag69
(g90
g71
NtRp2506
(dp2507
g74
(dp2508
sg83
g2493
sg76
(lp2509
g69
(g70
g71
NtRp2510
(dp2511
g74
(dp2512
g82
I3
ssg83
g2506
sg76
(lp2513
g898
asbasbasbag69
(g85
g71
NtRp2514
(dp2515
g74
(dp2516
sg83
g2447
sg76
(lp2517
g69
(g90
g71
NtRp2518
(dp2519
g74
(dp2520
g94
g95
ssg83
g2514
sg76
(lp2521
S'HTTP_ACCEPT_LANGUAGE'
p2522
asbag69
(g90
g71
NtRp2523
(dp2524
g74
(dp2525
g101
g102
ssg83
g2514
sg76
(lp2526
S':'
asbag69
(g90
g71
NtRp2527
(dp2528
g74
(dp2529
sg83
g2514
sg76
(lp2530
g69
(g70
g71
NtRp2531
(dp2532
g74
(dp2533
g82
I3
ssg83
g2527
sg76
(lp2534
g920
asbasbasbag69
(g85
g71
NtRp2535
(dp2536
g74
(dp2537
sg83
g2447
sg76
(lp2538
g69
(g90
g71
NtRp2539
(dp2540
g74
(dp2541
g94
g95
ssg83
g2535
sg76
(lp2542
S'HTTP_CACHE_CONTROL'
p2543
asbag69
(g90
g71
NtRp2544
(dp2545
g74
(dp2546
g101
g102
ssg83
g2535
sg76
(lp2547
S':'
asbag69
(g90
g71
NtRp2548
(dp2549
g74
(dp2550
sg83
g2535
sg76
(lp2551
g69
(g70
g71
NtRp2552
(dp2553
g74
(dp2554
g82
I3
ssg83
g2548
sg76
(lp2555
g942
asbasbasbag69
(g85
g71
NtRp2556
(dp2557
g74
(dp2558
sg83
g2447
sg76
(lp2559
g69
(g90
g71
NtRp2560
(dp2561
g74
(dp2562
g94
g95
ssg83
g2556
sg76
(lp2563
S'HTTP_CONNECTION'
p2564
asbag69
(g90
g71
NtRp2565
(dp2566
g74
(dp2567
g101
g102
ssg83
g2556
sg76
(lp2568
S':'
asbag69
(g90
g71
NtRp2569
(dp2570
g74
(dp2571
sg83
g2556
sg76
(lp2572
g69
(g70
g71
NtRp2573
(dp2574
g74
(dp2575
g82
I3
ssg83
g2569
sg76
(lp2576
g964
asbasbasbag69
(g85
g71
NtRp2577
(dp2578
g74
(dp2579
sg83
g2447
sg76
(lp2580
g69
(g90
g71
NtRp2581
(dp2582
g74
(dp2583
g94
g95
ssg83
g2577
sg76
(lp2584
S'HTTP_COOKIE'
p2585
asbag69
(g90
g71
NtRp2586
(dp2587
g74
(dp2588
g101
g102
ssg83
g2577
sg76
(lp2589
S':'
asbag69
(g90
g71
NtRp2590
(dp2591
g74
(dp2592
sg83
g2577
sg76
(lp2593
g69
(g70
g71
NtRp2594
(dp2595
g74
(dp2596
g82
I3
ssg83
g2590
sg76
(lp2597
g986
asbasbasbag69
(g85
g71
NtRp2598
(dp2599
g74
(dp2600
sg83
g2447
sg76
(lp2601
g69
(g90
g71
NtRp2602
(dp2603
g74
(dp2604
g94
g95
ssg83
g2598
sg76
(lp2605
S'HTTP_HOST'
p2606
asbag69
(g90
g71
NtRp2607
(dp2608
g74
(dp2609
g101
g102
ssg83
g2598
sg76
(lp2610
S':'
asbag69
(g90
g71
NtRp2611
(dp2612
g74
(dp2613
sg83
g2598
sg76
(lp2614
g69
(g70
g71
NtRp2615
(dp2616
g74
(dp2617
g82
I3
ssg83
g2611
sg76
(lp2618
g1008
asbasbasbag69
(g85
g71
NtRp2619
(dp2620
g74
(dp2621
sg83
g2447
sg76
(lp2622
g69
(g90
g71
NtRp2623
(dp2624
g74
(dp2625
g94
g95
ssg83
g2619
sg76
(lp2626
S'HTTP_REFERER'
p2627
asbag69
(g90
g71
NtRp2628
(dp2629
g74
(dp2630
g101
g102
ssg83
g2619
sg76
(lp2631
S':'
asbag69
(g90
g71
NtRp2632
(dp2633
g74
(dp2634
sg83
g2619
sg76
(lp2635
g69
(g70
g71
NtRp2636
(dp2637
g74
(dp2638
g82
I3
ssg83
g2632
sg76
(lp2639
g1030
asbasbasbag69
(g85
g71
NtRp2640
(dp2641
g74
(dp2642
sg83
g2447
sg76
(lp2643
g69
(g90
g71
NtRp2644
(dp2645
g74
(dp2646
g94
g95
ssg83
g2640
sg76
(lp2647
S'HTTP_USER_AGENT'
p2648
asbag69
(g90
g71
NtRp2649
(dp2650
g74
(dp2651
g101
g102
ssg83
g2640
sg76
(lp2652
S':'
asbag69
(g90
g71
NtRp2653
(dp2654
g74
(dp2655
sg83
g2640
sg76
(lp2656
g69
(g70
g71
NtRp2657
(dp2658
g74
(dp2659
g82
I3
ssg83
g2653
sg76
(lp2660
g1052
asbasbasbag69
(g85
g71
NtRp2661
(dp2662
g74
(dp2663
sg83
g2447
sg76
(lp2664
g69
(g90
g71
NtRp2665
(dp2666
g74
(dp2667
g94
g95
ssg83
g2661
sg76
(lp2668
S'PATH_INFO'
p2669
asbag69
(g90
g71
NtRp2670
(dp2671
g74
(dp2672
g101
g102
ssg83
g2661
sg76
(lp2673
S':'
asbag69
(g90
g71
NtRp2674
(dp2675
g74
(dp2676
sg83
g2661
sg76
(lp2677
g69
(g70
g71
NtRp2678
(dp2679
g74
(dp2680
g82
I3
ssg83
g2674
sg76
(lp2681
g1193
asbasbasbag69
(g85
g71
NtRp2682
(dp2683
g74
(dp2684
sg83
g2447
sg76
(lp2685
g69
(g90
g71
NtRp2686
(dp2687
g74
(dp2688
g94
g95
ssg83
g2682
sg76
(lp2689
S'QUERY_STRING'
p2690
asbag69
(g90
g71
NtRp2691
(dp2692
g74
(dp2693
g101
g102
ssg83
g2682
sg76
(lp2694
S':'
asbag69
(g90
g71
NtRp2695
(dp2696
g74
(dp2697
sg83
g2682
sg76
(lp2698
g69
(g70
g71
NtRp2699
(dp2700
g74
(dp2701
g82
I3
ssg83
g2695
sg76
(lp2702
S''
asbasbasbag69
(g85
g71
NtRp2703
(dp2704
g74
(dp2705
sg83
g2447
sg76
(lp2706
g69
(g90
g71
NtRp2707
(dp2708
g74
(dp2709
g94
g95
ssg83
g2703
sg76
(lp2710
S'REMOTE_ADDR'
p2711
asbag69
(g90
g71
NtRp2712
(dp2713
g74
(dp2714
g101
g102
ssg83
g2703
sg76
(lp2715
S':'
asbag69
(g90
g71
NtRp2716
(dp2717
g74
(dp2718
sg83
g2703
sg76
(lp2719
g69
(g70
g71
NtRp2720
(dp2721
g74
(dp2722
g82
I3
ssg83
g2716
sg76
(lp2723
g224
asbasbasbag69
(g85
g71
NtRp2724
(dp2725
g74
(dp2726
sg83
g2447
sg76
(lp2727
g69
(g90
g71
NtRp2728
(dp2729
g74
(dp2730
g94
g95
ssg83
g2724
sg76
(lp2731
S'REMOTE_PORT'
p2732
asbag69
(g90
g71
NtRp2733
(dp2734
g74
(dp2735
g101
g102
ssg83
g2724
sg76
(lp2736
S':'
asbag69
(g90
g71
NtRp2737
(dp2738
g74
(dp2739
sg83
g2724
sg76
(lp2740
g69
(g70
g71
NtRp2741
(dp2742
g74
(dp2743
g82
I3
ssg83
g2737
sg76
(lp2744
g1257
asbasbasbag69
(g85
g71
NtRp2745
(dp2746
g74
(dp2747
sg83
g2447
sg76
(lp2748
g69
(g90
g71
NtRp2749
(dp2750
g74
(dp2751
g94
g95
ssg83
g2745
sg76
(lp2752
S'REQUEST_METHOD'
p2753
asbag69
(g90
g71
NtRp2754
(dp2755
g74
(dp2756
g101
g102
ssg83
g2745
sg76
(lp2757
S':'
asbag69
(g90
g71
NtRp2758
(dp2759
g74
(dp2760
sg83
g2745
sg76
(lp2761
g69
(g70
g71
NtRp2762
(dp2763
g74
(dp2764
g82
I3
ssg83
g2758
sg76
(lp2765
g1279
asbasbasbag69
(g85
g71
NtRp2766
(dp2767
g74
(dp2768
sg83
g2447
sg76
(lp2769
g69
(g90
g71
NtRp2770
(dp2771
g74
(dp2772
g94
g95
ssg83
g2766
sg76
(lp2773
S'REQUEST_URI'
p2774
asbag69
(g90
g71
NtRp2775
(dp2776
g74
(dp2777
g101
g102
ssg83
g2766
sg76
(lp2778
S':'
asbag69
(g90
g71
NtRp2779
(dp2780
g74
(dp2781
sg83
g2766
sg76
(lp2782
g69
(g70
g71
NtRp2783
(dp2784
g74
(dp2785
g82
I3
ssg83
g2779
sg76
(lp2786
g1301
asbasbasbag69
(g85
g71
NtRp2787
(dp2788
g74
(dp2789
sg83
g2447
sg76
(lp2790
g69
(g90
g71
NtRp2791
(dp2792
g74
(dp2793
g94
g95
ssg83
g2787
sg76
(lp2794
S'SCRIPT_NAME'
p2795
asbag69
(g90
g71
NtRp2796
(dp2797
g74
(dp2798
g101
g102
ssg83
g2787
sg76
(lp2799
S':'
asbag69
(g90
g71
NtRp2800
(dp2801
g74
(dp2802
sg83
g2787
sg76
(lp2803
g69
(g70
g71
NtRp2804
(dp2805
g74
(dp2806
g82
I3
ssg83
g2800
sg76
(lp2807
S''
asbasbasbag69
(g85
g71
NtRp2808
(dp2809
g74
(dp2810
sg83
g2447
sg76
(lp2811
g69
(g90
g71
NtRp2812
(dp2813
g74
(dp2814
g94
g95
ssg83
g2808
sg76
(lp2815
S'SERVER_NAME'
p2816
asbag69
(g90
g71
NtRp2817
(dp2818
g74
(dp2819
g101
g102
ssg83
g2808
sg76
(lp2820
S':'
asbag69
(g90
g71
NtRp2821
(dp2822
g74
(dp2823
sg83
g2808
sg76
(lp2824
g69
(g70
g71
NtRp2825
(dp2826
g74
(dp2827
g82
I3
ssg83
g2821
sg76
(lp2828
g1344
asbasbasbag69
(g85
g71
NtRp2829
(dp2830
g74
(dp2831
sg83
g2447
sg76
(lp2832
g69
(g90
g71
NtRp2833
(dp2834
g74
(dp2835
g94
g95
ssg83
g2829
sg76
(lp2836
S'SERVER_PORT'
p2837
asbag69
(g90
g71
NtRp2838
(dp2839
g74
(dp2840
g101
g102
ssg83
g2829
sg76
(lp2841
S':'
asbag69
(g90
g71
NtRp2842
(dp2843
g74
(dp2844
sg83
g2829
sg76
(lp2845
g69
(g70
g71
NtRp2846
(dp2847
g74
(dp2848
g82
I3
ssg83
g2842
sg76
(lp2849
g1366
asbasbasbag69
(g85
g71
NtRp2850
(dp2851
g74
(dp2852
sg83
g2447
sg76
(lp2853
g69
(g90
g71
NtRp2854
(dp2855
g74
(dp2856
g94
g95
ssg83
g2850
sg76
(lp2857
S'SERVER_PROTOCOL'
p2858
asbag69
(g90
g71
NtRp2859
(dp2860
g74
(dp2861
g101
g102
ssg83
g2850
sg76
(lp2862
S':'
asbag69
(g90
g71
NtRp2863
(dp2864
g74
(dp2865
sg83
g2850
sg76
(lp2866
g69
(g70
g71
NtRp2867
(dp2868
g74
(dp2869
g82
I3
ssg83
g2863
sg76
(lp2870
g1388
asbasbasbag69
(g85
g71
NtRp2871
(dp2872
g74
(dp2873
sg83
g2447
sg76
(lp2874
g69
(g90
g71
NtRp2875
(dp2876
g74
(dp2877
g94
g95
ssg83
g2871
sg76
(lp2878
S'SERVER_SOFTWARE'
p2879
asbag69
(g90
g71
NtRp2880
(dp2881
g74
(dp2882
g101
g102
ssg83
g2871
sg76
(lp2883
S':'
asbag69
(g90
g71
NtRp2884
(dp2885
g74
(dp2886
sg83
g2871
sg76
(lp2887
g69
(g70
g71
NtRp2888
(dp2889
g74
(dp2890
g82
I3
ssg83
g2884
sg76
(lp2891
g1410
asbasbasbag69
(g85
g71
NtRp2892
(dp2893
g74
(dp2894
sg83
g2447
sg76
(lp2895
g69
(g90
g71
NtRp2896
(dp2897
g74
(dp2898
g94
g95
ssg83
g2892
sg76
(lp2899
S'WEB2PY_ORIGINAL_URI'
p2900
asbag69
(g90
g71
NtRp2901
(dp2902
g74
(dp2903
g101
g102
ssg83
g2892
sg76
(lp2904
S':'
asbag69
(g90
g71
NtRp2905
(dp2906
g74
(dp2907
sg83
g2892
sg76
(lp2908
g69
(g70
g71
NtRp2909
(dp2910
g74
(dp2911
g82
I3
ssg83
g2905
sg76
(lp2912
g1193
asbasbasbag69
(g85
g71
NtRp2913
(dp2914
g74
(dp2915
sg83
g2447
sg76
(lp2916
g69
(g90
g71
NtRp2917
(dp2918
g74
(dp2919
g94
g95
ssg83
g2913
sg76
(lp2920
S'wsgi.errors'
p2921
asbag69
(g90
g71
NtRp2922
(dp2923
g74
(dp2924
g101
g102
ssg83
g2913
sg76
(lp2925
S':'
asbag69
(g90
g71
NtRp2926
(dp2927
g74
(dp2928
sg83
g2913
sg76
(lp2929
g69
(g70
g71
NtRp2930
(dp2931
g74
(dp2932
g82
I3
ssg83
g2926
sg76
(lp2933
S"<open file '<stderr>', mode 'w' at 0x7f3308ed3270>"
p2934
asbasbasbag69
(g85
g71
NtRp2935
(dp2936
g74
(dp2937
sg83
g2447
sg76
(lp2938
g69
(g90
g71
NtRp2939
(dp2940
g74
(dp2941
g94
g95
ssg83
g2935
sg76
(lp2942
S'wsgi.file_wrapper'
p2943
asbag69
(g90
g71
NtRp2944
(dp2945
g74
(dp2946
g101
g102
ssg83
g2935
sg76
(lp2947
S':'
asbag69
(g90
g71
NtRp2948
(dp2949
g74
(dp2950
sg83
g2935
sg76
(lp2951
g69
(g70
g71
NtRp2952
(dp2953
g74
(dp2954
g82
I3
ssg83
g2948
sg76
(lp2955
S'<class wsgiref.util.FileWrapper at 0x2194598>'
p2956
asbasbasbag69
(g85
g71
NtRp2957
(dp2958
g74
(dp2959
sg83
g2447
sg76
(lp2960
g69
(g90
g71
NtRp2961
(dp2962
g74
(dp2963
g94
g95
ssg83
g2957
sg76
(lp2964
S'wsgi.input'
p2965
asbag69
(g90
g71
NtRp2966
(dp2967
g74
(dp2968
g101
g102
ssg83
g2957
sg76
(lp2969
S':'
asbag69
(g90
g71
NtRp2970
(dp2971
g74
(dp2972
sg83
g2957
sg76
(lp2973
g69
(g70
g71
NtRp2974
(dp2975
g74
(dp2976
g82
I3
ssg83
g2970
sg76
(lp2977
S'<cStringIO.StringO object at 0x7f32fc266b90>'
p2978
asbasbasbag69
(g85
g71
NtRp2979
(dp2980
g74
(dp2981
sg83
g2447
sg76
(lp2982
g69
(g90
g71
NtRp2983
(dp2984
g74
(dp2985
g94
g95
ssg83
g2979
sg76
(lp2986
S'wsgi.multiprocess'
p2987
asbag69
(g90
g71
NtRp2988
(dp2989
g74
(dp2990
g101
g102
ssg83
g2979
sg76
(lp2991
S':'
asbag69
(g90
g71
NtRp2992
(dp2993
g74
(dp2994
sg83
g2979
sg76
(lp2995
g69
(g70
g71
NtRp2996
(dp2997
g74
(dp2998
g82
I3
ssg83
g2992
sg76
(lp2999
g112
asbasbasbag69
(g85
g71
NtRp3000
(dp3001
g74
(dp3002
sg83
g2447
sg76
(lp3003
g69
(g90
g71
NtRp3004
(dp3005
g74
(dp3006
g94
g95
ssg83
g3000
sg76
(lp3007
S'wsgi.multithread'
p3008
asbag69
(g90
g71
NtRp3009
(dp3010
g74
(dp3011
g101
g102
ssg83
g3000
sg76
(lp3012
S':'
asbag69
(g90
g71
NtRp3013
(dp3014
g74
(dp3015
sg83
g3000
sg76
(lp3016
g69
(g70
g71
NtRp3017
(dp3018
g74
(dp3019
g82
I3
ssg83
g3013
sg76
(lp3020
g1648
asbasbasbag69
(g85
g71
NtRp3021
(dp3022
g74
(dp3023
sg83
g2447
sg76
(lp3024
g69
(g90
g71
NtRp3025
(dp3026
g74
(dp3027
g94
g95
ssg83
g3021
sg76
(lp3028
S'wsgi.run_once'
p3029
asbag69
(g90
g71
NtRp3030
(dp3031
g74
(dp3032
g101
g102
ssg83
g3021
sg76
(lp3033
S':'
asbag69
(g90
g71
NtRp3034
(dp3035
g74
(dp3036
sg83
g3021
sg76
(lp3037
g69
(g70
g71
NtRp3038
(dp3039
g74
(dp3040
g82
I3
ssg83
g3034
sg76
(lp3041
g112
asbasbasbag69
(g85
g71
NtRp3042
(dp3043
g74
(dp3044
sg83
g2447
sg76
(lp3045
g69
(g90
g71
NtRp3046
(dp3047
g74
(dp3048
g94
g95
ssg83
g3042
sg76
(lp3049
S'wsgi.url_scheme'
p3050
asbag69
(g90
g71
NtRp3051
(dp3052
g74
(dp3053
g101
g102
ssg83
g3042
sg76
(lp3054
S':'
asbag69
(g90
g71
NtRp3055
(dp3056
g74
(dp3057
sg83
g3042
sg76
(lp3058
g69
(g70
g71
NtRp3059
(dp3060
g74
(dp3061
g82
I3
ssg83
g3055
sg76
(lp3062
g1691
asbasbasbag69
(g85
g71
NtRp3063
(dp3064
g74
(dp3065
sg83
g2447
sg76
(lp3066
g69
(g90
g71
NtRp3067
(dp3068
g74
(dp3069
g94
g95
ssg83
g3063
sg76
(lp3070
S'wsgi.version'
p3071
asbag69
(g90
g71
NtRp3072
(dp3073
g74
(dp3074
g101
g102
ssg83
g3063
sg76
(lp3075
S':'
asbag69
(g90
g71
NtRp3076
(dp3077
g74
(dp3078
sg83
g3063
sg76
(lp3079
g69
(g70
g71
NtRp3080
(dp3081
g74
(dp3082
g82
I3
ssg83
g3076
sg76
(lp3083
S'1'
asbasbasbasbasbasbasbasbasbasbasbasbasbsS'frames'
p3084
(lp3085
(dp3086
S'file'
p3087
S'/var/www/conferencia/gluon/restricted.py'
p3088
sS'dump'
p3089
(dp3090
S'environment'
p3091
S"{'A': <class 'gluon.html.A'>, 'Auth': <class 'gluon.tools.Auth'>, 'B': <class 'gluon.html.B'>, 'BEAUTIFY': <class 'gluon.html.BEAUTIFY'>, 'BODY': <class 'gluon.html.BODY'>, 'BR': <class 'gluon.html.BR'>, 'BUTTON': <class 'gluon.html.BUTTON'>, 'CAT': <class 'gluon.html.CAT'>, 'CENTER': <class 'gluon.html.CENTER'>, 'CLEANUP': <class 'gluon.validators.CLEANUP'>, ...}"
p3092
sS'ccode'
p3093
S'<code object <module> at 0x7f32e44a67b0, file "/...a/applications/projeto/models/models.py", line 1>'
p3094
ssS'lnum'
p3095
I212
sS'lines'
p3096
(dp3097
I207
S'    try:'
p3098
sI208
S'        if isinstance(code, types.CodeType):'
p3099
sI209
S'            ccode = code'
p3100
sI210
S'        else:'
p3101
sI211
S'            ccode = compile2(code, layer)'
p3102
sI212
S'        exec ccode in environment'
p3103
sI213
S'    except HTTP:'
p3104
sI214
S'        raise'
p3105
sI215
S'    except RestrictedError:'
p3106
sI216
S'        # do not encapsulate (obfuscate) the original RestrictedError'
p3107
ssS'call'
p3108
S'(code=\'usuario = db.define_table("usuario",\\n      Field...suario\\\'),\\n      primarykey=[\\\'confno\\\']\\n      )\\n\\n\\n\\n\', environment={\'A\': <class \'gluon.html.A\'>, \'Auth\': <class \'gluon.tools.Auth\'>, \'B\': <class \'gluon.html.B\'>, \'BEAUTIFY\': <class \'gluon.html.BEAUTIFY\'>, \'BODY\': <class \'gluon.html.BODY\'>, \'BR\': <class \'gluon.html.BR\'>, \'BUTTON\': <class \'gluon.html.BUTTON\'>, \'CAT\': <class \'gluon.html.CAT\'>, \'CENTER\': <class \'gluon.html.CENTER\'>, \'CLEANUP\': <class \'gluon.validators.CLEANUP\'>, ...}, layer=\'/var/www/conferencia/applications/projeto/models/models.py\')'
p3109
sS'func'
p3110
S'restricted'
p3111
sa(dp3112
g3087
S'/var/www/conferencia/applications/projeto/models/models.py'
p3113
sg3089
(dp3114
S'primarykey'
p3115
S'undefined'
p3116
ssg3095
I14
sg3096
(dp3117
I9
S'meetme = db.define_table("meetme",'
p3118
sI10
S'      Field("confno", "auto_increment"),'
p3119
sI11
S'      Field("starttime", "datetime"),'
p3120
sI12
S'      Field("endtime", "datetime"),'
p3121
sI13
S'      Field("membros_user", \'list:reference usuario\'),'
p3122
sI14
S"      primarykey=['confno']"
p3123
sI15
S'      )'
p3124
sI16
S''
sI17
S''
sI18
S''
ssg3108
S'()'
p3125
sg3110
S'<module>'
p3126
sa(dp3127
g3087
S'/var/www/conferencia/gluon/dal.py'
p3128
sg3089
(dp3129
S'fields'
p3130
S'(<gluon.dal.Field object>, <gluon.dal.Field object>, <gluon.dal.Field object>, <gluon.dal.Field object>)'
p3131
sS'self'
p3132
S'<DAL uri="postgres:pg8000://******:123456@127.0.0.1/conferencia">'
p3133
sS'args'
p3134
S"{'primarykey': ['confno']}"
p3135
sS'tablename'
p3136
S"'meetme'"
p3137
sS'table'
p3138
g3116
sS'self.lazy_define_table'
p3139
S'<bound method DAL.lazy_define_table of <DAL uri=...s:pg8000://******:123456@127.0.0.1/conferencia">>'
p3140
ssg3095
I7186
sg3096
(dp3141
I7181
S'                    % (tablename,invalid_args))'
p3142
sI7182
S'        if self._lazy_tables and not tablename in self._LAZY_TABLES:'
p3143
sI7183
S'            self._LAZY_TABLES[tablename] = (tablename,fields,args)'
p3144
sI7184
S'            table = None'
p3145
sI7185
S'        else:'
p3146
sI7186
S'            table = self.lazy_define_table(tablename,*fields,**args)'
p3147
sI7187
S'        if not tablename in self.tables:'
p3148
sI7188
S'            self.tables.append(tablename)'
p3149
sI7189
S'        return table'
p3150
sI7190
S''
ssg3108
S'(self=<DAL uri="postgres:pg8000://******:123456@127.0.0.1/conferencia">, tablename=\'meetme\', *fields=(<gluon.dal.Field object>, <gluon.dal.Field object>, <gluon.dal.Field object>, <gluon.dal.Field object>), **args={\'primarykey\': [\'confno\']})'
p3151
sg3110
S'define_table'
p3152
sa(dp3153
g3087
S'/var/www/conferencia/gluon/dal.py'
p3154
sg3089
(dp3155
S'polymodel'
p3156
S'None'
p3157
ssg3095
I7222
sg3096
(dp3158
I7217
S"            polymodel = args_get('polymodel',None)"
p3159
sI7218
S'            try:'
p3160
sI7219
S'                GLOBAL_LOCKER.acquire()'
p3161
sI7220
S'                self._adapter.create_table(table,migrate=migrate,'
p3162
sI7221
S'                                           fake_migrate=fake_migrate,'
p3163
sI7222
S'                                           polymodel=polymodel)'
p3164
sI7223
S'            finally:'
p3165
sI7224
S'                GLOBAL_LOCKER.release()'
p3166
sI7225
S'        else:'
p3167
sI7226
S'            table._dbt = None'
p3168
ssg3108
S'(self=<DAL uri="postgres:pg8000://******:123456@127.0.0.1/conferencia">, tablename=\'meetme\', *fields=(<gluon.dal.Field object>, <gluon.dal.Field object>, <gluon.dal.Field object>, <gluon.dal.Field object>), **args={\'primarykey\': [\'confno\']})'
p3169
sg3110
S'lazy_define_table'
p3170
sa(dp3171
g3087
S'/var/www/conferencia/gluon/dal.py'
p3172
sg3089
(dp3173
S'field_type'
p3174
S"'auto_increment'"
p3175
sS'field_name'
p3176
S"'confno'"
p3177
ssg3095
I836
sg3096
(dp3178
I832
S'                                         dimension=dimension)'
p3179
sI833
S'                    postcreation_fields.append(ftype)'
p3180
sI834
S'            elif not field_type in types:'
p3181
sI835
S"                raise SyntaxError('Field: unknown field type: %s for %s' % \\"
p3182
sI836
S'                    (field_type, field_name))'
p3183
sI837
S'            else:'
p3184
sI838
S'                ftype = types[field_type]\\'
p3185
sI839
S'                     % dict(length=field.length)'
p3186
sI840
S"            if not field_type.startswith('id') and \\"
p3187
sI831
S'                                         fieldname=field_name, srid=srid,'
p3188
ssg3108
S'(self=<gluon.dal.PostgreSQLAdapter object>, table=<Table meetme (confno,starttime,endtime,membros_user)>, migrate=True, fake_migrate=False, polymodel=None)'
p3189
sg3110
S'create_table'
p3190
sasS'pyver'
p3191
S'Python 2.7.3: /usr/bin/python'
p3192
sS'session'
p3193
g69
(g70
g71
NtRp3194
(dp3195
g74
(dp3196
sg76
(lp3197
g69
(g78
g71
NtRp3198
(dp3199
g74
(dp3200
g82
I5
ssg83
Nsg76
(lp3201
g69
(g85
g71
NtRp3202
(dp3203
g74
(dp3204
sg83
g3198
sg76
(lp3205
g69
(g90
g71
NtRp3206
(dp3207
g74
(dp3208
g94
g95
ssg83
g3202
sg76
(lp3209
S'flash'
p3210
asbag69
(g90
g71
NtRp3211
(dp3212
g74
(dp3213
g101
g102
ssg83
g3202
sg76
(lp3214
S':'
asbag69
(g90
g71
NtRp3215
(dp3216
g74
(dp3217
sg83
g3202
sg76
(lp3218
g69
(g70
g71
NtRp3219
(dp3220
g74
(dp3221
g82
I5
ssg83
g3215
sg76
(lp3222
S'None'
p3223
asbasbasbasbasbsS'etype'
p3224
S"<type 'exceptions.SyntaxError'>"
p3225
sS'date'
p3226
S'Tue Apr  2 18:44:39 2013'
p3227
sS'response'
p3228
g69
(g70
g71
NtRp3229
(dp3230
g74
(dp3231
sg76
(lp3232
g69
(g78
g71
NtRp3233
(dp3234
g74
(dp3235
g82
I5
ssg83
Nsg76
(lp3236
g69
(g85
g71
NtRp3237
(dp3238
g74
(dp3239
sg83
g3233
sg76
(lp3240
g69
(g90
g71
NtRp3241
(dp3242
g74
(dp3243
g94
g95
ssg83
g3237
sg76
(lp3244
g167
asbag69
(g90
g71
NtRp3245
(dp3246
g74
(dp3247
g101
g102
ssg83
g3237
sg76
(lp3248
S':'
asbag69
(g90
g71
NtRp3249
(dp3250
g74
(dp3251
sg83
g3237
sg76
(lp3252
g69
(g70
g71
NtRp3253
(dp3254
g74
(dp3255
g82
I5
ssg83
g3249
sg76
(lp3256
S'<cStringIO.StringO object at 0x7f32e086a340>'
p3257
asbasbasbag69
(g85
g71
NtRp3258
(dp3259
g74
(dp3260
sg83
g3233
sg76
(lp3261
g69
(g90
g71
NtRp3262
(dp3263
g74
(dp3264
g94
g95
ssg83
g3258
sg76
(lp3265
g255
asbag69
(g90
g71
NtRp3266
(dp3267
g74
(dp3268
g101
g102
ssg83
g3258
sg76
(lp3269
S':'
asbag69
(g90
g71
NtRp3270
(dp3271
g74
(dp3272
sg83
g3258
sg76
(lp3273
g69
(g70
g71
NtRp3274
(dp3275
g74
(dp3276
g82
I5
ssg83
g3270
sg76
(lp3277
g69
(g78
g71
NtRp3278
(dp3279
g74
(dp3280
g82
I4
ssg83
Nsg76
(lp3281
g69
(g85
g71
NtRp3282
(dp3283
g74
(dp3284
sg83
g3278
sg76
(lp3285
g69
(g90
g71
NtRp3286
(dp3287
g74
(dp3288
g94
g95
ssg83
g3282
sg76
(lp3289
S'session_id_projeto'
p3290
asbag69
(g90
g71
NtRp3291
(dp3292
g74
(dp3293
g101
g102
ssg83
g3282
sg76
(lp3294
S':'
asbag69
(g90
g71
NtRp3295
(dp3296
g74
(dp3297
sg83
g3282
sg76
(lp3298
g69
(g70
g71
NtRp3299
(dp3300
g74
(dp3301
g82
I4
ssg83
g3295
sg76
(lp3302
g487
ag69
(g78
g71
NtRp3303
(dp3304
g74
(dp3305
g82
I3
ssg83
Nsg76
(lp3306
g69
(g85
g71
NtRp3307
(dp3308
g74
(dp3309
sg83
g3303
sg76
(lp3310
g69
(g90
g71
NtRp3311
(dp3312
g74
(dp3313
g94
g95
ssg83
g3307
sg76
(lp3314
g306
asbag69
(g90
g71
NtRp3315
(dp3316
g74
(dp3317
g101
g102
ssg83
g3307
sg76
(lp3318
S':'
asbag69
(g90
g71
NtRp3319
(dp3320
g74
(dp3321
sg83
g3307
sg76
(lp3322
g69
(g70
g71
NtRp3323
(dp3324
g74
(dp3325
g82
I3
ssg83
g3319
sg76
(lp3326
S''
asbasbasbag69
(g85
g71
NtRp3327
(dp3328
g74
(dp3329
sg83
g3303
sg76
(lp3330
g69
(g90
g71
NtRp3331
(dp3332
g74
(dp3333
g94
g95
ssg83
g3327
sg76
(lp3334
g327
asbag69
(g90
g71
NtRp3335
(dp3336
g74
(dp3337
g101
g102
ssg83
g3327
sg76
(lp3338
S':'
asbag69
(g90
g71
NtRp3339
(dp3340
g74
(dp3341
sg83
g3327
sg76
(lp3342
g69
(g70
g71
NtRp3343
(dp3344
g74
(dp3345
g82
I3
ssg83
g3339
sg76
(lp3346
S''
asbasbasbag69
(g85
g71
NtRp3347
(dp3348
g74
(dp3349
sg83
g3303
sg76
(lp3350
g69
(g90
g71
NtRp3351
(dp3352
g74
(dp3353
g94
g95
ssg83
g3347
sg76
(lp3354
g348
asbag69
(g90
g71
NtRp3355
(dp3356
g74
(dp3357
g101
g102
ssg83
g3347
sg76
(lp3358
S':'
asbag69
(g90
g71
NtRp3359
(dp3360
g74
(dp3361
sg83
g3347
sg76
(lp3362
g69
(g70
g71
NtRp3363
(dp3364
g74
(dp3365
g82
I3
ssg83
g3359
sg76
(lp3366
S''
asbasbasbag69
(g85
g71
NtRp3367
(dp3368
g74
(dp3369
sg83
g3303
sg76
(lp3370
g69
(g90
g71
NtRp3371
(dp3372
g74
(dp3373
g94
g95
ssg83
g3367
sg76
(lp3374
g369
asbag69
(g90
g71
NtRp3375
(dp3376
g74
(dp3377
g101
g102
ssg83
g3367
sg76
(lp3378
S':'
asbag69
(g90
g71
NtRp3379
(dp3380
g74
(dp3381
sg83
g3367
sg76
(lp3382
g69
(g70
g71
NtRp3383
(dp3384
g74
(dp3385
g82
I3
ssg83
g3379
sg76
(lp3386
S''
asbasbasbag69
(g85
g71
NtRp3387
(dp3388
g74
(dp3389
sg83
g3303
sg76
(lp3390
g69
(g90
g71
NtRp3391
(dp3392
g74
(dp3393
g94
g95
ssg83
g3387
sg76
(lp3394
g390
asbag69
(g90
g71
NtRp3395
(dp3396
g74
(dp3397
g101
g102
ssg83
g3387
sg76
(lp3398
S':'
asbag69
(g90
g71
NtRp3399
(dp3400
g74
(dp3401
sg83
g3387
sg76
(lp3402
g69
(g70
g71
NtRp3403
(dp3404
g74
(dp3405
g82
I3
ssg83
g3399
sg76
(lp3406
S''
asbasbasbag69
(g85
g71
NtRp3407
(dp3408
g74
(dp3409
sg83
g3303
sg76
(lp3410
g69
(g90
g71
NtRp3411
(dp3412
g74
(dp3413
g94
g95
ssg83
g3407
sg76
(lp3414
g411
asbag69
(g90
g71
NtRp3415
(dp3416
g74
(dp3417
g101
g102
ssg83
g3407
sg76
(lp3418
S':'
asbag69
(g90
g71
NtRp3419
(dp3420
g74
(dp3421
sg83
g3407
sg76
(lp3422
g69
(g70
g71
NtRp3423
(dp3424
g74
(dp3425
g82
I3
ssg83
g3419
sg76
(lp3426
S'/'
asbasbasbag69
(g85
g71
NtRp3427
(dp3428
g74
(dp3429
sg83
g3303
sg76
(lp3430
g69
(g90
g71
NtRp3431
(dp3432
g74
(dp3433
g94
g95
ssg83
g3427
sg76
(lp3434
g432
asbag69
(g90
g71
NtRp3435
(dp3436
g74
(dp3437
g101
g102
ssg83
g3427
sg76
(lp3438
S':'
asbag69
(g90
g71
NtRp3439
(dp3440
g74
(dp3441
sg83
g3427
sg76
(lp3442
g69
(g70
g71
NtRp3443
(dp3444
g74
(dp3445
g82
I3
ssg83
g3439
sg76
(lp3446
S''
asbasbasbag69
(g85
g71
NtRp3447
(dp3448
g74
(dp3449
sg83
g3303
sg76
(lp3450
g69
(g90
g71
NtRp3451
(dp3452
g74
(dp3453
g94
g95
ssg83
g3447
sg76
(lp3454
g453
asbag69
(g90
g71
NtRp3455
(dp3456
g74
(dp3457
g101
g102
ssg83
g3447
sg76
(lp3458
S':'
asbag69
(g90
g71
NtRp3459
(dp3460
g74
(dp3461
sg83
g3447
sg76
(lp3462
g69
(g70
g71
NtRp3463
(dp3464
g74
(dp3465
g82
I3
ssg83
g3459
sg76
(lp3466
S''
asbasbasbasbasbasbasbasbasbasbasbag69
(g85
g71
NtRp3467
(dp3468
g74
(dp3469
sg83
g3233
sg76
(lp3470
g69
(g90
g71
NtRp3471
(dp3472
g74
(dp3473
g94
g95
ssg83
g3467
sg76
(lp3474
S'delimiters'
p3475
asbag69
(g90
g71
NtRp3476
(dp3477
g74
(dp3478
g101
g102
ssg83
g3467
sg76
(lp3479
S':'
asbag69
(g90
g71
NtRp3480
(dp3481
g74
(dp3482
sg83
g3467
sg76
(lp3483
g69
(g70
g71
NtRp3484
(dp3485
g74
(dp3486
g82
I5
ssg83
g3480
sg76
(lp3487
g69
(g78
g71
NtRp3488
(dp3489
g74
(dp3490
g82
I4
ssg83
Nsg76
(lp3491
g69
(g85
g71
NtRp3492
(dp3493
g74
(dp3494
sg83
g3488
sg76
(lp3495
g69
(g90
g71
NtRp3496
(dp3497
g74
(dp3498
sg83
g3492
sg76
(lp3499
g69
(g70
g71
NtRp3500
(dp3501
g74
(dp3502
g82
I4
ssg83
g3496
sg76
(lp3503
S'{{'
p3504
asbasbasbag69
(g85
g71
NtRp3505
(dp3506
g74
(dp3507
sg83
g3488
sg76
(lp3508
g69
(g90
g71
NtRp3509
(dp3510
g74
(dp3511
sg83
g3505
sg76
(lp3512
g69
(g70
g71
NtRp3513
(dp3514
g74
(dp3515
g82
I4
ssg83
g3509
sg76
(lp3516
S'}}'
p3517
asbasbasbasbasbasbasbag69
(g85
g71
NtRp3518
(dp3519
g74
(dp3520
sg83
g3233
sg76
(lp3521
g69
(g90
g71
NtRp3522
(dp3523
g74
(dp3524
g94
g95
ssg83
g3518
sg76
(lp3525
S'files'
p3526
asbag69
(g90
g71
NtRp3527
(dp3528
g74
(dp3529
g101
g102
ssg83
g3518
sg76
(lp3530
S':'
asbag69
(g90
g71
NtRp3531
(dp3532
g74
(dp3533
sg83
g3518
sg76
(lp3534
g69
(g70
g71
NtRp3535
(dp3536
g74
(dp3537
g82
I5
ssg83
g3531
sg76
(lp3538
g69
(g78
g71
NtRp3539
(dp3540
g74
(dp3541
g82
I4
ssg83
Nsg76
(lp3542
sbasbasbasbag69
(g85
g71
NtRp3543
(dp3544
g74
(dp3545
sg83
g3233
sg76
(lp3546
g69
(g90
g71
NtRp3547
(dp3548
g74
(dp3549
g94
g95
ssg83
g3543
sg76
(lp3550
S'flash'
p3551
asbag69
(g90
g71
NtRp3552
(dp3553
g74
(dp3554
g101
g102
ssg83
g3543
sg76
(lp3555
S':'
asbag69
(g90
g71
NtRp3556
(dp3557
g74
(dp3558
sg83
g3543
sg76
(lp3559
g69
(g70
g71
NtRp3560
(dp3561
g74
(dp3562
g82
I5
ssg83
g3556
sg76
(lp3563
S''
asbasbasbag69
(g85
g71
NtRp3564
(dp3565
g74
(dp3566
sg83
g3233
sg76
(lp3567
g69
(g90
g71
NtRp3568
(dp3569
g74
(dp3570
g94
g95
ssg83
g3564
sg76
(lp3571
S'generic_patterns'
p3572
asbag69
(g90
g71
NtRp3573
(dp3574
g74
(dp3575
g101
g102
ssg83
g3564
sg76
(lp3576
S':'
asbag69
(g90
g71
NtRp3577
(dp3578
g74
(dp3579
sg83
g3564
sg76
(lp3580
g69
(g70
g71
NtRp3581
(dp3582
g74
(dp3583
g82
I5
ssg83
g3577
sg76
(lp3584
g69
(g78
g71
NtRp3585
(dp3586
g74
(dp3587
g82
I4
ssg83
Nsg76
(lp3588
g69
(g85
g71
NtRp3589
(dp3590
g74
(dp3591
sg83
g3585
sg76
(lp3592
g69
(g90
g71
NtRp3593
(dp3594
g74
(dp3595
sg83
g3589
sg76
(lp3596
g69
(g70
g71
NtRp3597
(dp3598
g74
(dp3599
g82
I4
ssg83
g3593
sg76
(lp3600
S'*'
asbasbasbasbasbasbasbag69
(g85
g71
NtRp3601
(dp3602
g74
(dp3603
sg83
g3233
sg76
(lp3604
g69
(g90
g71
NtRp3605
(dp3606
g74
(dp3607
g94
g95
ssg83
g3601
sg76
(lp3608
S'google_analytics_id'
p3609
asbag69
(g90
g71
NtRp3610
(dp3611
g74
(dp3612
g101
g102
ssg83
g3601
sg76
(lp3613
S':'
asbag69
(g90
g71
NtRp3614
(dp3615
g74
(dp3616
sg83
g3601
sg76
(lp3617
g69
(g70
g71
NtRp3618
(dp3619
g74
(dp3620
g82
I5
ssg83
g3614
sg76
(lp3621
S'None'
p3622
asbasbasbag69
(g85
g71
NtRp3623
(dp3624
g74
(dp3625
sg83
g3233
sg76
(lp3626
g69
(g90
g71
NtRp3627
(dp3628
g74
(dp3629
g94
g95
ssg83
g3623
sg76
(lp3630
S'headers'
p3631
asbag69
(g90
g71
NtRp3632
(dp3633
g74
(dp3634
g101
g102
ssg83
g3623
sg76
(lp3635
S':'
asbag69
(g90
g71
NtRp3636
(dp3637
g74
(dp3638
sg83
g3623
sg76
(lp3639
g69
(g70
g71
NtRp3640
(dp3641
g74
(dp3642
g82
I5
ssg83
g3636
sg76
(lp3643
g69
(g78
g71
NtRp3644
(dp3645
g74
(dp3646
g82
I4
ssg83
Nsg76
(lp3647
g69
(g85
g71
NtRp3648
(dp3649
g74
(dp3650
sg83
g3644
sg76
(lp3651
g69
(g90
g71
NtRp3652
(dp3653
g74
(dp3654
g94
g95
ssg83
g3648
sg76
(lp3655
S'X-Powered-By'
p3656
asbag69
(g90
g71
NtRp3657
(dp3658
g74
(dp3659
g101
g102
ssg83
g3648
sg76
(lp3660
S':'
asbag69
(g90
g71
NtRp3661
(dp3662
g74
(dp3663
sg83
g3648
sg76
(lp3664
g69
(g70
g71
NtRp3665
(dp3666
g74
(dp3667
g82
I4
ssg83
g3661
sg76
(lp3668
S'web2py'
p3669
asbasbasbasbasbasbasbag69
(g85
g71
NtRp3670
(dp3671
g74
(dp3672
sg83
g3233
sg76
(lp3673
g69
(g90
g71
NtRp3674
(dp3675
g74
(dp3676
g94
g95
ssg83
g3670
sg76
(lp3677
S'logo'
p3678
asbag69
(g90
g71
NtRp3679
(dp3680
g74
(dp3681
g101
g102
ssg83
g3670
sg76
(lp3682
S':'
asbag69
(g90
g71
NtRp3683
(dp3684
g74
(dp3685
sg83
g3670
sg76
(lp3686
g69
(g70
g71
NtRp3687
(dp3688
g74
(dp3689
g82
I5
ssg83
g3683
sg76
(lp3690
g69
(cgluon.html
A
p3691
g71
NtRp3692
(dp3693
g74
(dp3694
S'_class'
p3695
S'brand'
p3696
sS'_href'
p3697
S'principal'
p3698
ssg83
Nsg76
(lp3699
g69
(cgluon.html
B
p3700
g71
NtRp3701
(dp3702
g74
(dp3703
sg83
g3692
sg76
(lp3704
S'hosts'
p3705
ag69
(cgluon.html
SPAN
p3706
g71
NtRp3707
(dp3708
g74
(dp3709
sg83
g3701
sg76
(lp3710
S'3'
asbaS''
asbacgluon.html
XML_unpickle
p3711
(S's\r\x00\x00\x00&trade;&nbsp;'
tRp3712
asbasbasbasbag69
(g85
g71
NtRp3713
(dp3714
g74
(dp3715
sg83
g3233
sg76
(lp3716
g69
(g90
g71
NtRp3717
(dp3718
g74
(dp3719
g94
g95
ssg83
g3713
sg76
(lp3720
S'menu'
p3721
asbag69
(g90
g71
NtRp3722
(dp3723
g74
(dp3724
g101
g102
ssg83
g3713
sg76
(lp3725
S':'
asbag69
(g90
g71
NtRp3726
(dp3727
g74
(dp3728
sg83
g3713
sg76
(lp3729
g69
(g70
g71
NtRp3730
(dp3731
g74
(dp3732
g82
I5
ssg83
g3726
sg76
(lp3733
g69
(g78
g71
NtRp3734
(dp3735
g74
(dp3736
g82
I4
ssg83
Nsg76
(lp3737
g69
(g85
g71
NtRp3738
(dp3739
g74
(dp3740
sg83
g3734
sg76
(lp3741
g69
(g90
g71
NtRp3742
(dp3743
g74
(dp3744
sg83
g3738
sg76
(lp3745
g69
(g70
g71
NtRp3746
(dp3747
g74
(dp3748
g82
I4
ssg83
g3742
sg76
(lp3749
g69
(g78
g71
NtRp3750
(dp3751
g74
(dp3752
g82
I3
ssg83
Nsg76
(lp3753
g69
(g85
g71
NtRp3754
(dp3755
g74
(dp3756
sg83
g3750
sg76
(lp3757
g69
(g90
g71
NtRp3758
(dp3759
g74
(dp3760
sg83
g3754
sg76
(lp3761
g69
(g70
g71
NtRp3762
(dp3763
g74
(dp3764
g82
I3
ssg83
g3758
sg76
(lp3765
cgluon.languages
lazyT_unpickle
p3766
(S't\x08\x00\x00\x00Clientes'
tRp3767
asbasbasbag69
(g85
g71
NtRp3768
(dp3769
g74
(dp3770
sg83
g3750
sg76
(lp3771
g69
(g90
g71
NtRp3772
(dp3773
g74
(dp3774
sg83
g3768
sg76
(lp3775
g69
(g70
g71
NtRp3776
(dp3777
g74
(dp3778
g82
I3
ssg83
g3772
sg76
(lp3779
g112
asbasbasbag69
(g85
g71
NtRp3780
(dp3781
g74
(dp3782
sg83
g3750
sg76
(lp3783
g69
(g90
g71
NtRp3784
(dp3785
g74
(dp3786
sg83
g3780
sg76
(lp3787
g69
(g70
g71
NtRp3788
(dp3789
g74
(dp3790
g82
I3
ssg83
g3784
sg76
(lp3791
S'/show_cliente'
p3792
asbasbasbag69
(g85
g71
NtRp3793
(dp3794
g74
(dp3795
sg83
g3750
sg76
(lp3796
g69
(g90
g71
NtRp3797
(dp3798
g74
(dp3799
sg83
g3793
sg76
(lp3800
g69
(g70
g71
NtRp3801
(dp3802
g74
(dp3803
g82
I3
ssg83
g3797
sg76
(lp3804
g69
(g78
g71
NtRp3805
(dp3806
g74
(dp3807
g82
I2
ssg83
Nsg76
(lp3808
sbasbasbasbasbasbasbasbag69
(g85
g71
NtRp3809
(dp3810
g74
(dp3811
sg83
g3734
sg76
(lp3812
g69
(g90
g71
NtRp3813
(dp3814
g74
(dp3815
sg83
g3809
sg76
(lp3816
g69
(g70
g71
NtRp3817
(dp3818
g74
(dp3819
g82
I4
ssg83
g3813
sg76
(lp3820
g69
(g78
g71
NtRp3821
(dp3822
g74
(dp3823
g82
I3
ssg83
Nsg76
(lp3824
g69
(g85
g71
NtRp3825
(dp3826
g74
(dp3827
sg83
g3821
sg76
(lp3828
g69
(g90
g71
NtRp3829
(dp3830
g74
(dp3831
sg83
g3825
sg76
(lp3832
g69
(g70
g71
NtRp3833
(dp3834
g74
(dp3835
g82
I3
ssg83
g3829
sg76
(lp3836
g3766
(S't\n\x00\x00\x00Servidores'
tRp3837
asbasbasbag69
(g85
g71
NtRp3838
(dp3839
g74
(dp3840
sg83
g3821
sg76
(lp3841
g69
(g90
g71
NtRp3842
(dp3843
g74
(dp3844
sg83
g3838
sg76
(lp3845
g69
(g70
g71
NtRp3846
(dp3847
g74
(dp3848
g82
I3
ssg83
g3842
sg76
(lp3849
g112
asbasbasbag69
(g85
g71
NtRp3850
(dp3851
g74
(dp3852
sg83
g3821
sg76
(lp3853
g69
(g90
g71
NtRp3854
(dp3855
g74
(dp3856
sg83
g3850
sg76
(lp3857
g69
(g70
g71
NtRp3858
(dp3859
g74
(dp3860
g82
I3
ssg83
g3854
sg76
(lp3861
S'/show_servidor'
p3862
asbasbasbag69
(g85
g71
NtRp3863
(dp3864
g74
(dp3865
sg83
g3821
sg76
(lp3866
g69
(g90
g71
NtRp3867
(dp3868
g74
(dp3869
sg83
g3863
sg76
(lp3870
g69
(g70
g71
NtRp3871
(dp3872
g74
(dp3873
g82
I3
ssg83
g3867
sg76
(lp3874
g69
(g78
g71
NtRp3875
(dp3876
g74
(dp3877
g82
I2
ssg83
Nsg76
(lp3878
sbasbasbasbasbasbasbasbag69
(g85
g71
NtRp3879
(dp3880
g74
(dp3881
sg83
g3734
sg76
(lp3882
g69
(g90
g71
NtRp3883
(dp3884
g74
(dp3885
sg83
g3879
sg76
(lp3886
g69
(g70
g71
NtRp3887
(dp3888
g74
(dp3889
g82
I4
ssg83
g3883
sg76
(lp3890
g69
(g78
g71
NtRp3891
(dp3892
g74
(dp3893
g82
I3
ssg83
Nsg76
(lp3894
g69
(g85
g71
NtRp3895
(dp3896
g74
(dp3897
sg83
g3891
sg76
(lp3898
g69
(g90
g71
NtRp3899
(dp3900
g74
(dp3901
sg83
g3895
sg76
(lp3902
g69
(g70
g71
NtRp3903
(dp3904
g74
(dp3905
g82
I3
ssg83
g3899
sg76
(lp3906
g3766
(S't\x07\x00\x00\x00Distros'
tRp3907
asbasbasbag69
(g85
g71
NtRp3908
(dp3909
g74
(dp3910
sg83
g3891
sg76
(lp3911
g69
(g90
g71
NtRp3912
(dp3913
g74
(dp3914
sg83
g3908
sg76
(lp3915
g69
(g70
g71
NtRp3916
(dp3917
g74
(dp3918
g82
I3
ssg83
g3912
sg76
(lp3919
g112
asbasbasbag69
(g85
g71
NtRp3920
(dp3921
g74
(dp3922
sg83
g3891
sg76
(lp3923
g69
(g90
g71
NtRp3924
(dp3925
g74
(dp3926
sg83
g3920
sg76
(lp3927
g69
(g70
g71
NtRp3928
(dp3929
g74
(dp3930
g82
I3
ssg83
g3924
sg76
(lp3931
S'/show_distro'
p3932
asbasbasbag69
(g85
g71
NtRp3933
(dp3934
g74
(dp3935
sg83
g3891
sg76
(lp3936
g69
(g90
g71
NtRp3937
(dp3938
g74
(dp3939
sg83
g3933
sg76
(lp3940
g69
(g70
g71
NtRp3941
(dp3942
g74
(dp3943
g82
I3
ssg83
g3937
sg76
(lp3944
g69
(g78
g71
NtRp3945
(dp3946
g74
(dp3947
g82
I2
ssg83
Nsg76
(lp3948
sbasbasbasbasbasbasbasbag69
(g85
g71
NtRp3949
(dp3950
g74
(dp3951
sg83
g3734
sg76
(lp3952
g69
(g90
g71
NtRp3953
(dp3954
g74
(dp3955
sg83
g3949
sg76
(lp3956
g69
(g70
g71
NtRp3957
(dp3958
g74
(dp3959
g82
I4
ssg83
g3953
sg76
(lp3960
g69
(g78
g71
NtRp3961
(dp3962
g74
(dp3963
g82
I3
ssg83
Nsg76
(lp3964
g69
(g85
g71
NtRp3965
(dp3966
g74
(dp3967
sg83
g3961
sg76
(lp3968
g69
(g90
g71
NtRp3969
(dp3970
g74
(dp3971
sg83
g3965
sg76
(lp3972
g69
(g70
g71
NtRp3973
(dp3974
g74
(dp3975
g82
I3
ssg83
g3969
sg76
(lp3976
g3766
(S's\x05\x00\x00\x00+host'
tRp3977
asbasbasbag69
(g85
g71
NtRp3978
(dp3979
g74
(dp3980
sg83
g3961
sg76
(lp3981
g69
(g90
g71
NtRp3982
(dp3983
g74
(dp3984
sg83
g3978
sg76
(lp3985
g69
(g70
g71
NtRp3986
(dp3987
g74
(dp3988
g82
I3
ssg83
g3982
sg76
(lp3989
g112
asbasbasbag69
(g85
g71
NtRp3990
(dp3991
g74
(dp3992
sg83
g3961
sg76
(lp3993
g69
(g90
g71
NtRp3994
(dp3995
g74
(dp3996
sg83
g3990
sg76
(lp3997
g69
(g70
g71
NtRp3998
(dp3999
g74
(dp4000
g82
I3
ssg83
g3994
sg76
(lp4001
S'/interface'
p4002
asbasbasbag69
(g85
g71
NtRp4003
(dp4004
g74
(dp4005
sg83
g3961
sg76
(lp4006
g69
(g90
g71
NtRp4007
(dp4008
g74
(dp4009
sg83
g4003
sg76
(lp4010
g69
(g70
g71
NtRp4011
(dp4012
g74
(dp4013
g82
I3
ssg83
g4007
sg76
(lp4014
g69
(g78
g71
NtRp4015
(dp4016
g74
(dp4017
g82
I2
ssg83
Nsg76
(lp4018
sbasbasbasbasbasbasbasbasbasbasbasbag69
(g85
g71
NtRp4019
(dp4020
g74
(dp4021
sg83
g3233
sg76
(lp4022
g69
(g90
g71
NtRp4023
(dp4024
g74
(dp4025
g94
g95
ssg83
g4019
sg76
(lp4026
S'menu2'
p4027
asbag69
(g90
g71
NtRp4028
(dp4029
g74
(dp4030
g101
g102
ssg83
g4019
sg76
(lp4031
S':'
asbag69
(g90
g71
NtRp4032
(dp4033
g74
(dp4034
sg83
g4019
sg76
(lp4035
g69
(g70
g71
NtRp4036
(dp4037
g74
(dp4038
g82
I5
ssg83
g4032
sg76
(lp4039
g69
(g78
g71
NtRp4040
(dp4041
g74
(dp4042
g82
I4
ssg83
Nsg76
(lp4043
g69
(g85
g71
NtRp4044
(dp4045
g74
(dp4046
sg83
g4040
sg76
(lp4047
g69
(g90
g71
NtRp4048
(dp4049
g74
(dp4050
sg83
g4044
sg76
(lp4051
g69
(g70
g71
NtRp4052
(dp4053
g74
(dp4054
g82
I4
ssg83
g4048
sg76
(lp4055
g69
(g78
g71
NtRp4056
(dp4057
g74
(dp4058
g82
I3
ssg83
Nsg76
(lp4059
g69
(g85
g71
NtRp4060
(dp4061
g74
(dp4062
sg83
g4056
sg76
(lp4063
g69
(g90
g71
NtRp4064
(dp4065
g74
(dp4066
sg83
g4060
sg76
(lp4067
g69
(g70
g71
NtRp4068
(dp4069
g74
(dp4070
g82
I3
ssg83
g4064
sg76
(lp4071
g69
(g3706
g71
NtRp4072
(dp4073
g74
(dp4074
g3695
S'dropdown-toggle'
p4075
ssg83
Nsg76
(lp4076
S'Admin'
p4077
asbasbasbasbag69
(g85
g71
NtRp4078
(dp4079
g74
(dp4080
sg83
g4056
sg76
(lp4081
g69
(g90
g71
NtRp4082
(dp4083
g74
(dp4084
sg83
g4078
sg76
(lp4085
g69
(g70
g71
NtRp4086
(dp4087
g74
(dp4088
g82
I3
ssg83
g4082
sg76
(lp4089
g112
asbasbasbag69
(g85
g71
NtRp4090
(dp4091
g74
(dp4092
sg83
g4056
sg76
(lp4093
g69
(g90
g71
NtRp4094
(dp4095
g74
(dp4096
sg83
g4090
sg76
(lp4097
g69
(g70
g71
NtRp4098
(dp4099
g74
(dp4100
g82
I3
ssg83
g4094
sg76
(lp4101
S'#'
asbasbasbag69
(g85
g71
NtRp4102
(dp4103
g74
(dp4104
sg83
g4056
sg76
(lp4105
g69
(g90
g71
NtRp4106
(dp4107
g74
(dp4108
sg83
g4102
sg76
(lp4109
g69
(g70
g71
NtRp4110
(dp4111
g74
(dp4112
g82
I3
ssg83
g4106
sg76
(lp4113
g69
(g78
g71
NtRp4114
(dp4115
g74
(dp4116
g82
I2
ssg83
Nsg76
(lp4117
g69
(g85
g71
NtRp4118
(dp4119
g74
(dp4120
sg83
g4114
sg76
(lp4121
g69
(g90
g71
NtRp4122
(dp4123
g74
(dp4124
sg83
g4118
sg76
(lp4125
g69
(g70
g71
NtRp4126
(dp4127
g74
(dp4128
g82
I2
ssg83
g4122
sg76
(lp4129
g69
(g78
g71
NtRp4130
(dp4131
g74
(dp4132
g82
I1
ssg83
Nsg76
(lp4133
g69
(g85
g71
NtRp4134
(dp4135
g74
(dp4136
sg83
g4130
sg76
(lp4137
g69
(g90
g71
NtRp4138
(dp4139
g74
(dp4140
sg83
g4134
sg76
(lp4141
g69
(g70
g71
NtRp4142
(dp4143
g74
(dp4144
g82
I1
ssg83
g4138
sg76
(lp4145
g3766
(S's\t\x00\x00\x00Usu\xc3\xa1rios'
tRp4146
asbasbasbag69
(g85
g71
NtRp4147
(dp4148
g74
(dp4149
sg83
g4130
sg76
(lp4150
g69
(g90
g71
NtRp4151
(dp4152
g74
(dp4153
sg83
g4147
sg76
(lp4154
g69
(g70
g71
NtRp4155
(dp4156
g74
(dp4157
g82
I1
ssg83
g4151
sg76
(lp4158
I00
asbasbasbag69
(g85
g71
NtRp4159
(dp4160
g74
(dp4161
sg83
g4130
sg76
(lp4162
g69
(g90
g71
NtRp4163
(dp4164
g74
(dp4165
sg83
g4159
sg76
(lp4166
g69
(g70
g71
NtRp4167
(dp4168
g74
(dp4169
g82
I1
ssg83
g4163
sg76
(lp4170
S'/manager/users'
p4171
asbasbasbasbasbasbasbag69
(g85
g71
NtRp4172
(dp4173
g74
(dp4174
sg83
g4114
sg76
(lp4175
g69
(g90
g71
NtRp4176
(dp4177
g74
(dp4178
sg83
g4172
sg76
(lp4179
g69
(g70
g71
NtRp4180
(dp4181
g74
(dp4182
g82
I2
ssg83
g4176
sg76
(lp4183
g69
(g78
g71
NtRp4184
(dp4185
g74
(dp4186
g82
I1
ssg83
Nsg76
(lp4187
g69
(g85
g71
NtRp4188
(dp4189
g74
(dp4190
sg83
g4184
sg76
(lp4191
g69
(g90
g71
NtRp4192
(dp4193
g74
(dp4194
sg83
g4188
sg76
(lp4195
g69
(g70
g71
NtRp4196
(dp4197
g74
(dp4198
g82
I1
ssg83
g4192
sg76
(lp4199
g3766
(S't\x06\x00\x00\x00Grupos'
tRp4200
asbasbasbag69
(g85
g71
NtRp4201
(dp4202
g74
(dp4203
sg83
g4184
sg76
(lp4204
g69
(g90
g71
NtRp4205
(dp4206
g74
(dp4207
sg83
g4201
sg76
(lp4208
g69
(g70
g71
NtRp4209
(dp4210
g74
(dp4211
g82
I1
ssg83
g4205
sg76
(lp4212
I00
asbasbasbag69
(g85
g71
NtRp4213
(dp4214
g74
(dp4215
sg83
g4184
sg76
(lp4216
g69
(g90
g71
NtRp4217
(dp4218
g74
(dp4219
sg83
g4213
sg76
(lp4220
g69
(g70
g71
NtRp4221
(dp4222
g74
(dp4223
g82
I1
ssg83
g4217
sg76
(lp4224
S'/manager/groups'
p4225
asbasbasbasbasbasbasbag69
(g85
g71
NtRp4226
(dp4227
g74
(dp4228
sg83
g4114
sg76
(lp4229
g69
(g90
g71
NtRp4230
(dp4231
g74
(dp4232
sg83
g4226
sg76
(lp4233
g69
(g70
g71
NtRp4234
(dp4235
g74
(dp4236
g82
I2
ssg83
g4230
sg76
(lp4237
g69
(g78
g71
NtRp4238
(dp4239
g74
(dp4240
g82
I1
ssg83
Nsg76
(lp4241
g69
(g85
g71
NtRp4242
(dp4243
g74
(dp4244
sg83
g4238
sg76
(lp4245
g69
(g90
g71
NtRp4246
(dp4247
g74
(dp4248
sg83
g4242
sg76
(lp4249
g69
(g70
g71
NtRp4250
(dp4251
g74
(dp4252
g82
I1
ssg83
g4246
sg76
(lp4253
g3766
(S't\x07\x00\x00\x00Membros'
tRp4254
asbasbasbag69
(g85
g71
NtRp4255
(dp4256
g74
(dp4257
sg83
g4238
sg76
(lp4258
g69
(g90
g71
NtRp4259
(dp4260
g74
(dp4261
sg83
g4255
sg76
(lp4262
g69
(g70
g71
NtRp4263
(dp4264
g74
(dp4265
g82
I1
ssg83
g4259
sg76
(lp4266
I00
asbasbasbag69
(g85
g71
NtRp4267
(dp4268
g74
(dp4269
sg83
g4238
sg76
(lp4270
g69
(g90
g71
NtRp4271
(dp4272
g74
(dp4273
sg83
g4267
sg76
(lp4274
g69
(g70
g71
NtRp4275
(dp4276
g74
(dp4277
g82
I1
ssg83
g4271
sg76
(lp4278
S'/manager/membership'
p4279
asbasbasbasbasbasbasbasbasbasbasbasbasbasbasbag69
(g85
g71
NtRp4280
(dp4281
g74
(dp4282
sg83
g4040
sg76
(lp4283
g69
(g90
g71
NtRp4284
(dp4285
g74
(dp4286
sg83
g4280
sg76
(lp4287
g69
(g70
g71
NtRp4288
(dp4289
g74
(dp4290
g82
I4
ssg83
g4284
sg76
(lp4291
g69
(g78
g71
NtRp4292
(dp4293
g74
(dp4294
g82
I3
ssg83
Nsg76
(lp4295
g69
(g85
g71
NtRp4296
(dp4297
g74
(dp4298
sg83
g4292
sg76
(lp4299
g69
(g90
g71
NtRp4300
(dp4301
g74
(dp4302
sg83
g4296
sg76
(lp4303
g69
(g70
g71
NtRp4304
(dp4305
g74
(dp4306
g82
I3
ssg83
g4300
sg76
(lp4307
g69
(g3706
g71
NtRp4308
(dp4309
g74
(dp4310
g3695
g4075
ssg83
Nsg76
(lp4311
S'Login'
p4312
asbasbasbasbag69
(g85
g71
NtRp4313
(dp4314
g74
(dp4315
sg83
g4292
sg76
(lp4316
g69
(g90
g71
NtRp4317
(dp4318
g74
(dp4319
sg83
g4313
sg76
(lp4320
g69
(g70
g71
NtRp4321
(dp4322
g74
(dp4323
g82
I3
ssg83
g4317
sg76
(lp4324
g112
asbasbasbag69
(g85
g71
NtRp4325
(dp4326
g74
(dp4327
sg83
g4292
sg76
(lp4328
g69
(g90
g71
NtRp4329
(dp4330
g74
(dp4331
sg83
g4325
sg76
(lp4332
g69
(g70
g71
NtRp4333
(dp4334
g74
(dp4335
g82
I3
ssg83
g4329
sg76
(lp4336
S'#'
asbasbasbag69
(g85
g71
NtRp4337
(dp4338
g74
(dp4339
sg83
g4292
sg76
(lp4340
g69
(g90
g71
NtRp4341
(dp4342
g74
(dp4343
sg83
g4337
sg76
(lp4344
g69
(g70
g71
NtRp4345
(dp4346
g74
(dp4347
g82
I3
ssg83
g4341
sg76
(lp4348
g69
(g78
g71
NtRp4349
(dp4350
g74
(dp4351
g82
I2
ssg83
Nsg76
(lp4352
g69
(g85
g71
NtRp4353
(dp4354
g74
(dp4355
sg83
g4349
sg76
(lp4356
g69
(g90
g71
NtRp4357
(dp4358
g74
(dp4359
sg83
g4353
sg76
(lp4360
g69
(g70
g71
NtRp4361
(dp4362
g74
(dp4363
g82
I2
ssg83
g4357
sg76
(lp4364
g69
(g78
g71
NtRp4365
(dp4366
g74
(dp4367
g82
I1
ssg83
Nsg76
(lp4368
g69
(g85
g71
NtRp4369
(dp4370
g74
(dp4371
sg83
g4365
sg76
(lp4372
g69
(g90
g71
NtRp4373
(dp4374
g74
(dp4375
sg83
g4369
sg76
(lp4376
g69
(g70
g71
NtRp4377
(dp4378
g74
(dp4379
g82
I1
ssg83
g4373
sg76
(lp4380
g3766
(S't\x06\x00\x00\x00Logout'
tRp4381
asbasbasbag69
(g85
g71
NtRp4382
(dp4383
g74
(dp4384
sg83
g4365
sg76
(lp4385
g69
(g90
g71
NtRp4386
(dp4387
g74
(dp4388
sg83
g4382
sg76
(lp4389
g69
(g70
g71
NtRp4390
(dp4391
g74
(dp4392
g82
I1
ssg83
g4386
sg76
(lp4393
I00
asbasbasbag69
(g85
g71
NtRp4394
(dp4395
g74
(dp4396
sg83
g4365
sg76
(lp4397
g69
(g90
g71
NtRp4398
(dp4399
g74
(dp4400
sg83
g4394
sg76
(lp4401
g69
(g70
g71
NtRp4402
(dp4403
g74
(dp4404
g82
I1
ssg83
g4398
sg76
(lp4405
S'/initial/user/logout'
p4406
asbasbasbasbasbasbasbasbasbasbasbasbasbasbasbasbasbasbasbag69
(g85
g71
NtRp4407
(dp4408
g74
(dp4409
sg83
g3233
sg76
(lp4410
g69
(g90
g71
NtRp4411
(dp4412
g74
(dp4413
g94
g95
ssg83
g4407
sg76
(lp4414
S'meta'
p4415
asbag69
(g90
g71
NtRp4416
(dp4417
g74
(dp4418
g101
g102
ssg83
g4407
sg76
(lp4419
S':'
asbag69
(g90
g71
NtRp4420
(dp4421
g74
(dp4422
sg83
g4407
sg76
(lp4423
g69
(g70
g71
NtRp4424
(dp4425
g74
(dp4426
g82
I5
ssg83
g4420
sg76
(lp4427
g69
(g78
g71
NtRp4428
(dp4429
g74
(dp4430
g82
I4
ssg83
Nsg76
(lp4431
g69
(g85
g71
NtRp4432
(dp4433
g74
(dp4434
sg83
g4428
sg76
(lp4435
g69
(g90
g71
NtRp4436
(dp4437
g74
(dp4438
g94
g95
ssg83
g4432
sg76
(lp4439
S'author'
p4440
asbag69
(g90
g71
NtRp4441
(dp4442
g74
(dp4443
g101
g102
ssg83
g4432
sg76
(lp4444
S':'
asbag69
(g90
g71
NtRp4445
(dp4446
g74
(dp4447
sg83
g4432
sg76
(lp4448
g69
(g70
g71
NtRp4449
(dp4450
g74
(dp4451
g82
I4
ssg83
g4445
sg76
(lp4452
S'Your Name <you@example.com>'
p4453
asbasbasbag69
(g85
g71
NtRp4454
(dp4455
g74
(dp4456
sg83
g4428
sg76
(lp4457
g69
(g90
g71
NtRp4458
(dp4459
g74
(dp4460
g94
g95
ssg83
g4454
sg76
(lp4461
S'description'
p4462
asbag69
(g90
g71
NtRp4463
(dp4464
g74
(dp4465
g101
g102
ssg83
g4454
sg76
(lp4466
S':'
asbag69
(g90
g71
NtRp4467
(dp4468
g74
(dp4469
sg83
g4454
sg76
(lp4470
g69
(g70
g71
NtRp4471
(dp4472
g74
(dp4473
g82
I4
ssg83
g4467
sg76
(lp4474
S'a cool new app'
p4475
asbasbasbag69
(g85
g71
NtRp4476
(dp4477
g74
(dp4478
sg83
g4428
sg76
(lp4479
g69
(g90
g71
NtRp4480
(dp4481
g74
(dp4482
g94
g95
ssg83
g4476
sg76
(lp4483
S'generator'
p4484
asbag69
(g90
g71
NtRp4485
(dp4486
g74
(dp4487
g101
g102
ssg83
g4476
sg76
(lp4488
S':'
asbag69
(g90
g71
NtRp4489
(dp4490
g74
(dp4491
sg83
g4476
sg76
(lp4492
g69
(g70
g71
NtRp4493
(dp4494
g74
(dp4495
g82
I4
ssg83
g4489
sg76
(lp4496
S'Web2py Web Framework'
p4497
asbasbasbag69
(g85
g71
NtRp4498
(dp4499
g74
(dp4500
sg83
g4428
sg76
(lp4501
g69
(g90
g71
NtRp4502
(dp4503
g74
(dp4504
g94
g95
ssg83
g4498
sg76
(lp4505
S'keywords'
p4506
asbag69
(g90
g71
NtRp4507
(dp4508
g74
(dp4509
g101
g102
ssg83
g4498
sg76
(lp4510
S':'
asbag69
(g90
g71
NtRp4511
(dp4512
g74
(dp4513
sg83
g4498
sg76
(lp4514
g69
(g70
g71
NtRp4515
(dp4516
g74
(dp4517
g82
I4
ssg83
g4511
sg76
(lp4518
S'web2py, python, framework'
p4519
asbasbasbasbasbasbasbag69
(g85
g71
NtRp4520
(dp4521
g74
(dp4522
sg83
g3233
sg76
(lp4523
g69
(g90
g71
NtRp4524
(dp4525
g74
(dp4526
g94
g95
ssg83
g4520
sg76
(lp4527
S'models_to_run'
p4528
asbag69
(g90
g71
NtRp4529
(dp4530
g74
(dp4531
g101
g102
ssg83
g4520
sg76
(lp4532
S':'
asbag69
(g90
g71
NtRp4533
(dp4534
g74
(dp4535
sg83
g4520
sg76
(lp4536
g69
(g70
g71
NtRp4537
(dp4538
g74
(dp4539
g82
I5
ssg83
g4533
sg76
(lp4540
g69
(g78
g71
NtRp4541
(dp4542
g74
(dp4543
g82
I4
ssg83
Nsg76
(lp4544
g69
(g85
g71
NtRp4545
(dp4546
g74
(dp4547
sg83
g4541
sg76
(lp4548
g69
(g90
g71
NtRp4549
(dp4550
g74
(dp4551
sg83
g4545
sg76
(lp4552
g69
(g70
g71
NtRp4553
(dp4554
g74
(dp4555
g82
I4
ssg83
g4549
sg76
(lp4556
S'^\\w+\\.py$'
p4557
asbasbasbag69
(g85
g71
NtRp4558
(dp4559
g74
(dp4560
sg83
g4541
sg76
(lp4561
g69
(g90
g71
NtRp4562
(dp4563
g74
(dp4564
sg83
g4558
sg76
(lp4565
g69
(g70
g71
NtRp4566
(dp4567
g74
(dp4568
g82
I4
ssg83
g4562
sg76
(lp4569
S'^initial/\\w+\\.py$'
p4570
asbasbasbag69
(g85
g71
NtRp4571
(dp4572
g74
(dp4573
sg83
g4541
sg76
(lp4574
g69
(g90
g71
NtRp4575
(dp4576
g74
(dp4577
sg83
g4571
sg76
(lp4578
g69
(g70
g71
NtRp4579
(dp4580
g74
(dp4581
g82
I4
ssg83
g4575
sg76
(lp4582
S'^initial/show_cliente/\\w+\\.py$'
p4583
asbasbasbasbasbasbasbag69
(g85
g71
NtRp4584
(dp4585
g74
(dp4586
sg83
g3233
sg76
(lp4587
g69
(g90
g71
NtRp4588
(dp4589
g74
(dp4590
g94
g95
ssg83
g4584
sg76
(lp4591
S'postprocessing'
p4592
asbag69
(g90
g71
NtRp4593
(dp4594
g74
(dp4595
g101
g102
ssg83
g4584
sg76
(lp4596
S':'
asbag69
(g90
g71
NtRp4597
(dp4598
g74
(dp4599
sg83
g4584
sg76
(lp4600
g69
(g70
g71
NtRp4601
(dp4602
g74
(dp4603
g82
I5
ssg83
g4597
sg76
(lp4604
g69
(g78
g71
NtRp4605
(dp4606
g74
(dp4607
g82
I4
ssg83
Nsg76
(lp4608
sbasbasbasbag69
(g85
g71
NtRp4609
(dp4610
g74
(dp4611
sg83
g3233
sg76
(lp4612
g69
(g90
g71
NtRp4613
(dp4614
g74
(dp4615
g94
g95
ssg83
g4609
sg76
(lp4616
S'session_cookie_expires'
p4617
asbag69
(g90
g71
NtRp4618
(dp4619
g74
(dp4620
g101
g102
ssg83
g4609
sg76
(lp4621
S':'
asbag69
(g90
g71
NtRp4622
(dp4623
g74
(dp4624
sg83
g4609
sg76
(lp4625
g69
(g70
g71
NtRp4626
(dp4627
g74
(dp4628
g82
I5
ssg83
g4622
sg76
(lp4629
S'None'
p4630
asbasbasbag69
(g85
g71
NtRp4631
(dp4632
g74
(dp4633
sg83
g3233
sg76
(lp4634
g69
(g90
g71
NtRp4635
(dp4636
g74
(dp4637
g94
g95
ssg83
g4631
sg76
(lp4638
S'session_data_name'
p4639
asbag69
(g90
g71
NtRp4640
(dp4641
g74
(dp4642
g101
g102
ssg83
g4631
sg76
(lp4643
S':'
asbag69
(g90
g71
NtRp4644
(dp4645
g74
(dp4646
sg83
g4631
sg76
(lp4647
g69
(g70
g71
NtRp4648
(dp4649
g74
(dp4650
g82
I5
ssg83
g4644
sg76
(lp4651
S'session_data_projeto'
p4652
asbasbasbag69
(g85
g71
NtRp4653
(dp4654
g74
(dp4655
sg83
g3233
sg76
(lp4656
g69
(g90
g71
NtRp4657
(dp4658
g74
(dp4659
g94
g95
ssg83
g4653
sg76
(lp4660
S'session_file'
p4661
asbag69
(g90
g71
NtRp4662
(dp4663
g74
(dp4664
g101
g102
ssg83
g4653
sg76
(lp4665
S':'
asbag69
(g90
g71
NtRp4666
(dp4667
g74
(dp4668
sg83
g4653
sg76
(lp4669
g69
(g70
g71
NtRp4670
(dp4671
g74
(dp4672
g82
I5
ssg83
g4666
sg76
(lp4673
S"<open file '/var/www/conferencia/applications/projeto/sessions/127.0.0.1-0fe02c32-0739-4f06-a369-3bba6377da8b', mode 'rb+' at 0x7f32e411b540>"
p4674
asbasbasbag69
(g85
g71
NtRp4675
(dp4676
g74
(dp4677
sg83
g3233
sg76
(lp4678
g69
(g90
g71
NtRp4679
(dp4680
g74
(dp4681
g94
g95
ssg83
g4675
sg76
(lp4682
S'session_filename'
p4683
asbag69
(g90
g71
NtRp4684
(dp4685
g74
(dp4686
g101
g102
ssg83
g4675
sg76
(lp4687
S':'
asbag69
(g90
g71
NtRp4688
(dp4689
g74
(dp4690
sg83
g4675
sg76
(lp4691
g69
(g70
g71
NtRp4692
(dp4693
g74
(dp4694
g82
I5
ssg83
g4688
sg76
(lp4695
S'/var/www/conferencia/applications/projeto/sessions/127.0.0.1-0fe02c32-0739-4f06-a369-3bba6377da8b'
p4696
asbasbasbag69
(g85
g71
NtRp4697
(dp4698
g74
(dp4699
sg83
g3233
sg76
(lp4700
g69
(g90
g71
NtRp4701
(dp4702
g74
(dp4703
g94
g95
ssg83
g4697
sg76
(lp4704
S'session_id'
p4705
asbag69
(g90
g71
NtRp4706
(dp4707
g74
(dp4708
g101
g102
ssg83
g4697
sg76
(lp4709
S':'
asbag69
(g90
g71
NtRp4710
(dp4711
g74
(dp4712
sg83
g4697
sg76
(lp4713
g69
(g70
g71
NtRp4714
(dp4715
g74
(dp4716
g82
I5
ssg83
g4710
sg76
(lp4717
g487
asbasbasbag69
(g85
g71
NtRp4718
(dp4719
g74
(dp4720
sg83
g3233
sg76
(lp4721
g69
(g90
g71
NtRp4722
(dp4723
g74
(dp4724
g94
g95
ssg83
g4718
sg76
(lp4725
S'session_id_name'
p4726
asbag69
(g90
g71
NtRp4727
(dp4728
g74
(dp4729
g101
g102
ssg83
g4718
sg76
(lp4730
S':'
asbag69
(g90
g71
NtRp4731
(dp4732
g74
(dp4733
sg83
g4718
sg76
(lp4734
g69
(g70
g71
NtRp4735
(dp4736
g74
(dp4737
g82
I5
ssg83
g4731
sg76
(lp4738
g3290
asbasbasbag69
(g85
g71
NtRp4739
(dp4740
g74
(dp4741
sg83
g3233
sg76
(lp4742
g69
(g90
g71
NtRp4743
(dp4744
g74
(dp4745
g94
g95
ssg83
g4739
sg76
(lp4746
S'session_locked'
p4747
asbag69
(g90
g71
NtRp4748
(dp4749
g74
(dp4750
g101
g102
ssg83
g4739
sg76
(lp4751
S':'
asbag69
(g90
g71
NtRp4752
(dp4753
g74
(dp4754
sg83
g4739
sg76
(lp4755
g69
(g70
g71
NtRp4756
(dp4757
g74
(dp4758
g82
I5
ssg83
g4752
sg76
(lp4759
g1648
asbasbasbag69
(g85
g71
NtRp4760
(dp4761
g74
(dp4762
sg83
g3233
sg76
(lp4763
g69
(g90
g71
NtRp4764
(dp4765
g74
(dp4766
g94
g95
ssg83
g4760
sg76
(lp4767
S'session_new'
p4768
asbag69
(g90
g71
NtRp4769
(dp4770
g74
(dp4771
g101
g102
ssg83
g4760
sg76
(lp4772
S':'
asbag69
(g90
g71
NtRp4773
(dp4774
g74
(dp4775
sg83
g4760
sg76
(lp4776
g69
(g70
g71
NtRp4777
(dp4778
g74
(dp4779
g82
I5
ssg83
g4773
sg76
(lp4780
g112
asbasbasbag69
(g85
g71
NtRp4781
(dp4782
g74
(dp4783
sg83
g3233
sg76
(lp4784
g69
(g90
g71
NtRp4785
(dp4786
g74
(dp4787
g94
g95
ssg83
g4781
sg76
(lp4788
S'session_storage_type'
p4789
asbag69
(g90
g71
NtRp4790
(dp4791
g74
(dp4792
g101
g102
ssg83
g4781
sg76
(lp4793
S':'
asbag69
(g90
g71
NtRp4794
(dp4795
g74
(dp4796
sg83
g4781
sg76
(lp4797
g69
(g70
g71
NtRp4798
(dp4799
g74
(dp4800
g82
I5
ssg83
g4794
sg76
(lp4801
g3087
asbasbasbag69
(g85
g71
NtRp4802
(dp4803
g74
(dp4804
sg83
g3233
sg76
(lp4805
g69
(g90
g71
NtRp4806
(dp4807
g74
(dp4808
g94
g95
ssg83
g4802
sg76
(lp4809
S'status'
p4810
asbag69
(g90
g71
NtRp4811
(dp4812
g74
(dp4813
g101
g102
ssg83
g4802
sg76
(lp4814
S':'
asbag69
(g90
g71
NtRp4815
(dp4816
g74
(dp4817
sg83
g4802
sg76
(lp4818
g69
(g70
g71
NtRp4819
(dp4820
g74
(dp4821
g82
I5
ssg83
g4815
sg76
(lp4822
S'200'
p4823
asbasbasbag69
(g85
g71
NtRp4824
(dp4825
g74
(dp4826
sg83
g3233
sg76
(lp4827
g69
(g90
g71
NtRp4828
(dp4829
g74
(dp4830
g94
g95
ssg83
g4824
sg76
(lp4831
S'subtitle'
p4832
asbag69
(g90
g71
NtRp4833
(dp4834
g74
(dp4835
g101
g102
ssg83
g4824
sg76
(lp4836
S':'
asbag69
(g90
g71
NtRp4837
(dp4838
g74
(dp4839
sg83
g4824
sg76
(lp4840
g69
(g70
g71
NtRp4841
(dp4842
g74
(dp4843
g82
I5
ssg83
g4837
sg76
(lp4844
g3766
(S's\r\x00\x00\x00customize me!'
tRp4845
asbasbasbag69
(g85
g71
NtRp4846
(dp4847
g74
(dp4848
sg83
g3233
sg76
(lp4849
g69
(g90
g71
NtRp4850
(dp4851
g74
(dp4852
g94
g95
ssg83
g4846
sg76
(lp4853
S'title'
p4854
asbag69
(g90
g71
NtRp4855
(dp4856
g74
(dp4857
g101
g102
ssg83
g4846
sg76
(lp4858
S':'
asbag69
(g90
g71
NtRp4859
(dp4860
g74
(dp4861
sg83
g4846
sg76
(lp4862
g69
(g70
g71
NtRp4863
(dp4864
g74
(dp4865
g82
I5
ssg83
g4859
sg76
(lp4866
S'Projeto'
p4867
asbasbasbag69
(g85
g71
NtRp4868
(dp4869
g74
(dp4870
sg83
g3233
sg76
(lp4871
g69
(g90
g71
NtRp4872
(dp4873
g74
(dp4874
g94
g95
ssg83
g4868
sg76
(lp4875
S'view'
p4876
asbag69
(g90
g71
NtRp4877
(dp4878
g74
(dp4879
g101
g102
ssg83
g4868
sg76
(lp4880
S':'
asbag69
(g90
g71
NtRp4881
(dp4882
g74
(dp4883
sg83
g4868
sg76
(lp4884
g69
(g70
g71
NtRp4885
(dp4886
g74
(dp4887
g82
I5
ssg83
g4881
sg76
(lp4888
S'initial/show_cliente.html'
p4889
asbasbasbasbasbsS'locals'
p4890
(dp4891
S'postcreation_fields'
p4892
S'[]'
p4893
sS'field_type'
p4894
S"'auto_increment'"
p4895
sS'sortable'
p4896
S'1'
sS'sql_fields_aux'
p4897
g21
sS'TFK'
p4898
g21
sS'migrate'
p4899
g1648
sS'fields'
p4900
S'[]'
p4901
sS'self'
p4902
S'<gluon.dal.PostgreSQLAdapter object>'
p4903
sS'tablename'
p4904
S"'meetme'"
p4905
sS'fake_migrate'
p4906
g112
sS'db'
p4907
S'<DAL uri="postgres:pg8000://******:123456@127.0.0.1/conferencia">'
p4908
sS'field'
p4909
S'<gluon.dal.Field object>'
p4910
sS'polymodel'
p4911
S'None'
p4912
sS'table'
p4913
S'<Table meetme (confno,starttime,endtime,membros_user)>'
p4914
sS'sql_fields'
p4915
g21
sS'field_name'
p4916
S"'confno'"
p4917
sS'types'
p4918
S"{'big-id': 'BIGSERIAL PRIMARY KEY', 'big-reference': 'BIGINT REFERENCES %(foreign_key)s ON DELETE %(on_delete_action)s', 'bigint': 'BIGINT', 'blob': 'BYTEA', 'boolean': 'CHAR(1)', 'date': 'DATE', 'datetime': 'TIMESTAMP', 'decimal': 'NUMERIC(%(precision)s,%(scale)s)', 'double': 'FLOAT8', 'float': 'FLOAT', ...}"
p4919
sssS'traceback'
p4920
S'Traceback (most recent call last):\n  File "/var/www/conferencia/gluon/restricted.py", line 212, in restricted\n    exec ccode in environment\n  File "/var/www/conferencia/applications/projeto/models/models.py", line 14, in <module>\n    primarykey=[\'confno\']\n  File "/var/www/conferencia/gluon/dal.py", line 7186, in define_table\n    table = self.lazy_define_table(tablename,*fields,**args)\n  File "/var/www/conferencia/gluon/dal.py", line 7222, in lazy_define_table\n    polymodel=polymodel)\n  File "/var/www/conferencia/gluon/dal.py", line 836, in create_table\n    (field_type, field_name))\nSyntaxError: Field: unknown field type: auto_increment for confno\n'
p4921
s.