(dp1
S'output'
p2
S'<class \'gluon.contrib.pg8000.errors.ProgrammingError\'> (\'ERROR\', \'23502\', \'column "confno__tmp" contains null values\')'
p3
sS'layer'
p4
S'/var/www/conferencia/applications/projeto/models/models.py'
p5
sS'code'
p6
S'usuario = db.define_table("usuario",\n      Field("nome", notnull=True, unique=True),\n      Field("pin"),\n      Field("email"),\n      #auth.signature\n      format="%(nome)s")\n\n\nmeetme = db.define_table("meetme",\n      Field("confno"), \n      Field("starttime", "datetime"),\n      Field("endtime", "datetime"),\n      Field("membros_user", \'list:reference usuario\'),\n      primarykey=[\'confno\']\n      )\n\n\n\n'
p7
sS'snapshot'
p8
(dp9
S'exception'
p10
(dp11
S'__module__'
p12
S"'gluon.contrib.pg8000.errors'"
p13
sS'__getslice__'
p14
S"<method-wrapper '__getslice__' of ProgrammingError object>"
p15
sS'__str__'
p16
S"<method-wrapper '__str__' of ProgrammingError object>"
p17
sS'__reduce__'
p18
S'<built-in method __reduce__ of ProgrammingError object>'
p19
sS'__dict__'
p20
S'{}'
p21
sS'__sizeof__'
p22
S'<built-in method __sizeof__ of ProgrammingError object>'
p23
sS'__weakref__'
p24
S'None'
p25
sS'__init__'
p26
S"<method-wrapper '__init__' of ProgrammingError object>"
p27
sS'__setattr__'
p28
S"<method-wrapper '__setattr__' of ProgrammingError object>"
p29
sS'__reduce_ex__'
p30
S'<built-in method __reduce_ex__ of ProgrammingError object>'
p31
sS'__new__'
p32
S'<built-in method __new__ of type object>'
p33
sS'__format__'
p34
S'<built-in method __format__ of ProgrammingError object>'
p35
sS'__class__'
p36
S"<class 'gluon.contrib.pg8000.errors.ProgrammingError'>"
p37
sS'__doc__'
p38
S'None'
p39
sS'__getitem__'
p40
S"<method-wrapper '__getitem__' of ProgrammingError object>"
p41
sS'__setstate__'
p42
S'<built-in method __setstate__ of ProgrammingError object>'
p43
sS'__getattribute__'
p44
S"<method-wrapper '__getattribute__' of ProgrammingError object>"
p45
sS'args'
p46
S'(\'ERROR\', \'23502\', \'column "confno__tmp" contains null values\')'
p47
sS'__subclasshook__'
p48
S'<built-in method __subclasshook__ of type object>'
p49
sS'__unicode__'
p50
S'<built-in method __unicode__ of ProgrammingError object>'
p51
sS'__delattr__'
p52
S"<method-wrapper '__delattr__' of ProgrammingError object>"
p53
sS'__repr__'
p54
S"<method-wrapper '__repr__' of ProgrammingError object>"
p55
sS'__hash__'
p56
S"<method-wrapper '__hash__' of ProgrammingError object>"
p57
ssS'evalue'
p58
S'(\'ERROR\', \'23502\', \'column "confno__tmp" contains null values\')'
p59
sS'request'
p60
ccopy_reg
_reconstructor
p61
(cgluon.html
BEAUTIFY
p62
c__builtin__
object
p63
NtRp64
(dp65
S'attributes'
p66
(dp67
sS'components'
p68
(lp69
g61
(cgluon.html
TABLE
p70
g63
NtRp71
(dp72
g66
(dp73
S'level'
p74
I5
ssS'parent'
p75
Nsg68
(lp76
g61
(cgluon.html
TR
p77
g63
NtRp78
(dp79
g66
(dp80
sg75
g71
sg68
(lp81
g61
(cgluon.html
TD
p82
g63
NtRp83
(dp84
g66
(dp85
S'_style'
p86
S'font-weight:bold;vertical-align:top'
p87
ssg75
g78
sg68
(lp88
S'ajax'
p89
asbag61
(g82
g63
NtRp90
(dp91
g66
(dp92
S'_valign'
p93
S'top'
p94
ssg75
g78
sg68
(lp95
S':'
asbag61
(g82
g63
NtRp96
(dp97
g66
(dp98
sg75
g78
sg68
(lp99
g61
(g62
g63
NtRp100
(dp101
g66
(dp102
g74
I5
ssg75
g96
sg68
(lp103
S'False'
p104
asbasbasbag61
(g77
g63
NtRp105
(dp106
g66
(dp107
sg75
g71
sg68
(lp108
g61
(g82
g63
NtRp109
(dp110
g66
(dp111
g86
g87
ssg75
g105
sg68
(lp112
S'application'
p113
asbag61
(g82
g63
NtRp114
(dp115
g66
(dp116
g93
g94
ssg75
g105
sg68
(lp117
S':'
asbag61
(g82
g63
NtRp118
(dp119
g66
(dp120
sg75
g105
sg68
(lp121
g61
(g62
g63
NtRp122
(dp123
g66
(dp124
g74
I5
ssg75
g118
sg68
(lp125
S'projeto'
p126
asbasbasbag61
(g77
g63
NtRp127
(dp128
g66
(dp129
sg75
g71
sg68
(lp130
g61
(g82
g63
NtRp131
(dp132
g66
(dp133
g86
g87
ssg75
g127
sg68
(lp134
g46
asbag61
(g82
g63
NtRp135
(dp136
g66
(dp137
g93
g94
ssg75
g127
sg68
(lp138
S':'
asbag61
(g82
g63
NtRp139
(dp140
g66
(dp141
sg75
g127
sg68
(lp142
g61
(g62
g63
NtRp143
(dp144
g66
(dp145
g74
I5
ssg75
g139
sg68
(lp146
g61
(g70
g63
NtRp147
(dp148
g66
(dp149
g74
I4
ssg75
Nsg68
(lp150
sbasbasbasbag61
(g77
g63
NtRp151
(dp152
g66
(dp153
sg75
g71
sg68
(lp154
g61
(g82
g63
NtRp155
(dp156
g66
(dp157
g86
g87
ssg75
g151
sg68
(lp158
S'body'
p159
asbag61
(g82
g63
NtRp160
(dp161
g66
(dp162
g93
g94
ssg75
g151
sg68
(lp163
S':'
asbag61
(g82
g63
NtRp164
(dp165
g66
(dp166
sg75
g151
sg68
(lp167
g61
(g62
g63
NtRp168
(dp169
g66
(dp170
g74
I5
ssg75
g164
sg68
(lp171
S'<cStringIO.StringO object at 0x7f7c50281e30>'
p172
asbasbasbag61
(g77
g63
NtRp173
(dp174
g66
(dp175
sg75
g71
sg68
(lp176
g61
(g82
g63
NtRp177
(dp178
g66
(dp179
g86
g87
ssg75
g173
sg68
(lp180
S'cid'
p181
asbag61
(g82
g63
NtRp182
(dp183
g66
(dp184
g93
g94
ssg75
g173
sg68
(lp185
S':'
asbag61
(g82
g63
NtRp186
(dp187
g66
(dp188
sg75
g173
sg68
(lp189
g61
(g62
g63
NtRp190
(dp191
g66
(dp192
g74
I5
ssg75
g186
sg68
(lp193
S'None'
p194
asbasbasbag61
(g77
g63
NtRp195
(dp196
g66
(dp197
sg75
g71
sg68
(lp198
g61
(g82
g63
NtRp199
(dp200
g66
(dp201
g86
g87
ssg75
g195
sg68
(lp202
S'client'
p203
asbag61
(g82
g63
NtRp204
(dp205
g66
(dp206
g93
g94
ssg75
g195
sg68
(lp207
S':'
asbag61
(g82
g63
NtRp208
(dp209
g66
(dp210
sg75
g195
sg68
(lp211
g61
(g62
g63
NtRp212
(dp213
g66
(dp214
g74
I5
ssg75
g208
sg68
(lp215
S'127.0.0.1'
p216
asbasbasbag61
(g77
g63
NtRp217
(dp218
g66
(dp219
sg75
g71
sg68
(lp220
g61
(g82
g63
NtRp221
(dp222
g66
(dp223
g86
g87
ssg75
g217
sg68
(lp224
S'controller'
p225
asbag61
(g82
g63
NtRp226
(dp227
g66
(dp228
g93
g94
ssg75
g217
sg68
(lp229
S':'
asbag61
(g82
g63
NtRp230
(dp231
g66
(dp232
sg75
g217
sg68
(lp233
g61
(g62
g63
NtRp234
(dp235
g66
(dp236
g74
I5
ssg75
g230
sg68
(lp237
S'initial'
p238
asbasbasbag61
(g77
g63
NtRp239
(dp240
g66
(dp241
sg75
g71
sg68
(lp242
g61
(g82
g63
NtRp243
(dp244
g66
(dp245
g86
g87
ssg75
g239
sg68
(lp246
S'cookies'
p247
asbag61
(g82
g63
NtRp248
(dp249
g66
(dp250
g93
g94
ssg75
g239
sg68
(lp251
S':'
asbag61
(g82
g63
NtRp252
(dp253
g66
(dp254
sg75
g239
sg68
(lp255
g61
(g62
g63
NtRp256
(dp257
g66
(dp258
g74
I5
ssg75
g252
sg68
(lp259
g61
(g70
g63
NtRp260
(dp261
g66
(dp262
g74
I4
ssg75
Nsg68
(lp263
g61
(g77
g63
NtRp264
(dp265
g66
(dp266
sg75
g260
sg68
(lp267
g61
(g82
g63
NtRp268
(dp269
g66
(dp270
g86
g87
ssg75
g264
sg68
(lp271
S'session_id_admin'
p272
asbag61
(g82
g63
NtRp273
(dp274
g66
(dp275
g93
g94
ssg75
g264
sg68
(lp276
S':'
asbag61
(g82
g63
NtRp277
(dp278
g66
(dp279
sg75
g264
sg68
(lp280
g61
(g62
g63
NtRp281
(dp282
g66
(dp283
g74
I4
ssg75
g277
sg68
(lp284
S'127.0.0.1-f08163e7-63a0-4e97-8334-13b9dc892d78'
p285
ag61
(g70
g63
NtRp286
(dp287
g66
(dp288
g74
I3
ssg75
Nsg68
(lp289
g61
(g77
g63
NtRp290
(dp291
g66
(dp292
sg75
g286
sg68
(lp293
g61
(g82
g63
NtRp294
(dp295
g66
(dp296
g86
g87
ssg75
g290
sg68
(lp297
S'comment'
p298
asbag61
(g82
g63
NtRp299
(dp300
g66
(dp301
g93
g94
ssg75
g290
sg68
(lp302
S':'
asbag61
(g82
g63
NtRp303
(dp304
g66
(dp305
sg75
g290
sg68
(lp306
g61
(g62
g63
NtRp307
(dp308
g66
(dp309
g74
I3
ssg75
g303
sg68
(lp310
S''
asbasbasbag61
(g77
g63
NtRp311
(dp312
g66
(dp313
sg75
g286
sg68
(lp314
g61
(g82
g63
NtRp315
(dp316
g66
(dp317
g86
g87
ssg75
g311
sg68
(lp318
S'domain'
p319
asbag61
(g82
g63
NtRp320
(dp321
g66
(dp322
g93
g94
ssg75
g311
sg68
(lp323
S':'
asbag61
(g82
g63
NtRp324
(dp325
g66
(dp326
sg75
g311
sg68
(lp327
g61
(g62
g63
NtRp328
(dp329
g66
(dp330
g74
I3
ssg75
g324
sg68
(lp331
S''
asbasbasbag61
(g77
g63
NtRp332
(dp333
g66
(dp334
sg75
g286
sg68
(lp335
g61
(g82
g63
NtRp336
(dp337
g66
(dp338
g86
g87
ssg75
g332
sg68
(lp339
S'expires'
p340
asbag61
(g82
g63
NtRp341
(dp342
g66
(dp343
g93
g94
ssg75
g332
sg68
(lp344
S':'
asbag61
(g82
g63
NtRp345
(dp346
g66
(dp347
sg75
g332
sg68
(lp348
g61
(g62
g63
NtRp349
(dp350
g66
(dp351
g74
I3
ssg75
g345
sg68
(lp352
S''
asbasbasbag61
(g77
g63
NtRp353
(dp354
g66
(dp355
sg75
g286
sg68
(lp356
g61
(g82
g63
NtRp357
(dp358
g66
(dp359
g86
g87
ssg75
g353
sg68
(lp360
S'httponly'
p361
asbag61
(g82
g63
NtRp362
(dp363
g66
(dp364
g93
g94
ssg75
g353
sg68
(lp365
S':'
asbag61
(g82
g63
NtRp366
(dp367
g66
(dp368
sg75
g353
sg68
(lp369
g61
(g62
g63
NtRp370
(dp371
g66
(dp372
g74
I3
ssg75
g366
sg68
(lp373
S''
asbasbasbag61
(g77
g63
NtRp374
(dp375
g66
(dp376
sg75
g286
sg68
(lp377
g61
(g82
g63
NtRp378
(dp379
g66
(dp380
g86
g87
ssg75
g374
sg68
(lp381
S'max-age'
p382
asbag61
(g82
g63
NtRp383
(dp384
g66
(dp385
g93
g94
ssg75
g374
sg68
(lp386
S':'
asbag61
(g82
g63
NtRp387
(dp388
g66
(dp389
sg75
g374
sg68
(lp390
g61
(g62
g63
NtRp391
(dp392
g66
(dp393
g74
I3
ssg75
g387
sg68
(lp394
S''
asbasbasbag61
(g77
g63
NtRp395
(dp396
g66
(dp397
sg75
g286
sg68
(lp398
g61
(g82
g63
NtRp399
(dp400
g66
(dp401
g86
g87
ssg75
g395
sg68
(lp402
S'path'
p403
asbag61
(g82
g63
NtRp404
(dp405
g66
(dp406
g93
g94
ssg75
g395
sg68
(lp407
S':'
asbag61
(g82
g63
NtRp408
(dp409
g66
(dp410
sg75
g395
sg68
(lp411
g61
(g62
g63
NtRp412
(dp413
g66
(dp414
g74
I3
ssg75
g408
sg68
(lp415
S''
asbasbasbag61
(g77
g63
NtRp416
(dp417
g66
(dp418
sg75
g286
sg68
(lp419
g61
(g82
g63
NtRp420
(dp421
g66
(dp422
g86
g87
ssg75
g416
sg68
(lp423
S'secure'
p424
asbag61
(g82
g63
NtRp425
(dp426
g66
(dp427
g93
g94
ssg75
g416
sg68
(lp428
S':'
asbag61
(g82
g63
NtRp429
(dp430
g66
(dp431
sg75
g416
sg68
(lp432
g61
(g62
g63
NtRp433
(dp434
g66
(dp435
g74
I3
ssg75
g429
sg68
(lp436
S''
asbasbasbag61
(g77
g63
NtRp437
(dp438
g66
(dp439
sg75
g286
sg68
(lp440
g61
(g82
g63
NtRp441
(dp442
g66
(dp443
g86
g87
ssg75
g437
sg68
(lp444
S'version'
p445
asbag61
(g82
g63
NtRp446
(dp447
g66
(dp448
g93
g94
ssg75
g437
sg68
(lp449
S':'
asbag61
(g82
g63
NtRp450
(dp451
g66
(dp452
sg75
g437
sg68
(lp453
g61
(g62
g63
NtRp454
(dp455
g66
(dp456
g74
I3
ssg75
g450
sg68
(lp457
S''
asbasbasbasbasbasbasbag61
(g77
g63
NtRp458
(dp459
g66
(dp460
sg75
g260
sg68
(lp461
g61
(g82
g63
NtRp462
(dp463
g66
(dp464
g86
g87
ssg75
g458
sg68
(lp465
S'session_id_projeto'
p466
asbag61
(g82
g63
NtRp467
(dp468
g66
(dp469
g93
g94
ssg75
g458
sg68
(lp470
S':'
asbag61
(g82
g63
NtRp471
(dp472
g66
(dp473
sg75
g458
sg68
(lp474
g61
(g62
g63
NtRp475
(dp476
g66
(dp477
g74
I4
ssg75
g471
sg68
(lp478
S'127.0.0.1-0fe02c32-0739-4f06-a369-3bba6377da8b'
p479
ag61
(g70
g63
NtRp480
(dp481
g66
(dp482
g74
I3
ssg75
Nsg68
(lp483
g61
(g77
g63
NtRp484
(dp485
g66
(dp486
sg75
g480
sg68
(lp487
g61
(g82
g63
NtRp488
(dp489
g66
(dp490
g86
g87
ssg75
g484
sg68
(lp491
g298
asbag61
(g82
g63
NtRp492
(dp493
g66
(dp494
g93
g94
ssg75
g484
sg68
(lp495
S':'
asbag61
(g82
g63
NtRp496
(dp497
g66
(dp498
sg75
g484
sg68
(lp499
g61
(g62
g63
NtRp500
(dp501
g66
(dp502
g74
I3
ssg75
g496
sg68
(lp503
S''
asbasbasbag61
(g77
g63
NtRp504
(dp505
g66
(dp506
sg75
g480
sg68
(lp507
g61
(g82
g63
NtRp508
(dp509
g66
(dp510
g86
g87
ssg75
g504
sg68
(lp511
g319
asbag61
(g82
g63
NtRp512
(dp513
g66
(dp514
g93
g94
ssg75
g504
sg68
(lp515
S':'
asbag61
(g82
g63
NtRp516
(dp517
g66
(dp518
sg75
g504
sg68
(lp519
g61
(g62
g63
NtRp520
(dp521
g66
(dp522
g74
I3
ssg75
g516
sg68
(lp523
S''
asbasbasbag61
(g77
g63
NtRp524
(dp525
g66
(dp526
sg75
g480
sg68
(lp527
g61
(g82
g63
NtRp528
(dp529
g66
(dp530
g86
g87
ssg75
g524
sg68
(lp531
g340
asbag61
(g82
g63
NtRp532
(dp533
g66
(dp534
g93
g94
ssg75
g524
sg68
(lp535
S':'
asbag61
(g82
g63
NtRp536
(dp537
g66
(dp538
sg75
g524
sg68
(lp539
g61
(g62
g63
NtRp540
(dp541
g66
(dp542
g74
I3
ssg75
g536
sg68
(lp543
S''
asbasbasbag61
(g77
g63
NtRp544
(dp545
g66
(dp546
sg75
g480
sg68
(lp547
g61
(g82
g63
NtRp548
(dp549
g66
(dp550
g86
g87
ssg75
g544
sg68
(lp551
g361
asbag61
(g82
g63
NtRp552
(dp553
g66
(dp554
g93
g94
ssg75
g544
sg68
(lp555
S':'
asbag61
(g82
g63
NtRp556
(dp557
g66
(dp558
sg75
g544
sg68
(lp559
g61
(g62
g63
NtRp560
(dp561
g66
(dp562
g74
I3
ssg75
g556
sg68
(lp563
S''
asbasbasbag61
(g77
g63
NtRp564
(dp565
g66
(dp566
sg75
g480
sg68
(lp567
g61
(g82
g63
NtRp568
(dp569
g66
(dp570
g86
g87
ssg75
g564
sg68
(lp571
g382
asbag61
(g82
g63
NtRp572
(dp573
g66
(dp574
g93
g94
ssg75
g564
sg68
(lp575
S':'
asbag61
(g82
g63
NtRp576
(dp577
g66
(dp578
sg75
g564
sg68
(lp579
g61
(g62
g63
NtRp580
(dp581
g66
(dp582
g74
I3
ssg75
g576
sg68
(lp583
S''
asbasbasbag61
(g77
g63
NtRp584
(dp585
g66
(dp586
sg75
g480
sg68
(lp587
g61
(g82
g63
NtRp588
(dp589
g66
(dp590
g86
g87
ssg75
g584
sg68
(lp591
g403
asbag61
(g82
g63
NtRp592
(dp593
g66
(dp594
g93
g94
ssg75
g584
sg68
(lp595
S':'
asbag61
(g82
g63
NtRp596
(dp597
g66
(dp598
sg75
g584
sg68
(lp599
g61
(g62
g63
NtRp600
(dp601
g66
(dp602
g74
I3
ssg75
g596
sg68
(lp603
S''
asbasbasbag61
(g77
g63
NtRp604
(dp605
g66
(dp606
sg75
g480
sg68
(lp607
g61
(g82
g63
NtRp608
(dp609
g66
(dp610
g86
g87
ssg75
g604
sg68
(lp611
g424
asbag61
(g82
g63
NtRp612
(dp613
g66
(dp614
g93
g94
ssg75
g604
sg68
(lp615
S':'
asbag61
(g82
g63
NtRp616
(dp617
g66
(dp618
sg75
g604
sg68
(lp619
g61
(g62
g63
NtRp620
(dp621
g66
(dp622
g74
I3
ssg75
g616
sg68
(lp623
S''
asbasbasbag61
(g77
g63
NtRp624
(dp625
g66
(dp626
sg75
g480
sg68
(lp627
g61
(g82
g63
NtRp628
(dp629
g66
(dp630
g86
g87
ssg75
g624
sg68
(lp631
g445
asbag61
(g82
g63
NtRp632
(dp633
g66
(dp634
g93
g94
ssg75
g624
sg68
(lp635
S':'
asbag61
(g82
g63
NtRp636
(dp637
g66
(dp638
sg75
g624
sg68
(lp639
g61
(g62
g63
NtRp640
(dp641
g66
(dp642
g74
I3
ssg75
g636
sg68
(lp643
S''
asbasbasbasbasbasbasbasbasbasbasbag61
(g77
g63
NtRp644
(dp645
g66
(dp646
sg75
g71
sg68
(lp647
g61
(g82
g63
NtRp648
(dp649
g66
(dp650
g86
g87
ssg75
g644
sg68
(lp651
S'env'
p652
asbag61
(g82
g63
NtRp653
(dp654
g66
(dp655
g93
g94
ssg75
g644
sg68
(lp656
S':'
asbag61
(g82
g63
NtRp657
(dp658
g66
(dp659
sg75
g644
sg68
(lp660
g61
(g62
g63
NtRp661
(dp662
g66
(dp663
g74
I5
ssg75
g657
sg68
(lp664
g61
(g70
g63
NtRp665
(dp666
g66
(dp667
g74
I4
ssg75
Nsg68
(lp668
g61
(g77
g63
NtRp669
(dp670
g66
(dp671
sg75
g665
sg68
(lp672
g61
(g82
g63
NtRp673
(dp674
g66
(dp675
g86
g87
ssg75
g669
sg68
(lp676
S'app_folders'
p677
asbag61
(g82
g63
NtRp678
(dp679
g66
(dp680
g93
g94
ssg75
g669
sg68
(lp681
S':'
asbag61
(g82
g63
NtRp682
(dp683
g66
(dp684
sg75
g669
sg68
(lp685
g61
(g62
g63
NtRp686
(dp687
g66
(dp688
g74
I4
ssg75
g682
sg68
(lp689
S"set(['/var/www/conferencia/applications/projeto/'])"
p690
asbasbasbag61
(g77
g63
NtRp691
(dp692
g66
(dp693
sg75
g665
sg68
(lp694
g61
(g82
g63
NtRp695
(dp696
g66
(dp697
g86
g87
ssg75
g691
sg68
(lp698
S'applications_parent'
p699
asbag61
(g82
g63
NtRp700
(dp701
g66
(dp702
g93
g94
ssg75
g691
sg68
(lp703
S':'
asbag61
(g82
g63
NtRp704
(dp705
g66
(dp706
sg75
g691
sg68
(lp707
g61
(g62
g63
NtRp708
(dp709
g66
(dp710
g74
I4
ssg75
g704
sg68
(lp711
S'/var/www/conferencia'
p712
asbasbasbag61
(g77
g63
NtRp713
(dp714
g66
(dp715
sg75
g665
sg68
(lp716
g61
(g82
g63
NtRp717
(dp718
g66
(dp719
g86
g87
ssg75
g713
sg68
(lp720
S'cmd_args'
p721
asbag61
(g82
g63
NtRp722
(dp723
g66
(dp724
g93
g94
ssg75
g713
sg68
(lp725
S':'
asbag61
(g82
g63
NtRp726
(dp727
g66
(dp728
sg75
g713
sg68
(lp729
g61
(g62
g63
NtRp730
(dp731
g66
(dp732
g74
I4
ssg75
g726
sg68
(lp733
g61
(g70
g63
NtRp734
(dp735
g66
(dp736
g74
I3
ssg75
Nsg68
(lp737
sbasbasbasbag61
(g77
g63
NtRp738
(dp739
g66
(dp740
sg75
g665
sg68
(lp741
g61
(g82
g63
NtRp742
(dp743
g66
(dp744
g86
g87
ssg75
g738
sg68
(lp745
S'cmd_options'
p746
asbag61
(g82
g63
NtRp747
(dp748
g66
(dp749
g93
g94
ssg75
g738
sg68
(lp750
S':'
asbag61
(g82
g63
NtRp751
(dp752
g66
(dp753
sg75
g738
sg68
(lp754
g61
(g62
g63
NtRp755
(dp756
g66
(dp757
g74
I4
ssg75
g751
sg68
(lp758
S"<Values at 0x2e0b248: {'verbose': False, 'ip': '127.0.0.1', 'with_scheduler': False, 'ips': [], 'shutdown_timeout': 5, 'taskbar': False, 'port': 8000, 'maxthreads': None, 'softcron': False, 'server_name': 'fernando-workstation', 'bpython': False, 'nogui': False, 'pid_filename': 'httpserver.pid', 'extcron': False, 'runcron': False, 'run_system_tests': False, 'test': None, 'folder': '/var/www/conferencia', 'config': '', 'minthreads': None, 'winservice': '', 'shell': None, 'run': '', 'log_filename': 'httpserver.log', 'debuglevel': 30, 'args': [''], 'socket_timeout': 5, 'ssl_ca_certificate': None, 'scheduler': None, 'profiler_filename': None, 'ssl_private_key': '', 'scheduler_groups': None, 'password': '123456', 'request_queue_size': 5, 'ssl_certificate': '', 'cronjob': False, 'numthreads': None, 'quiet': False, 'interfaces': None, 'import_models': False, 'timeout': 10, 'plain': False, 'nobanner': False}>"
p759
asbasbasbag61
(g77
g63
NtRp760
(dp761
g66
(dp762
sg75
g665
sg68
(lp763
g61
(g82
g63
NtRp764
(dp765
g66
(dp766
g86
g87
ssg75
g760
sg68
(lp767
S'db_sessions'
p768
asbag61
(g82
g63
NtRp769
(dp770
g66
(dp771
g93
g94
ssg75
g760
sg68
(lp772
S':'
asbag61
(g82
g63
NtRp773
(dp774
g66
(dp775
sg75
g760
sg68
(lp776
g61
(g62
g63
NtRp777
(dp778
g66
(dp779
g74
I4
ssg75
g773
sg68
(lp780
S'set([])'
p781
asbasbasbag61
(g77
g63
NtRp782
(dp783
g66
(dp784
sg75
g665
sg68
(lp785
g61
(g82
g63
NtRp786
(dp787
g66
(dp788
g86
g87
ssg75
g782
sg68
(lp789
S'debugging'
p790
asbag61
(g82
g63
NtRp791
(dp792
g66
(dp793
g93
g94
ssg75
g782
sg68
(lp794
S':'
asbag61
(g82
g63
NtRp795
(dp796
g66
(dp797
sg75
g782
sg68
(lp798
g61
(g62
g63
NtRp799
(dp800
g66
(dp801
g74
I4
ssg75
g795
sg68
(lp802
g104
asbasbasbag61
(g77
g63
NtRp803
(dp804
g66
(dp805
sg75
g665
sg68
(lp806
g61
(g82
g63
NtRp807
(dp808
g66
(dp809
g86
g87
ssg75
g803
sg68
(lp810
S'gluon_parent'
p811
asbag61
(g82
g63
NtRp812
(dp813
g66
(dp814
g93
g94
ssg75
g803
sg68
(lp815
S':'
asbag61
(g82
g63
NtRp816
(dp817
g66
(dp818
sg75
g803
sg68
(lp819
g61
(g62
g63
NtRp820
(dp821
g66
(dp822
g74
I4
ssg75
g816
sg68
(lp823
S'/var/www/conferencia'
p824
asbasbasbag61
(g77
g63
NtRp825
(dp826
g66
(dp827
sg75
g665
sg68
(lp828
g61
(g82
g63
NtRp829
(dp830
g66
(dp831
g86
g87
ssg75
g825
sg68
(lp832
S'http_accept'
p833
asbag61
(g82
g63
NtRp834
(dp835
g66
(dp836
g93
g94
ssg75
g825
sg68
(lp837
S':'
asbag61
(g82
g63
NtRp838
(dp839
g66
(dp840
sg75
g825
sg68
(lp841
g61
(g62
g63
NtRp842
(dp843
g66
(dp844
g74
I4
ssg75
g838
sg68
(lp845
S'text/html,application/xhtml+xml,application/xml;q=0.9,*/*;q=0.8'
p846
asbasbasbag61
(g77
g63
NtRp847
(dp848
g66
(dp849
sg75
g665
sg68
(lp850
g61
(g82
g63
NtRp851
(dp852
g66
(dp853
g86
g87
ssg75
g847
sg68
(lp854
S'http_accept_charset'
p855
asbag61
(g82
g63
NtRp856
(dp857
g66
(dp858
g93
g94
ssg75
g847
sg68
(lp859
S':'
asbag61
(g82
g63
NtRp860
(dp861
g66
(dp862
sg75
g847
sg68
(lp863
g61
(g62
g63
NtRp864
(dp865
g66
(dp866
g74
I4
ssg75
g860
sg68
(lp867
S'ISO-8859-1,utf-8;q=0.7,*;q=0.3'
p868
asbasbasbag61
(g77
g63
NtRp869
(dp870
g66
(dp871
sg75
g665
sg68
(lp872
g61
(g82
g63
NtRp873
(dp874
g66
(dp875
g86
g87
ssg75
g869
sg68
(lp876
S'http_accept_encoding'
p877
asbag61
(g82
g63
NtRp878
(dp879
g66
(dp880
g93
g94
ssg75
g869
sg68
(lp881
S':'
asbag61
(g82
g63
NtRp882
(dp883
g66
(dp884
sg75
g869
sg68
(lp885
g61
(g62
g63
NtRp886
(dp887
g66
(dp888
g74
I4
ssg75
g882
sg68
(lp889
S'gzip,deflate,sdch'
p890
asbasbasbag61
(g77
g63
NtRp891
(dp892
g66
(dp893
sg75
g665
sg68
(lp894
g61
(g82
g63
NtRp895
(dp896
g66
(dp897
g86
g87
ssg75
g891
sg68
(lp898
S'http_accept_language'
p899
asbag61
(g82
g63
NtRp900
(dp901
g66
(dp902
g93
g94
ssg75
g891
sg68
(lp903
S':'
asbag61
(g82
g63
NtRp904
(dp905
g66
(dp906
sg75
g891
sg68
(lp907
g61
(g62
g63
NtRp908
(dp909
g66
(dp910
g74
I4
ssg75
g904
sg68
(lp911
S'pt-BR,pt;q=0.8,en-US;q=0.6,en;q=0.4'
p912
asbasbasbag61
(g77
g63
NtRp913
(dp914
g66
(dp915
sg75
g665
sg68
(lp916
g61
(g82
g63
NtRp917
(dp918
g66
(dp919
g86
g87
ssg75
g913
sg68
(lp920
S'http_cache_control'
p921
asbag61
(g82
g63
NtRp922
(dp923
g66
(dp924
g93
g94
ssg75
g913
sg68
(lp925
S':'
asbag61
(g82
g63
NtRp926
(dp927
g66
(dp928
sg75
g913
sg68
(lp929
g61
(g62
g63
NtRp930
(dp931
g66
(dp932
g74
I4
ssg75
g926
sg68
(lp933
S'max-age=0'
p934
asbasbasbag61
(g77
g63
NtRp935
(dp936
g66
(dp937
sg75
g665
sg68
(lp938
g61
(g82
g63
NtRp939
(dp940
g66
(dp941
g86
g87
ssg75
g935
sg68
(lp942
S'http_connection'
p943
asbag61
(g82
g63
NtRp944
(dp945
g66
(dp946
g93
g94
ssg75
g935
sg68
(lp947
S':'
asbag61
(g82
g63
NtRp948
(dp949
g66
(dp950
sg75
g935
sg68
(lp951
g61
(g62
g63
NtRp952
(dp953
g66
(dp954
g74
I4
ssg75
g948
sg68
(lp955
S'keep-alive'
p956
asbasbasbag61
(g77
g63
NtRp957
(dp958
g66
(dp959
sg75
g665
sg68
(lp960
g61
(g82
g63
NtRp961
(dp962
g66
(dp963
g86
g87
ssg75
g957
sg68
(lp964
S'http_cookie'
p965
asbag61
(g82
g63
NtRp966
(dp967
g66
(dp968
g93
g94
ssg75
g957
sg68
(lp969
S':'
asbag61
(g82
g63
NtRp970
(dp971
g66
(dp972
sg75
g957
sg68
(lp973
g61
(g62
g63
NtRp974
(dp975
g66
(dp976
g74
I4
ssg75
g970
sg68
(lp977
S'session_id_admin=127.0.0.1-f08163e7-63a0-4e97-8334-13b9dc892d78; session_id_projeto=127.0.0.1-0fe02c32-0739-4f06-a369-3bba6377da8b'
p978
asbasbasbag61
(g77
g63
NtRp979
(dp980
g66
(dp981
sg75
g665
sg68
(lp982
g61
(g82
g63
NtRp983
(dp984
g66
(dp985
g86
g87
ssg75
g979
sg68
(lp986
S'http_host'
p987
asbag61
(g82
g63
NtRp988
(dp989
g66
(dp990
g93
g94
ssg75
g979
sg68
(lp991
S':'
asbag61
(g82
g63
NtRp992
(dp993
g66
(dp994
sg75
g979
sg68
(lp995
g61
(g62
g63
NtRp996
(dp997
g66
(dp998
g74
I4
ssg75
g992
sg68
(lp999
S'127.0.0.1:8000'
p1000
asbasbasbag61
(g77
g63
NtRp1001
(dp1002
g66
(dp1003
sg75
g665
sg68
(lp1004
g61
(g82
g63
NtRp1005
(dp1006
g66
(dp1007
g86
g87
ssg75
g1001
sg68
(lp1008
S'http_referer'
p1009
asbag61
(g82
g63
NtRp1010
(dp1011
g66
(dp1012
g93
g94
ssg75
g1001
sg68
(lp1013
S':'
asbag61
(g82
g63
NtRp1014
(dp1015
g66
(dp1016
sg75
g1001
sg68
(lp1017
g61
(g62
g63
NtRp1018
(dp1019
g66
(dp1020
g74
I4
ssg75
g1014
sg68
(lp1021
S'http://127.0.0.1:8000/show_cliente'
p1022
asbasbasbag61
(g77
g63
NtRp1023
(dp1024
g66
(dp1025
sg75
g665
sg68
(lp1026
g61
(g82
g63
NtRp1027
(dp1028
g66
(dp1029
g86
g87
ssg75
g1023
sg68
(lp1030
S'http_user_agent'
p1031
asbag61
(g82
g63
NtRp1032
(dp1033
g66
(dp1034
g93
g94
ssg75
g1023
sg68
(lp1035
S':'
asbag61
(g82
g63
NtRp1036
(dp1037
g66
(dp1038
sg75
g1023
sg68
(lp1039
g61
(g62
g63
NtRp1040
(dp1041
g66
(dp1042
g74
I4
ssg75
g1036
sg68
(lp1043
S'Mozilla/5.0 (X11; Linux x86_64) AppleWebKit/537.4 (KHTML, like Gecko) Ubuntu/12.10 Chromium/22.0.1229.94 Chrome/22.0.1229.94 Safari/537.4'
p1044
asbasbasbag61
(g77
g63
NtRp1045
(dp1046
g66
(dp1047
sg75
g665
sg68
(lp1048
g61
(g82
g63
NtRp1049
(dp1050
g66
(dp1051
g86
g87
ssg75
g1045
sg68
(lp1052
S'is_jython'
p1053
asbag61
(g82
g63
NtRp1054
(dp1055
g66
(dp1056
g93
g94
ssg75
g1045
sg68
(lp1057
S':'
asbag61
(g82
g63
NtRp1058
(dp1059
g66
(dp1060
sg75
g1045
sg68
(lp1061
g61
(g62
g63
NtRp1062
(dp1063
g66
(dp1064
g74
I4
ssg75
g1058
sg68
(lp1065
g104
asbasbasbag61
(g77
g63
NtRp1066
(dp1067
g66
(dp1068
sg75
g665
sg68
(lp1069
g61
(g82
g63
NtRp1070
(dp1071
g66
(dp1072
g86
g87
ssg75
g1066
sg68
(lp1073
S'is_pypy'
p1074
asbag61
(g82
g63
NtRp1075
(dp1076
g66
(dp1077
g93
g94
ssg75
g1066
sg68
(lp1078
S':'
asbag61
(g82
g63
NtRp1079
(dp1080
g66
(dp1081
sg75
g1066
sg68
(lp1082
g61
(g62
g63
NtRp1083
(dp1084
g66
(dp1085
g74
I4
ssg75
g1079
sg68
(lp1086
g104
asbasbasbag61
(g77
g63
NtRp1087
(dp1088
g66
(dp1089
sg75
g665
sg68
(lp1090
g61
(g82
g63
NtRp1091
(dp1092
g66
(dp1093
g86
g87
ssg75
g1087
sg68
(lp1094
S'local_hosts'
p1095
asbag61
(g82
g63
NtRp1096
(dp1097
g66
(dp1098
g93
g94
ssg75
g1087
sg68
(lp1099
S':'
asbag61
(g82
g63
NtRp1100
(dp1101
g66
(dp1102
sg75
g1087
sg68
(lp1103
g61
(g62
g63
NtRp1104
(dp1105
g66
(dp1106
g74
I4
ssg75
g1100
sg68
(lp1107
g61
(g70
g63
NtRp1108
(dp1109
g66
(dp1110
g74
I3
ssg75
Nsg68
(lp1111
g61
(g77
g63
NtRp1112
(dp1113
g66
(dp1114
sg75
g1108
sg68
(lp1115
g61
(g82
g63
NtRp1116
(dp1117
g66
(dp1118
sg75
g1112
sg68
(lp1119
g61
(g62
g63
NtRp1120
(dp1121
g66
(dp1122
g74
I3
ssg75
g1116
sg68
(lp1123
S'::1'
p1124
asbasbasbag61
(g77
g63
NtRp1125
(dp1126
g66
(dp1127
sg75
g1108
sg68
(lp1128
g61
(g82
g63
NtRp1129
(dp1130
g66
(dp1131
sg75
g1125
sg68
(lp1132
g61
(g62
g63
NtRp1133
(dp1134
g66
(dp1135
g74
I3
ssg75
g1129
sg68
(lp1136
S'::ffff:127.0.0.1'
p1137
asbasbasbag61
(g77
g63
NtRp1138
(dp1139
g66
(dp1140
sg75
g1108
sg68
(lp1141
g61
(g82
g63
NtRp1142
(dp1143
g66
(dp1144
sg75
g1138
sg68
(lp1145
g61
(g62
g63
NtRp1146
(dp1147
g66
(dp1148
g74
I3
ssg75
g1142
sg68
(lp1149
S'127.0.0.1'
p1150
asbasbasbag61
(g77
g63
NtRp1151
(dp1152
g66
(dp1153
sg75
g1108
sg68
(lp1154
g61
(g82
g63
NtRp1155
(dp1156
g66
(dp1157
sg75
g1151
sg68
(lp1158
g61
(g62
g63
NtRp1159
(dp1160
g66
(dp1161
g74
I3
ssg75
g1155
sg68
(lp1162
S'fernando-workstation'
p1163
asbasbasbasbasbasbasbag61
(g77
g63
NtRp1164
(dp1165
g66
(dp1166
sg75
g665
sg68
(lp1167
g61
(g82
g63
NtRp1168
(dp1169
g66
(dp1170
g86
g87
ssg75
g1164
sg68
(lp1171
S'path_info'
p1172
asbag61
(g82
g63
NtRp1173
(dp1174
g66
(dp1175
g93
g94
ssg75
g1164
sg68
(lp1176
S':'
asbag61
(g82
g63
NtRp1177
(dp1178
g66
(dp1179
sg75
g1164
sg68
(lp1180
g61
(g62
g63
NtRp1181
(dp1182
g66
(dp1183
g74
I4
ssg75
g1177
sg68
(lp1184
S'/show_cliente'
p1185
asbasbasbag61
(g77
g63
NtRp1186
(dp1187
g66
(dp1188
sg75
g665
sg68
(lp1189
g61
(g82
g63
NtRp1190
(dp1191
g66
(dp1192
g86
g87
ssg75
g1186
sg68
(lp1193
S'query_string'
p1194
asbag61
(g82
g63
NtRp1195
(dp1196
g66
(dp1197
g93
g94
ssg75
g1186
sg68
(lp1198
S':'
asbag61
(g82
g63
NtRp1199
(dp1200
g66
(dp1201
sg75
g1186
sg68
(lp1202
g61
(g62
g63
NtRp1203
(dp1204
g66
(dp1205
g74
I4
ssg75
g1199
sg68
(lp1206
S''
asbasbasbag61
(g77
g63
NtRp1207
(dp1208
g66
(dp1209
sg75
g665
sg68
(lp1210
g61
(g82
g63
NtRp1211
(dp1212
g66
(dp1213
g86
g87
ssg75
g1207
sg68
(lp1214
S'remote_addr'
p1215
asbag61
(g82
g63
NtRp1216
(dp1217
g66
(dp1218
g93
g94
ssg75
g1207
sg68
(lp1219
S':'
asbag61
(g82
g63
NtRp1220
(dp1221
g66
(dp1222
sg75
g1207
sg68
(lp1223
g61
(g62
g63
NtRp1224
(dp1225
g66
(dp1226
g74
I4
ssg75
g1220
sg68
(lp1227
g216
asbasbasbag61
(g77
g63
NtRp1228
(dp1229
g66
(dp1230
sg75
g665
sg68
(lp1231
g61
(g82
g63
NtRp1232
(dp1233
g66
(dp1234
g86
g87
ssg75
g1228
sg68
(lp1235
S'remote_port'
p1236
asbag61
(g82
g63
NtRp1237
(dp1238
g66
(dp1239
g93
g94
ssg75
g1228
sg68
(lp1240
S':'
asbag61
(g82
g63
NtRp1241
(dp1242
g66
(dp1243
sg75
g1228
sg68
(lp1244
g61
(g62
g63
NtRp1245
(dp1246
g66
(dp1247
g74
I4
ssg75
g1241
sg68
(lp1248
S'45337'
p1249
asbasbasbag61
(g77
g63
NtRp1250
(dp1251
g66
(dp1252
sg75
g665
sg68
(lp1253
g61
(g82
g63
NtRp1254
(dp1255
g66
(dp1256
g86
g87
ssg75
g1250
sg68
(lp1257
S'request_method'
p1258
asbag61
(g82
g63
NtRp1259
(dp1260
g66
(dp1261
g93
g94
ssg75
g1250
sg68
(lp1262
S':'
asbag61
(g82
g63
NtRp1263
(dp1264
g66
(dp1265
sg75
g1250
sg68
(lp1266
g61
(g62
g63
NtRp1267
(dp1268
g66
(dp1269
g74
I4
ssg75
g1263
sg68
(lp1270
S'GET'
p1271
asbasbasbag61
(g77
g63
NtRp1272
(dp1273
g66
(dp1274
sg75
g665
sg68
(lp1275
g61
(g82
g63
NtRp1276
(dp1277
g66
(dp1278
g86
g87
ssg75
g1272
sg68
(lp1279
S'request_uri'
p1280
asbag61
(g82
g63
NtRp1281
(dp1282
g66
(dp1283
g93
g94
ssg75
g1272
sg68
(lp1284
S':'
asbag61
(g82
g63
NtRp1285
(dp1286
g66
(dp1287
sg75
g1272
sg68
(lp1288
g61
(g62
g63
NtRp1289
(dp1290
g66
(dp1291
g74
I4
ssg75
g1285
sg68
(lp1292
S'/projeto/initial/show_cliente'
p1293
asbasbasbag61
(g77
g63
NtRp1294
(dp1295
g66
(dp1296
sg75
g665
sg68
(lp1297
g61
(g82
g63
NtRp1298
(dp1299
g66
(dp1300
g86
g87
ssg75
g1294
sg68
(lp1301
S'script_name'
p1302
asbag61
(g82
g63
NtRp1303
(dp1304
g66
(dp1305
g93
g94
ssg75
g1294
sg68
(lp1306
S':'
asbag61
(g82
g63
NtRp1307
(dp1308
g66
(dp1309
sg75
g1294
sg68
(lp1310
g61
(g62
g63
NtRp1311
(dp1312
g66
(dp1313
g74
I4
ssg75
g1307
sg68
(lp1314
S''
asbasbasbag61
(g77
g63
NtRp1315
(dp1316
g66
(dp1317
sg75
g665
sg68
(lp1318
g61
(g82
g63
NtRp1319
(dp1320
g66
(dp1321
g86
g87
ssg75
g1315
sg68
(lp1322
S'server_name'
p1323
asbag61
(g82
g63
NtRp1324
(dp1325
g66
(dp1326
g93
g94
ssg75
g1315
sg68
(lp1327
S':'
asbag61
(g82
g63
NtRp1328
(dp1329
g66
(dp1330
sg75
g1315
sg68
(lp1331
g61
(g62
g63
NtRp1332
(dp1333
g66
(dp1334
g74
I4
ssg75
g1328
sg68
(lp1335
S'fernando-workstation'
p1336
asbasbasbag61
(g77
g63
NtRp1337
(dp1338
g66
(dp1339
sg75
g665
sg68
(lp1340
g61
(g82
g63
NtRp1341
(dp1342
g66
(dp1343
g86
g87
ssg75
g1337
sg68
(lp1344
S'server_port'
p1345
asbag61
(g82
g63
NtRp1346
(dp1347
g66
(dp1348
g93
g94
ssg75
g1337
sg68
(lp1349
S':'
asbag61
(g82
g63
NtRp1350
(dp1351
g66
(dp1352
sg75
g1337
sg68
(lp1353
g61
(g62
g63
NtRp1354
(dp1355
g66
(dp1356
g74
I4
ssg75
g1350
sg68
(lp1357
S'8000'
p1358
asbasbasbag61
(g77
g63
NtRp1359
(dp1360
g66
(dp1361
sg75
g665
sg68
(lp1362
g61
(g82
g63
NtRp1363
(dp1364
g66
(dp1365
g86
g87
ssg75
g1359
sg68
(lp1366
S'server_protocol'
p1367
asbag61
(g82
g63
NtRp1368
(dp1369
g66
(dp1370
g93
g94
ssg75
g1359
sg68
(lp1371
S':'
asbag61
(g82
g63
NtRp1372
(dp1373
g66
(dp1374
sg75
g1359
sg68
(lp1375
g61
(g62
g63
NtRp1376
(dp1377
g66
(dp1378
g74
I4
ssg75
g1372
sg68
(lp1379
S'HTTP/1.1'
p1380
asbasbasbag61
(g77
g63
NtRp1381
(dp1382
g66
(dp1383
sg75
g665
sg68
(lp1384
g61
(g82
g63
NtRp1385
(dp1386
g66
(dp1387
g86
g87
ssg75
g1381
sg68
(lp1388
S'server_software'
p1389
asbag61
(g82
g63
NtRp1390
(dp1391
g66
(dp1392
g93
g94
ssg75
g1381
sg68
(lp1393
S':'
asbag61
(g82
g63
NtRp1394
(dp1395
g66
(dp1396
sg75
g1381
sg68
(lp1397
g61
(g62
g63
NtRp1398
(dp1399
g66
(dp1400
g74
I4
ssg75
g1394
sg68
(lp1401
S'Rocket 1.2.6'
p1402
asbasbasbag61
(g77
g63
NtRp1403
(dp1404
g66
(dp1405
sg75
g665
sg68
(lp1406
g61
(g82
g63
NtRp1407
(dp1408
g66
(dp1409
g86
g87
ssg75
g1403
sg68
(lp1410
S'web2py_original_uri'
p1411
asbag61
(g82
g63
NtRp1412
(dp1413
g66
(dp1414
g93
g94
ssg75
g1403
sg68
(lp1415
S':'
asbag61
(g82
g63
NtRp1416
(dp1417
g66
(dp1418
sg75
g1403
sg68
(lp1419
g61
(g62
g63
NtRp1420
(dp1421
g66
(dp1422
g74
I4
ssg75
g1416
sg68
(lp1423
g1185
asbasbasbag61
(g77
g63
NtRp1424
(dp1425
g66
(dp1426
sg75
g665
sg68
(lp1427
g61
(g82
g63
NtRp1428
(dp1429
g66
(dp1430
g86
g87
ssg75
g1424
sg68
(lp1431
S'web2py_path'
p1432
asbag61
(g82
g63
NtRp1433
(dp1434
g66
(dp1435
g93
g94
ssg75
g1424
sg68
(lp1436
S':'
asbag61
(g82
g63
NtRp1437
(dp1438
g66
(dp1439
sg75
g1424
sg68
(lp1440
g61
(g62
g63
NtRp1441
(dp1442
g66
(dp1443
g74
I4
ssg75
g1437
sg68
(lp1444
g712
asbasbasbag61
(g77
g63
NtRp1445
(dp1446
g66
(dp1447
sg75
g665
sg68
(lp1448
g61
(g82
g63
NtRp1449
(dp1450
g66
(dp1451
g86
g87
ssg75
g1445
sg68
(lp1452
S'web2py_version'
p1453
asbag61
(g82
g63
NtRp1454
(dp1455
g66
(dp1456
g93
g94
ssg75
g1445
sg68
(lp1457
S':'
asbag61
(g82
g63
NtRp1458
(dp1459
g66
(dp1460
sg75
g1445
sg68
(lp1461
g61
(g62
g63
NtRp1462
(dp1463
g66
(dp1464
g74
I4
ssg75
g1458
sg68
(lp1465
g61
(g70
g63
NtRp1466
(dp1467
g66
(dp1468
g74
I3
ssg75
Nsg68
(lp1469
g61
(g77
g63
NtRp1470
(dp1471
g66
(dp1472
sg75
g1466
sg68
(lp1473
g61
(g82
g63
NtRp1474
(dp1475
g66
(dp1476
sg75
g1470
sg68
(lp1477
g61
(g62
g63
NtRp1478
(dp1479
g66
(dp1480
g74
I3
ssg75
g1474
sg68
(lp1481
S'2'
asbasbasbag61
(g77
g63
NtRp1482
(dp1483
g66
(dp1484
sg75
g1466
sg68
(lp1485
g61
(g82
g63
NtRp1486
(dp1487
g66
(dp1488
sg75
g1482
sg68
(lp1489
g61
(g62
g63
NtRp1490
(dp1491
g66
(dp1492
g74
I3
ssg75
g1486
sg68
(lp1493
S'3'
asbasbasbag61
(g77
g63
NtRp1494
(dp1495
g66
(dp1496
sg75
g1466
sg68
(lp1497
g61
(g82
g63
NtRp1498
(dp1499
g66
(dp1500
sg75
g1494
sg68
(lp1501
g61
(g62
g63
NtRp1502
(dp1503
g66
(dp1504
g74
I3
ssg75
g1498
sg68
(lp1505
S'2'
asbasbasbag61
(g77
g63
NtRp1506
(dp1507
g66
(dp1508
sg75
g1466
sg68
(lp1509
g61
(g82
g63
NtRp1510
(dp1511
g66
(dp1512
sg75
g1506
sg68
(lp1513
g61
(g62
g63
NtRp1514
(dp1515
g66
(dp1516
g74
I3
ssg75
g1510
sg68
(lp1517
S'datetime.datetime(2012, 12, 17, 15, 3, 30)'
p1518
asbasbasbag61
(g77
g63
NtRp1519
(dp1520
g66
(dp1521
sg75
g1466
sg68
(lp1522
g61
(g82
g63
NtRp1523
(dp1524
g66
(dp1525
sg75
g1519
sg68
(lp1526
g61
(g62
g63
NtRp1527
(dp1528
g66
(dp1529
g74
I3
ssg75
g1523
sg68
(lp1530
S'stable'
p1531
asbasbasbasbasbasbasbag61
(g77
g63
NtRp1532
(dp1533
g66
(dp1534
sg75
g665
sg68
(lp1535
g61
(g82
g63
NtRp1536
(dp1537
g66
(dp1538
g86
g87
ssg75
g1532
sg68
(lp1539
S'wsgi_errors'
p1540
asbag61
(g82
g63
NtRp1541
(dp1542
g66
(dp1543
g93
g94
ssg75
g1532
sg68
(lp1544
S':'
asbag61
(g82
g63
NtRp1545
(dp1546
g66
(dp1547
sg75
g1532
sg68
(lp1548
g61
(g62
g63
NtRp1549
(dp1550
g66
(dp1551
g74
I4
ssg75
g1545
sg68
(lp1552
S"<open file '<stderr>', mode 'w' at 0x7f7c5e970270>"
p1553
asbasbasbag61
(g77
g63
NtRp1554
(dp1555
g66
(dp1556
sg75
g665
sg68
(lp1557
g61
(g82
g63
NtRp1558
(dp1559
g66
(dp1560
g86
g87
ssg75
g1554
sg68
(lp1561
S'wsgi_file_wrapper'
p1562
asbag61
(g82
g63
NtRp1563
(dp1564
g66
(dp1565
g93
g94
ssg75
g1554
sg68
(lp1566
S':'
asbag61
(g82
g63
NtRp1567
(dp1568
g66
(dp1569
sg75
g1554
sg68
(lp1570
g61
(g62
g63
NtRp1571
(dp1572
g66
(dp1573
g74
I4
ssg75
g1567
sg68
(lp1574
S'<class wsgiref.util.FileWrapper at 0x2d82598>'
p1575
asbasbasbag61
(g77
g63
NtRp1576
(dp1577
g66
(dp1578
sg75
g665
sg68
(lp1579
g61
(g82
g63
NtRp1580
(dp1581
g66
(dp1582
g86
g87
ssg75
g1576
sg68
(lp1583
S'wsgi_input'
p1584
asbag61
(g82
g63
NtRp1585
(dp1586
g66
(dp1587
g93
g94
ssg75
g1576
sg68
(lp1588
S':'
asbag61
(g82
g63
NtRp1589
(dp1590
g66
(dp1591
sg75
g1576
sg68
(lp1592
g61
(g62
g63
NtRp1593
(dp1594
g66
(dp1595
g74
I4
ssg75
g1589
sg68
(lp1596
S'<socket._fileobject object at 0x7f7c5014c950>'
p1597
asbasbasbag61
(g77
g63
NtRp1598
(dp1599
g66
(dp1600
sg75
g665
sg68
(lp1601
g61
(g82
g63
NtRp1602
(dp1603
g66
(dp1604
g86
g87
ssg75
g1598
sg68
(lp1605
S'wsgi_multiprocess'
p1606
asbag61
(g82
g63
NtRp1607
(dp1608
g66
(dp1609
g93
g94
ssg75
g1598
sg68
(lp1610
S':'
asbag61
(g82
g63
NtRp1611
(dp1612
g66
(dp1613
sg75
g1598
sg68
(lp1614
g61
(g62
g63
NtRp1615
(dp1616
g66
(dp1617
g74
I4
ssg75
g1611
sg68
(lp1618
g104
asbasbasbag61
(g77
g63
NtRp1619
(dp1620
g66
(dp1621
sg75
g665
sg68
(lp1622
g61
(g82
g63
NtRp1623
(dp1624
g66
(dp1625
g86
g87
ssg75
g1619
sg68
(lp1626
S'wsgi_multithread'
p1627
asbag61
(g82
g63
NtRp1628
(dp1629
g66
(dp1630
g93
g94
ssg75
g1619
sg68
(lp1631
S':'
asbag61
(g82
g63
NtRp1632
(dp1633
g66
(dp1634
sg75
g1619
sg68
(lp1635
g61
(g62
g63
NtRp1636
(dp1637
g66
(dp1638
g74
I4
ssg75
g1632
sg68
(lp1639
S'True'
p1640
asbasbasbag61
(g77
g63
NtRp1641
(dp1642
g66
(dp1643
sg75
g665
sg68
(lp1644
g61
(g82
g63
NtRp1645
(dp1646
g66
(dp1647
g86
g87
ssg75
g1641
sg68
(lp1648
S'wsgi_run_once'
p1649
asbag61
(g82
g63
NtRp1650
(dp1651
g66
(dp1652
g93
g94
ssg75
g1641
sg68
(lp1653
S':'
asbag61
(g82
g63
NtRp1654
(dp1655
g66
(dp1656
sg75
g1641
sg68
(lp1657
g61
(g62
g63
NtRp1658
(dp1659
g66
(dp1660
g74
I4
ssg75
g1654
sg68
(lp1661
g104
asbasbasbag61
(g77
g63
NtRp1662
(dp1663
g66
(dp1664
sg75
g665
sg68
(lp1665
g61
(g82
g63
NtRp1666
(dp1667
g66
(dp1668
g86
g87
ssg75
g1662
sg68
(lp1669
S'wsgi_url_scheme'
p1670
asbag61
(g82
g63
NtRp1671
(dp1672
g66
(dp1673
g93
g94
ssg75
g1662
sg68
(lp1674
S':'
asbag61
(g82
g63
NtRp1675
(dp1676
g66
(dp1677
sg75
g1662
sg68
(lp1678
g61
(g62
g63
NtRp1679
(dp1680
g66
(dp1681
g74
I4
ssg75
g1675
sg68
(lp1682
S'http'
p1683
asbasbasbag61
(g77
g63
NtRp1684
(dp1685
g66
(dp1686
sg75
g665
sg68
(lp1687
g61
(g82
g63
NtRp1688
(dp1689
g66
(dp1690
g86
g87
ssg75
g1684
sg68
(lp1691
S'wsgi_version'
p1692
asbag61
(g82
g63
NtRp1693
(dp1694
g66
(dp1695
g93
g94
ssg75
g1684
sg68
(lp1696
S':'
asbag61
(g82
g63
NtRp1697
(dp1698
g66
(dp1699
sg75
g1684
sg68
(lp1700
g61
(g62
g63
NtRp1701
(dp1702
g66
(dp1703
g74
I4
ssg75
g1697
sg68
(lp1704
g61
(g70
g63
NtRp1705
(dp1706
g66
(dp1707
g74
I3
ssg75
Nsg68
(lp1708
g61
(g77
g63
NtRp1709
(dp1710
g66
(dp1711
sg75
g1705
sg68
(lp1712
g61
(g82
g63
NtRp1713
(dp1714
g66
(dp1715
sg75
g1709
sg68
(lp1716
g61
(g62
g63
NtRp1717
(dp1718
g66
(dp1719
g74
I3
ssg75
g1713
sg68
(lp1720
S'1'
asbasbasbag61
(g77
g63
NtRp1721
(dp1722
g66
(dp1723
sg75
g1705
sg68
(lp1724
g61
(g82
g63
NtRp1725
(dp1726
g66
(dp1727
sg75
g1721
sg68
(lp1728
g61
(g62
g63
NtRp1729
(dp1730
g66
(dp1731
g74
I3
ssg75
g1725
sg68
(lp1732
S'0'
asbasbasbasbasbasbasbasbasbasbasbag61
(g77
g63
NtRp1733
(dp1734
g66
(dp1735
sg75
g71
sg68
(lp1736
g61
(g82
g63
NtRp1737
(dp1738
g66
(dp1739
g86
g87
ssg75
g1733
sg68
(lp1740
S'extension'
p1741
asbag61
(g82
g63
NtRp1742
(dp1743
g66
(dp1744
g93
g94
ssg75
g1733
sg68
(lp1745
S':'
asbag61
(g82
g63
NtRp1746
(dp1747
g66
(dp1748
sg75
g1733
sg68
(lp1749
g61
(g62
g63
NtRp1750
(dp1751
g66
(dp1752
g74
I5
ssg75
g1746
sg68
(lp1753
S'html'
p1754
asbasbasbag61
(g77
g63
NtRp1755
(dp1756
g66
(dp1757
sg75
g71
sg68
(lp1758
g61
(g82
g63
NtRp1759
(dp1760
g66
(dp1761
g86
g87
ssg75
g1755
sg68
(lp1762
S'folder'
p1763
asbag61
(g82
g63
NtRp1764
(dp1765
g66
(dp1766
g93
g94
ssg75
g1755
sg68
(lp1767
S':'
asbag61
(g82
g63
NtRp1768
(dp1769
g66
(dp1770
sg75
g1755
sg68
(lp1771
g61
(g62
g63
NtRp1772
(dp1773
g66
(dp1774
g74
I5
ssg75
g1768
sg68
(lp1775
S'/var/www/conferencia/applications/projeto/'
p1776
asbasbasbag61
(g77
g63
NtRp1777
(dp1778
g66
(dp1779
sg75
g71
sg68
(lp1780
g61
(g82
g63
NtRp1781
(dp1782
g66
(dp1783
g86
g87
ssg75
g1777
sg68
(lp1784
S'function'
p1785
asbag61
(g82
g63
NtRp1786
(dp1787
g66
(dp1788
g93
g94
ssg75
g1777
sg68
(lp1789
S':'
asbag61
(g82
g63
NtRp1790
(dp1791
g66
(dp1792
sg75
g1777
sg68
(lp1793
g61
(g62
g63
NtRp1794
(dp1795
g66
(dp1796
g74
I5
ssg75
g1790
sg68
(lp1797
S'show_cliente'
p1798
asbasbasbag61
(g77
g63
NtRp1799
(dp1800
g66
(dp1801
sg75
g71
sg68
(lp1802
g61
(g82
g63
NtRp1803
(dp1804
g66
(dp1805
g86
g87
ssg75
g1799
sg68
(lp1806
S'get_vars'
p1807
asbag61
(g82
g63
NtRp1808
(dp1809
g66
(dp1810
g93
g94
ssg75
g1799
sg68
(lp1811
S':'
asbag61
(g82
g63
NtRp1812
(dp1813
g66
(dp1814
sg75
g1799
sg68
(lp1815
g61
(g62
g63
NtRp1816
(dp1817
g66
(dp1818
g74
I5
ssg75
g1812
sg68
(lp1819
g61
(g70
g63
NtRp1820
(dp1821
g66
(dp1822
g74
I4
ssg75
Nsg68
(lp1823
sbasbasbasbag61
(g77
g63
NtRp1824
(dp1825
g66
(dp1826
sg75
g71
sg68
(lp1827
g61
(g82
g63
NtRp1828
(dp1829
g66
(dp1830
g86
g87
ssg75
g1824
sg68
(lp1831
S'global_settings'
p1832
asbag61
(g82
g63
NtRp1833
(dp1834
g66
(dp1835
g93
g94
ssg75
g1824
sg68
(lp1836
S':'
asbag61
(g82
g63
NtRp1837
(dp1838
g66
(dp1839
sg75
g1824
sg68
(lp1840
g61
(g62
g63
NtRp1841
(dp1842
g66
(dp1843
g74
I5
ssg75
g1837
sg68
(lp1844
g61
(g70
g63
NtRp1845
(dp1846
g66
(dp1847
g74
I4
ssg75
Nsg68
(lp1848
g61
(g77
g63
NtRp1849
(dp1850
g66
(dp1851
sg75
g1845
sg68
(lp1852
g61
(g82
g63
NtRp1853
(dp1854
g66
(dp1855
g86
g87
ssg75
g1849
sg68
(lp1856
g677
asbag61
(g82
g63
NtRp1857
(dp1858
g66
(dp1859
g93
g94
ssg75
g1849
sg68
(lp1860
S':'
asbag61
(g82
g63
NtRp1861
(dp1862
g66
(dp1863
sg75
g1849
sg68
(lp1864
g61
(g62
g63
NtRp1865
(dp1866
g66
(dp1867
g74
I4
ssg75
g1861
sg68
(lp1868
S"set(['/var/www/conferencia/applications/projeto/'])"
p1869
asbasbasbag61
(g77
g63
NtRp1870
(dp1871
g66
(dp1872
sg75
g1845
sg68
(lp1873
g61
(g82
g63
NtRp1874
(dp1875
g66
(dp1876
g86
g87
ssg75
g1870
sg68
(lp1877
g699
asbag61
(g82
g63
NtRp1878
(dp1879
g66
(dp1880
g93
g94
ssg75
g1870
sg68
(lp1881
S':'
asbag61
(g82
g63
NtRp1882
(dp1883
g66
(dp1884
sg75
g1870
sg68
(lp1885
g61
(g62
g63
NtRp1886
(dp1887
g66
(dp1888
g74
I4
ssg75
g1882
sg68
(lp1889
g712
asbasbasbag61
(g77
g63
NtRp1890
(dp1891
g66
(dp1892
sg75
g1845
sg68
(lp1893
g61
(g82
g63
NtRp1894
(dp1895
g66
(dp1896
g86
g87
ssg75
g1890
sg68
(lp1897
g721
asbag61
(g82
g63
NtRp1898
(dp1899
g66
(dp1900
g93
g94
ssg75
g1890
sg68
(lp1901
S':'
asbag61
(g82
g63
NtRp1902
(dp1903
g66
(dp1904
sg75
g1890
sg68
(lp1905
g61
(g62
g63
NtRp1906
(dp1907
g66
(dp1908
g74
I4
ssg75
g1902
sg68
(lp1909
g61
(g70
g63
NtRp1910
(dp1911
g66
(dp1912
g74
I3
ssg75
Nsg68
(lp1913
sbasbasbasbag61
(g77
g63
NtRp1914
(dp1915
g66
(dp1916
sg75
g1845
sg68
(lp1917
g61
(g82
g63
NtRp1918
(dp1919
g66
(dp1920
g86
g87
ssg75
g1914
sg68
(lp1921
g746
asbag61
(g82
g63
NtRp1922
(dp1923
g66
(dp1924
g93
g94
ssg75
g1914
sg68
(lp1925
S':'
asbag61
(g82
g63
NtRp1926
(dp1927
g66
(dp1928
sg75
g1914
sg68
(lp1929
g61
(g62
g63
NtRp1930
(dp1931
g66
(dp1932
g74
I4
ssg75
g1926
sg68
(lp1933
S"<Values at 0x2e0b248: {'verbose': False, 'ip': '127.0.0.1', 'with_scheduler': False, 'ips': [], 'shutdown_timeout': 5, 'taskbar': False, 'port': 8000, 'maxthreads': None, 'softcron': False, 'server_name': 'fernando-workstation', 'bpython': False, 'nogui': False, 'pid_filename': 'httpserver.pid', 'extcron': False, 'runcron': False, 'run_system_tests': False, 'test': None, 'folder': '/var/www/conferencia', 'config': '', 'minthreads': None, 'winservice': '', 'shell': None, 'run': '', 'log_filename': 'httpserver.log', 'debuglevel': 30, 'args': [''], 'socket_timeout': 5, 'ssl_ca_certificate': None, 'scheduler': None, 'profiler_filename': None, 'ssl_private_key': '', 'scheduler_groups': None, 'password': '123456', 'request_queue_size': 5, 'ssl_certificate': '', 'cronjob': False, 'numthreads': None, 'quiet': False, 'interfaces': None, 'import_models': False, 'timeout': 10, 'plain': False, 'nobanner': False}>"
p1934
asbasbasbag61
(g77
g63
NtRp1935
(dp1936
g66
(dp1937
sg75
g1845
sg68
(lp1938
g61
(g82
g63
NtRp1939
(dp1940
g66
(dp1941
g86
g87
ssg75
g1935
sg68
(lp1942
g768
asbag61
(g82
g63
NtRp1943
(dp1944
g66
(dp1945
g93
g94
ssg75
g1935
sg68
(lp1946
S':'
asbag61
(g82
g63
NtRp1947
(dp1948
g66
(dp1949
sg75
g1935
sg68
(lp1950
g61
(g62
g63
NtRp1951
(dp1952
g66
(dp1953
g74
I4
ssg75
g1947
sg68
(lp1954
S'set([])'
p1955
asbasbasbag61
(g77
g63
NtRp1956
(dp1957
g66
(dp1958
sg75
g1845
sg68
(lp1959
g61
(g82
g63
NtRp1960
(dp1961
g66
(dp1962
g86
g87
ssg75
g1956
sg68
(lp1963
g790
asbag61
(g82
g63
NtRp1964
(dp1965
g66
(dp1966
g93
g94
ssg75
g1956
sg68
(lp1967
S':'
asbag61
(g82
g63
NtRp1968
(dp1969
g66
(dp1970
sg75
g1956
sg68
(lp1971
g61
(g62
g63
NtRp1972
(dp1973
g66
(dp1974
g74
I4
ssg75
g1968
sg68
(lp1975
g104
asbasbasbag61
(g77
g63
NtRp1976
(dp1977
g66
(dp1978
sg75
g1845
sg68
(lp1979
g61
(g82
g63
NtRp1980
(dp1981
g66
(dp1982
g86
g87
ssg75
g1976
sg68
(lp1983
g811
asbag61
(g82
g63
NtRp1984
(dp1985
g66
(dp1986
g93
g94
ssg75
g1976
sg68
(lp1987
S':'
asbag61
(g82
g63
NtRp1988
(dp1989
g66
(dp1990
sg75
g1976
sg68
(lp1991
g61
(g62
g63
NtRp1992
(dp1993
g66
(dp1994
g74
I4
ssg75
g1988
sg68
(lp1995
g824
asbasbasbag61
(g77
g63
NtRp1996
(dp1997
g66
(dp1998
sg75
g1845
sg68
(lp1999
g61
(g82
g63
NtRp2000
(dp2001
g66
(dp2002
g86
g87
ssg75
g1996
sg68
(lp2003
g1053
asbag61
(g82
g63
NtRp2004
(dp2005
g66
(dp2006
g93
g94
ssg75
g1996
sg68
(lp2007
S':'
asbag61
(g82
g63
NtRp2008
(dp2009
g66
(dp2010
sg75
g1996
sg68
(lp2011
g61
(g62
g63
NtRp2012
(dp2013
g66
(dp2014
g74
I4
ssg75
g2008
sg68
(lp2015
g104
asbasbasbag61
(g77
g63
NtRp2016
(dp2017
g66
(dp2018
sg75
g1845
sg68
(lp2019
g61
(g82
g63
NtRp2020
(dp2021
g66
(dp2022
g86
g87
ssg75
g2016
sg68
(lp2023
g1074
asbag61
(g82
g63
NtRp2024
(dp2025
g66
(dp2026
g93
g94
ssg75
g2016
sg68
(lp2027
S':'
asbag61
(g82
g63
NtRp2028
(dp2029
g66
(dp2030
sg75
g2016
sg68
(lp2031
g61
(g62
g63
NtRp2032
(dp2033
g66
(dp2034
g74
I4
ssg75
g2028
sg68
(lp2035
g104
asbasbasbag61
(g77
g63
NtRp2036
(dp2037
g66
(dp2038
sg75
g1845
sg68
(lp2039
g61
(g82
g63
NtRp2040
(dp2041
g66
(dp2042
g86
g87
ssg75
g2036
sg68
(lp2043
g1095
asbag61
(g82
g63
NtRp2044
(dp2045
g66
(dp2046
g93
g94
ssg75
g2036
sg68
(lp2047
S':'
asbag61
(g82
g63
NtRp2048
(dp2049
g66
(dp2050
sg75
g2036
sg68
(lp2051
g61
(g62
g63
NtRp2052
(dp2053
g66
(dp2054
g74
I4
ssg75
g2048
sg68
(lp2055
g61
(g70
g63
NtRp2056
(dp2057
g66
(dp2058
g74
I3
ssg75
Nsg68
(lp2059
g61
(g77
g63
NtRp2060
(dp2061
g66
(dp2062
sg75
g2056
sg68
(lp2063
g61
(g82
g63
NtRp2064
(dp2065
g66
(dp2066
sg75
g2060
sg68
(lp2067
g61
(g62
g63
NtRp2068
(dp2069
g66
(dp2070
g74
I3
ssg75
g2064
sg68
(lp2071
g1124
asbasbasbag61
(g77
g63
NtRp2072
(dp2073
g66
(dp2074
sg75
g2056
sg68
(lp2075
g61
(g82
g63
NtRp2076
(dp2077
g66
(dp2078
sg75
g2072
sg68
(lp2079
g61
(g62
g63
NtRp2080
(dp2081
g66
(dp2082
g74
I3
ssg75
g2076
sg68
(lp2083
g1137
asbasbasbag61
(g77
g63
NtRp2084
(dp2085
g66
(dp2086
sg75
g2056
sg68
(lp2087
g61
(g82
g63
NtRp2088
(dp2089
g66
(dp2090
sg75
g2084
sg68
(lp2091
g61
(g62
g63
NtRp2092
(dp2093
g66
(dp2094
g74
I3
ssg75
g2088
sg68
(lp2095
g1150
asbasbasbag61
(g77
g63
NtRp2096
(dp2097
g66
(dp2098
sg75
g2056
sg68
(lp2099
g61
(g82
g63
NtRp2100
(dp2101
g66
(dp2102
sg75
g2096
sg68
(lp2103
g61
(g62
g63
NtRp2104
(dp2105
g66
(dp2106
g74
I3
ssg75
g2100
sg68
(lp2107
g1163
asbasbasbasbasbasbasbag61
(g77
g63
NtRp2108
(dp2109
g66
(dp2110
sg75
g1845
sg68
(lp2111
g61
(g82
g63
NtRp2112
(dp2113
g66
(dp2114
g86
g87
ssg75
g2108
sg68
(lp2115
g1453
asbag61
(g82
g63
NtRp2116
(dp2117
g66
(dp2118
g93
g94
ssg75
g2108
sg68
(lp2119
S':'
asbag61
(g82
g63
NtRp2120
(dp2121
g66
(dp2122
sg75
g2108
sg68
(lp2123
g61
(g62
g63
NtRp2124
(dp2125
g66
(dp2126
g74
I4
ssg75
g2120
sg68
(lp2127
g61
(g70
g63
NtRp2128
(dp2129
g66
(dp2130
g74
I3
ssg75
Nsg68
(lp2131
g61
(g77
g63
NtRp2132
(dp2133
g66
(dp2134
sg75
g2128
sg68
(lp2135
g61
(g82
g63
NtRp2136
(dp2137
g66
(dp2138
sg75
g2132
sg68
(lp2139
g61
(g62
g63
NtRp2140
(dp2141
g66
(dp2142
g74
I3
ssg75
g2136
sg68
(lp2143
S'2'
asbasbasbag61
(g77
g63
NtRp2144
(dp2145
g66
(dp2146
sg75
g2128
sg68
(lp2147
g61
(g82
g63
NtRp2148
(dp2149
g66
(dp2150
sg75
g2144
sg68
(lp2151
g61
(g62
g63
NtRp2152
(dp2153
g66
(dp2154
g74
I3
ssg75
g2148
sg68
(lp2155
S'3'
asbasbasbag61
(g77
g63
NtRp2156
(dp2157
g66
(dp2158
sg75
g2128
sg68
(lp2159
g61
(g82
g63
NtRp2160
(dp2161
g66
(dp2162
sg75
g2156
sg68
(lp2163
g61
(g62
g63
NtRp2164
(dp2165
g66
(dp2166
g74
I3
ssg75
g2160
sg68
(lp2167
S'2'
asbasbasbag61
(g77
g63
NtRp2168
(dp2169
g66
(dp2170
sg75
g2128
sg68
(lp2171
g61
(g82
g63
NtRp2172
(dp2173
g66
(dp2174
sg75
g2168
sg68
(lp2175
g61
(g62
g63
NtRp2176
(dp2177
g66
(dp2178
g74
I3
ssg75
g2172
sg68
(lp2179
S'datetime.datetime(2012, 12, 17, 15, 3, 30)'
p2180
asbasbasbag61
(g77
g63
NtRp2181
(dp2182
g66
(dp2183
sg75
g2128
sg68
(lp2184
g61
(g82
g63
NtRp2185
(dp2186
g66
(dp2187
sg75
g2181
sg68
(lp2188
g61
(g62
g63
NtRp2189
(dp2190
g66
(dp2191
g74
I3
ssg75
g2185
sg68
(lp2192
g1531
asbasbasbasbasbasbasbasbasbasbasbag61
(g77
g63
NtRp2193
(dp2194
g66
(dp2195
sg75
g71
sg68
(lp2196
g61
(g82
g63
NtRp2197
(dp2198
g66
(dp2199
g86
g87
ssg75
g2193
sg68
(lp2200
S'is_https'
p2201
asbag61
(g82
g63
NtRp2202
(dp2203
g66
(dp2204
g93
g94
ssg75
g2193
sg68
(lp2205
S':'
asbag61
(g82
g63
NtRp2206
(dp2207
g66
(dp2208
sg75
g2193
sg68
(lp2209
g61
(g62
g63
NtRp2210
(dp2211
g66
(dp2212
g74
I5
ssg75
g2206
sg68
(lp2213
g104
asbasbasbag61
(g77
g63
NtRp2214
(dp2215
g66
(dp2216
sg75
g71
sg68
(lp2217
g61
(g82
g63
NtRp2218
(dp2219
g66
(dp2220
g86
g87
ssg75
g2214
sg68
(lp2221
S'is_local'
p2222
asbag61
(g82
g63
NtRp2223
(dp2224
g66
(dp2225
g93
g94
ssg75
g2214
sg68
(lp2226
S':'
asbag61
(g82
g63
NtRp2227
(dp2228
g66
(dp2229
sg75
g2214
sg68
(lp2230
g61
(g62
g63
NtRp2231
(dp2232
g66
(dp2233
g74
I5
ssg75
g2227
sg68
(lp2234
g1640
asbasbasbag61
(g77
g63
NtRp2235
(dp2236
g66
(dp2237
sg75
g71
sg68
(lp2238
g61
(g82
g63
NtRp2239
(dp2240
g66
(dp2241
g86
g87
ssg75
g2235
sg68
(lp2242
S'is_restful'
p2243
asbag61
(g82
g63
NtRp2244
(dp2245
g66
(dp2246
g93
g94
ssg75
g2235
sg68
(lp2247
S':'
asbag61
(g82
g63
NtRp2248
(dp2249
g66
(dp2250
sg75
g2235
sg68
(lp2251
g61
(g62
g63
NtRp2252
(dp2253
g66
(dp2254
g74
I5
ssg75
g2248
sg68
(lp2255
g104
asbasbasbag61
(g77
g63
NtRp2256
(dp2257
g66
(dp2258
sg75
g71
sg68
(lp2259
g61
(g82
g63
NtRp2260
(dp2261
g66
(dp2262
g86
g87
ssg75
g2256
sg68
(lp2263
S'now'
p2264
asbag61
(g82
g63
NtRp2265
(dp2266
g66
(dp2267
g93
g94
ssg75
g2256
sg68
(lp2268
S':'
asbag61
(g82
g63
NtRp2269
(dp2270
g66
(dp2271
sg75
g2256
sg68
(lp2272
g61
(g62
g63
NtRp2273
(dp2274
g66
(dp2275
g74
I5
ssg75
g2269
sg68
(lp2276
S'datetime.datetime(2013, 4, 2, 18, 29, 15, 823560)'
p2277
asbasbasbag61
(g77
g63
NtRp2278
(dp2279
g66
(dp2280
sg75
g71
sg68
(lp2281
g61
(g82
g63
NtRp2282
(dp2283
g66
(dp2284
g86
g87
ssg75
g2278
sg68
(lp2285
S'post_vars'
p2286
asbag61
(g82
g63
NtRp2287
(dp2288
g66
(dp2289
g93
g94
ssg75
g2278
sg68
(lp2290
S':'
asbag61
(g82
g63
NtRp2291
(dp2292
g66
(dp2293
sg75
g2278
sg68
(lp2294
g61
(g62
g63
NtRp2295
(dp2296
g66
(dp2297
g74
I5
ssg75
g2291
sg68
(lp2298
g61
(g70
g63
NtRp2299
(dp2300
g66
(dp2301
g74
I4
ssg75
Nsg68
(lp2302
sbasbasbasbag61
(g77
g63
NtRp2303
(dp2304
g66
(dp2305
sg75
g71
sg68
(lp2306
g61
(g82
g63
NtRp2307
(dp2308
g66
(dp2309
g86
g87
ssg75
g2303
sg68
(lp2310
S'url'
p2311
asbag61
(g82
g63
NtRp2312
(dp2313
g66
(dp2314
g93
g94
ssg75
g2303
sg68
(lp2315
S':'
asbag61
(g82
g63
NtRp2316
(dp2317
g66
(dp2318
sg75
g2303
sg68
(lp2319
g61
(g62
g63
NtRp2320
(dp2321
g66
(dp2322
g74
I5
ssg75
g2316
sg68
(lp2323
g1185
asbasbasbag61
(g77
g63
NtRp2324
(dp2325
g66
(dp2326
sg75
g71
sg68
(lp2327
g61
(g82
g63
NtRp2328
(dp2329
g66
(dp2330
g86
g87
ssg75
g2324
sg68
(lp2331
S'utcnow'
p2332
asbag61
(g82
g63
NtRp2333
(dp2334
g66
(dp2335
g93
g94
ssg75
g2324
sg68
(lp2336
S':'
asbag61
(g82
g63
NtRp2337
(dp2338
g66
(dp2339
sg75
g2324
sg68
(lp2340
g61
(g62
g63
NtRp2341
(dp2342
g66
(dp2343
g74
I5
ssg75
g2337
sg68
(lp2344
S'datetime.datetime(2013, 4, 2, 21, 29, 15, 823613)'
p2345
asbasbasbag61
(g77
g63
NtRp2346
(dp2347
g66
(dp2348
sg75
g71
sg68
(lp2349
g61
(g82
g63
NtRp2350
(dp2351
g66
(dp2352
g86
g87
ssg75
g2346
sg68
(lp2353
S'uuid'
p2354
asbag61
(g82
g63
NtRp2355
(dp2356
g66
(dp2357
g93
g94
ssg75
g2346
sg68
(lp2358
S':'
asbag61
(g82
g63
NtRp2359
(dp2360
g66
(dp2361
sg75
g2346
sg68
(lp2362
g61
(g62
g63
NtRp2363
(dp2364
g66
(dp2365
g74
I5
ssg75
g2359
sg68
(lp2366
S'projeto/127.0.0.1.2013-04-02.18-29-15.18e5c15c-5527-4eb3-bb25-ff800a1ce6dc'
p2367
asbasbasbag61
(g77
g63
NtRp2368
(dp2369
g66
(dp2370
sg75
g71
sg68
(lp2371
g61
(g82
g63
NtRp2372
(dp2373
g66
(dp2374
g86
g87
ssg75
g2368
sg68
(lp2375
S'vars'
p2376
asbag61
(g82
g63
NtRp2377
(dp2378
g66
(dp2379
g93
g94
ssg75
g2368
sg68
(lp2380
S':'
asbag61
(g82
g63
NtRp2381
(dp2382
g66
(dp2383
sg75
g2368
sg68
(lp2384
g61
(g62
g63
NtRp2385
(dp2386
g66
(dp2387
g74
I5
ssg75
g2381
sg68
(lp2388
g61
(g70
g63
NtRp2389
(dp2390
g66
(dp2391
g74
I4
ssg75
Nsg68
(lp2392
sbasbasbasbag61
(g77
g63
NtRp2393
(dp2394
g66
(dp2395
sg75
g71
sg68
(lp2396
g61
(g82
g63
NtRp2397
(dp2398
g66
(dp2399
g86
g87
ssg75
g2393
sg68
(lp2400
S'wsgi'
p2401
asbag61
(g82
g63
NtRp2402
(dp2403
g66
(dp2404
g93
g94
ssg75
g2393
sg68
(lp2405
S':'
asbag61
(g82
g63
NtRp2406
(dp2407
g66
(dp2408
sg75
g2393
sg68
(lp2409
g61
(g62
g63
NtRp2410
(dp2411
g66
(dp2412
g74
I5
ssg75
g2406
sg68
(lp2413
g61
(g70
g63
NtRp2414
(dp2415
g66
(dp2416
g74
I4
ssg75
Nsg68
(lp2417
g61
(g77
g63
NtRp2418
(dp2419
g66
(dp2420
sg75
g2414
sg68
(lp2421
g61
(g82
g63
NtRp2422
(dp2423
g66
(dp2424
g86
g87
ssg75
g2418
sg68
(lp2425
S'environ'
p2426
asbag61
(g82
g63
NtRp2427
(dp2428
g66
(dp2429
g93
g94
ssg75
g2418
sg68
(lp2430
S':'
asbag61
(g82
g63
NtRp2431
(dp2432
g66
(dp2433
sg75
g2418
sg68
(lp2434
g61
(g62
g63
NtRp2435
(dp2436
g66
(dp2437
g74
I4
ssg75
g2431
sg68
(lp2438
g61
(g70
g63
NtRp2439
(dp2440
g66
(dp2441
g74
I3
ssg75
Nsg68
(lp2442
g61
(g77
g63
NtRp2443
(dp2444
g66
(dp2445
sg75
g2439
sg68
(lp2446
g61
(g82
g63
NtRp2447
(dp2448
g66
(dp2449
g86
g87
ssg75
g2443
sg68
(lp2450
S'HTTP_ACCEPT'
p2451
asbag61
(g82
g63
NtRp2452
(dp2453
g66
(dp2454
g93
g94
ssg75
g2443
sg68
(lp2455
S':'
asbag61
(g82
g63
NtRp2456
(dp2457
g66
(dp2458
sg75
g2443
sg68
(lp2459
g61
(g62
g63
NtRp2460
(dp2461
g66
(dp2462
g74
I3
ssg75
g2456
sg68
(lp2463
g846
asbasbasbag61
(g77
g63
NtRp2464
(dp2465
g66
(dp2466
sg75
g2439
sg68
(lp2467
g61
(g82
g63
NtRp2468
(dp2469
g66
(dp2470
g86
g87
ssg75
g2464
sg68
(lp2471
S'HTTP_ACCEPT_CHARSET'
p2472
asbag61
(g82
g63
NtRp2473
(dp2474
g66
(dp2475
g93
g94
ssg75
g2464
sg68
(lp2476
S':'
asbag61
(g82
g63
NtRp2477
(dp2478
g66
(dp2479
sg75
g2464
sg68
(lp2480
g61
(g62
g63
NtRp2481
(dp2482
g66
(dp2483
g74
I3
ssg75
g2477
sg68
(lp2484
g868
asbasbasbag61
(g77
g63
NtRp2485
(dp2486
g66
(dp2487
sg75
g2439
sg68
(lp2488
g61
(g82
g63
NtRp2489
(dp2490
g66
(dp2491
g86
g87
ssg75
g2485
sg68
(lp2492
S'HTTP_ACCEPT_ENCODING'
p2493
asbag61
(g82
g63
NtRp2494
(dp2495
g66
(dp2496
g93
g94
ssg75
g2485
sg68
(lp2497
S':'
asbag61
(g82
g63
NtRp2498
(dp2499
g66
(dp2500
sg75
g2485
sg68
(lp2501
g61
(g62
g63
NtRp2502
(dp2503
g66
(dp2504
g74
I3
ssg75
g2498
sg68
(lp2505
g890
asbasbasbag61
(g77
g63
NtRp2506
(dp2507
g66
(dp2508
sg75
g2439
sg68
(lp2509
g61
(g82
g63
NtRp2510
(dp2511
g66
(dp2512
g86
g87
ssg75
g2506
sg68
(lp2513
S'HTTP_ACCEPT_LANGUAGE'
p2514
asbag61
(g82
g63
NtRp2515
(dp2516
g66
(dp2517
g93
g94
ssg75
g2506
sg68
(lp2518
S':'
asbag61
(g82
g63
NtRp2519
(dp2520
g66
(dp2521
sg75
g2506
sg68
(lp2522
g61
(g62
g63
NtRp2523
(dp2524
g66
(dp2525
g74
I3
ssg75
g2519
sg68
(lp2526
g912
asbasbasbag61
(g77
g63
NtRp2527
(dp2528
g66
(dp2529
sg75
g2439
sg68
(lp2530
g61
(g82
g63
NtRp2531
(dp2532
g66
(dp2533
g86
g87
ssg75
g2527
sg68
(lp2534
S'HTTP_CACHE_CONTROL'
p2535
asbag61
(g82
g63
NtRp2536
(dp2537
g66
(dp2538
g93
g94
ssg75
g2527
sg68
(lp2539
S':'
asbag61
(g82
g63
NtRp2540
(dp2541
g66
(dp2542
sg75
g2527
sg68
(lp2543
g61
(g62
g63
NtRp2544
(dp2545
g66
(dp2546
g74
I3
ssg75
g2540
sg68
(lp2547
g934
asbasbasbag61
(g77
g63
NtRp2548
(dp2549
g66
(dp2550
sg75
g2439
sg68
(lp2551
g61
(g82
g63
NtRp2552
(dp2553
g66
(dp2554
g86
g87
ssg75
g2548
sg68
(lp2555
S'HTTP_CONNECTION'
p2556
asbag61
(g82
g63
NtRp2557
(dp2558
g66
(dp2559
g93
g94
ssg75
g2548
sg68
(lp2560
S':'
asbag61
(g82
g63
NtRp2561
(dp2562
g66
(dp2563
sg75
g2548
sg68
(lp2564
g61
(g62
g63
NtRp2565
(dp2566
g66
(dp2567
g74
I3
ssg75
g2561
sg68
(lp2568
g956
asbasbasbag61
(g77
g63
NtRp2569
(dp2570
g66
(dp2571
sg75
g2439
sg68
(lp2572
g61
(g82
g63
NtRp2573
(dp2574
g66
(dp2575
g86
g87
ssg75
g2569
sg68
(lp2576
S'HTTP_COOKIE'
p2577
asbag61
(g82
g63
NtRp2578
(dp2579
g66
(dp2580
g93
g94
ssg75
g2569
sg68
(lp2581
S':'
asbag61
(g82
g63
NtRp2582
(dp2583
g66
(dp2584
sg75
g2569
sg68
(lp2585
g61
(g62
g63
NtRp2586
(dp2587
g66
(dp2588
g74
I3
ssg75
g2582
sg68
(lp2589
g978
asbasbasbag61
(g77
g63
NtRp2590
(dp2591
g66
(dp2592
sg75
g2439
sg68
(lp2593
g61
(g82
g63
NtRp2594
(dp2595
g66
(dp2596
g86
g87
ssg75
g2590
sg68
(lp2597
S'HTTP_HOST'
p2598
asbag61
(g82
g63
NtRp2599
(dp2600
g66
(dp2601
g93
g94
ssg75
g2590
sg68
(lp2602
S':'
asbag61
(g82
g63
NtRp2603
(dp2604
g66
(dp2605
sg75
g2590
sg68
(lp2606
g61
(g62
g63
NtRp2607
(dp2608
g66
(dp2609
g74
I3
ssg75
g2603
sg68
(lp2610
g1000
asbasbasbag61
(g77
g63
NtRp2611
(dp2612
g66
(dp2613
sg75
g2439
sg68
(lp2614
g61
(g82
g63
NtRp2615
(dp2616
g66
(dp2617
g86
g87
ssg75
g2611
sg68
(lp2618
S'HTTP_REFERER'
p2619
asbag61
(g82
g63
NtRp2620
(dp2621
g66
(dp2622
g93
g94
ssg75
g2611
sg68
(lp2623
S':'
asbag61
(g82
g63
NtRp2624
(dp2625
g66
(dp2626
sg75
g2611
sg68
(lp2627
g61
(g62
g63
NtRp2628
(dp2629
g66
(dp2630
g74
I3
ssg75
g2624
sg68
(lp2631
g1022
asbasbasbag61
(g77
g63
NtRp2632
(dp2633
g66
(dp2634
sg75
g2439
sg68
(lp2635
g61
(g82
g63
NtRp2636
(dp2637
g66
(dp2638
g86
g87
ssg75
g2632
sg68
(lp2639
S'HTTP_USER_AGENT'
p2640
asbag61
(g82
g63
NtRp2641
(dp2642
g66
(dp2643
g93
g94
ssg75
g2632
sg68
(lp2644
S':'
asbag61
(g82
g63
NtRp2645
(dp2646
g66
(dp2647
sg75
g2632
sg68
(lp2648
g61
(g62
g63
NtRp2649
(dp2650
g66
(dp2651
g74
I3
ssg75
g2645
sg68
(lp2652
g1044
asbasbasbag61
(g77
g63
NtRp2653
(dp2654
g66
(dp2655
sg75
g2439
sg68
(lp2656
g61
(g82
g63
NtRp2657
(dp2658
g66
(dp2659
g86
g87
ssg75
g2653
sg68
(lp2660
S'PATH_INFO'
p2661
asbag61
(g82
g63
NtRp2662
(dp2663
g66
(dp2664
g93
g94
ssg75
g2653
sg68
(lp2665
S':'
asbag61
(g82
g63
NtRp2666
(dp2667
g66
(dp2668
sg75
g2653
sg68
(lp2669
g61
(g62
g63
NtRp2670
(dp2671
g66
(dp2672
g74
I3
ssg75
g2666
sg68
(lp2673
g1185
asbasbasbag61
(g77
g63
NtRp2674
(dp2675
g66
(dp2676
sg75
g2439
sg68
(lp2677
g61
(g82
g63
NtRp2678
(dp2679
g66
(dp2680
g86
g87
ssg75
g2674
sg68
(lp2681
S'QUERY_STRING'
p2682
asbag61
(g82
g63
NtRp2683
(dp2684
g66
(dp2685
g93
g94
ssg75
g2674
sg68
(lp2686
S':'
asbag61
(g82
g63
NtRp2687
(dp2688
g66
(dp2689
sg75
g2674
sg68
(lp2690
g61
(g62
g63
NtRp2691
(dp2692
g66
(dp2693
g74
I3
ssg75
g2687
sg68
(lp2694
S''
asbasbasbag61
(g77
g63
NtRp2695
(dp2696
g66
(dp2697
sg75
g2439
sg68
(lp2698
g61
(g82
g63
NtRp2699
(dp2700
g66
(dp2701
g86
g87
ssg75
g2695
sg68
(lp2702
S'REMOTE_ADDR'
p2703
asbag61
(g82
g63
NtRp2704
(dp2705
g66
(dp2706
g93
g94
ssg75
g2695
sg68
(lp2707
S':'
asbag61
(g82
g63
NtRp2708
(dp2709
g66
(dp2710
sg75
g2695
sg68
(lp2711
g61
(g62
g63
NtRp2712
(dp2713
g66
(dp2714
g74
I3
ssg75
g2708
sg68
(lp2715
g216
asbasbasbag61
(g77
g63
NtRp2716
(dp2717
g66
(dp2718
sg75
g2439
sg68
(lp2719
g61
(g82
g63
NtRp2720
(dp2721
g66
(dp2722
g86
g87
ssg75
g2716
sg68
(lp2723
S'REMOTE_PORT'
p2724
asbag61
(g82
g63
NtRp2725
(dp2726
g66
(dp2727
g93
g94
ssg75
g2716
sg68
(lp2728
S':'
asbag61
(g82
g63
NtRp2729
(dp2730
g66
(dp2731
sg75
g2716
sg68
(lp2732
g61
(g62
g63
NtRp2733
(dp2734
g66
(dp2735
g74
I3
ssg75
g2729
sg68
(lp2736
g1249
asbasbasbag61
(g77
g63
NtRp2737
(dp2738
g66
(dp2739
sg75
g2439
sg68
(lp2740
g61
(g82
g63
NtRp2741
(dp2742
g66
(dp2743
g86
g87
ssg75
g2737
sg68
(lp2744
S'REQUEST_METHOD'
p2745
asbag61
(g82
g63
NtRp2746
(dp2747
g66
(dp2748
g93
g94
ssg75
g2737
sg68
(lp2749
S':'
asbag61
(g82
g63
NtRp2750
(dp2751
g66
(dp2752
sg75
g2737
sg68
(lp2753
g61
(g62
g63
NtRp2754
(dp2755
g66
(dp2756
g74
I3
ssg75
g2750
sg68
(lp2757
g1271
asbasbasbag61
(g77
g63
NtRp2758
(dp2759
g66
(dp2760
sg75
g2439
sg68
(lp2761
g61
(g82
g63
NtRp2762
(dp2763
g66
(dp2764
g86
g87
ssg75
g2758
sg68
(lp2765
S'REQUEST_URI'
p2766
asbag61
(g82
g63
NtRp2767
(dp2768
g66
(dp2769
g93
g94
ssg75
g2758
sg68
(lp2770
S':'
asbag61
(g82
g63
NtRp2771
(dp2772
g66
(dp2773
sg75
g2758
sg68
(lp2774
g61
(g62
g63
NtRp2775
(dp2776
g66
(dp2777
g74
I3
ssg75
g2771
sg68
(lp2778
g1293
asbasbasbag61
(g77
g63
NtRp2779
(dp2780
g66
(dp2781
sg75
g2439
sg68
(lp2782
g61
(g82
g63
NtRp2783
(dp2784
g66
(dp2785
g86
g87
ssg75
g2779
sg68
(lp2786
S'SCRIPT_NAME'
p2787
asbag61
(g82
g63
NtRp2788
(dp2789
g66
(dp2790
g93
g94
ssg75
g2779
sg68
(lp2791
S':'
asbag61
(g82
g63
NtRp2792
(dp2793
g66
(dp2794
sg75
g2779
sg68
(lp2795
g61
(g62
g63
NtRp2796
(dp2797
g66
(dp2798
g74
I3
ssg75
g2792
sg68
(lp2799
S''
asbasbasbag61
(g77
g63
NtRp2800
(dp2801
g66
(dp2802
sg75
g2439
sg68
(lp2803
g61
(g82
g63
NtRp2804
(dp2805
g66
(dp2806
g86
g87
ssg75
g2800
sg68
(lp2807
S'SERVER_NAME'
p2808
asbag61
(g82
g63
NtRp2809
(dp2810
g66
(dp2811
g93
g94
ssg75
g2800
sg68
(lp2812
S':'
asbag61
(g82
g63
NtRp2813
(dp2814
g66
(dp2815
sg75
g2800
sg68
(lp2816
g61
(g62
g63
NtRp2817
(dp2818
g66
(dp2819
g74
I3
ssg75
g2813
sg68
(lp2820
g1336
asbasbasbag61
(g77
g63
NtRp2821
(dp2822
g66
(dp2823
sg75
g2439
sg68
(lp2824
g61
(g82
g63
NtRp2825
(dp2826
g66
(dp2827
g86
g87
ssg75
g2821
sg68
(lp2828
S'SERVER_PORT'
p2829
asbag61
(g82
g63
NtRp2830
(dp2831
g66
(dp2832
g93
g94
ssg75
g2821
sg68
(lp2833
S':'
asbag61
(g82
g63
NtRp2834
(dp2835
g66
(dp2836
sg75
g2821
sg68
(lp2837
g61
(g62
g63
NtRp2838
(dp2839
g66
(dp2840
g74
I3
ssg75
g2834
sg68
(lp2841
g1358
asbasbasbag61
(g77
g63
NtRp2842
(dp2843
g66
(dp2844
sg75
g2439
sg68
(lp2845
g61
(g82
g63
NtRp2846
(dp2847
g66
(dp2848
g86
g87
ssg75
g2842
sg68
(lp2849
S'SERVER_PROTOCOL'
p2850
asbag61
(g82
g63
NtRp2851
(dp2852
g66
(dp2853
g93
g94
ssg75
g2842
sg68
(lp2854
S':'
asbag61
(g82
g63
NtRp2855
(dp2856
g66
(dp2857
sg75
g2842
sg68
(lp2858
g61
(g62
g63
NtRp2859
(dp2860
g66
(dp2861
g74
I3
ssg75
g2855
sg68
(lp2862
g1380
asbasbasbag61
(g77
g63
NtRp2863
(dp2864
g66
(dp2865
sg75
g2439
sg68
(lp2866
g61
(g82
g63
NtRp2867
(dp2868
g66
(dp2869
g86
g87
ssg75
g2863
sg68
(lp2870
S'SERVER_SOFTWARE'
p2871
asbag61
(g82
g63
NtRp2872
(dp2873
g66
(dp2874
g93
g94
ssg75
g2863
sg68
(lp2875
S':'
asbag61
(g82
g63
NtRp2876
(dp2877
g66
(dp2878
sg75
g2863
sg68
(lp2879
g61
(g62
g63
NtRp2880
(dp2881
g66
(dp2882
g74
I3
ssg75
g2876
sg68
(lp2883
g1402
asbasbasbag61
(g77
g63
NtRp2884
(dp2885
g66
(dp2886
sg75
g2439
sg68
(lp2887
g61
(g82
g63
NtRp2888
(dp2889
g66
(dp2890
g86
g87
ssg75
g2884
sg68
(lp2891
S'WEB2PY_ORIGINAL_URI'
p2892
asbag61
(g82
g63
NtRp2893
(dp2894
g66
(dp2895
g93
g94
ssg75
g2884
sg68
(lp2896
S':'
asbag61
(g82
g63
NtRp2897
(dp2898
g66
(dp2899
sg75
g2884
sg68
(lp2900
g61
(g62
g63
NtRp2901
(dp2902
g66
(dp2903
g74
I3
ssg75
g2897
sg68
(lp2904
g1185
asbasbasbag61
(g77
g63
NtRp2905
(dp2906
g66
(dp2907
sg75
g2439
sg68
(lp2908
g61
(g82
g63
NtRp2909
(dp2910
g66
(dp2911
g86
g87
ssg75
g2905
sg68
(lp2912
S'wsgi.errors'
p2913
asbag61
(g82
g63
NtRp2914
(dp2915
g66
(dp2916
g93
g94
ssg75
g2905
sg68
(lp2917
S':'
asbag61
(g82
g63
NtRp2918
(dp2919
g66
(dp2920
sg75
g2905
sg68
(lp2921
g61
(g62
g63
NtRp2922
(dp2923
g66
(dp2924
g74
I3
ssg75
g2918
sg68
(lp2925
S"<open file '<stderr>', mode 'w' at 0x7f7c5e970270>"
p2926
asbasbasbag61
(g77
g63
NtRp2927
(dp2928
g66
(dp2929
sg75
g2439
sg68
(lp2930
g61
(g82
g63
NtRp2931
(dp2932
g66
(dp2933
g86
g87
ssg75
g2927
sg68
(lp2934
S'wsgi.file_wrapper'
p2935
asbag61
(g82
g63
NtRp2936
(dp2937
g66
(dp2938
g93
g94
ssg75
g2927
sg68
(lp2939
S':'
asbag61
(g82
g63
NtRp2940
(dp2941
g66
(dp2942
sg75
g2927
sg68
(lp2943
g61
(g62
g63
NtRp2944
(dp2945
g66
(dp2946
g74
I3
ssg75
g2940
sg68
(lp2947
S'<class wsgiref.util.FileWrapper at 0x2d82598>'
p2948
asbasbasbag61
(g77
g63
NtRp2949
(dp2950
g66
(dp2951
sg75
g2439
sg68
(lp2952
g61
(g82
g63
NtRp2953
(dp2954
g66
(dp2955
g86
g87
ssg75
g2949
sg68
(lp2956
S'wsgi.input'
p2957
asbag61
(g82
g63
NtRp2958
(dp2959
g66
(dp2960
g93
g94
ssg75
g2949
sg68
(lp2961
S':'
asbag61
(g82
g63
NtRp2962
(dp2963
g66
(dp2964
sg75
g2949
sg68
(lp2965
g61
(g62
g63
NtRp2966
(dp2967
g66
(dp2968
g74
I3
ssg75
g2962
sg68
(lp2969
S'<cStringIO.StringO object at 0x7f7c50281e30>'
p2970
asbasbasbag61
(g77
g63
NtRp2971
(dp2972
g66
(dp2973
sg75
g2439
sg68
(lp2974
g61
(g82
g63
NtRp2975
(dp2976
g66
(dp2977
g86
g87
ssg75
g2971
sg68
(lp2978
S'wsgi.multiprocess'
p2979
asbag61
(g82
g63
NtRp2980
(dp2981
g66
(dp2982
g93
g94
ssg75
g2971
sg68
(lp2983
S':'
asbag61
(g82
g63
NtRp2984
(dp2985
g66
(dp2986
sg75
g2971
sg68
(lp2987
g61
(g62
g63
NtRp2988
(dp2989
g66
(dp2990
g74
I3
ssg75
g2984
sg68
(lp2991
g104
asbasbasbag61
(g77
g63
NtRp2992
(dp2993
g66
(dp2994
sg75
g2439
sg68
(lp2995
g61
(g82
g63
NtRp2996
(dp2997
g66
(dp2998
g86
g87
ssg75
g2992
sg68
(lp2999
S'wsgi.multithread'
p3000
asbag61
(g82
g63
NtRp3001
(dp3002
g66
(dp3003
g93
g94
ssg75
g2992
sg68
(lp3004
S':'
asbag61
(g82
g63
NtRp3005
(dp3006
g66
(dp3007
sg75
g2992
sg68
(lp3008
g61
(g62
g63
NtRp3009
(dp3010
g66
(dp3011
g74
I3
ssg75
g3005
sg68
(lp3012
g1640
asbasbasbag61
(g77
g63
NtRp3013
(dp3014
g66
(dp3015
sg75
g2439
sg68
(lp3016
g61
(g82
g63
NtRp3017
(dp3018
g66
(dp3019
g86
g87
ssg75
g3013
sg68
(lp3020
S'wsgi.run_once'
p3021
asbag61
(g82
g63
NtRp3022
(dp3023
g66
(dp3024
g93
g94
ssg75
g3013
sg68
(lp3025
S':'
asbag61
(g82
g63
NtRp3026
(dp3027
g66
(dp3028
sg75
g3013
sg68
(lp3029
g61
(g62
g63
NtRp3030
(dp3031
g66
(dp3032
g74
I3
ssg75
g3026
sg68
(lp3033
g104
asbasbasbag61
(g77
g63
NtRp3034
(dp3035
g66
(dp3036
sg75
g2439
sg68
(lp3037
g61
(g82
g63
NtRp3038
(dp3039
g66
(dp3040
g86
g87
ssg75
g3034
sg68
(lp3041
S'wsgi.url_scheme'
p3042
asbag61
(g82
g63
NtRp3043
(dp3044
g66
(dp3045
g93
g94
ssg75
g3034
sg68
(lp3046
S':'
asbag61
(g82
g63
NtRp3047
(dp3048
g66
(dp3049
sg75
g3034
sg68
(lp3050
g61
(g62
g63
NtRp3051
(dp3052
g66
(dp3053
g74
I3
ssg75
g3047
sg68
(lp3054
g1683
asbasbasbag61
(g77
g63
NtRp3055
(dp3056
g66
(dp3057
sg75
g2439
sg68
(lp3058
g61
(g82
g63
NtRp3059
(dp3060
g66
(dp3061
g86
g87
ssg75
g3055
sg68
(lp3062
S'wsgi.version'
p3063
asbag61
(g82
g63
NtRp3064
(dp3065
g66
(dp3066
g93
g94
ssg75
g3055
sg68
(lp3067
S':'
asbag61
(g82
g63
NtRp3068
(dp3069
g66
(dp3070
sg75
g3055
sg68
(lp3071
g61
(g62
g63
NtRp3072
(dp3073
g66
(dp3074
g74
I3
ssg75
g3068
sg68
(lp3075
S'1'
asbasbasbasbasbasbasbasbasbasbasbasbasbsS'frames'
p3076
(lp3077
(dp3078
S'file'
p3079
S'/var/www/conferencia/gluon/restricted.py'
p3080
sS'dump'
p3081
(dp3082
S'environment'
p3083
S"{'A': <class 'gluon.html.A'>, 'Auth': <class 'gluon.tools.Auth'>, 'B': <class 'gluon.html.B'>, 'BEAUTIFY': <class 'gluon.html.BEAUTIFY'>, 'BODY': <class 'gluon.html.BODY'>, 'BR': <class 'gluon.html.BR'>, 'BUTTON': <class 'gluon.html.BUTTON'>, 'CAT': <class 'gluon.html.CAT'>, 'CENTER': <class 'gluon.html.CENTER'>, 'CLEANUP': <class 'gluon.validators.CLEANUP'>, ...}"
p3084
sS'ccode'
p3085
S'<code object <module> at 0x7f7c340d8730, file "/...a/applications/projeto/models/models.py", line 1>'
p3086
ssS'lnum'
p3087
I212
sS'lines'
p3088
(dp3089
I207
S'    try:'
p3090
sI208
S'        if isinstance(code, types.CodeType):'
p3091
sI209
S'            ccode = code'
p3092
sI210
S'        else:'
p3093
sI211
S'            ccode = compile2(code, layer)'
p3094
sI212
S'        exec ccode in environment'
p3095
sI213
S'    except HTTP:'
p3096
sI214
S'        raise'
p3097
sI215
S'    except RestrictedError:'
p3098
sI216
S'        # do not encapsulate (obfuscate) the original RestrictedError'
p3099
ssS'call'
p3100
S'(code=\'usuario = db.define_table("usuario",\\n      Field...suario\\\'),\\n      primarykey=[\\\'confno\\\']\\n      )\\n\\n\\n\\n\', environment={\'A\': <class \'gluon.html.A\'>, \'Auth\': <class \'gluon.tools.Auth\'>, \'B\': <class \'gluon.html.B\'>, \'BEAUTIFY\': <class \'gluon.html.BEAUTIFY\'>, \'BODY\': <class \'gluon.html.BODY\'>, \'BR\': <class \'gluon.html.BR\'>, \'BUTTON\': <class \'gluon.html.BUTTON\'>, \'CAT\': <class \'gluon.html.CAT\'>, \'CENTER\': <class \'gluon.html.CENTER\'>, \'CLEANUP\': <class \'gluon.validators.CLEANUP\'>, ...}, layer=\'/var/www/conferencia/applications/projeto/models/models.py\')'
p3101
sS'func'
p3102
S'restricted'
p3103
sa(dp3104
g3079
S'/var/www/conferencia/applications/projeto/models/models.py'
p3105
sg3081
(dp3106
S'primarykey'
p3107
S'undefined'
p3108
ssg3087
I14
sg3088
(dp3109
I9
S'meetme = db.define_table("meetme",'
p3110
sI10
S'      Field("confno"),'
p3111
sI11
S'      Field("starttime", "datetime"),'
p3112
sI12
S'      Field("endtime", "datetime"),'
p3113
sI13
S'      Field("membros_user", \'list:reference usuario\'),'
p3114
sI14
S"      primarykey=['confno']"
p3115
sI15
S'      )'
p3116
sI16
S''
sI17
S''
sI18
S''
ssg3100
S'()'
p3117
sg3102
S'<module>'
p3118
sa(dp3119
g3079
S'/var/www/conferencia/gluon/dal.py'
p3120
sg3081
(dp3121
S'fields'
p3122
S'(<gluon.dal.Field object>, <gluon.dal.Field object>, <gluon.dal.Field object>, <gluon.dal.Field object>)'
p3123
sS'self'
p3124
S'<DAL uri="postgres:pg8000://******:123456@127.0.0.1/conferencia">'
p3125
sS'args'
p3126
S"{'primarykey': ['confno']}"
p3127
sS'tablename'
p3128
S"'meetme'"
p3129
sS'table'
p3130
g3108
sS'self.lazy_define_table'
p3131
S'<bound method DAL.lazy_define_table of <DAL uri=...s:pg8000://******:123456@127.0.0.1/conferencia">>'
p3132
ssg3087
I7186
sg3088
(dp3133
I7181
S'                    % (tablename,invalid_args))'
p3134
sI7182
S'        if self._lazy_tables and not tablename in self._LAZY_TABLES:'
p3135
sI7183
S'            self._LAZY_TABLES[tablename] = (tablename,fields,args)'
p3136
sI7184
S'            table = None'
p3137
sI7185
S'        else:'
p3138
sI7186
S'            table = self.lazy_define_table(tablename,*fields,**args)'
p3139
sI7187
S'        if not tablename in self.tables:'
p3140
sI7188
S'            self.tables.append(tablename)'
p3141
sI7189
S'        return table'
p3142
sI7190
S''
ssg3100
S'(self=<DAL uri="postgres:pg8000://******:123456@127.0.0.1/conferencia">, tablename=\'meetme\', *fields=(<gluon.dal.Field object>, <gluon.dal.Field object>, <gluon.dal.Field object>, <gluon.dal.Field object>), **args={\'primarykey\': [\'confno\']})'
p3143
sg3102
S'define_table'
p3144
sa(dp3145
g3079
S'/var/www/conferencia/gluon/dal.py'
p3146
sg3081
(dp3147
S'polymodel'
p3148
S'None'
p3149
ssg3087
I7222
sg3088
(dp3150
I7217
S"            polymodel = args_get('polymodel',None)"
p3151
sI7218
S'            try:'
p3152
sI7219
S'                GLOBAL_LOCKER.acquire()'
p3153
sI7220
S'                self._adapter.create_table(table,migrate=migrate,'
p3154
sI7221
S'                                           fake_migrate=fake_migrate,'
p3155
sI7222
S'                                           polymodel=polymodel)'
p3156
sI7223
S'            finally:'
p3157
sI7224
S'                GLOBAL_LOCKER.release()'
p3158
sI7225
S'        else:'
p3159
sI7226
S'            table._dbt = None'
p3160
ssg3100
S'(self=<DAL uri="postgres:pg8000://******:123456@127.0.0.1/conferencia">, tablename=\'meetme\', *fields=(<gluon.dal.Field object>, <gluon.dal.Field object>, <gluon.dal.Field object>, <gluon.dal.Field object>), **args={\'primarykey\': [\'confno\']})'
p3161
sg3102
S'lazy_define_table'
p3162
sa(dp3163
g3079
S'/var/www/conferencia/gluon/dal.py'
p3164
sg3081
(dp3165
S'fake_migrate'
p3166
g104
ssg3087
I963
sg3088
(dp3167
I960
S'                self.migrate_table(table,'
p3168
sI961
S'                                   sql_fields, sql_fields_old,'
p3169
sI962
S'                                   sql_fields_aux, logfile,'
p3170
sI963
S'                                   fake_migrate=fake_migrate)'
p3171
sI964
S'        self.file_close(logfile)'
p3172
sI965
S'        return query'
p3173
sI966
S''
sI967
S'    def migrate_table('
p3174
sI958
S'            self.file_close(tfile)'
p3175
sI959
S'            if sql_fields != sql_fields_old:'
p3176
ssg3100
S'(self=<gluon.dal.PostgreSQLAdapter object>, table=<Table meetme (confno,starttime,endtime,membros_user)>, migrate=True, fake_migrate=False, polymodel=None)'
p3177
sg3102
S'create_table'
p3178
sa(dp3179
g3079
S'/var/www/conferencia/gluon/dal.py'
p3180
sg3081
(dp3181
S'self'
p3182
S'<gluon.dal.PostgreSQLAdapter object>'
p3183
sS'self.execute'
p3184
S'<bound method PostgreSQLAdapter.execute of <gluon.dal.PostgreSQLAdapter object>>'
p3185
sS'sub_query'
p3186
S"'ALTER TABLE meetme ADD confno__tmp VARCHAR(512) NOT NULL;'"
p3187
ssg3087
I1069
sg3088
(dp3188
I1064
S'                              % datetime.datetime.today().isoformat())'
p3189
sI1065
S"                db['_lastsql'] = '\\n'.join(query)"
p3190
sI1066
S'                for sub_query in query:'
p3191
sI1067
S"                    logfile.write(sub_query + '\\n')"
p3192
sI1068
S'                    if not fake_migrate:'
p3193
sI1069
S'                        self.execute(sub_query)'
p3194
sI1070
S'                        # Caveat: mysql, oracle and firebird do not allow multiple alter table'
p3195
sI1071
S'                        # in one transaction so we must commit partial transactions and'
p3196
sI1072
S'                        # update table._dbt after alter table.'
p3197
sI1073
S'                        if db._adapter.commit_on_alter_table:'
p3198
ssg3100
S"(self=<gluon.dal.PostgreSQLAdapter object>, table=<Table meetme (confno,starttime,endtime,membros_user)>, sql_fields={'confno': {'length': 512, 'notnull': True, 'sortable': 1, 'sql': 'VARCHAR(512) NOT NULL', 'type': 'string', 'unique': False}, 'endtime': {'length': 512, 'notnull': False, 'sortable': 3, 'sql': 'TIMESTAMP', 'type': 'datetime', 'unique': False}, 'membros_user': {'length': 512, 'notnull': False, 'sortable': 4, 'sql': 'TEXT', 'type': 'list:reference usuario', 'unique': False}, 'starttime': {'length': 512, 'notnull': False, 'sortable': 2, 'sql': 'TIMESTAMP', 'type': 'datetime', 'unique': False}}, sql_fields_old={'confno': {'length': 512, 'notnull': True, 'sortable': 1, 'sql': 'VARCHAR(512) NOT NULL UNIQUE', 'type': 'string', 'unique': True}, 'endtime': {'length': 512, 'notnull': False, 'sortable': 3, 'sql': 'TIMESTAMP', 'type': 'datetime', 'unique': False}, 'membros_user': {'length': 512, 'notnull': False, 'sortable': 4, 'sql': 'TEXT', 'type': 'list:reference usuario', 'unique': False}, 'starttime': {'length': 512, 'notnull': False, 'sortable': 2, 'sql': 'TIMESTAMP', 'type': 'datetime', 'unique': False}}, sql_fields_aux={'confno': {'sql': 'VARCHAR(512) NOT NULL'}, 'endtime': {'sql': 'TIMESTAMP'}, 'membros_user': {'sql': 'TEXT'}, 'starttime': {'sql': 'TIMESTAMP'}}, logfile=<gluon.portalocker.LockedFile object>, fake_migrate=False)"
p3199
sg3102
S'migrate_table'
p3200
sa(dp3201
g3079
S'/var/www/conferencia/gluon/dal.py'
p3202
sg3081
(dp3203
S'a'
S"('ALTER TABLE meetme ADD confno__tmp VARCHAR(512) NOT NULL;',)"
p3204
sS'self'
p3205
S'<gluon.dal.PostgreSQLAdapter object>'
p3206
sS'b'
g21
sS'self.log_execute'
p3207
S'<bound method PostgreSQLAdapter.log_execute of <gluon.dal.PostgreSQLAdapter object>>'
p3208
ssg3087
I1709
sg3088
(dp3209
I1704
S'        self.db._timings.append((command,time.time()-t0))'
p3210
sI1705
S'        del self.db._timings[:-TIMINGSSIZE]'
p3211
sI1706
S'        return ret'
p3212
sI1707
S''
sI1708
S'    def execute(self, *a, **b):'
p3213
sI1709
S'        return self.log_execute(*a, **b)'
p3214
sI1710
S''
sI1711
S'    def represent(self, obj, fieldtype):'
p3215
sI1712
S'        field_is_type = fieldtype.startswith'
p3216
sI1713
S'        if isinstance(obj, CALLABLETYPES):'
p3217
ssg3100
S"(self=<gluon.dal.PostgreSQLAdapter object>, *a=('ALTER TABLE meetme ADD confno__tmp VARCHAR(512) NOT NULL;',), **b={})"
p3218
sg3102
S'execute'
p3219
sa(dp3220
g3079
S'/var/www/conferencia/gluon/dal.py'
p3221
sg3081
(dp3222
S'a'
S"('ALTER TABLE meetme ADD confno__tmp VARCHAR(512) NOT NULL;',)"
p3223
sS'b'
g21
sS'self'
p3224
S'<gluon.dal.PostgreSQLAdapter object>'
p3225
sS'ret'
p3226
g3108
sS'self.cursor'
p3227
S'<gluon.contrib.pg8000.dbapi.CursorWrapper object>'
p3228
sS'self.cursor.execute'
p3229
S'<bound method CursorWrapper._fn of <gluon.contrib.pg8000.dbapi.CursorWrapper object>>'
p3230
ssg3087
I1703
sg3088
(dp3231
I1698
S'        command = a[0]'
p3232
sI1699
S'        if self.db._debug:'
p3233
sI1700
S"            LOGGER.debug('SQL: %s' % command)"
p3234
sI1701
S'        self.db._lastsql = command'
p3235
sI1702
S'        t0 = time.time()'
p3236
sI1703
S'        ret = self.cursor.execute(*a, **b)'
p3237
sI1704
S'        self.db._timings.append((command,time.time()-t0))'
p3238
sI1705
S'        del self.db._timings[:-TIMINGSSIZE]'
p3239
sI1706
S'        return ret'
p3240
sI1707
S''
ssg3100
S"(self=<gluon.dal.PostgreSQLAdapter object>, *a=('ALTER TABLE meetme ADD confno__tmp VARCHAR(512) NOT NULL;',), **b={})"
p3241
sg3102
S'log_execute'
p3242
sa(dp3243
g3079
S'/var/www/conferencia/gluon/contrib/pg8000/dbapi.py'
p3244
sg3081
(dp3245
S'self'
p3246
S'<gluon.contrib.pg8000.dbapi.CursorWrapper object>'
p3247
sS'args'
p3248
S"('ALTER TABLE meetme ADD confno__tmp VARCHAR(512) NOT NULL;',)"
p3249
sS'fn'
p3250
S'<function execute>'
p3251
sS'kwargs'
p3252
g21
ssg3087
I246
sg3088
(dp3253
I241
S''
sI242
S'def require_open_cursor(fn):'
p3254
sI243
S'    def _fn(self, *args, **kwargs):'
p3255
sI244
S'        if self.cursor == None:'
p3256
sI245
S'            raise CursorClosedError()'
p3257
sI246
S'        return fn(self, *args, **kwargs)'
p3258
sI247
S'    return _fn'
p3259
sI248
S''
sI249
S'##'
p3260
sI250
S'# The class of object returned by the {@link #ConnectionWrapper.cursor cursor method}.'
p3261
ssg3100
S"(self=<gluon.contrib.pg8000.dbapi.CursorWrapper object>, *args=('ALTER TABLE meetme ADD confno__tmp VARCHAR(512) NOT NULL;',), **kwargs={})"
p3262
sg3102
S'_fn'
p3263
sa(dp3264
g3079
S'/var/www/conferencia/gluon/contrib/pg8000/dbapi.py'
p3265
sg3081
(dp3266
S'self._execute'
p3267
S'<bound method CursorWrapper._execute of <gluon.contrib.pg8000.dbapi.CursorWrapper object>>'
p3268
sS'self'
p3269
S'<gluon.contrib.pg8000.dbapi.CursorWrapper object>'
p3270
sS'args'
p3271
S'()'
p3272
sS'operation'
p3273
S"'ALTER TABLE meetme ADD confno__tmp VARCHAR(512) NOT NULL;'"
p3274
ssg3087
I317
sg3088
(dp3275
I320
S'        new_query, new_args = convert_paramstyle(paramstyle, operation, args)'
p3276
sI321
S'        try:'
p3277
sI312
S'    @require_open_cursor'
p3278
sI313
S'    def execute(self, operation, args=()):'
p3279
sI314
S'        if not self._connection.in_transaction:'
p3280
sI315
S'            self._connection.begin()'
p3281
sI316
S'        self._override_rowcount = None'
p3282
sI317
S'        self._execute(operation, args)'
p3283
sI318
S''
sI319
S'    def _execute(self, operation, args=()):'
p3284
ssg3100
S"(self=<gluon.contrib.pg8000.dbapi.CursorWrapper object>, operation='ALTER TABLE meetme ADD confno__tmp VARCHAR(512) NOT NULL;', args=())"
p3285
sg3102
g3219
sa(dp3286
g3079
S'/var/www/conferencia/gluon/contrib/pg8000/dbapi.py'
p3287
sg3081
(dp3288
S'new_args'
p3289
S'()'
p3290
sS'self.cursor'
p3291
S'<gluon.contrib.pg8000.interface.Cursor object>'
p3292
sS'self'
p3293
S'<gluon.contrib.pg8000.dbapi.CursorWrapper object>'
p3294
sS'new_query'
p3295
S"'ALTER TABLE meetme ADD confno__tmp VARCHAR(512) NOT NULL;'"
p3296
sS'self.cursor.execute'
p3297
S'<bound method Cursor.execute of <gluon.contrib.pg8000.interface.Cursor object>>'
p3298
ssg3087
I322
sg3088
(dp3299
I320
S'        new_query, new_args = convert_paramstyle(paramstyle, operation, args)'
p3300
sI321
S'        try:'
p3301
sI322
S'            self.cursor.execute(new_query, *new_args)'
p3302
sI323
S'        except ConnectionClosedError:'
p3303
sI324
S"            # can't rollback in this case"
p3304
sI325
S'            raise'
p3305
sI326
S'        except:'
p3306
sI317
S'        self._execute(operation, args)'
p3307
sI318
S''
sI319
S'    def _execute(self, operation, args=()):'
p3308
ssg3100
S"(self=<gluon.contrib.pg8000.dbapi.CursorWrapper object>, operation='ALTER TABLE meetme ADD confno__tmp VARCHAR(512) NOT NULL;', args=())"
p3309
sg3102
S'_execute'
p3310
sa(dp3311
g3079
S'/var/www/conferencia/gluon/contrib/pg8000/interface.py'
p3312
sg3081
(dp3313
S'self._stmt.execute'
p3314
S'<bound method PreparedStatement.execute of <gluo...ntrib.pg8000.interface.PreparedStatement object>>'
p3315
sS'kwargs'
p3316
g21
sS'self'
p3317
S'<gluon.contrib.pg8000.interface.Cursor object>'
p3318
sS'args'
p3319
S'()'
p3320
sS'self._stmt'
p3321
S'<gluon.contrib.pg8000.interface.PreparedStatement object>'
p3322
ssg3087
I399
sg3088
(dp3323
I394
S'                ## print "SimpleQuery:", query'
p3324
sI395
S'                self._stmt = SimpleStatement(self.connection, query)'
p3325
sI396
S'            else:'
p3326
sI397
S'                # use PostgreSQL Extended Query Protocol'
p3327
sI398
S'                self._stmt = PreparedStatement(self.connection, query, statement_name="", *[{"type": type(x), "value": x} for x in args])'
p3328
sI399
S'            self._stmt.execute(*args, **kwargs)'
p3329
sI400
S'        finally:'
p3330
sI401
S'            self.connection._unnamed_prepared_statement_lock.release()'
p3331
sI402
S''
sI403
S'    ##'
p3332
ssg3100
S"(self=<gluon.contrib.pg8000.interface.Cursor object>, query='ALTER TABLE meetme ADD confno__tmp VARCHAR(512) NOT NULL;', *args=(), **kwargs={})"
p3333
sg3102
g3219
sa(dp3334
g3079
S'/var/www/conferencia/gluon/contrib/pg8000/interface.py'
p3335
sg3081
(dp3336
S'kwargs.get'
p3337
S'<built-in method get of dict object>'
p3338
sS'args'
p3339
S'()'
p3340
sS'self.c'
p3341
S'<gluon.contrib.pg8000.protocol.Connection object>'
p3342
sS'self'
p3343
S'<gluon.contrib.pg8000.interface.PreparedStatement object>'
p3344
sS'cmd'
p3345
g3108
sS'self._row_desc'
p3346
S'None'
p3347
sS'self.c.bind'
p3348
S'<bound method Connection._fn of <gluon.contrib.pg8000.protocol.Connection object>>'
p3349
sS'self._statement_name'
p3350
S"''"
p3351
sS'self._parse_row_desc'
p3352
S'(None, [])'
p3353
sS'kwargs'
p3354
g21
sS'self._portal_name'
p3355
S"'pg8000_portal_30'"
p3356
ssg3087
I169
sg3088
(dp3357
I164
S'                self._ongoing_row_count = 0'
p3358
sI165
S'            if self._portal_name != None:'
p3359
sI166
S'                self.c.close_portal(self._portal_name)'
p3360
sI167
S'            self._command_complete = False'
p3361
sI168
S'            self._portal_name = "pg8000_portal_%s" % self._statement_number'
p3362
sI169
S'            self._row_desc, cmd = self.c.bind(self._portal_name, self._statement_name, args, self._parse_row_desc, kwargs.get("stream"))'
p3363
sI170
S'            if self._row_desc:'
p3364
sI171
S'                # We execute our cursor right away to fill up our cache.  This'
p3365
sI172
S'                # prevents the cursor from being destroyed, apparently, by a rogue'
p3366
sI173
S'                # Sync between Bind and Execute.  Since it is quite likely that'
p3367
ssg3100
S'(self=<gluon.contrib.pg8000.interface.PreparedStatement object>, *args=(), **kwargs={})'
p3368
sg3102
g3219
sa(dp3369
g3079
S'/var/www/conferencia/gluon/contrib/pg8000/protocol.py'
p3370
sg3081
(dp3371
S'self'
p3372
S'<gluon.contrib.pg8000.protocol.Connection object>'
p3373
sS'args'
p3374
S"('pg8000_portal_30', '', (), (None, []), None)"
p3375
sS'fn'
p3376
S'<function bind>'
p3377
sS'kwargs'
p3378
g21
ssg3087
I943
sg3088
(dp3379
I938
S''
sI939
S'def sync_on_error(fn):'
p3380
sI940
S'    def _fn(self, *args, **kwargs):'
p3381
sI941
S'        try:'
p3382
sI942
S'            self._sock_lock.acquire()'
p3383
sI943
S'            return fn(self, *args, **kwargs)'
p3384
sI944
S'        except:'
p3385
sI945
S'            self._sync()'
p3386
sI946
S'            raise'
p3387
sI947
S'        finally:'
p3388
ssg3100
S"(self=<gluon.contrib.pg8000.protocol.Connection object>, *args=('pg8000_portal_30', '', (), (None, []), None), **kwargs={})"
p3389
sg3102
g3263
sa(dp3390
g3079
S'/var/www/conferencia/gluon/contrib/pg8000/protocol.py'
p3391
sg3081
(dp3392
S'reader.handle_messages'
p3393
S'<bound method MessageReader.handle_messages of <gluon.contrib.pg8000.protocol.MessageReader object>>'
p3394
sS'reader'
p3395
S'<gluon.contrib.pg8000.protocol.MessageReader object>'
p3396
ssg3087
I1142
sg3088
(dp3397
I1137
S''
sI1138
S'        # Return the new row desc, since it will have the format types we'
p3398
sI1139
S'        # asked the server for'
p3399
sI1140
S'        reader.add_message(RowDescription, lambda msg: (msg, None))'
p3400
sI1141
S''
sI1142
S'        return reader.handle_messages()'
p3401
sI1143
S''
sI1144
S'    def _copy_in_response(self, copyin, fileobj, old_reader):'
p3402
sI1145
S'        if fileobj == None:'
p3403
sI1146
S'            raise CopyQueryWithoutStreamError()'
p3404
ssg3100
S"(self=<gluon.contrib.pg8000.protocol.Connection object>, portal='pg8000_portal_30', statement='', params=(), parse_data=(None, []), copy_stream=None)"
p3405
sg3102
S'bind'
p3406
sa(dp3407
g3079
S'/var/www/conferencia/gluon/contrib/pg8000/protocol.py'
p3408
sg3081
(dp3409
S'msg'
p3410
S'<gluon.contrib.pg8000.protocol.NoData object>'
p3411
sS'handler'
p3412
S'<bound method Connection._bind_nodata of <gluon.contrib.pg8000.protocol.Connection object>>'
p3413
sS'retval'
p3414
S'0'
sS'args'
p3415
S"('pg8000_portal_30', <gluon.contrib.pg8000.protocol.MessageReader object>, None)"
p3416
sS'kwargs'
p3417
g21
ssg3087
I911
sg3088
(dp3418
I906
S'            msg = self._conn._read_message()'
p3419
sI907
S'            msg_handled = False'
p3420
sI908
S'            for (msg_class, handler, args, kwargs) in self._msgs:'
p3421
sI909
S'                if isinstance(msg, msg_class):'
p3422
sI910
S'                    msg_handled = True'
p3423
sI911
S'                    retval = handler(msg, *args, **kwargs)'
p3424
sI912
S'                    if retval:'
p3425
sI913
S'                        # The handler returned a true value, meaning that the'
p3426
sI914
S'                        # message loop should be aborted.'
p3427
sI915
S'                        if exc != None:'
p3428
ssg3100
S'(self=<gluon.contrib.pg8000.protocol.MessageReader object>)'
p3429
sg3102
S'handle_messages'
p3430
sa(dp3431
g3079
S'/var/www/conferencia/gluon/contrib/pg8000/protocol.py'
p3432
sg3081
(dp3433
S'reader.handle_messages'
p3434
S'<bound method MessageReader.handle_messages of <gluon.contrib.pg8000.protocol.MessageReader object>>'
p3435
sS'reader'
p3436
S'<gluon.contrib.pg8000.protocol.MessageReader object>'
p3437
ssg3087
I1181
sg3088
(dp3438
I1184
S''
sI1185
S'    @sync_on_error'
p3439
sI1176
S'        reader.add_message(CopyOutResponse, self._copy_out_response, copy_stream, reader)'
p3440
sI1177
S'        reader.add_message(CopyInResponse, self._copy_in_response, copy_stream, reader)'
p3441
sI1178
S"        reader.add_message(CommandComplete, lambda msg, out: out.setdefault('msg', msg) and False, output)"
p3442
sI1179
S'        reader.add_message(ReadyForQuery, lambda msg: 1)'
p3443
sI1180
S'        reader.delay_raising_exception = True'
p3444
sI1181
S'        reader.handle_messages()'
p3445
sI1182
S''
sI1183
S"        old_reader.return_value((None, output['msg']))"
p3446
ssg3100
S"(self=<gluon.contrib.pg8000.protocol.Connection object>, msg=<gluon.contrib.pg8000.protocol.NoData object>, portal='pg8000_portal_30', old_reader=<gluon.contrib.pg8000.protocol.MessageReader object>, copy_stream=None)"
p3447
sg3102
S'_bind_nodata'
p3448
sa(dp3449
g3079
S'/var/www/conferencia/gluon/contrib/pg8000/protocol.py'
p3450
sg3081
(dp3451
S'exc'
p3452
S'ProgrammingError(\'ERROR\', \'23502\', \'column "confno__tmp" contains null values\')'
p3453
ssg3087
I916
sg3088
(dp3454
I911
S'                    retval = handler(msg, *args, **kwargs)'
p3455
sI912
S'                    if retval:'
p3456
sI913
S'                        # The handler returned a true value, meaning that the'
p3457
sI914
S'                        # message loop should be aborted.'
p3458
sI915
S'                        if exc != None:'
p3459
sI916
S'                            raise exc'
p3460
sI917
S'                        return retval'
p3461
sI918
S'                    elif hasattr(self, "_retval"):'
p3462
sI919
S'                        # The handler told us to return -- used for non-true'
p3463
sI920
S'                        # return values'
p3464
ssg3100
S'(self=<gluon.contrib.pg8000.protocol.MessageReader object>)'
p3465
sg3102
g3430
sasS'pyver'
p3466
S'Python 2.7.3: /usr/bin/python'
p3467
sS'session'
p3468
g61
(g62
g63
NtRp3469
(dp3470
g66
(dp3471
sg68
(lp3472
g61
(g70
g63
NtRp3473
(dp3474
g66
(dp3475
g74
I5
ssg75
Nsg68
(lp3476
g61
(g77
g63
NtRp3477
(dp3478
g66
(dp3479
sg75
g3473
sg68
(lp3480
g61
(g82
g63
NtRp3481
(dp3482
g66
(dp3483
g86
g87
ssg75
g3477
sg68
(lp3484
S'flash'
p3485
asbag61
(g82
g63
NtRp3486
(dp3487
g66
(dp3488
g93
g94
ssg75
g3477
sg68
(lp3489
S':'
asbag61
(g82
g63
NtRp3490
(dp3491
g66
(dp3492
sg75
g3477
sg68
(lp3493
g61
(g62
g63
NtRp3494
(dp3495
g66
(dp3496
g74
I5
ssg75
g3490
sg68
(lp3497
S'None'
p3498
asbasbasbasbasbsS'etype'
p3499
S"<class 'gluon.contrib.pg8000.errors.ProgrammingError'>"
p3500
sS'date'
p3501
S'Tue Apr  2 18:29:15 2013'
p3502
sS'response'
p3503
g61
(g62
g63
NtRp3504
(dp3505
g66
(dp3506
sg68
(lp3507
g61
(g70
g63
NtRp3508
(dp3509
g66
(dp3510
g74
I5
ssg75
Nsg68
(lp3511
g61
(g77
g63
NtRp3512
(dp3513
g66
(dp3514
sg75
g3508
sg68
(lp3515
g61
(g82
g63
NtRp3516
(dp3517
g66
(dp3518
g86
g87
ssg75
g3512
sg68
(lp3519
g159
asbag61
(g82
g63
NtRp3520
(dp3521
g66
(dp3522
g93
g94
ssg75
g3512
sg68
(lp3523
S':'
asbag61
(g82
g63
NtRp3524
(dp3525
g66
(dp3526
sg75
g3512
sg68
(lp3527
g61
(g62
g63
NtRp3528
(dp3529
g66
(dp3530
g74
I5
ssg75
g3524
sg68
(lp3531
S'<cStringIO.StringO object at 0x7f7c340da960>'
p3532
asbasbasbag61
(g77
g63
NtRp3533
(dp3534
g66
(dp3535
sg75
g3508
sg68
(lp3536
g61
(g82
g63
NtRp3537
(dp3538
g66
(dp3539
g86
g87
ssg75
g3533
sg68
(lp3540
g247
asbag61
(g82
g63
NtRp3541
(dp3542
g66
(dp3543
g93
g94
ssg75
g3533
sg68
(lp3544
S':'
asbag61
(g82
g63
NtRp3545
(dp3546
g66
(dp3547
sg75
g3533
sg68
(lp3548
g61
(g62
g63
NtRp3549
(dp3550
g66
(dp3551
g74
I5
ssg75
g3545
sg68
(lp3552
g61
(g70
g63
NtRp3553
(dp3554
g66
(dp3555
g74
I4
ssg75
Nsg68
(lp3556
g61
(g77
g63
NtRp3557
(dp3558
g66
(dp3559
sg75
g3553
sg68
(lp3560
g61
(g82
g63
NtRp3561
(dp3562
g66
(dp3563
g86
g87
ssg75
g3557
sg68
(lp3564
S'session_id_projeto'
p3565
asbag61
(g82
g63
NtRp3566
(dp3567
g66
(dp3568
g93
g94
ssg75
g3557
sg68
(lp3569
S':'
asbag61
(g82
g63
NtRp3570
(dp3571
g66
(dp3572
sg75
g3557
sg68
(lp3573
g61
(g62
g63
NtRp3574
(dp3575
g66
(dp3576
g74
I4
ssg75
g3570
sg68
(lp3577
g479
ag61
(g70
g63
NtRp3578
(dp3579
g66
(dp3580
g74
I3
ssg75
Nsg68
(lp3581
g61
(g77
g63
NtRp3582
(dp3583
g66
(dp3584
sg75
g3578
sg68
(lp3585
g61
(g82
g63
NtRp3586
(dp3587
g66
(dp3588
g86
g87
ssg75
g3582
sg68
(lp3589
g298
asbag61
(g82
g63
NtRp3590
(dp3591
g66
(dp3592
g93
g94
ssg75
g3582
sg68
(lp3593
S':'
asbag61
(g82
g63
NtRp3594
(dp3595
g66
(dp3596
sg75
g3582
sg68
(lp3597
g61
(g62
g63
NtRp3598
(dp3599
g66
(dp3600
g74
I3
ssg75
g3594
sg68
(lp3601
S''
asbasbasbag61
(g77
g63
NtRp3602
(dp3603
g66
(dp3604
sg75
g3578
sg68
(lp3605
g61
(g82
g63
NtRp3606
(dp3607
g66
(dp3608
g86
g87
ssg75
g3602
sg68
(lp3609
g319
asbag61
(g82
g63
NtRp3610
(dp3611
g66
(dp3612
g93
g94
ssg75
g3602
sg68
(lp3613
S':'
asbag61
(g82
g63
NtRp3614
(dp3615
g66
(dp3616
sg75
g3602
sg68
(lp3617
g61
(g62
g63
NtRp3618
(dp3619
g66
(dp3620
g74
I3
ssg75
g3614
sg68
(lp3621
S''
asbasbasbag61
(g77
g63
NtRp3622
(dp3623
g66
(dp3624
sg75
g3578
sg68
(lp3625
g61
(g82
g63
NtRp3626
(dp3627
g66
(dp3628
g86
g87
ssg75
g3622
sg68
(lp3629
g340
asbag61
(g82
g63
NtRp3630
(dp3631
g66
(dp3632
g93
g94
ssg75
g3622
sg68
(lp3633
S':'
asbag61
(g82
g63
NtRp3634
(dp3635
g66
(dp3636
sg75
g3622
sg68
(lp3637
g61
(g62
g63
NtRp3638
(dp3639
g66
(dp3640
g74
I3
ssg75
g3634
sg68
(lp3641
S''
asbasbasbag61
(g77
g63
NtRp3642
(dp3643
g66
(dp3644
sg75
g3578
sg68
(lp3645
g61
(g82
g63
NtRp3646
(dp3647
g66
(dp3648
g86
g87
ssg75
g3642
sg68
(lp3649
g361
asbag61
(g82
g63
NtRp3650
(dp3651
g66
(dp3652
g93
g94
ssg75
g3642
sg68
(lp3653
S':'
asbag61
(g82
g63
NtRp3654
(dp3655
g66
(dp3656
sg75
g3642
sg68
(lp3657
g61
(g62
g63
NtRp3658
(dp3659
g66
(dp3660
g74
I3
ssg75
g3654
sg68
(lp3661
S''
asbasbasbag61
(g77
g63
NtRp3662
(dp3663
g66
(dp3664
sg75
g3578
sg68
(lp3665
g61
(g82
g63
NtRp3666
(dp3667
g66
(dp3668
g86
g87
ssg75
g3662
sg68
(lp3669
g382
asbag61
(g82
g63
NtRp3670
(dp3671
g66
(dp3672
g93
g94
ssg75
g3662
sg68
(lp3673
S':'
asbag61
(g82
g63
NtRp3674
(dp3675
g66
(dp3676
sg75
g3662
sg68
(lp3677
g61
(g62
g63
NtRp3678
(dp3679
g66
(dp3680
g74
I3
ssg75
g3674
sg68
(lp3681
S''
asbasbasbag61
(g77
g63
NtRp3682
(dp3683
g66
(dp3684
sg75
g3578
sg68
(lp3685
g61
(g82
g63
NtRp3686
(dp3687
g66
(dp3688
g86
g87
ssg75
g3682
sg68
(lp3689
g403
asbag61
(g82
g63
NtRp3690
(dp3691
g66
(dp3692
g93
g94
ssg75
g3682
sg68
(lp3693
S':'
asbag61
(g82
g63
NtRp3694
(dp3695
g66
(dp3696
sg75
g3682
sg68
(lp3697
g61
(g62
g63
NtRp3698
(dp3699
g66
(dp3700
g74
I3
ssg75
g3694
sg68
(lp3701
S'/'
asbasbasbag61
(g77
g63
NtRp3702
(dp3703
g66
(dp3704
sg75
g3578
sg68
(lp3705
g61
(g82
g63
NtRp3706
(dp3707
g66
(dp3708
g86
g87
ssg75
g3702
sg68
(lp3709
g424
asbag61
(g82
g63
NtRp3710
(dp3711
g66
(dp3712
g93
g94
ssg75
g3702
sg68
(lp3713
S':'
asbag61
(g82
g63
NtRp3714
(dp3715
g66
(dp3716
sg75
g3702
sg68
(lp3717
g61
(g62
g63
NtRp3718
(dp3719
g66
(dp3720
g74
I3
ssg75
g3714
sg68
(lp3721
S''
asbasbasbag61
(g77
g63
NtRp3722
(dp3723
g66
(dp3724
sg75
g3578
sg68
(lp3725
g61
(g82
g63
NtRp3726
(dp3727
g66
(dp3728
g86
g87
ssg75
g3722
sg68
(lp3729
g445
asbag61
(g82
g63
NtRp3730
(dp3731
g66
(dp3732
g93
g94
ssg75
g3722
sg68
(lp3733
S':'
asbag61
(g82
g63
NtRp3734
(dp3735
g66
(dp3736
sg75
g3722
sg68
(lp3737
g61
(g62
g63
NtRp3738
(dp3739
g66
(dp3740
g74
I3
ssg75
g3734
sg68
(lp3741
S''
asbasbasbasbasbasbasbasbasbasbasbag61
(g77
g63
NtRp3742
(dp3743
g66
(dp3744
sg75
g3508
sg68
(lp3745
g61
(g82
g63
NtRp3746
(dp3747
g66
(dp3748
g86
g87
ssg75
g3742
sg68
(lp3749
S'delimiters'
p3750
asbag61
(g82
g63
NtRp3751
(dp3752
g66
(dp3753
g93
g94
ssg75
g3742
sg68
(lp3754
S':'
asbag61
(g82
g63
NtRp3755
(dp3756
g66
(dp3757
sg75
g3742
sg68
(lp3758
g61
(g62
g63
NtRp3759
(dp3760
g66
(dp3761
g74
I5
ssg75
g3755
sg68
(lp3762
g61
(g70
g63
NtRp3763
(dp3764
g66
(dp3765
g74
I4
ssg75
Nsg68
(lp3766
g61
(g77
g63
NtRp3767
(dp3768
g66
(dp3769
sg75
g3763
sg68
(lp3770
g61
(g82
g63
NtRp3771
(dp3772
g66
(dp3773
sg75
g3767
sg68
(lp3774
g61
(g62
g63
NtRp3775
(dp3776
g66
(dp3777
g74
I4
ssg75
g3771
sg68
(lp3778
S'{{'
p3779
asbasbasbag61
(g77
g63
NtRp3780
(dp3781
g66
(dp3782
sg75
g3763
sg68
(lp3783
g61
(g82
g63
NtRp3784
(dp3785
g66
(dp3786
sg75
g3780
sg68
(lp3787
g61
(g62
g63
NtRp3788
(dp3789
g66
(dp3790
g74
I4
ssg75
g3784
sg68
(lp3791
S'}}'
p3792
asbasbasbasbasbasbasbag61
(g77
g63
NtRp3793
(dp3794
g66
(dp3795
sg75
g3508
sg68
(lp3796
g61
(g82
g63
NtRp3797
(dp3798
g66
(dp3799
g86
g87
ssg75
g3793
sg68
(lp3800
S'files'
p3801
asbag61
(g82
g63
NtRp3802
(dp3803
g66
(dp3804
g93
g94
ssg75
g3793
sg68
(lp3805
S':'
asbag61
(g82
g63
NtRp3806
(dp3807
g66
(dp3808
sg75
g3793
sg68
(lp3809
g61
(g62
g63
NtRp3810
(dp3811
g66
(dp3812
g74
I5
ssg75
g3806
sg68
(lp3813
g61
(g70
g63
NtRp3814
(dp3815
g66
(dp3816
g74
I4
ssg75
Nsg68
(lp3817
sbasbasbasbag61
(g77
g63
NtRp3818
(dp3819
g66
(dp3820
sg75
g3508
sg68
(lp3821
g61
(g82
g63
NtRp3822
(dp3823
g66
(dp3824
g86
g87
ssg75
g3818
sg68
(lp3825
S'flash'
p3826
asbag61
(g82
g63
NtRp3827
(dp3828
g66
(dp3829
g93
g94
ssg75
g3818
sg68
(lp3830
S':'
asbag61
(g82
g63
NtRp3831
(dp3832
g66
(dp3833
sg75
g3818
sg68
(lp3834
g61
(g62
g63
NtRp3835
(dp3836
g66
(dp3837
g74
I5
ssg75
g3831
sg68
(lp3838
S''
asbasbasbag61
(g77
g63
NtRp3839
(dp3840
g66
(dp3841
sg75
g3508
sg68
(lp3842
g61
(g82
g63
NtRp3843
(dp3844
g66
(dp3845
g86
g87
ssg75
g3839
sg68
(lp3846
S'generic_patterns'
p3847
asbag61
(g82
g63
NtRp3848
(dp3849
g66
(dp3850
g93
g94
ssg75
g3839
sg68
(lp3851
S':'
asbag61
(g82
g63
NtRp3852
(dp3853
g66
(dp3854
sg75
g3839
sg68
(lp3855
g61
(g62
g63
NtRp3856
(dp3857
g66
(dp3858
g74
I5
ssg75
g3852
sg68
(lp3859
g61
(g70
g63
NtRp3860
(dp3861
g66
(dp3862
g74
I4
ssg75
Nsg68
(lp3863
g61
(g77
g63
NtRp3864
(dp3865
g66
(dp3866
sg75
g3860
sg68
(lp3867
g61
(g82
g63
NtRp3868
(dp3869
g66
(dp3870
sg75
g3864
sg68
(lp3871
g61
(g62
g63
NtRp3872
(dp3873
g66
(dp3874
g74
I4
ssg75
g3868
sg68
(lp3875
S'*'
asbasbasbasbasbasbasbag61
(g77
g63
NtRp3876
(dp3877
g66
(dp3878
sg75
g3508
sg68
(lp3879
g61
(g82
g63
NtRp3880
(dp3881
g66
(dp3882
g86
g87
ssg75
g3876
sg68
(lp3883
S'google_analytics_id'
p3884
asbag61
(g82
g63
NtRp3885
(dp3886
g66
(dp3887
g93
g94
ssg75
g3876
sg68
(lp3888
S':'
asbag61
(g82
g63
NtRp3889
(dp3890
g66
(dp3891
sg75
g3876
sg68
(lp3892
g61
(g62
g63
NtRp3893
(dp3894
g66
(dp3895
g74
I5
ssg75
g3889
sg68
(lp3896
S'None'
p3897
asbasbasbag61
(g77
g63
NtRp3898
(dp3899
g66
(dp3900
sg75
g3508
sg68
(lp3901
g61
(g82
g63
NtRp3902
(dp3903
g66
(dp3904
g86
g87
ssg75
g3898
sg68
(lp3905
S'headers'
p3906
asbag61
(g82
g63
NtRp3907
(dp3908
g66
(dp3909
g93
g94
ssg75
g3898
sg68
(lp3910
S':'
asbag61
(g82
g63
NtRp3911
(dp3912
g66
(dp3913
sg75
g3898
sg68
(lp3914
g61
(g62
g63
NtRp3915
(dp3916
g66
(dp3917
g74
I5
ssg75
g3911
sg68
(lp3918
g61
(g70
g63
NtRp3919
(dp3920
g66
(dp3921
g74
I4
ssg75
Nsg68
(lp3922
g61
(g77
g63
NtRp3923
(dp3924
g66
(dp3925
sg75
g3919
sg68
(lp3926
g61
(g82
g63
NtRp3927
(dp3928
g66
(dp3929
g86
g87
ssg75
g3923
sg68
(lp3930
S'X-Powered-By'
p3931
asbag61
(g82
g63
NtRp3932
(dp3933
g66
(dp3934
g93
g94
ssg75
g3923
sg68
(lp3935
S':'
asbag61
(g82
g63
NtRp3936
(dp3937
g66
(dp3938
sg75
g3923
sg68
(lp3939
g61
(g62
g63
NtRp3940
(dp3941
g66
(dp3942
g74
I4
ssg75
g3936
sg68
(lp3943
S'web2py'
p3944
asbasbasbasbasbasbasbag61
(g77
g63
NtRp3945
(dp3946
g66
(dp3947
sg75
g3508
sg68
(lp3948
g61
(g82
g63
NtRp3949
(dp3950
g66
(dp3951
g86
g87
ssg75
g3945
sg68
(lp3952
S'logo'
p3953
asbag61
(g82
g63
NtRp3954
(dp3955
g66
(dp3956
g93
g94
ssg75
g3945
sg68
(lp3957
S':'
asbag61
(g82
g63
NtRp3958
(dp3959
g66
(dp3960
sg75
g3945
sg68
(lp3961
g61
(g62
g63
NtRp3962
(dp3963
g66
(dp3964
g74
I5
ssg75
g3958
sg68
(lp3965
g61
(cgluon.html
A
p3966
g63
NtRp3967
(dp3968
g66
(dp3969
S'_class'
p3970
S'brand'
p3971
sS'_href'
p3972
S'principal'
p3973
ssg75
Nsg68
(lp3974
g61
(cgluon.html
B
p3975
g63
NtRp3976
(dp3977
g66
(dp3978
sg75
g3967
sg68
(lp3979
S'hosts'
p3980
ag61
(cgluon.html
SPAN
p3981
g63
NtRp3982
(dp3983
g66
(dp3984
sg75
g3976
sg68
(lp3985
S'3'
asbaS''
asbacgluon.html
XML_unpickle
p3986
(S's\r\x00\x00\x00&trade;&nbsp;'
tRp3987
asbasbasbasbag61
(g77
g63
NtRp3988
(dp3989
g66
(dp3990
sg75
g3508
sg68
(lp3991
g61
(g82
g63
NtRp3992
(dp3993
g66
(dp3994
g86
g87
ssg75
g3988
sg68
(lp3995
S'menu'
p3996
asbag61
(g82
g63
NtRp3997
(dp3998
g66
(dp3999
g93
g94
ssg75
g3988
sg68
(lp4000
S':'
asbag61
(g82
g63
NtRp4001
(dp4002
g66
(dp4003
sg75
g3988
sg68
(lp4004
g61
(g62
g63
NtRp4005
(dp4006
g66
(dp4007
g74
I5
ssg75
g4001
sg68
(lp4008
g61
(g70
g63
NtRp4009
(dp4010
g66
(dp4011
g74
I4
ssg75
Nsg68
(lp4012
g61
(g77
g63
NtRp4013
(dp4014
g66
(dp4015
sg75
g4009
sg68
(lp4016
g61
(g82
g63
NtRp4017
(dp4018
g66
(dp4019
sg75
g4013
sg68
(lp4020
g61
(g62
g63
NtRp4021
(dp4022
g66
(dp4023
g74
I4
ssg75
g4017
sg68
(lp4024
g61
(g70
g63
NtRp4025
(dp4026
g66
(dp4027
g74
I3
ssg75
Nsg68
(lp4028
g61
(g77
g63
NtRp4029
(dp4030
g66
(dp4031
sg75
g4025
sg68
(lp4032
g61
(g82
g63
NtRp4033
(dp4034
g66
(dp4035
sg75
g4029
sg68
(lp4036
g61
(g62
g63
NtRp4037
(dp4038
g66
(dp4039
g74
I3
ssg75
g4033
sg68
(lp4040
cgluon.languages
lazyT_unpickle
p4041
(S't\x08\x00\x00\x00Clientes'
tRp4042
asbasbasbag61
(g77
g63
NtRp4043
(dp4044
g66
(dp4045
sg75
g4025
sg68
(lp4046
g61
(g82
g63
NtRp4047
(dp4048
g66
(dp4049
sg75
g4043
sg68
(lp4050
g61
(g62
g63
NtRp4051
(dp4052
g66
(dp4053
g74
I3
ssg75
g4047
sg68
(lp4054
g104
asbasbasbag61
(g77
g63
NtRp4055
(dp4056
g66
(dp4057
sg75
g4025
sg68
(lp4058
g61
(g82
g63
NtRp4059
(dp4060
g66
(dp4061
sg75
g4055
sg68
(lp4062
g61
(g62
g63
NtRp4063
(dp4064
g66
(dp4065
g74
I3
ssg75
g4059
sg68
(lp4066
S'/show_cliente'
p4067
asbasbasbag61
(g77
g63
NtRp4068
(dp4069
g66
(dp4070
sg75
g4025
sg68
(lp4071
g61
(g82
g63
NtRp4072
(dp4073
g66
(dp4074
sg75
g4068
sg68
(lp4075
g61
(g62
g63
NtRp4076
(dp4077
g66
(dp4078
g74
I3
ssg75
g4072
sg68
(lp4079
g61
(g70
g63
NtRp4080
(dp4081
g66
(dp4082
g74
I2
ssg75
Nsg68
(lp4083
sbasbasbasbasbasbasbasbag61
(g77
g63
NtRp4084
(dp4085
g66
(dp4086
sg75
g4009
sg68
(lp4087
g61
(g82
g63
NtRp4088
(dp4089
g66
(dp4090
sg75
g4084
sg68
(lp4091
g61
(g62
g63
NtRp4092
(dp4093
g66
(dp4094
g74
I4
ssg75
g4088
sg68
(lp4095
g61
(g70
g63
NtRp4096
(dp4097
g66
(dp4098
g74
I3
ssg75
Nsg68
(lp4099
g61
(g77
g63
NtRp4100
(dp4101
g66
(dp4102
sg75
g4096
sg68
(lp4103
g61
(g82
g63
NtRp4104
(dp4105
g66
(dp4106
sg75
g4100
sg68
(lp4107
g61
(g62
g63
NtRp4108
(dp4109
g66
(dp4110
g74
I3
ssg75
g4104
sg68
(lp4111
g4041
(S't\n\x00\x00\x00Servidores'
tRp4112
asbasbasbag61
(g77
g63
NtRp4113
(dp4114
g66
(dp4115
sg75
g4096
sg68
(lp4116
g61
(g82
g63
NtRp4117
(dp4118
g66
(dp4119
sg75
g4113
sg68
(lp4120
g61
(g62
g63
NtRp4121
(dp4122
g66
(dp4123
g74
I3
ssg75
g4117
sg68
(lp4124
g104
asbasbasbag61
(g77
g63
NtRp4125
(dp4126
g66
(dp4127
sg75
g4096
sg68
(lp4128
g61
(g82
g63
NtRp4129
(dp4130
g66
(dp4131
sg75
g4125
sg68
(lp4132
g61
(g62
g63
NtRp4133
(dp4134
g66
(dp4135
g74
I3
ssg75
g4129
sg68
(lp4136
S'/show_servidor'
p4137
asbasbasbag61
(g77
g63
NtRp4138
(dp4139
g66
(dp4140
sg75
g4096
sg68
(lp4141
g61
(g82
g63
NtRp4142
(dp4143
g66
(dp4144
sg75
g4138
sg68
(lp4145
g61
(g62
g63
NtRp4146
(dp4147
g66
(dp4148
g74
I3
ssg75
g4142
sg68
(lp4149
g61
(g70
g63
NtRp4150
(dp4151
g66
(dp4152
g74
I2
ssg75
Nsg68
(lp4153
sbasbasbasbasbasbasbasbag61
(g77
g63
NtRp4154
(dp4155
g66
(dp4156
sg75
g4009
sg68
(lp4157
g61
(g82
g63
NtRp4158
(dp4159
g66
(dp4160
sg75
g4154
sg68
(lp4161
g61
(g62
g63
NtRp4162
(dp4163
g66
(dp4164
g74
I4
ssg75
g4158
sg68
(lp4165
g61
(g70
g63
NtRp4166
(dp4167
g66
(dp4168
g74
I3
ssg75
Nsg68
(lp4169
g61
(g77
g63
NtRp4170
(dp4171
g66
(dp4172
sg75
g4166
sg68
(lp4173
g61
(g82
g63
NtRp4174
(dp4175
g66
(dp4176
sg75
g4170
sg68
(lp4177
g61
(g62
g63
NtRp4178
(dp4179
g66
(dp4180
g74
I3
ssg75
g4174
sg68
(lp4181
g4041
(S't\x07\x00\x00\x00Distros'
tRp4182
asbasbasbag61
(g77
g63
NtRp4183
(dp4184
g66
(dp4185
sg75
g4166
sg68
(lp4186
g61
(g82
g63
NtRp4187
(dp4188
g66
(dp4189
sg75
g4183
sg68
(lp4190
g61
(g62
g63
NtRp4191
(dp4192
g66
(dp4193
g74
I3
ssg75
g4187
sg68
(lp4194
g104
asbasbasbag61
(g77
g63
NtRp4195
(dp4196
g66
(dp4197
sg75
g4166
sg68
(lp4198
g61
(g82
g63
NtRp4199
(dp4200
g66
(dp4201
sg75
g4195
sg68
(lp4202
g61
(g62
g63
NtRp4203
(dp4204
g66
(dp4205
g74
I3
ssg75
g4199
sg68
(lp4206
S'/show_distro'
p4207
asbasbasbag61
(g77
g63
NtRp4208
(dp4209
g66
(dp4210
sg75
g4166
sg68
(lp4211
g61
(g82
g63
NtRp4212
(dp4213
g66
(dp4214
sg75
g4208
sg68
(lp4215
g61
(g62
g63
NtRp4216
(dp4217
g66
(dp4218
g74
I3
ssg75
g4212
sg68
(lp4219
g61
(g70
g63
NtRp4220
(dp4221
g66
(dp4222
g74
I2
ssg75
Nsg68
(lp4223
sbasbasbasbasbasbasbasbag61
(g77
g63
NtRp4224
(dp4225
g66
(dp4226
sg75
g4009
sg68
(lp4227
g61
(g82
g63
NtRp4228
(dp4229
g66
(dp4230
sg75
g4224
sg68
(lp4231
g61
(g62
g63
NtRp4232
(dp4233
g66
(dp4234
g74
I4
ssg75
g4228
sg68
(lp4235
g61
(g70
g63
NtRp4236
(dp4237
g66
(dp4238
g74
I3
ssg75
Nsg68
(lp4239
g61
(g77
g63
NtRp4240
(dp4241
g66
(dp4242
sg75
g4236
sg68
(lp4243
g61
(g82
g63
NtRp4244
(dp4245
g66
(dp4246
sg75
g4240
sg68
(lp4247
g61
(g62
g63
NtRp4248
(dp4249
g66
(dp4250
g74
I3
ssg75
g4244
sg68
(lp4251
g4041
(S's\x05\x00\x00\x00+host'
tRp4252
asbasbasbag61
(g77
g63
NtRp4253
(dp4254
g66
(dp4255
sg75
g4236
sg68
(lp4256
g61
(g82
g63
NtRp4257
(dp4258
g66
(dp4259
sg75
g4253
sg68
(lp4260
g61
(g62
g63
NtRp4261
(dp4262
g66
(dp4263
g74
I3
ssg75
g4257
sg68
(lp4264
g104
asbasbasbag61
(g77
g63
NtRp4265
(dp4266
g66
(dp4267
sg75
g4236
sg68
(lp4268
g61
(g82
g63
NtRp4269
(dp4270
g66
(dp4271
sg75
g4265
sg68
(lp4272
g61
(g62
g63
NtRp4273
(dp4274
g66
(dp4275
g74
I3
ssg75
g4269
sg68
(lp4276
S'/interface'
p4277
asbasbasbag61
(g77
g63
NtRp4278
(dp4279
g66
(dp4280
sg75
g4236
sg68
(lp4281
g61
(g82
g63
NtRp4282
(dp4283
g66
(dp4284
sg75
g4278
sg68
(lp4285
g61
(g62
g63
NtRp4286
(dp4287
g66
(dp4288
g74
I3
ssg75
g4282
sg68
(lp4289
g61
(g70
g63
NtRp4290
(dp4291
g66
(dp4292
g74
I2
ssg75
Nsg68
(lp4293
sbasbasbasbasbasbasbasbasbasbasbasbag61
(g77
g63
NtRp4294
(dp4295
g66
(dp4296
sg75
g3508
sg68
(lp4297
g61
(g82
g63
NtRp4298
(dp4299
g66
(dp4300
g86
g87
ssg75
g4294
sg68
(lp4301
S'menu2'
p4302
asbag61
(g82
g63
NtRp4303
(dp4304
g66
(dp4305
g93
g94
ssg75
g4294
sg68
(lp4306
S':'
asbag61
(g82
g63
NtRp4307
(dp4308
g66
(dp4309
sg75
g4294
sg68
(lp4310
g61
(g62
g63
NtRp4311
(dp4312
g66
(dp4313
g74
I5
ssg75
g4307
sg68
(lp4314
g61
(g70
g63
NtRp4315
(dp4316
g66
(dp4317
g74
I4
ssg75
Nsg68
(lp4318
g61
(g77
g63
NtRp4319
(dp4320
g66
(dp4321
sg75
g4315
sg68
(lp4322
g61
(g82
g63
NtRp4323
(dp4324
g66
(dp4325
sg75
g4319
sg68
(lp4326
g61
(g62
g63
NtRp4327
(dp4328
g66
(dp4329
g74
I4
ssg75
g4323
sg68
(lp4330
g61
(g70
g63
NtRp4331
(dp4332
g66
(dp4333
g74
I3
ssg75
Nsg68
(lp4334
g61
(g77
g63
NtRp4335
(dp4336
g66
(dp4337
sg75
g4331
sg68
(lp4338
g61
(g82
g63
NtRp4339
(dp4340
g66
(dp4341
sg75
g4335
sg68
(lp4342
g61
(g62
g63
NtRp4343
(dp4344
g66
(dp4345
g74
I3
ssg75
g4339
sg68
(lp4346
g61
(g3981
g63
NtRp4347
(dp4348
g66
(dp4349
g3970
S'dropdown-toggle'
p4350
ssg75
Nsg68
(lp4351
S'Admin'
p4352
asbasbasbasbag61
(g77
g63
NtRp4353
(dp4354
g66
(dp4355
sg75
g4331
sg68
(lp4356
g61
(g82
g63
NtRp4357
(dp4358
g66
(dp4359
sg75
g4353
sg68
(lp4360
g61
(g62
g63
NtRp4361
(dp4362
g66
(dp4363
g74
I3
ssg75
g4357
sg68
(lp4364
g104
asbasbasbag61
(g77
g63
NtRp4365
(dp4366
g66
(dp4367
sg75
g4331
sg68
(lp4368
g61
(g82
g63
NtRp4369
(dp4370
g66
(dp4371
sg75
g4365
sg68
(lp4372
g61
(g62
g63
NtRp4373
(dp4374
g66
(dp4375
g74
I3
ssg75
g4369
sg68
(lp4376
S'#'
asbasbasbag61
(g77
g63
NtRp4377
(dp4378
g66
(dp4379
sg75
g4331
sg68
(lp4380
g61
(g82
g63
NtRp4381
(dp4382
g66
(dp4383
sg75
g4377
sg68
(lp4384
g61
(g62
g63
NtRp4385
(dp4386
g66
(dp4387
g74
I3
ssg75
g4381
sg68
(lp4388
g61
(g70
g63
NtRp4389
(dp4390
g66
(dp4391
g74
I2
ssg75
Nsg68
(lp4392
g61
(g77
g63
NtRp4393
(dp4394
g66
(dp4395
sg75
g4389
sg68
(lp4396
g61
(g82
g63
NtRp4397
(dp4398
g66
(dp4399
sg75
g4393
sg68
(lp4400
g61
(g62
g63
NtRp4401
(dp4402
g66
(dp4403
g74
I2
ssg75
g4397
sg68
(lp4404
g61
(g70
g63
NtRp4405
(dp4406
g66
(dp4407
g74
I1
ssg75
Nsg68
(lp4408
g61
(g77
g63
NtRp4409
(dp4410
g66
(dp4411
sg75
g4405
sg68
(lp4412
g61
(g82
g63
NtRp4413
(dp4414
g66
(dp4415
sg75
g4409
sg68
(lp4416
g61
(g62
g63
NtRp4417
(dp4418
g66
(dp4419
g74
I1
ssg75
g4413
sg68
(lp4420
g4041
(S's\t\x00\x00\x00Usu\xc3\xa1rios'
tRp4421
asbasbasbag61
(g77
g63
NtRp4422
(dp4423
g66
(dp4424
sg75
g4405
sg68
(lp4425
g61
(g82
g63
NtRp4426
(dp4427
g66
(dp4428
sg75
g4422
sg68
(lp4429
g61
(g62
g63
NtRp4430
(dp4431
g66
(dp4432
g74
I1
ssg75
g4426
sg68
(lp4433
I00
asbasbasbag61
(g77
g63
NtRp4434
(dp4435
g66
(dp4436
sg75
g4405
sg68
(lp4437
g61
(g82
g63
NtRp4438
(dp4439
g66
(dp4440
sg75
g4434
sg68
(lp4441
g61
(g62
g63
NtRp4442
(dp4443
g66
(dp4444
g74
I1
ssg75
g4438
sg68
(lp4445
S'/manager/users'
p4446
asbasbasbasbasbasbasbag61
(g77
g63
NtRp4447
(dp4448
g66
(dp4449
sg75
g4389
sg68
(lp4450
g61
(g82
g63
NtRp4451
(dp4452
g66
(dp4453
sg75
g4447
sg68
(lp4454
g61
(g62
g63
NtRp4455
(dp4456
g66
(dp4457
g74
I2
ssg75
g4451
sg68
(lp4458
g61
(g70
g63
NtRp4459
(dp4460
g66
(dp4461
g74
I1
ssg75
Nsg68
(lp4462
g61
(g77
g63
NtRp4463
(dp4464
g66
(dp4465
sg75
g4459
sg68
(lp4466
g61
(g82
g63
NtRp4467
(dp4468
g66
(dp4469
sg75
g4463
sg68
(lp4470
g61
(g62
g63
NtRp4471
(dp4472
g66
(dp4473
g74
I1
ssg75
g4467
sg68
(lp4474
g4041
(S't\x06\x00\x00\x00Grupos'
tRp4475
asbasbasbag61
(g77
g63
NtRp4476
(dp4477
g66
(dp4478
sg75
g4459
sg68
(lp4479
g61
(g82
g63
NtRp4480
(dp4481
g66
(dp4482
sg75
g4476
sg68
(lp4483
g61
(g62
g63
NtRp4484
(dp4485
g66
(dp4486
g74
I1
ssg75
g4480
sg68
(lp4487
I00
asbasbasbag61
(g77
g63
NtRp4488
(dp4489
g66
(dp4490
sg75
g4459
sg68
(lp4491
g61
(g82
g63
NtRp4492
(dp4493
g66
(dp4494
sg75
g4488
sg68
(lp4495
g61
(g62
g63
NtRp4496
(dp4497
g66
(dp4498
g74
I1
ssg75
g4492
sg68
(lp4499
S'/manager/groups'
p4500
asbasbasbasbasbasbasbag61
(g77
g63
NtRp4501
(dp4502
g66
(dp4503
sg75
g4389
sg68
(lp4504
g61
(g82
g63
NtRp4505
(dp4506
g66
(dp4507
sg75
g4501
sg68
(lp4508
g61
(g62
g63
NtRp4509
(dp4510
g66
(dp4511
g74
I2
ssg75
g4505
sg68
(lp4512
g61
(g70
g63
NtRp4513
(dp4514
g66
(dp4515
g74
I1
ssg75
Nsg68
(lp4516
g61
(g77
g63
NtRp4517
(dp4518
g66
(dp4519
sg75
g4513
sg68
(lp4520
g61
(g82
g63
NtRp4521
(dp4522
g66
(dp4523
sg75
g4517
sg68
(lp4524
g61
(g62
g63
NtRp4525
(dp4526
g66
(dp4527
g74
I1
ssg75
g4521
sg68
(lp4528
g4041
(S't\x07\x00\x00\x00Membros'
tRp4529
asbasbasbag61
(g77
g63
NtRp4530
(dp4531
g66
(dp4532
sg75
g4513
sg68
(lp4533
g61
(g82
g63
NtRp4534
(dp4535
g66
(dp4536
sg75
g4530
sg68
(lp4537
g61
(g62
g63
NtRp4538
(dp4539
g66
(dp4540
g74
I1
ssg75
g4534
sg68
(lp4541
I00
asbasbasbag61
(g77
g63
NtRp4542
(dp4543
g66
(dp4544
sg75
g4513
sg68
(lp4545
g61
(g82
g63
NtRp4546
(dp4547
g66
(dp4548
sg75
g4542
sg68
(lp4549
g61
(g62
g63
NtRp4550
(dp4551
g66
(dp4552
g74
I1
ssg75
g4546
sg68
(lp4553
S'/manager/membership'
p4554
asbasbasbasbasbasbasbasbasbasbasbasbasbasbasbag61
(g77
g63
NtRp4555
(dp4556
g66
(dp4557
sg75
g4315
sg68
(lp4558
g61
(g82
g63
NtRp4559
(dp4560
g66
(dp4561
sg75
g4555
sg68
(lp4562
g61
(g62
g63
NtRp4563
(dp4564
g66
(dp4565
g74
I4
ssg75
g4559
sg68
(lp4566
g61
(g70
g63
NtRp4567
(dp4568
g66
(dp4569
g74
I3
ssg75
Nsg68
(lp4570
g61
(g77
g63
NtRp4571
(dp4572
g66
(dp4573
sg75
g4567
sg68
(lp4574
g61
(g82
g63
NtRp4575
(dp4576
g66
(dp4577
sg75
g4571
sg68
(lp4578
g61
(g62
g63
NtRp4579
(dp4580
g66
(dp4581
g74
I3
ssg75
g4575
sg68
(lp4582
g61
(g3981
g63
NtRp4583
(dp4584
g66
(dp4585
g3970
g4350
ssg75
Nsg68
(lp4586
S'Login'
p4587
asbasbasbasbag61
(g77
g63
NtRp4588
(dp4589
g66
(dp4590
sg75
g4567
sg68
(lp4591
g61
(g82
g63
NtRp4592
(dp4593
g66
(dp4594
sg75
g4588
sg68
(lp4595
g61
(g62
g63
NtRp4596
(dp4597
g66
(dp4598
g74
I3
ssg75
g4592
sg68
(lp4599
g104
asbasbasbag61
(g77
g63
NtRp4600
(dp4601
g66
(dp4602
sg75
g4567
sg68
(lp4603
g61
(g82
g63
NtRp4604
(dp4605
g66
(dp4606
sg75
g4600
sg68
(lp4607
g61
(g62
g63
NtRp4608
(dp4609
g66
(dp4610
g74
I3
ssg75
g4604
sg68
(lp4611
S'#'
asbasbasbag61
(g77
g63
NtRp4612
(dp4613
g66
(dp4614
sg75
g4567
sg68
(lp4615
g61
(g82
g63
NtRp4616
(dp4617
g66
(dp4618
sg75
g4612
sg68
(lp4619
g61
(g62
g63
NtRp4620
(dp4621
g66
(dp4622
g74
I3
ssg75
g4616
sg68
(lp4623
g61
(g70
g63
NtRp4624
(dp4625
g66
(dp4626
g74
I2
ssg75
Nsg68
(lp4627
g61
(g77
g63
NtRp4628
(dp4629
g66
(dp4630
sg75
g4624
sg68
(lp4631
g61
(g82
g63
NtRp4632
(dp4633
g66
(dp4634
sg75
g4628
sg68
(lp4635
g61
(g62
g63
NtRp4636
(dp4637
g66
(dp4638
g74
I2
ssg75
g4632
sg68
(lp4639
g61
(g70
g63
NtRp4640
(dp4641
g66
(dp4642
g74
I1
ssg75
Nsg68
(lp4643
g61
(g77
g63
NtRp4644
(dp4645
g66
(dp4646
sg75
g4640
sg68
(lp4647
g61
(g82
g63
NtRp4648
(dp4649
g66
(dp4650
sg75
g4644
sg68
(lp4651
g61
(g62
g63
NtRp4652
(dp4653
g66
(dp4654
g74
I1
ssg75
g4648
sg68
(lp4655
g4041
(S't\x06\x00\x00\x00Logout'
tRp4656
asbasbasbag61
(g77
g63
NtRp4657
(dp4658
g66
(dp4659
sg75
g4640
sg68
(lp4660
g61
(g82
g63
NtRp4661
(dp4662
g66
(dp4663
sg75
g4657
sg68
(lp4664
g61
(g62
g63
NtRp4665
(dp4666
g66
(dp4667
g74
I1
ssg75
g4661
sg68
(lp4668
I00
asbasbasbag61
(g77
g63
NtRp4669
(dp4670
g66
(dp4671
sg75
g4640
sg68
(lp4672
g61
(g82
g63
NtRp4673
(dp4674
g66
(dp4675
sg75
g4669
sg68
(lp4676
g61
(g62
g63
NtRp4677
(dp4678
g66
(dp4679
g74
I1
ssg75
g4673
sg68
(lp4680
S'/initial/user/logout'
p4681
asbasbasbasbasbasbasbasbasbasbasbasbasbasbasbasbasbasbasbag61
(g77
g63
NtRp4682
(dp4683
g66
(dp4684
sg75
g3508
sg68
(lp4685
g61
(g82
g63
NtRp4686
(dp4687
g66
(dp4688
g86
g87
ssg75
g4682
sg68
(lp4689
S'meta'
p4690
asbag61
(g82
g63
NtRp4691
(dp4692
g66
(dp4693
g93
g94
ssg75
g4682
sg68
(lp4694
S':'
asbag61
(g82
g63
NtRp4695
(dp4696
g66
(dp4697
sg75
g4682
sg68
(lp4698
g61
(g62
g63
NtRp4699
(dp4700
g66
(dp4701
g74
I5
ssg75
g4695
sg68
(lp4702
g61
(g70
g63
NtRp4703
(dp4704
g66
(dp4705
g74
I4
ssg75
Nsg68
(lp4706
g61
(g77
g63
NtRp4707
(dp4708
g66
(dp4709
sg75
g4703
sg68
(lp4710
g61
(g82
g63
NtRp4711
(dp4712
g66
(dp4713
g86
g87
ssg75
g4707
sg68
(lp4714
S'author'
p4715
asbag61
(g82
g63
NtRp4716
(dp4717
g66
(dp4718
g93
g94
ssg75
g4707
sg68
(lp4719
S':'
asbag61
(g82
g63
NtRp4720
(dp4721
g66
(dp4722
sg75
g4707
sg68
(lp4723
g61
(g62
g63
NtRp4724
(dp4725
g66
(dp4726
g74
I4
ssg75
g4720
sg68
(lp4727
S'Your Name <you@example.com>'
p4728
asbasbasbag61
(g77
g63
NtRp4729
(dp4730
g66
(dp4731
sg75
g4703
sg68
(lp4732
g61
(g82
g63
NtRp4733
(dp4734
g66
(dp4735
g86
g87
ssg75
g4729
sg68
(lp4736
S'description'
p4737
asbag61
(g82
g63
NtRp4738
(dp4739
g66
(dp4740
g93
g94
ssg75
g4729
sg68
(lp4741
S':'
asbag61
(g82
g63
NtRp4742
(dp4743
g66
(dp4744
sg75
g4729
sg68
(lp4745
g61
(g62
g63
NtRp4746
(dp4747
g66
(dp4748
g74
I4
ssg75
g4742
sg68
(lp4749
S'a cool new app'
p4750
asbasbasbag61
(g77
g63
NtRp4751
(dp4752
g66
(dp4753
sg75
g4703
sg68
(lp4754
g61
(g82
g63
NtRp4755
(dp4756
g66
(dp4757
g86
g87
ssg75
g4751
sg68
(lp4758
S'generator'
p4759
asbag61
(g82
g63
NtRp4760
(dp4761
g66
(dp4762
g93
g94
ssg75
g4751
sg68
(lp4763
S':'
asbag61
(g82
g63
NtRp4764
(dp4765
g66
(dp4766
sg75
g4751
sg68
(lp4767
g61
(g62
g63
NtRp4768
(dp4769
g66
(dp4770
g74
I4
ssg75
g4764
sg68
(lp4771
S'Web2py Web Framework'
p4772
asbasbasbag61
(g77
g63
NtRp4773
(dp4774
g66
(dp4775
sg75
g4703
sg68
(lp4776
g61
(g82
g63
NtRp4777
(dp4778
g66
(dp4779
g86
g87
ssg75
g4773
sg68
(lp4780
S'keywords'
p4781
asbag61
(g82
g63
NtRp4782
(dp4783
g66
(dp4784
g93
g94
ssg75
g4773
sg68
(lp4785
S':'
asbag61
(g82
g63
NtRp4786
(dp4787
g66
(dp4788
sg75
g4773
sg68
(lp4789
g61
(g62
g63
NtRp4790
(dp4791
g66
(dp4792
g74
I4
ssg75
g4786
sg68
(lp4793
S'web2py, python, framework'
p4794
asbasbasbasbasbasbasbag61
(g77
g63
NtRp4795
(dp4796
g66
(dp4797
sg75
g3508
sg68
(lp4798
g61
(g82
g63
NtRp4799
(dp4800
g66
(dp4801
g86
g87
ssg75
g4795
sg68
(lp4802
S'models_to_run'
p4803
asbag61
(g82
g63
NtRp4804
(dp4805
g66
(dp4806
g93
g94
ssg75
g4795
sg68
(lp4807
S':'
asbag61
(g82
g63
NtRp4808
(dp4809
g66
(dp4810
sg75
g4795
sg68
(lp4811
g61
(g62
g63
NtRp4812
(dp4813
g66
(dp4814
g74
I5
ssg75
g4808
sg68
(lp4815
g61
(g70
g63
NtRp4816
(dp4817
g66
(dp4818
g74
I4
ssg75
Nsg68
(lp4819
g61
(g77
g63
NtRp4820
(dp4821
g66
(dp4822
sg75
g4816
sg68
(lp4823
g61
(g82
g63
NtRp4824
(dp4825
g66
(dp4826
sg75
g4820
sg68
(lp4827
g61
(g62
g63
NtRp4828
(dp4829
g66
(dp4830
g74
I4
ssg75
g4824
sg68
(lp4831
S'^\\w+\\.py$'
p4832
asbasbasbag61
(g77
g63
NtRp4833
(dp4834
g66
(dp4835
sg75
g4816
sg68
(lp4836
g61
(g82
g63
NtRp4837
(dp4838
g66
(dp4839
sg75
g4833
sg68
(lp4840
g61
(g62
g63
NtRp4841
(dp4842
g66
(dp4843
g74
I4
ssg75
g4837
sg68
(lp4844
S'^initial/\\w+\\.py$'
p4845
asbasbasbag61
(g77
g63
NtRp4846
(dp4847
g66
(dp4848
sg75
g4816
sg68
(lp4849
g61
(g82
g63
NtRp4850
(dp4851
g66
(dp4852
sg75
g4846
sg68
(lp4853
g61
(g62
g63
NtRp4854
(dp4855
g66
(dp4856
g74
I4
ssg75
g4850
sg68
(lp4857
S'^initial/show_cliente/\\w+\\.py$'
p4858
asbasbasbasbasbasbasbag61
(g77
g63
NtRp4859
(dp4860
g66
(dp4861
sg75
g3508
sg68
(lp4862
g61
(g82
g63
NtRp4863
(dp4864
g66
(dp4865
g86
g87
ssg75
g4859
sg68
(lp4866
S'postprocessing'
p4867
asbag61
(g82
g63
NtRp4868
(dp4869
g66
(dp4870
g93
g94
ssg75
g4859
sg68
(lp4871
S':'
asbag61
(g82
g63
NtRp4872
(dp4873
g66
(dp4874
sg75
g4859
sg68
(lp4875
g61
(g62
g63
NtRp4876
(dp4877
g66
(dp4878
g74
I5
ssg75
g4872
sg68
(lp4879
g61
(g70
g63
NtRp4880
(dp4881
g66
(dp4882
g74
I4
ssg75
Nsg68
(lp4883
sbasbasbasbag61
(g77
g63
NtRp4884
(dp4885
g66
(dp4886
sg75
g3508
sg68
(lp4887
g61
(g82
g63
NtRp4888
(dp4889
g66
(dp4890
g86
g87
ssg75
g4884
sg68
(lp4891
S'session_cookie_expires'
p4892
asbag61
(g82
g63
NtRp4893
(dp4894
g66
(dp4895
g93
g94
ssg75
g4884
sg68
(lp4896
S':'
asbag61
(g82
g63
NtRp4897
(dp4898
g66
(dp4899
sg75
g4884
sg68
(lp4900
g61
(g62
g63
NtRp4901
(dp4902
g66
(dp4903
g74
I5
ssg75
g4897
sg68
(lp4904
S'None'
p4905
asbasbasbag61
(g77
g63
NtRp4906
(dp4907
g66
(dp4908
sg75
g3508
sg68
(lp4909
g61
(g82
g63
NtRp4910
(dp4911
g66
(dp4912
g86
g87
ssg75
g4906
sg68
(lp4913
S'session_data_name'
p4914
asbag61
(g82
g63
NtRp4915
(dp4916
g66
(dp4917
g93
g94
ssg75
g4906
sg68
(lp4918
S':'
asbag61
(g82
g63
NtRp4919
(dp4920
g66
(dp4921
sg75
g4906
sg68
(lp4922
g61
(g62
g63
NtRp4923
(dp4924
g66
(dp4925
g74
I5
ssg75
g4919
sg68
(lp4926
S'session_data_projeto'
p4927
asbasbasbag61
(g77
g63
NtRp4928
(dp4929
g66
(dp4930
sg75
g3508
sg68
(lp4931
g61
(g82
g63
NtRp4932
(dp4933
g66
(dp4934
g86
g87
ssg75
g4928
sg68
(lp4935
S'session_file'
p4936
asbag61
(g82
g63
NtRp4937
(dp4938
g66
(dp4939
g93
g94
ssg75
g4928
sg68
(lp4940
S':'
asbag61
(g82
g63
NtRp4941
(dp4942
g66
(dp4943
sg75
g4928
sg68
(lp4944
g61
(g62
g63
NtRp4945
(dp4946
g66
(dp4947
g74
I5
ssg75
g4941
sg68
(lp4948
S"<open file '/var/www/conferencia/applications/projeto/sessions/127.0.0.1-0fe02c32-0739-4f06-a369-3bba6377da8b', mode 'rb+' at 0x7f7c340e0270>"
p4949
asbasbasbag61
(g77
g63
NtRp4950
(dp4951
g66
(dp4952
sg75
g3508
sg68
(lp4953
g61
(g82
g63
NtRp4954
(dp4955
g66
(dp4956
g86
g87
ssg75
g4950
sg68
(lp4957
S'session_filename'
p4958
asbag61
(g82
g63
NtRp4959
(dp4960
g66
(dp4961
g93
g94
ssg75
g4950
sg68
(lp4962
S':'
asbag61
(g82
g63
NtRp4963
(dp4964
g66
(dp4965
sg75
g4950
sg68
(lp4966
g61
(g62
g63
NtRp4967
(dp4968
g66
(dp4969
g74
I5
ssg75
g4963
sg68
(lp4970
S'/var/www/conferencia/applications/projeto/sessions/127.0.0.1-0fe02c32-0739-4f06-a369-3bba6377da8b'
p4971
asbasbasbag61
(g77
g63
NtRp4972
(dp4973
g66
(dp4974
sg75
g3508
sg68
(lp4975
g61
(g82
g63
NtRp4976
(dp4977
g66
(dp4978
g86
g87
ssg75
g4972
sg68
(lp4979
S'session_id'
p4980
asbag61
(g82
g63
NtRp4981
(dp4982
g66
(dp4983
g93
g94
ssg75
g4972
sg68
(lp4984
S':'
asbag61
(g82
g63
NtRp4985
(dp4986
g66
(dp4987
sg75
g4972
sg68
(lp4988
g61
(g62
g63
NtRp4989
(dp4990
g66
(dp4991
g74
I5
ssg75
g4985
sg68
(lp4992
g479
asbasbasbag61
(g77
g63
NtRp4993
(dp4994
g66
(dp4995
sg75
g3508
sg68
(lp4996
g61
(g82
g63
NtRp4997
(dp4998
g66
(dp4999
g86
g87
ssg75
g4993
sg68
(lp5000
S'session_id_name'
p5001
asbag61
(g82
g63
NtRp5002
(dp5003
g66
(dp5004
g93
g94
ssg75
g4993
sg68
(lp5005
S':'
asbag61
(g82
g63
NtRp5006
(dp5007
g66
(dp5008
sg75
g4993
sg68
(lp5009
g61
(g62
g63
NtRp5010
(dp5011
g66
(dp5012
g74
I5
ssg75
g5006
sg68
(lp5013
g3565
asbasbasbag61
(g77
g63
NtRp5014
(dp5015
g66
(dp5016
sg75
g3508
sg68
(lp5017
g61
(g82
g63
NtRp5018
(dp5019
g66
(dp5020
g86
g87
ssg75
g5014
sg68
(lp5021
S'session_locked'
p5022
asbag61
(g82
g63
NtRp5023
(dp5024
g66
(dp5025
g93
g94
ssg75
g5014
sg68
(lp5026
S':'
asbag61
(g82
g63
NtRp5027
(dp5028
g66
(dp5029
sg75
g5014
sg68
(lp5030
g61
(g62
g63
NtRp5031
(dp5032
g66
(dp5033
g74
I5
ssg75
g5027
sg68
(lp5034
g1640
asbasbasbag61
(g77
g63
NtRp5035
(dp5036
g66
(dp5037
sg75
g3508
sg68
(lp5038
g61
(g82
g63
NtRp5039
(dp5040
g66
(dp5041
g86
g87
ssg75
g5035
sg68
(lp5042
S'session_new'
p5043
asbag61
(g82
g63
NtRp5044
(dp5045
g66
(dp5046
g93
g94
ssg75
g5035
sg68
(lp5047
S':'
asbag61
(g82
g63
NtRp5048
(dp5049
g66
(dp5050
sg75
g5035
sg68
(lp5051
g61
(g62
g63
NtRp5052
(dp5053
g66
(dp5054
g74
I5
ssg75
g5048
sg68
(lp5055
g104
asbasbasbag61
(g77
g63
NtRp5056
(dp5057
g66
(dp5058
sg75
g3508
sg68
(lp5059
g61
(g82
g63
NtRp5060
(dp5061
g66
(dp5062
g86
g87
ssg75
g5056
sg68
(lp5063
S'session_storage_type'
p5064
asbag61
(g82
g63
NtRp5065
(dp5066
g66
(dp5067
g93
g94
ssg75
g5056
sg68
(lp5068
S':'
asbag61
(g82
g63
NtRp5069
(dp5070
g66
(dp5071
sg75
g5056
sg68
(lp5072
g61
(g62
g63
NtRp5073
(dp5074
g66
(dp5075
g74
I5
ssg75
g5069
sg68
(lp5076
g3079
asbasbasbag61
(g77
g63
NtRp5077
(dp5078
g66
(dp5079
sg75
g3508
sg68
(lp5080
g61
(g82
g63
NtRp5081
(dp5082
g66
(dp5083
g86
g87
ssg75
g5077
sg68
(lp5084
S'status'
p5085
asbag61
(g82
g63
NtRp5086
(dp5087
g66
(dp5088
g93
g94
ssg75
g5077
sg68
(lp5089
S':'
asbag61
(g82
g63
NtRp5090
(dp5091
g66
(dp5092
sg75
g5077
sg68
(lp5093
g61
(g62
g63
NtRp5094
(dp5095
g66
(dp5096
g74
I5
ssg75
g5090
sg68
(lp5097
S'200'
p5098
asbasbasbag61
(g77
g63
NtRp5099
(dp5100
g66
(dp5101
sg75
g3508
sg68
(lp5102
g61
(g82
g63
NtRp5103
(dp5104
g66
(dp5105
g86
g87
ssg75
g5099
sg68
(lp5106
S'subtitle'
p5107
asbag61
(g82
g63
NtRp5108
(dp5109
g66
(dp5110
g93
g94
ssg75
g5099
sg68
(lp5111
S':'
asbag61
(g82
g63
NtRp5112
(dp5113
g66
(dp5114
sg75
g5099
sg68
(lp5115
g61
(g62
g63
NtRp5116
(dp5117
g66
(dp5118
g74
I5
ssg75
g5112
sg68
(lp5119
g4041
(S's\r\x00\x00\x00customize me!'
tRp5120
asbasbasbag61
(g77
g63
NtRp5121
(dp5122
g66
(dp5123
sg75
g3508
sg68
(lp5124
g61
(g82
g63
NtRp5125
(dp5126
g66
(dp5127
g86
g87
ssg75
g5121
sg68
(lp5128
S'title'
p5129
asbag61
(g82
g63
NtRp5130
(dp5131
g66
(dp5132
g93
g94
ssg75
g5121
sg68
(lp5133
S':'
asbag61
(g82
g63
NtRp5134
(dp5135
g66
(dp5136
sg75
g5121
sg68
(lp5137
g61
(g62
g63
NtRp5138
(dp5139
g66
(dp5140
g74
I5
ssg75
g5134
sg68
(lp5141
S'Projeto'
p5142
asbasbasbag61
(g77
g63
NtRp5143
(dp5144
g66
(dp5145
sg75
g3508
sg68
(lp5146
g61
(g82
g63
NtRp5147
(dp5148
g66
(dp5149
g86
g87
ssg75
g5143
sg68
(lp5150
S'view'
p5151
asbag61
(g82
g63
NtRp5152
(dp5153
g66
(dp5154
g93
g94
ssg75
g5143
sg68
(lp5155
S':'
asbag61
(g82
g63
NtRp5156
(dp5157
g66
(dp5158
sg75
g5143
sg68
(lp5159
g61
(g62
g63
NtRp5160
(dp5161
g66
(dp5162
g74
I5
ssg75
g5156
sg68
(lp5163
S'initial/show_cliente.html'
p5164
asbasbasbasbasbsS'locals'
p5165
(dp5166
S'exc'
p5167
S'ProgrammingError(\'ERROR\', \'23502\', \'column "confno__tmp" contains null values\')'
p5168
sS'msg_class'
p5169
S"<class 'gluon.contrib.pg8000.protocol.ReadyForQuery'>"
p5170
sS'self'
p5171
S'<gluon.contrib.pg8000.protocol.MessageReader object>'
p5172
sg46
S'()'
p5173
sS'handler'
p5174
S'<function <lambda>>'
p5175
sS'kwargs'
p5176
g21
sS'msg'
p5177
S'<ReadyForQuery Idle in Failed Transaction>'
p5178
sS'msg_handled'
p5179
g1640
sS'retval'
p5180
S'1'
sssS'traceback'
p5181
S'Traceback (most recent call last):\n  File "/var/www/conferencia/gluon/restricted.py", line 212, in restricted\n    exec ccode in environment\n  File "/var/www/conferencia/applications/projeto/models/models.py", line 14, in <module>\n    primarykey=[\'confno\']\n  File "/var/www/conferencia/gluon/dal.py", line 7186, in define_table\n    table = self.lazy_define_table(tablename,*fields,**args)\n  File "/var/www/conferencia/gluon/dal.py", line 7222, in lazy_define_table\n    polymodel=polymodel)\n  File "/var/www/conferencia/gluon/dal.py", line 963, in create_table\n    fake_migrate=fake_migrate)\n  File "/var/www/conferencia/gluon/dal.py", line 1069, in migrate_table\n    self.execute(sub_query)\n  File "/var/www/conferencia/gluon/dal.py", line 1709, in execute\n    return self.log_execute(*a, **b)\n  File "/var/www/conferencia/gluon/dal.py", line 1703, in log_execute\n    ret = self.cursor.execute(*a, **b)\n  File "/var/www/conferencia/gluon/contrib/pg8000/dbapi.py", line 246, in _fn\n    return fn(self, *args, **kwargs)\n  File "/var/www/conferencia/gluon/contrib/pg8000/dbapi.py", line 317, in execute\n    self._execute(operation, args)\n  File "/var/www/conferencia/gluon/contrib/pg8000/dbapi.py", line 322, in _execute\n    self.cursor.execute(new_query, *new_args)\n  File "/var/www/conferencia/gluon/contrib/pg8000/interface.py", line 399, in execute\n    self._stmt.execute(*args, **kwargs)\n  File "/var/www/conferencia/gluon/contrib/pg8000/interface.py", line 169, in execute\n    self._row_desc, cmd = self.c.bind(self._portal_name, self._statement_name, args, self._parse_row_desc, kwargs.get("stream"))\n  File "/var/www/conferencia/gluon/contrib/pg8000/protocol.py", line 943, in _fn\n    return fn(self, *args, **kwargs)\n  File "/var/www/conferencia/gluon/contrib/pg8000/protocol.py", line 1142, in bind\n    return reader.handle_messages()\n  File "/var/www/conferencia/gluon/contrib/pg8000/protocol.py", line 911, in handle_messages\n    retval = handler(msg, *args, **kwargs)\n  File "/var/www/conferencia/gluon/contrib/pg8000/protocol.py", line 1181, in _bind_nodata\n    reader.handle_messages()\n  File "/var/www/conferencia/gluon/contrib/pg8000/protocol.py", line 916, in handle_messages\n    raise exc\nProgrammingError: (\'ERROR\', \'23502\', \'column "confno__tmp" contains null values\')\n'
p5182
s.