(dp1
S'output'
p2
S"<type 'exceptions.SyntaxError'> invalid syntax (models.py, line 11)"
p3
sS'layer'
p4
S'/var/www/conferencia/applications/projeto/models/models.py'
p5
sS'code'
p6
S'usuario = db.define_table("usuario",\n      Field("nome", notnull=True, unique=True),\n      Field("pin"),\n      Field("email"),\n      #auth.signature\n      format="%(nome)s")\n\n\nmeetme = db.define_table("meetme",\n      Field("confno", AUTO_INCREMENT)\n      Field("starttime", "datetime"),\n      Field("endtime", "datetime"),\n      Field("membros_user", \'list:reference usuario\'),\n      primarykey=[\'confno\']\n      )\n\n\n\n'
p7
sS'snapshot'
p8
(dp9
S'exception'
p10
(dp11
S'__getslice__'
p12
S"<method-wrapper '__getslice__' of exceptions.SyntaxError object>"
p13
sS'text'
p14
S'\'      Field("starttime", "datetime"),\\n\''
p15
sS'__str__'
p16
S"<method-wrapper '__str__' of exceptions.SyntaxError object>"
p17
sS'__reduce__'
p18
S'<built-in method __reduce__ of exceptions.SyntaxError object>'
p19
sS'__dict__'
p20
S'{}'
p21
sS'__sizeof__'
p22
S'<built-in method __sizeof__ of exceptions.SyntaxError object>'
p23
sS'__init__'
p24
S"<method-wrapper '__init__' of exceptions.SyntaxError object>"
p25
sS'__setattr__'
p26
S"<method-wrapper '__setattr__' of exceptions.SyntaxError object>"
p27
sS'__reduce_ex__'
p28
S'<built-in method __reduce_ex__ of exceptions.SyntaxError object>'
p29
sS'__new__'
p30
S'<built-in method __new__ of type object>'
p31
sS'__format__'
p32
S'<built-in method __format__ of exceptions.SyntaxError object>'
p33
sS'__class__'
p34
S"<type 'exceptions.SyntaxError'>"
p35
sS'filename'
p36
S"'/var/www/conferencia/applications/projeto/models/models.py'"
p37
sS'lineno'
p38
S'11'
p39
sS'msg'
p40
S"'invalid syntax'"
p41
sS'__doc__'
p42
S"'Invalid syntax.'"
p43
sS'__getitem__'
p44
S"<method-wrapper '__getitem__' of exceptions.SyntaxError object>"
p45
sS'__setstate__'
p46
S'<built-in method __setstate__ of exceptions.SyntaxError object>'
p47
sS'__getattribute__'
p48
S"<method-wrapper '__getattribute__' of exceptions.SyntaxError object>"
p49
sS'print_file_and_line'
p50
S'None'
p51
sS'args'
p52
S'(\'invalid syntax\', (\'/var/www/conferencia/applications/projeto/models/models.py\', 11, 11, \'      Field("starttime", "datetime"),\\n\'))'
p53
sS'__subclasshook__'
p54
S'<built-in method __subclasshook__ of type object>'
p55
sS'offset'
p56
S'11'
p57
sS'__unicode__'
p58
S'<built-in method __unicode__ of exceptions.SyntaxError object>'
p59
sS'__delattr__'
p60
S"<method-wrapper '__delattr__' of exceptions.SyntaxError object>"
p61
sS'__repr__'
p62
S"<method-wrapper '__repr__' of exceptions.SyntaxError object>"
p63
sS'__hash__'
p64
S"<method-wrapper '__hash__' of exceptions.SyntaxError object>"
p65
ssS'evalue'
p66
S'invalid syntax (models.py, line 11)'
p67
sS'request'
p68
ccopy_reg
_reconstructor
p69
(cgluon.html
BEAUTIFY
p70
c__builtin__
object
p71
NtRp72
(dp73
S'attributes'
p74
(dp75
sS'components'
p76
(lp77
g69
(cgluon.html
TABLE
p78
g71
NtRp79
(dp80
g74
(dp81
S'level'
p82
I5
ssS'parent'
p83
Nsg76
(lp84
g69
(cgluon.html
TR
p85
g71
NtRp86
(dp87
g74
(dp88
sg83
g79
sg76
(lp89
g69
(cgluon.html
TD
p90
g71
NtRp91
(dp92
g74
(dp93
S'_style'
p94
S'font-weight:bold;vertical-align:top'
p95
ssg83
g86
sg76
(lp96
S'ajax'
p97
asbag69
(g90
g71
NtRp98
(dp99
g74
(dp100
S'_valign'
p101
S'top'
p102
ssg83
g86
sg76
(lp103
S':'
asbag69
(g90
g71
NtRp104
(dp105
g74
(dp106
sg83
g86
sg76
(lp107
g69
(g70
g71
NtRp108
(dp109
g74
(dp110
g82
I5
ssg83
g104
sg76
(lp111
S'False'
p112
asbasbasbag69
(g85
g71
NtRp113
(dp114
g74
(dp115
sg83
g79
sg76
(lp116
g69
(g90
g71
NtRp117
(dp118
g74
(dp119
g94
g95
ssg83
g113
sg76
(lp120
S'application'
p121
asbag69
(g90
g71
NtRp122
(dp123
g74
(dp124
g101
g102
ssg83
g113
sg76
(lp125
S':'
asbag69
(g90
g71
NtRp126
(dp127
g74
(dp128
sg83
g113
sg76
(lp129
g69
(g70
g71
NtRp130
(dp131
g74
(dp132
g82
I5
ssg83
g126
sg76
(lp133
S'projeto'
p134
asbasbasbag69
(g85
g71
NtRp135
(dp136
g74
(dp137
sg83
g79
sg76
(lp138
g69
(g90
g71
NtRp139
(dp140
g74
(dp141
g94
g95
ssg83
g135
sg76
(lp142
g52
asbag69
(g90
g71
NtRp143
(dp144
g74
(dp145
g101
g102
ssg83
g135
sg76
(lp146
S':'
asbag69
(g90
g71
NtRp147
(dp148
g74
(dp149
sg83
g135
sg76
(lp150
g69
(g70
g71
NtRp151
(dp152
g74
(dp153
g82
I5
ssg83
g147
sg76
(lp154
g69
(g78
g71
NtRp155
(dp156
g74
(dp157
g82
I4
ssg83
Nsg76
(lp158
sbasbasbasbag69
(g85
g71
NtRp159
(dp160
g74
(dp161
sg83
g79
sg76
(lp162
g69
(g90
g71
NtRp163
(dp164
g74
(dp165
g94
g95
ssg83
g159
sg76
(lp166
S'body'
p167
asbag69
(g90
g71
NtRp168
(dp169
g74
(dp170
g101
g102
ssg83
g159
sg76
(lp171
S':'
asbag69
(g90
g71
NtRp172
(dp173
g74
(dp174
sg83
g159
sg76
(lp175
g69
(g70
g71
NtRp176
(dp177
g74
(dp178
g82
I5
ssg83
g172
sg76
(lp179
S'<cStringIO.StringO object at 0x7f7c5024dce0>'
p180
asbasbasbag69
(g85
g71
NtRp181
(dp182
g74
(dp183
sg83
g79
sg76
(lp184
g69
(g90
g71
NtRp185
(dp186
g74
(dp187
g94
g95
ssg83
g181
sg76
(lp188
S'cid'
p189
asbag69
(g90
g71
NtRp190
(dp191
g74
(dp192
g101
g102
ssg83
g181
sg76
(lp193
S':'
asbag69
(g90
g71
NtRp194
(dp195
g74
(dp196
sg83
g181
sg76
(lp197
g69
(g70
g71
NtRp198
(dp199
g74
(dp200
g82
I5
ssg83
g194
sg76
(lp201
S'None'
p202
asbasbasbag69
(g85
g71
NtRp203
(dp204
g74
(dp205
sg83
g79
sg76
(lp206
g69
(g90
g71
NtRp207
(dp208
g74
(dp209
g94
g95
ssg83
g203
sg76
(lp210
S'client'
p211
asbag69
(g90
g71
NtRp212
(dp213
g74
(dp214
g101
g102
ssg83
g203
sg76
(lp215
S':'
asbag69
(g90
g71
NtRp216
(dp217
g74
(dp218
sg83
g203
sg76
(lp219
g69
(g70
g71
NtRp220
(dp221
g74
(dp222
g82
I5
ssg83
g216
sg76
(lp223
S'127.0.0.1'
p224
asbasbasbag69
(g85
g71
NtRp225
(dp226
g74
(dp227
sg83
g79
sg76
(lp228
g69
(g90
g71
NtRp229
(dp230
g74
(dp231
g94
g95
ssg83
g225
sg76
(lp232
S'controller'
p233
asbag69
(g90
g71
NtRp234
(dp235
g74
(dp236
g101
g102
ssg83
g225
sg76
(lp237
S':'
asbag69
(g90
g71
NtRp238
(dp239
g74
(dp240
sg83
g225
sg76
(lp241
g69
(g70
g71
NtRp242
(dp243
g74
(dp244
g82
I5
ssg83
g238
sg76
(lp245
S'initial'
p246
asbasbasbag69
(g85
g71
NtRp247
(dp248
g74
(dp249
sg83
g79
sg76
(lp250
g69
(g90
g71
NtRp251
(dp252
g74
(dp253
g94
g95
ssg83
g247
sg76
(lp254
S'cookies'
p255
asbag69
(g90
g71
NtRp256
(dp257
g74
(dp258
g101
g102
ssg83
g247
sg76
(lp259
S':'
asbag69
(g90
g71
NtRp260
(dp261
g74
(dp262
sg83
g247
sg76
(lp263
g69
(g70
g71
NtRp264
(dp265
g74
(dp266
g82
I5
ssg83
g260
sg76
(lp267
g69
(g78
g71
NtRp268
(dp269
g74
(dp270
g82
I4
ssg83
Nsg76
(lp271
g69
(g85
g71
NtRp272
(dp273
g74
(dp274
sg83
g268
sg76
(lp275
g69
(g90
g71
NtRp276
(dp277
g74
(dp278
g94
g95
ssg83
g272
sg76
(lp279
S'session_id_admin'
p280
asbag69
(g90
g71
NtRp281
(dp282
g74
(dp283
g101
g102
ssg83
g272
sg76
(lp284
S':'
asbag69
(g90
g71
NtRp285
(dp286
g74
(dp287
sg83
g272
sg76
(lp288
g69
(g70
g71
NtRp289
(dp290
g74
(dp291
g82
I4
ssg83
g285
sg76
(lp292
S'127.0.0.1-f08163e7-63a0-4e97-8334-13b9dc892d78'
p293
ag69
(g78
g71
NtRp294
(dp295
g74
(dp296
g82
I3
ssg83
Nsg76
(lp297
g69
(g85
g71
NtRp298
(dp299
g74
(dp300
sg83
g294
sg76
(lp301
g69
(g90
g71
NtRp302
(dp303
g74
(dp304
g94
g95
ssg83
g298
sg76
(lp305
S'comment'
p306
asbag69
(g90
g71
NtRp307
(dp308
g74
(dp309
g101
g102
ssg83
g298
sg76
(lp310
S':'
asbag69
(g90
g71
NtRp311
(dp312
g74
(dp313
sg83
g298
sg76
(lp314
g69
(g70
g71
NtRp315
(dp316
g74
(dp317
g82
I3
ssg83
g311
sg76
(lp318
S''
asbasbasbag69
(g85
g71
NtRp319
(dp320
g74
(dp321
sg83
g294
sg76
(lp322
g69
(g90
g71
NtRp323
(dp324
g74
(dp325
g94
g95
ssg83
g319
sg76
(lp326
S'domain'
p327
asbag69
(g90
g71
NtRp328
(dp329
g74
(dp330
g101
g102
ssg83
g319
sg76
(lp331
S':'
asbag69
(g90
g71
NtRp332
(dp333
g74
(dp334
sg83
g319
sg76
(lp335
g69
(g70
g71
NtRp336
(dp337
g74
(dp338
g82
I3
ssg83
g332
sg76
(lp339
S''
asbasbasbag69
(g85
g71
NtRp340
(dp341
g74
(dp342
sg83
g294
sg76
(lp343
g69
(g90
g71
NtRp344
(dp345
g74
(dp346
g94
g95
ssg83
g340
sg76
(lp347
S'expires'
p348
asbag69
(g90
g71
NtRp349
(dp350
g74
(dp351
g101
g102
ssg83
g340
sg76
(lp352
S':'
asbag69
(g90
g71
NtRp353
(dp354
g74
(dp355
sg83
g340
sg76
(lp356
g69
(g70
g71
NtRp357
(dp358
g74
(dp359
g82
I3
ssg83
g353
sg76
(lp360
S''
asbasbasbag69
(g85
g71
NtRp361
(dp362
g74
(dp363
sg83
g294
sg76
(lp364
g69
(g90
g71
NtRp365
(dp366
g74
(dp367
g94
g95
ssg83
g361
sg76
(lp368
S'httponly'
p369
asbag69
(g90
g71
NtRp370
(dp371
g74
(dp372
g101
g102
ssg83
g361
sg76
(lp373
S':'
asbag69
(g90
g71
NtRp374
(dp375
g74
(dp376
sg83
g361
sg76
(lp377
g69
(g70
g71
NtRp378
(dp379
g74
(dp380
g82
I3
ssg83
g374
sg76
(lp381
S''
asbasbasbag69
(g85
g71
NtRp382
(dp383
g74
(dp384
sg83
g294
sg76
(lp385
g69
(g90
g71
NtRp386
(dp387
g74
(dp388
g94
g95
ssg83
g382
sg76
(lp389
S'max-age'
p390
asbag69
(g90
g71
NtRp391
(dp392
g74
(dp393
g101
g102
ssg83
g382
sg76
(lp394
S':'
asbag69
(g90
g71
NtRp395
(dp396
g74
(dp397
sg83
g382
sg76
(lp398
g69
(g70
g71
NtRp399
(dp400
g74
(dp401
g82
I3
ssg83
g395
sg76
(lp402
S''
asbasbasbag69
(g85
g71
NtRp403
(dp404
g74
(dp405
sg83
g294
sg76
(lp406
g69
(g90
g71
NtRp407
(dp408
g74
(dp409
g94
g95
ssg83
g403
sg76
(lp410
S'path'
p411
asbag69
(g90
g71
NtRp412
(dp413
g74
(dp414
g101
g102
ssg83
g403
sg76
(lp415
S':'
asbag69
(g90
g71
NtRp416
(dp417
g74
(dp418
sg83
g403
sg76
(lp419
g69
(g70
g71
NtRp420
(dp421
g74
(dp422
g82
I3
ssg83
g416
sg76
(lp423
S''
asbasbasbag69
(g85
g71
NtRp424
(dp425
g74
(dp426
sg83
g294
sg76
(lp427
g69
(g90
g71
NtRp428
(dp429
g74
(dp430
g94
g95
ssg83
g424
sg76
(lp431
S'secure'
p432
asbag69
(g90
g71
NtRp433
(dp434
g74
(dp435
g101
g102
ssg83
g424
sg76
(lp436
S':'
asbag69
(g90
g71
NtRp437
(dp438
g74
(dp439
sg83
g424
sg76
(lp440
g69
(g70
g71
NtRp441
(dp442
g74
(dp443
g82
I3
ssg83
g437
sg76
(lp444
S''
asbasbasbag69
(g85
g71
NtRp445
(dp446
g74
(dp447
sg83
g294
sg76
(lp448
g69
(g90
g71
NtRp449
(dp450
g74
(dp451
g94
g95
ssg83
g445
sg76
(lp452
S'version'
p453
asbag69
(g90
g71
NtRp454
(dp455
g74
(dp456
g101
g102
ssg83
g445
sg76
(lp457
S':'
asbag69
(g90
g71
NtRp458
(dp459
g74
(dp460
sg83
g445
sg76
(lp461
g69
(g70
g71
NtRp462
(dp463
g74
(dp464
g82
I3
ssg83
g458
sg76
(lp465
S''
asbasbasbasbasbasbasbag69
(g85
g71
NtRp466
(dp467
g74
(dp468
sg83
g268
sg76
(lp469
g69
(g90
g71
NtRp470
(dp471
g74
(dp472
g94
g95
ssg83
g466
sg76
(lp473
S'session_id_projeto'
p474
asbag69
(g90
g71
NtRp475
(dp476
g74
(dp477
g101
g102
ssg83
g466
sg76
(lp478
S':'
asbag69
(g90
g71
NtRp479
(dp480
g74
(dp481
sg83
g466
sg76
(lp482
g69
(g70
g71
NtRp483
(dp484
g74
(dp485
g82
I4
ssg83
g479
sg76
(lp486
S'127.0.0.1-0fe02c32-0739-4f06-a369-3bba6377da8b'
p487
ag69
(g78
g71
NtRp488
(dp489
g74
(dp490
g82
I3
ssg83
Nsg76
(lp491
g69
(g85
g71
NtRp492
(dp493
g74
(dp494
sg83
g488
sg76
(lp495
g69
(g90
g71
NtRp496
(dp497
g74
(dp498
g94
g95
ssg83
g492
sg76
(lp499
g306
asbag69
(g90
g71
NtRp500
(dp501
g74
(dp502
g101
g102
ssg83
g492
sg76
(lp503
S':'
asbag69
(g90
g71
NtRp504
(dp505
g74
(dp506
sg83
g492
sg76
(lp507
g69
(g70
g71
NtRp508
(dp509
g74
(dp510
g82
I3
ssg83
g504
sg76
(lp511
S''
asbasbasbag69
(g85
g71
NtRp512
(dp513
g74
(dp514
sg83
g488
sg76
(lp515
g69
(g90
g71
NtRp516
(dp517
g74
(dp518
g94
g95
ssg83
g512
sg76
(lp519
g327
asbag69
(g90
g71
NtRp520
(dp521
g74
(dp522
g101
g102
ssg83
g512
sg76
(lp523
S':'
asbag69
(g90
g71
NtRp524
(dp525
g74
(dp526
sg83
g512
sg76
(lp527
g69
(g70
g71
NtRp528
(dp529
g74
(dp530
g82
I3
ssg83
g524
sg76
(lp531
S''
asbasbasbag69
(g85
g71
NtRp532
(dp533
g74
(dp534
sg83
g488
sg76
(lp535
g69
(g90
g71
NtRp536
(dp537
g74
(dp538
g94
g95
ssg83
g532
sg76
(lp539
g348
asbag69
(g90
g71
NtRp540
(dp541
g74
(dp542
g101
g102
ssg83
g532
sg76
(lp543
S':'
asbag69
(g90
g71
NtRp544
(dp545
g74
(dp546
sg83
g532
sg76
(lp547
g69
(g70
g71
NtRp548
(dp549
g74
(dp550
g82
I3
ssg83
g544
sg76
(lp551
S''
asbasbasbag69
(g85
g71
NtRp552
(dp553
g74
(dp554
sg83
g488
sg76
(lp555
g69
(g90
g71
NtRp556
(dp557
g74
(dp558
g94
g95
ssg83
g552
sg76
(lp559
g369
asbag69
(g90
g71
NtRp560
(dp561
g74
(dp562
g101
g102
ssg83
g552
sg76
(lp563
S':'
asbag69
(g90
g71
NtRp564
(dp565
g74
(dp566
sg83
g552
sg76
(lp567
g69
(g70
g71
NtRp568
(dp569
g74
(dp570
g82
I3
ssg83
g564
sg76
(lp571
S''
asbasbasbag69
(g85
g71
NtRp572
(dp573
g74
(dp574
sg83
g488
sg76
(lp575
g69
(g90
g71
NtRp576
(dp577
g74
(dp578
g94
g95
ssg83
g572
sg76
(lp579
g390
asbag69
(g90
g71
NtRp580
(dp581
g74
(dp582
g101
g102
ssg83
g572
sg76
(lp583
S':'
asbag69
(g90
g71
NtRp584
(dp585
g74
(dp586
sg83
g572
sg76
(lp587
g69
(g70
g71
NtRp588
(dp589
g74
(dp590
g82
I3
ssg83
g584
sg76
(lp591
S''
asbasbasbag69
(g85
g71
NtRp592
(dp593
g74
(dp594
sg83
g488
sg76
(lp595
g69
(g90
g71
NtRp596
(dp597
g74
(dp598
g94
g95
ssg83
g592
sg76
(lp599
g411
asbag69
(g90
g71
NtRp600
(dp601
g74
(dp602
g101
g102
ssg83
g592
sg76
(lp603
S':'
asbag69
(g90
g71
NtRp604
(dp605
g74
(dp606
sg83
g592
sg76
(lp607
g69
(g70
g71
NtRp608
(dp609
g74
(dp610
g82
I3
ssg83
g604
sg76
(lp611
S''
asbasbasbag69
(g85
g71
NtRp612
(dp613
g74
(dp614
sg83
g488
sg76
(lp615
g69
(g90
g71
NtRp616
(dp617
g74
(dp618
g94
g95
ssg83
g612
sg76
(lp619
g432
asbag69
(g90
g71
NtRp620
(dp621
g74
(dp622
g101
g102
ssg83
g612
sg76
(lp623
S':'
asbag69
(g90
g71
NtRp624
(dp625
g74
(dp626
sg83
g612
sg76
(lp627
g69
(g70
g71
NtRp628
(dp629
g74
(dp630
g82
I3
ssg83
g624
sg76
(lp631
S''
asbasbasbag69
(g85
g71
NtRp632
(dp633
g74
(dp634
sg83
g488
sg76
(lp635
g69
(g90
g71
NtRp636
(dp637
g74
(dp638
g94
g95
ssg83
g632
sg76
(lp639
g453
asbag69
(g90
g71
NtRp640
(dp641
g74
(dp642
g101
g102
ssg83
g632
sg76
(lp643
S':'
asbag69
(g90
g71
NtRp644
(dp645
g74
(dp646
sg83
g632
sg76
(lp647
g69
(g70
g71
NtRp648
(dp649
g74
(dp650
g82
I3
ssg83
g644
sg76
(lp651
S''
asbasbasbasbasbasbasbasbasbasbasbag69
(g85
g71
NtRp652
(dp653
g74
(dp654
sg83
g79
sg76
(lp655
g69
(g90
g71
NtRp656
(dp657
g74
(dp658
g94
g95
ssg83
g652
sg76
(lp659
S'env'
p660
asbag69
(g90
g71
NtRp661
(dp662
g74
(dp663
g101
g102
ssg83
g652
sg76
(lp664
S':'
asbag69
(g90
g71
NtRp665
(dp666
g74
(dp667
sg83
g652
sg76
(lp668
g69
(g70
g71
NtRp669
(dp670
g74
(dp671
g82
I5
ssg83
g665
sg76
(lp672
g69
(g78
g71
NtRp673
(dp674
g74
(dp675
g82
I4
ssg83
Nsg76
(lp676
g69
(g85
g71
NtRp677
(dp678
g74
(dp679
sg83
g673
sg76
(lp680
g69
(g90
g71
NtRp681
(dp682
g74
(dp683
g94
g95
ssg83
g677
sg76
(lp684
S'app_folders'
p685
asbag69
(g90
g71
NtRp686
(dp687
g74
(dp688
g101
g102
ssg83
g677
sg76
(lp689
S':'
asbag69
(g90
g71
NtRp690
(dp691
g74
(dp692
sg83
g677
sg76
(lp693
g69
(g70
g71
NtRp694
(dp695
g74
(dp696
g82
I4
ssg83
g690
sg76
(lp697
S"set(['/var/www/conferencia/applications/projeto/'])"
p698
asbasbasbag69
(g85
g71
NtRp699
(dp700
g74
(dp701
sg83
g673
sg76
(lp702
g69
(g90
g71
NtRp703
(dp704
g74
(dp705
g94
g95
ssg83
g699
sg76
(lp706
S'applications_parent'
p707
asbag69
(g90
g71
NtRp708
(dp709
g74
(dp710
g101
g102
ssg83
g699
sg76
(lp711
S':'
asbag69
(g90
g71
NtRp712
(dp713
g74
(dp714
sg83
g699
sg76
(lp715
g69
(g70
g71
NtRp716
(dp717
g74
(dp718
g82
I4
ssg83
g712
sg76
(lp719
S'/var/www/conferencia'
p720
asbasbasbag69
(g85
g71
NtRp721
(dp722
g74
(dp723
sg83
g673
sg76
(lp724
g69
(g90
g71
NtRp725
(dp726
g74
(dp727
g94
g95
ssg83
g721
sg76
(lp728
S'cmd_args'
p729
asbag69
(g90
g71
NtRp730
(dp731
g74
(dp732
g101
g102
ssg83
g721
sg76
(lp733
S':'
asbag69
(g90
g71
NtRp734
(dp735
g74
(dp736
sg83
g721
sg76
(lp737
g69
(g70
g71
NtRp738
(dp739
g74
(dp740
g82
I4
ssg83
g734
sg76
(lp741
g69
(g78
g71
NtRp742
(dp743
g74
(dp744
g82
I3
ssg83
Nsg76
(lp745
sbasbasbasbag69
(g85
g71
NtRp746
(dp747
g74
(dp748
sg83
g673
sg76
(lp749
g69
(g90
g71
NtRp750
(dp751
g74
(dp752
g94
g95
ssg83
g746
sg76
(lp753
S'cmd_options'
p754
asbag69
(g90
g71
NtRp755
(dp756
g74
(dp757
g101
g102
ssg83
g746
sg76
(lp758
S':'
asbag69
(g90
g71
NtRp759
(dp760
g74
(dp761
sg83
g746
sg76
(lp762
g69
(g70
g71
NtRp763
(dp764
g74
(dp765
g82
I4
ssg83
g759
sg76
(lp766
S"<Values at 0x2e0b248: {'verbose': False, 'ip': '127.0.0.1', 'with_scheduler': False, 'ips': [], 'shutdown_timeout': 5, 'taskbar': False, 'port': 8000, 'maxthreads': None, 'softcron': False, 'server_name': 'fernando-workstation', 'bpython': False, 'nogui': False, 'pid_filename': 'httpserver.pid', 'extcron': False, 'runcron': False, 'run_system_tests': False, 'test': None, 'folder': '/var/www/conferencia', 'config': '', 'minthreads': None, 'winservice': '', 'shell': None, 'run': '', 'log_filename': 'httpserver.log', 'debuglevel': 30, 'args': [''], 'socket_timeout': 5, 'ssl_ca_certificate': None, 'scheduler': None, 'profiler_filename': None, 'ssl_private_key': '', 'scheduler_groups': None, 'password': '123456', 'request_queue_size': 5, 'ssl_certificate': '', 'cronjob': False, 'numthreads': None, 'quiet': False, 'interfaces': None, 'import_models': False, 'timeout': 10, 'plain': False, 'nobanner': False}>"
p767
asbasbasbag69
(g85
g71
NtRp768
(dp769
g74
(dp770
sg83
g673
sg76
(lp771
g69
(g90
g71
NtRp772
(dp773
g74
(dp774
g94
g95
ssg83
g768
sg76
(lp775
S'db_sessions'
p776
asbag69
(g90
g71
NtRp777
(dp778
g74
(dp779
g101
g102
ssg83
g768
sg76
(lp780
S':'
asbag69
(g90
g71
NtRp781
(dp782
g74
(dp783
sg83
g768
sg76
(lp784
g69
(g70
g71
NtRp785
(dp786
g74
(dp787
g82
I4
ssg83
g781
sg76
(lp788
S'set([])'
p789
asbasbasbag69
(g85
g71
NtRp790
(dp791
g74
(dp792
sg83
g673
sg76
(lp793
g69
(g90
g71
NtRp794
(dp795
g74
(dp796
g94
g95
ssg83
g790
sg76
(lp797
S'debugging'
p798
asbag69
(g90
g71
NtRp799
(dp800
g74
(dp801
g101
g102
ssg83
g790
sg76
(lp802
S':'
asbag69
(g90
g71
NtRp803
(dp804
g74
(dp805
sg83
g790
sg76
(lp806
g69
(g70
g71
NtRp807
(dp808
g74
(dp809
g82
I4
ssg83
g803
sg76
(lp810
g112
asbasbasbag69
(g85
g71
NtRp811
(dp812
g74
(dp813
sg83
g673
sg76
(lp814
g69
(g90
g71
NtRp815
(dp816
g74
(dp817
g94
g95
ssg83
g811
sg76
(lp818
S'gluon_parent'
p819
asbag69
(g90
g71
NtRp820
(dp821
g74
(dp822
g101
g102
ssg83
g811
sg76
(lp823
S':'
asbag69
(g90
g71
NtRp824
(dp825
g74
(dp826
sg83
g811
sg76
(lp827
g69
(g70
g71
NtRp828
(dp829
g74
(dp830
g82
I4
ssg83
g824
sg76
(lp831
S'/var/www/conferencia'
p832
asbasbasbag69
(g85
g71
NtRp833
(dp834
g74
(dp835
sg83
g673
sg76
(lp836
g69
(g90
g71
NtRp837
(dp838
g74
(dp839
g94
g95
ssg83
g833
sg76
(lp840
S'http_accept'
p841
asbag69
(g90
g71
NtRp842
(dp843
g74
(dp844
g101
g102
ssg83
g833
sg76
(lp845
S':'
asbag69
(g90
g71
NtRp846
(dp847
g74
(dp848
sg83
g833
sg76
(lp849
g69
(g70
g71
NtRp850
(dp851
g74
(dp852
g82
I4
ssg83
g846
sg76
(lp853
S'text/html,application/xhtml+xml,application/xml;q=0.9,*/*;q=0.8'
p854
asbasbasbag69
(g85
g71
NtRp855
(dp856
g74
(dp857
sg83
g673
sg76
(lp858
g69
(g90
g71
NtRp859
(dp860
g74
(dp861
g94
g95
ssg83
g855
sg76
(lp862
S'http_accept_charset'
p863
asbag69
(g90
g71
NtRp864
(dp865
g74
(dp866
g101
g102
ssg83
g855
sg76
(lp867
S':'
asbag69
(g90
g71
NtRp868
(dp869
g74
(dp870
sg83
g855
sg76
(lp871
g69
(g70
g71
NtRp872
(dp873
g74
(dp874
g82
I4
ssg83
g868
sg76
(lp875
S'ISO-8859-1,utf-8;q=0.7,*;q=0.3'
p876
asbasbasbag69
(g85
g71
NtRp877
(dp878
g74
(dp879
sg83
g673
sg76
(lp880
g69
(g90
g71
NtRp881
(dp882
g74
(dp883
g94
g95
ssg83
g877
sg76
(lp884
S'http_accept_encoding'
p885
asbag69
(g90
g71
NtRp886
(dp887
g74
(dp888
g101
g102
ssg83
g877
sg76
(lp889
S':'
asbag69
(g90
g71
NtRp890
(dp891
g74
(dp892
sg83
g877
sg76
(lp893
g69
(g70
g71
NtRp894
(dp895
g74
(dp896
g82
I4
ssg83
g890
sg76
(lp897
S'gzip,deflate,sdch'
p898
asbasbasbag69
(g85
g71
NtRp899
(dp900
g74
(dp901
sg83
g673
sg76
(lp902
g69
(g90
g71
NtRp903
(dp904
g74
(dp905
g94
g95
ssg83
g899
sg76
(lp906
S'http_accept_language'
p907
asbag69
(g90
g71
NtRp908
(dp909
g74
(dp910
g101
g102
ssg83
g899
sg76
(lp911
S':'
asbag69
(g90
g71
NtRp912
(dp913
g74
(dp914
sg83
g899
sg76
(lp915
g69
(g70
g71
NtRp916
(dp917
g74
(dp918
g82
I4
ssg83
g912
sg76
(lp919
S'pt-BR,pt;q=0.8,en-US;q=0.6,en;q=0.4'
p920
asbasbasbag69
(g85
g71
NtRp921
(dp922
g74
(dp923
sg83
g673
sg76
(lp924
g69
(g90
g71
NtRp925
(dp926
g74
(dp927
g94
g95
ssg83
g921
sg76
(lp928
S'http_connection'
p929
asbag69
(g90
g71
NtRp930
(dp931
g74
(dp932
g101
g102
ssg83
g921
sg76
(lp933
S':'
asbag69
(g90
g71
NtRp934
(dp935
g74
(dp936
sg83
g921
sg76
(lp937
g69
(g70
g71
NtRp938
(dp939
g74
(dp940
g82
I4
ssg83
g934
sg76
(lp941
S'keep-alive'
p942
asbasbasbag69
(g85
g71
NtRp943
(dp944
g74
(dp945
sg83
g673
sg76
(lp946
g69
(g90
g71
NtRp947
(dp948
g74
(dp949
g94
g95
ssg83
g943
sg76
(lp950
S'http_cookie'
p951
asbag69
(g90
g71
NtRp952
(dp953
g74
(dp954
g101
g102
ssg83
g943
sg76
(lp955
S':'
asbag69
(g90
g71
NtRp956
(dp957
g74
(dp958
sg83
g943
sg76
(lp959
g69
(g70
g71
NtRp960
(dp961
g74
(dp962
g82
I4
ssg83
g956
sg76
(lp963
S'session_id_admin=127.0.0.1-f08163e7-63a0-4e97-8334-13b9dc892d78; session_id_projeto=127.0.0.1-0fe02c32-0739-4f06-a369-3bba6377da8b'
p964
asbasbasbag69
(g85
g71
NtRp965
(dp966
g74
(dp967
sg83
g673
sg76
(lp968
g69
(g90
g71
NtRp969
(dp970
g74
(dp971
g94
g95
ssg83
g965
sg76
(lp972
S'http_host'
p973
asbag69
(g90
g71
NtRp974
(dp975
g74
(dp976
g101
g102
ssg83
g965
sg76
(lp977
S':'
asbag69
(g90
g71
NtRp978
(dp979
g74
(dp980
sg83
g965
sg76
(lp981
g69
(g70
g71
NtRp982
(dp983
g74
(dp984
g82
I4
ssg83
g978
sg76
(lp985
S'127.0.0.1:8000'
p986
asbasbasbag69
(g85
g71
NtRp987
(dp988
g74
(dp989
sg83
g673
sg76
(lp990
g69
(g90
g71
NtRp991
(dp992
g74
(dp993
g94
g95
ssg83
g987
sg76
(lp994
S'http_referer'
p995
asbag69
(g90
g71
NtRp996
(dp997
g74
(dp998
g101
g102
ssg83
g987
sg76
(lp999
S':'
asbag69
(g90
g71
NtRp1000
(dp1001
g74
(dp1002
sg83
g987
sg76
(lp1003
g69
(g70
g71
NtRp1004
(dp1005
g74
(dp1006
g82
I4
ssg83
g1000
sg76
(lp1007
S'http://127.0.0.1:8000/show_cliente'
p1008
asbasbasbag69
(g85
g71
NtRp1009
(dp1010
g74
(dp1011
sg83
g673
sg76
(lp1012
g69
(g90
g71
NtRp1013
(dp1014
g74
(dp1015
g94
g95
ssg83
g1009
sg76
(lp1016
S'http_user_agent'
p1017
asbag69
(g90
g71
NtRp1018
(dp1019
g74
(dp1020
g101
g102
ssg83
g1009
sg76
(lp1021
S':'
asbag69
(g90
g71
NtRp1022
(dp1023
g74
(dp1024
sg83
g1009
sg76
(lp1025
g69
(g70
g71
NtRp1026
(dp1027
g74
(dp1028
g82
I4
ssg83
g1022
sg76
(lp1029
S'Mozilla/5.0 (X11; Linux x86_64) AppleWebKit/537.4 (KHTML, like Gecko) Ubuntu/12.10 Chromium/22.0.1229.94 Chrome/22.0.1229.94 Safari/537.4'
p1030
asbasbasbag69
(g85
g71
NtRp1031
(dp1032
g74
(dp1033
sg83
g673
sg76
(lp1034
g69
(g90
g71
NtRp1035
(dp1036
g74
(dp1037
g94
g95
ssg83
g1031
sg76
(lp1038
S'is_jython'
p1039
asbag69
(g90
g71
NtRp1040
(dp1041
g74
(dp1042
g101
g102
ssg83
g1031
sg76
(lp1043
S':'
asbag69
(g90
g71
NtRp1044
(dp1045
g74
(dp1046
sg83
g1031
sg76
(lp1047
g69
(g70
g71
NtRp1048
(dp1049
g74
(dp1050
g82
I4
ssg83
g1044
sg76
(lp1051
g112
asbasbasbag69
(g85
g71
NtRp1052
(dp1053
g74
(dp1054
sg83
g673
sg76
(lp1055
g69
(g90
g71
NtRp1056
(dp1057
g74
(dp1058
g94
g95
ssg83
g1052
sg76
(lp1059
S'is_pypy'
p1060
asbag69
(g90
g71
NtRp1061
(dp1062
g74
(dp1063
g101
g102
ssg83
g1052
sg76
(lp1064
S':'
asbag69
(g90
g71
NtRp1065
(dp1066
g74
(dp1067
sg83
g1052
sg76
(lp1068
g69
(g70
g71
NtRp1069
(dp1070
g74
(dp1071
g82
I4
ssg83
g1065
sg76
(lp1072
g112
asbasbasbag69
(g85
g71
NtRp1073
(dp1074
g74
(dp1075
sg83
g673
sg76
(lp1076
g69
(g90
g71
NtRp1077
(dp1078
g74
(dp1079
g94
g95
ssg83
g1073
sg76
(lp1080
S'local_hosts'
p1081
asbag69
(g90
g71
NtRp1082
(dp1083
g74
(dp1084
g101
g102
ssg83
g1073
sg76
(lp1085
S':'
asbag69
(g90
g71
NtRp1086
(dp1087
g74
(dp1088
sg83
g1073
sg76
(lp1089
g69
(g70
g71
NtRp1090
(dp1091
g74
(dp1092
g82
I4
ssg83
g1086
sg76
(lp1093
g69
(g78
g71
NtRp1094
(dp1095
g74
(dp1096
g82
I3
ssg83
Nsg76
(lp1097
g69
(g85
g71
NtRp1098
(dp1099
g74
(dp1100
sg83
g1094
sg76
(lp1101
g69
(g90
g71
NtRp1102
(dp1103
g74
(dp1104
sg83
g1098
sg76
(lp1105
g69
(g70
g71
NtRp1106
(dp1107
g74
(dp1108
g82
I3
ssg83
g1102
sg76
(lp1109
S'::1'
p1110
asbasbasbag69
(g85
g71
NtRp1111
(dp1112
g74
(dp1113
sg83
g1094
sg76
(lp1114
g69
(g90
g71
NtRp1115
(dp1116
g74
(dp1117
sg83
g1111
sg76
(lp1118
g69
(g70
g71
NtRp1119
(dp1120
g74
(dp1121
g82
I3
ssg83
g1115
sg76
(lp1122
S'::ffff:127.0.0.1'
p1123
asbasbasbag69
(g85
g71
NtRp1124
(dp1125
g74
(dp1126
sg83
g1094
sg76
(lp1127
g69
(g90
g71
NtRp1128
(dp1129
g74
(dp1130
sg83
g1124
sg76
(lp1131
g69
(g70
g71
NtRp1132
(dp1133
g74
(dp1134
g82
I3
ssg83
g1128
sg76
(lp1135
S'127.0.0.1'
p1136
asbasbasbag69
(g85
g71
NtRp1137
(dp1138
g74
(dp1139
sg83
g1094
sg76
(lp1140
g69
(g90
g71
NtRp1141
(dp1142
g74
(dp1143
sg83
g1137
sg76
(lp1144
g69
(g70
g71
NtRp1145
(dp1146
g74
(dp1147
g82
I3
ssg83
g1141
sg76
(lp1148
S'fernando-workstation'
p1149
asbasbasbasbasbasbasbag69
(g85
g71
NtRp1150
(dp1151
g74
(dp1152
sg83
g673
sg76
(lp1153
g69
(g90
g71
NtRp1154
(dp1155
g74
(dp1156
g94
g95
ssg83
g1150
sg76
(lp1157
S'path_info'
p1158
asbag69
(g90
g71
NtRp1159
(dp1160
g74
(dp1161
g101
g102
ssg83
g1150
sg76
(lp1162
S':'
asbag69
(g90
g71
NtRp1163
(dp1164
g74
(dp1165
sg83
g1150
sg76
(lp1166
g69
(g70
g71
NtRp1167
(dp1168
g74
(dp1169
g82
I4
ssg83
g1163
sg76
(lp1170
S'/show_cliente'
p1171
asbasbasbag69
(g85
g71
NtRp1172
(dp1173
g74
(dp1174
sg83
g673
sg76
(lp1175
g69
(g90
g71
NtRp1176
(dp1177
g74
(dp1178
g94
g95
ssg83
g1172
sg76
(lp1179
S'query_string'
p1180
asbag69
(g90
g71
NtRp1181
(dp1182
g74
(dp1183
g101
g102
ssg83
g1172
sg76
(lp1184
S':'
asbag69
(g90
g71
NtRp1185
(dp1186
g74
(dp1187
sg83
g1172
sg76
(lp1188
g69
(g70
g71
NtRp1189
(dp1190
g74
(dp1191
g82
I4
ssg83
g1185
sg76
(lp1192
S''
asbasbasbag69
(g85
g71
NtRp1193
(dp1194
g74
(dp1195
sg83
g673
sg76
(lp1196
g69
(g90
g71
NtRp1197
(dp1198
g74
(dp1199
g94
g95
ssg83
g1193
sg76
(lp1200
S'remote_addr'
p1201
asbag69
(g90
g71
NtRp1202
(dp1203
g74
(dp1204
g101
g102
ssg83
g1193
sg76
(lp1205
S':'
asbag69
(g90
g71
NtRp1206
(dp1207
g74
(dp1208
sg83
g1193
sg76
(lp1209
g69
(g70
g71
NtRp1210
(dp1211
g74
(dp1212
g82
I4
ssg83
g1206
sg76
(lp1213
g224
asbasbasbag69
(g85
g71
NtRp1214
(dp1215
g74
(dp1216
sg83
g673
sg76
(lp1217
g69
(g90
g71
NtRp1218
(dp1219
g74
(dp1220
g94
g95
ssg83
g1214
sg76
(lp1221
S'remote_port'
p1222
asbag69
(g90
g71
NtRp1223
(dp1224
g74
(dp1225
g101
g102
ssg83
g1214
sg76
(lp1226
S':'
asbag69
(g90
g71
NtRp1227
(dp1228
g74
(dp1229
sg83
g1214
sg76
(lp1230
g69
(g70
g71
NtRp1231
(dp1232
g74
(dp1233
g82
I4
ssg83
g1227
sg76
(lp1234
S'45316'
p1235
asbasbasbag69
(g85
g71
NtRp1236
(dp1237
g74
(dp1238
sg83
g673
sg76
(lp1239
g69
(g90
g71
NtRp1240
(dp1241
g74
(dp1242
g94
g95
ssg83
g1236
sg76
(lp1243
S'request_method'
p1244
asbag69
(g90
g71
NtRp1245
(dp1246
g74
(dp1247
g101
g102
ssg83
g1236
sg76
(lp1248
S':'
asbag69
(g90
g71
NtRp1249
(dp1250
g74
(dp1251
sg83
g1236
sg76
(lp1252
g69
(g70
g71
NtRp1253
(dp1254
g74
(dp1255
g82
I4
ssg83
g1249
sg76
(lp1256
S'GET'
p1257
asbasbasbag69
(g85
g71
NtRp1258
(dp1259
g74
(dp1260
sg83
g673
sg76
(lp1261
g69
(g90
g71
NtRp1262
(dp1263
g74
(dp1264
g94
g95
ssg83
g1258
sg76
(lp1265
S'request_uri'
p1266
asbag69
(g90
g71
NtRp1267
(dp1268
g74
(dp1269
g101
g102
ssg83
g1258
sg76
(lp1270
S':'
asbag69
(g90
g71
NtRp1271
(dp1272
g74
(dp1273
sg83
g1258
sg76
(lp1274
g69
(g70
g71
NtRp1275
(dp1276
g74
(dp1277
g82
I4
ssg83
g1271
sg76
(lp1278
S'/projeto/initial/show_cliente'
p1279
asbasbasbag69
(g85
g71
NtRp1280
(dp1281
g74
(dp1282
sg83
g673
sg76
(lp1283
g69
(g90
g71
NtRp1284
(dp1285
g74
(dp1286
g94
g95
ssg83
g1280
sg76
(lp1287
S'script_name'
p1288
asbag69
(g90
g71
NtRp1289
(dp1290
g74
(dp1291
g101
g102
ssg83
g1280
sg76
(lp1292
S':'
asbag69
(g90
g71
NtRp1293
(dp1294
g74
(dp1295
sg83
g1280
sg76
(lp1296
g69
(g70
g71
NtRp1297
(dp1298
g74
(dp1299
g82
I4
ssg83
g1293
sg76
(lp1300
S''
asbasbasbag69
(g85
g71
NtRp1301
(dp1302
g74
(dp1303
sg83
g673
sg76
(lp1304
g69
(g90
g71
NtRp1305
(dp1306
g74
(dp1307
g94
g95
ssg83
g1301
sg76
(lp1308
S'server_name'
p1309
asbag69
(g90
g71
NtRp1310
(dp1311
g74
(dp1312
g101
g102
ssg83
g1301
sg76
(lp1313
S':'
asbag69
(g90
g71
NtRp1314
(dp1315
g74
(dp1316
sg83
g1301
sg76
(lp1317
g69
(g70
g71
NtRp1318
(dp1319
g74
(dp1320
g82
I4
ssg83
g1314
sg76
(lp1321
S'fernando-workstation'
p1322
asbasbasbag69
(g85
g71
NtRp1323
(dp1324
g74
(dp1325
sg83
g673
sg76
(lp1326
g69
(g90
g71
NtRp1327
(dp1328
g74
(dp1329
g94
g95
ssg83
g1323
sg76
(lp1330
S'server_port'
p1331
asbag69
(g90
g71
NtRp1332
(dp1333
g74
(dp1334
g101
g102
ssg83
g1323
sg76
(lp1335
S':'
asbag69
(g90
g71
NtRp1336
(dp1337
g74
(dp1338
sg83
g1323
sg76
(lp1339
g69
(g70
g71
NtRp1340
(dp1341
g74
(dp1342
g82
I4
ssg83
g1336
sg76
(lp1343
S'8000'
p1344
asbasbasbag69
(g85
g71
NtRp1345
(dp1346
g74
(dp1347
sg83
g673
sg76
(lp1348
g69
(g90
g71
NtRp1349
(dp1350
g74
(dp1351
g94
g95
ssg83
g1345
sg76
(lp1352
S'server_protocol'
p1353
asbag69
(g90
g71
NtRp1354
(dp1355
g74
(dp1356
g101
g102
ssg83
g1345
sg76
(lp1357
S':'
asbag69
(g90
g71
NtRp1358
(dp1359
g74
(dp1360
sg83
g1345
sg76
(lp1361
g69
(g70
g71
NtRp1362
(dp1363
g74
(dp1364
g82
I4
ssg83
g1358
sg76
(lp1365
S'HTTP/1.1'
p1366
asbasbasbag69
(g85
g71
NtRp1367
(dp1368
g74
(dp1369
sg83
g673
sg76
(lp1370
g69
(g90
g71
NtRp1371
(dp1372
g74
(dp1373
g94
g95
ssg83
g1367
sg76
(lp1374
S'server_software'
p1375
asbag69
(g90
g71
NtRp1376
(dp1377
g74
(dp1378
g101
g102
ssg83
g1367
sg76
(lp1379
S':'
asbag69
(g90
g71
NtRp1380
(dp1381
g74
(dp1382
sg83
g1367
sg76
(lp1383
g69
(g70
g71
NtRp1384
(dp1385
g74
(dp1386
g82
I4
ssg83
g1380
sg76
(lp1387
S'Rocket 1.2.6'
p1388
asbasbasbag69
(g85
g71
NtRp1389
(dp1390
g74
(dp1391
sg83
g673
sg76
(lp1392
g69
(g90
g71
NtRp1393
(dp1394
g74
(dp1395
g94
g95
ssg83
g1389
sg76
(lp1396
S'web2py_original_uri'
p1397
asbag69
(g90
g71
NtRp1398
(dp1399
g74
(dp1400
g101
g102
ssg83
g1389
sg76
(lp1401
S':'
asbag69
(g90
g71
NtRp1402
(dp1403
g74
(dp1404
sg83
g1389
sg76
(lp1405
g69
(g70
g71
NtRp1406
(dp1407
g74
(dp1408
g82
I4
ssg83
g1402
sg76
(lp1409
g1171
asbasbasbag69
(g85
g71
NtRp1410
(dp1411
g74
(dp1412
sg83
g673
sg76
(lp1413
g69
(g90
g71
NtRp1414
(dp1415
g74
(dp1416
g94
g95
ssg83
g1410
sg76
(lp1417
S'web2py_path'
p1418
asbag69
(g90
g71
NtRp1419
(dp1420
g74
(dp1421
g101
g102
ssg83
g1410
sg76
(lp1422
S':'
asbag69
(g90
g71
NtRp1423
(dp1424
g74
(dp1425
sg83
g1410
sg76
(lp1426
g69
(g70
g71
NtRp1427
(dp1428
g74
(dp1429
g82
I4
ssg83
g1423
sg76
(lp1430
g720
asbasbasbag69
(g85
g71
NtRp1431
(dp1432
g74
(dp1433
sg83
g673
sg76
(lp1434
g69
(g90
g71
NtRp1435
(dp1436
g74
(dp1437
g94
g95
ssg83
g1431
sg76
(lp1438
S'web2py_version'
p1439
asbag69
(g90
g71
NtRp1440
(dp1441
g74
(dp1442
g101
g102
ssg83
g1431
sg76
(lp1443
S':'
asbag69
(g90
g71
NtRp1444
(dp1445
g74
(dp1446
sg83
g1431
sg76
(lp1447
g69
(g70
g71
NtRp1448
(dp1449
g74
(dp1450
g82
I4
ssg83
g1444
sg76
(lp1451
g69
(g78
g71
NtRp1452
(dp1453
g74
(dp1454
g82
I3
ssg83
Nsg76
(lp1455
g69
(g85
g71
NtRp1456
(dp1457
g74
(dp1458
sg83
g1452
sg76
(lp1459
g69
(g90
g71
NtRp1460
(dp1461
g74
(dp1462
sg83
g1456
sg76
(lp1463
g69
(g70
g71
NtRp1464
(dp1465
g74
(dp1466
g82
I3
ssg83
g1460
sg76
(lp1467
S'2'
asbasbasbag69
(g85
g71
NtRp1468
(dp1469
g74
(dp1470
sg83
g1452
sg76
(lp1471
g69
(g90
g71
NtRp1472
(dp1473
g74
(dp1474
sg83
g1468
sg76
(lp1475
g69
(g70
g71
NtRp1476
(dp1477
g74
(dp1478
g82
I3
ssg83
g1472
sg76
(lp1479
S'3'
asbasbasbag69
(g85
g71
NtRp1480
(dp1481
g74
(dp1482
sg83
g1452
sg76
(lp1483
g69
(g90
g71
NtRp1484
(dp1485
g74
(dp1486
sg83
g1480
sg76
(lp1487
g69
(g70
g71
NtRp1488
(dp1489
g74
(dp1490
g82
I3
ssg83
g1484
sg76
(lp1491
S'2'
asbasbasbag69
(g85
g71
NtRp1492
(dp1493
g74
(dp1494
sg83
g1452
sg76
(lp1495
g69
(g90
g71
NtRp1496
(dp1497
g74
(dp1498
sg83
g1492
sg76
(lp1499
g69
(g70
g71
NtRp1500
(dp1501
g74
(dp1502
g82
I3
ssg83
g1496
sg76
(lp1503
S'datetime.datetime(2012, 12, 17, 15, 3, 30)'
p1504
asbasbasbag69
(g85
g71
NtRp1505
(dp1506
g74
(dp1507
sg83
g1452
sg76
(lp1508
g69
(g90
g71
NtRp1509
(dp1510
g74
(dp1511
sg83
g1505
sg76
(lp1512
g69
(g70
g71
NtRp1513
(dp1514
g74
(dp1515
g82
I3
ssg83
g1509
sg76
(lp1516
S'stable'
p1517
asbasbasbasbasbasbasbag69
(g85
g71
NtRp1518
(dp1519
g74
(dp1520
sg83
g673
sg76
(lp1521
g69
(g90
g71
NtRp1522
(dp1523
g74
(dp1524
g94
g95
ssg83
g1518
sg76
(lp1525
S'wsgi_errors'
p1526
asbag69
(g90
g71
NtRp1527
(dp1528
g74
(dp1529
g101
g102
ssg83
g1518
sg76
(lp1530
S':'
asbag69
(g90
g71
NtRp1531
(dp1532
g74
(dp1533
sg83
g1518
sg76
(lp1534
g69
(g70
g71
NtRp1535
(dp1536
g74
(dp1537
g82
I4
ssg83
g1531
sg76
(lp1538
S"<open file '<stderr>', mode 'w' at 0x7f7c5e970270>"
p1539
asbasbasbag69
(g85
g71
NtRp1540
(dp1541
g74
(dp1542
sg83
g673
sg76
(lp1543
g69
(g90
g71
NtRp1544
(dp1545
g74
(dp1546
g94
g95
ssg83
g1540
sg76
(lp1547
S'wsgi_file_wrapper'
p1548
asbag69
(g90
g71
NtRp1549
(dp1550
g74
(dp1551
g101
g102
ssg83
g1540
sg76
(lp1552
S':'
asbag69
(g90
g71
NtRp1553
(dp1554
g74
(dp1555
sg83
g1540
sg76
(lp1556
g69
(g70
g71
NtRp1557
(dp1558
g74
(dp1559
g82
I4
ssg83
g1553
sg76
(lp1560
S'<class wsgiref.util.FileWrapper at 0x2d82598>'
p1561
asbasbasbag69
(g85
g71
NtRp1562
(dp1563
g74
(dp1564
sg83
g673
sg76
(lp1565
g69
(g90
g71
NtRp1566
(dp1567
g74
(dp1568
g94
g95
ssg83
g1562
sg76
(lp1569
S'wsgi_input'
p1570
asbag69
(g90
g71
NtRp1571
(dp1572
g74
(dp1573
g101
g102
ssg83
g1562
sg76
(lp1574
S':'
asbag69
(g90
g71
NtRp1575
(dp1576
g74
(dp1577
sg83
g1562
sg76
(lp1578
g69
(g70
g71
NtRp1579
(dp1580
g74
(dp1581
g82
I4
ssg83
g1575
sg76
(lp1582
S'<socket._fileobject object at 0x7f7c502709d0>'
p1583
asbasbasbag69
(g85
g71
NtRp1584
(dp1585
g74
(dp1586
sg83
g673
sg76
(lp1587
g69
(g90
g71
NtRp1588
(dp1589
g74
(dp1590
g94
g95
ssg83
g1584
sg76
(lp1591
S'wsgi_multiprocess'
p1592
asbag69
(g90
g71
NtRp1593
(dp1594
g74
(dp1595
g101
g102
ssg83
g1584
sg76
(lp1596
S':'
asbag69
(g90
g71
NtRp1597
(dp1598
g74
(dp1599
sg83
g1584
sg76
(lp1600
g69
(g70
g71
NtRp1601
(dp1602
g74
(dp1603
g82
I4
ssg83
g1597
sg76
(lp1604
g112
asbasbasbag69
(g85
g71
NtRp1605
(dp1606
g74
(dp1607
sg83
g673
sg76
(lp1608
g69
(g90
g71
NtRp1609
(dp1610
g74
(dp1611
g94
g95
ssg83
g1605
sg76
(lp1612
S'wsgi_multithread'
p1613
asbag69
(g90
g71
NtRp1614
(dp1615
g74
(dp1616
g101
g102
ssg83
g1605
sg76
(lp1617
S':'
asbag69
(g90
g71
NtRp1618
(dp1619
g74
(dp1620
sg83
g1605
sg76
(lp1621
g69
(g70
g71
NtRp1622
(dp1623
g74
(dp1624
g82
I4
ssg83
g1618
sg76
(lp1625
S'True'
p1626
asbasbasbag69
(g85
g71
NtRp1627
(dp1628
g74
(dp1629
sg83
g673
sg76
(lp1630
g69
(g90
g71
NtRp1631
(dp1632
g74
(dp1633
g94
g95
ssg83
g1627
sg76
(lp1634
S'wsgi_run_once'
p1635
asbag69
(g90
g71
NtRp1636
(dp1637
g74
(dp1638
g101
g102
ssg83
g1627
sg76
(lp1639
S':'
asbag69
(g90
g71
NtRp1640
(dp1641
g74
(dp1642
sg83
g1627
sg76
(lp1643
g69
(g70
g71
NtRp1644
(dp1645
g74
(dp1646
g82
I4
ssg83
g1640
sg76
(lp1647
g112
asbasbasbag69
(g85
g71
NtRp1648
(dp1649
g74
(dp1650
sg83
g673
sg76
(lp1651
g69
(g90
g71
NtRp1652
(dp1653
g74
(dp1654
g94
g95
ssg83
g1648
sg76
(lp1655
S'wsgi_url_scheme'
p1656
asbag69
(g90
g71
NtRp1657
(dp1658
g74
(dp1659
g101
g102
ssg83
g1648
sg76
(lp1660
S':'
asbag69
(g90
g71
NtRp1661
(dp1662
g74
(dp1663
sg83
g1648
sg76
(lp1664
g69
(g70
g71
NtRp1665
(dp1666
g74
(dp1667
g82
I4
ssg83
g1661
sg76
(lp1668
S'http'
p1669
asbasbasbag69
(g85
g71
NtRp1670
(dp1671
g74
(dp1672
sg83
g673
sg76
(lp1673
g69
(g90
g71
NtRp1674
(dp1675
g74
(dp1676
g94
g95
ssg83
g1670
sg76
(lp1677
S'wsgi_version'
p1678
asbag69
(g90
g71
NtRp1679
(dp1680
g74
(dp1681
g101
g102
ssg83
g1670
sg76
(lp1682
S':'
asbag69
(g90
g71
NtRp1683
(dp1684
g74
(dp1685
sg83
g1670
sg76
(lp1686
g69
(g70
g71
NtRp1687
(dp1688
g74
(dp1689
g82
I4
ssg83
g1683
sg76
(lp1690
g69
(g78
g71
NtRp1691
(dp1692
g74
(dp1693
g82
I3
ssg83
Nsg76
(lp1694
g69
(g85
g71
NtRp1695
(dp1696
g74
(dp1697
sg83
g1691
sg76
(lp1698
g69
(g90
g71
NtRp1699
(dp1700
g74
(dp1701
sg83
g1695
sg76
(lp1702
g69
(g70
g71
NtRp1703
(dp1704
g74
(dp1705
g82
I3
ssg83
g1699
sg76
(lp1706
S'1'
asbasbasbag69
(g85
g71
NtRp1707
(dp1708
g74
(dp1709
sg83
g1691
sg76
(lp1710
g69
(g90
g71
NtRp1711
(dp1712
g74
(dp1713
sg83
g1707
sg76
(lp1714
g69
(g70
g71
NtRp1715
(dp1716
g74
(dp1717
g82
I3
ssg83
g1711
sg76
(lp1718
S'0'
asbasbasbasbasbasbasbasbasbasbasbag69
(g85
g71
NtRp1719
(dp1720
g74
(dp1721
sg83
g79
sg76
(lp1722
g69
(g90
g71
NtRp1723
(dp1724
g74
(dp1725
g94
g95
ssg83
g1719
sg76
(lp1726
S'extension'
p1727
asbag69
(g90
g71
NtRp1728
(dp1729
g74
(dp1730
g101
g102
ssg83
g1719
sg76
(lp1731
S':'
asbag69
(g90
g71
NtRp1732
(dp1733
g74
(dp1734
sg83
g1719
sg76
(lp1735
g69
(g70
g71
NtRp1736
(dp1737
g74
(dp1738
g82
I5
ssg83
g1732
sg76
(lp1739
S'html'
p1740
asbasbasbag69
(g85
g71
NtRp1741
(dp1742
g74
(dp1743
sg83
g79
sg76
(lp1744
g69
(g90
g71
NtRp1745
(dp1746
g74
(dp1747
g94
g95
ssg83
g1741
sg76
(lp1748
S'folder'
p1749
asbag69
(g90
g71
NtRp1750
(dp1751
g74
(dp1752
g101
g102
ssg83
g1741
sg76
(lp1753
S':'
asbag69
(g90
g71
NtRp1754
(dp1755
g74
(dp1756
sg83
g1741
sg76
(lp1757
g69
(g70
g71
NtRp1758
(dp1759
g74
(dp1760
g82
I5
ssg83
g1754
sg76
(lp1761
S'/var/www/conferencia/applications/projeto/'
p1762
asbasbasbag69
(g85
g71
NtRp1763
(dp1764
g74
(dp1765
sg83
g79
sg76
(lp1766
g69
(g90
g71
NtRp1767
(dp1768
g74
(dp1769
g94
g95
ssg83
g1763
sg76
(lp1770
S'function'
p1771
asbag69
(g90
g71
NtRp1772
(dp1773
g74
(dp1774
g101
g102
ssg83
g1763
sg76
(lp1775
S':'
asbag69
(g90
g71
NtRp1776
(dp1777
g74
(dp1778
sg83
g1763
sg76
(lp1779
g69
(g70
g71
NtRp1780
(dp1781
g74
(dp1782
g82
I5
ssg83
g1776
sg76
(lp1783
S'show_cliente'
p1784
asbasbasbag69
(g85
g71
NtRp1785
(dp1786
g74
(dp1787
sg83
g79
sg76
(lp1788
g69
(g90
g71
NtRp1789
(dp1790
g74
(dp1791
g94
g95
ssg83
g1785
sg76
(lp1792
S'get_vars'
p1793
asbag69
(g90
g71
NtRp1794
(dp1795
g74
(dp1796
g101
g102
ssg83
g1785
sg76
(lp1797
S':'
asbag69
(g90
g71
NtRp1798
(dp1799
g74
(dp1800
sg83
g1785
sg76
(lp1801
g69
(g70
g71
NtRp1802
(dp1803
g74
(dp1804
g82
I5
ssg83
g1798
sg76
(lp1805
g69
(g78
g71
NtRp1806
(dp1807
g74
(dp1808
g82
I4
ssg83
Nsg76
(lp1809
sbasbasbasbag69
(g85
g71
NtRp1810
(dp1811
g74
(dp1812
sg83
g79
sg76
(lp1813
g69
(g90
g71
NtRp1814
(dp1815
g74
(dp1816
g94
g95
ssg83
g1810
sg76
(lp1817
S'global_settings'
p1818
asbag69
(g90
g71
NtRp1819
(dp1820
g74
(dp1821
g101
g102
ssg83
g1810
sg76
(lp1822
S':'
asbag69
(g90
g71
NtRp1823
(dp1824
g74
(dp1825
sg83
g1810
sg76
(lp1826
g69
(g70
g71
NtRp1827
(dp1828
g74
(dp1829
g82
I5
ssg83
g1823
sg76
(lp1830
g69
(g78
g71
NtRp1831
(dp1832
g74
(dp1833
g82
I4
ssg83
Nsg76
(lp1834
g69
(g85
g71
NtRp1835
(dp1836
g74
(dp1837
sg83
g1831
sg76
(lp1838
g69
(g90
g71
NtRp1839
(dp1840
g74
(dp1841
g94
g95
ssg83
g1835
sg76
(lp1842
g685
asbag69
(g90
g71
NtRp1843
(dp1844
g74
(dp1845
g101
g102
ssg83
g1835
sg76
(lp1846
S':'
asbag69
(g90
g71
NtRp1847
(dp1848
g74
(dp1849
sg83
g1835
sg76
(lp1850
g69
(g70
g71
NtRp1851
(dp1852
g74
(dp1853
g82
I4
ssg83
g1847
sg76
(lp1854
S"set(['/var/www/conferencia/applications/projeto/'])"
p1855
asbasbasbag69
(g85
g71
NtRp1856
(dp1857
g74
(dp1858
sg83
g1831
sg76
(lp1859
g69
(g90
g71
NtRp1860
(dp1861
g74
(dp1862
g94
g95
ssg83
g1856
sg76
(lp1863
g707
asbag69
(g90
g71
NtRp1864
(dp1865
g74
(dp1866
g101
g102
ssg83
g1856
sg76
(lp1867
S':'
asbag69
(g90
g71
NtRp1868
(dp1869
g74
(dp1870
sg83
g1856
sg76
(lp1871
g69
(g70
g71
NtRp1872
(dp1873
g74
(dp1874
g82
I4
ssg83
g1868
sg76
(lp1875
g720
asbasbasbag69
(g85
g71
NtRp1876
(dp1877
g74
(dp1878
sg83
g1831
sg76
(lp1879
g69
(g90
g71
NtRp1880
(dp1881
g74
(dp1882
g94
g95
ssg83
g1876
sg76
(lp1883
g729
asbag69
(g90
g71
NtRp1884
(dp1885
g74
(dp1886
g101
g102
ssg83
g1876
sg76
(lp1887
S':'
asbag69
(g90
g71
NtRp1888
(dp1889
g74
(dp1890
sg83
g1876
sg76
(lp1891
g69
(g70
g71
NtRp1892
(dp1893
g74
(dp1894
g82
I4
ssg83
g1888
sg76
(lp1895
g69
(g78
g71
NtRp1896
(dp1897
g74
(dp1898
g82
I3
ssg83
Nsg76
(lp1899
sbasbasbasbag69
(g85
g71
NtRp1900
(dp1901
g74
(dp1902
sg83
g1831
sg76
(lp1903
g69
(g90
g71
NtRp1904
(dp1905
g74
(dp1906
g94
g95
ssg83
g1900
sg76
(lp1907
g754
asbag69
(g90
g71
NtRp1908
(dp1909
g74
(dp1910
g101
g102
ssg83
g1900
sg76
(lp1911
S':'
asbag69
(g90
g71
NtRp1912
(dp1913
g74
(dp1914
sg83
g1900
sg76
(lp1915
g69
(g70
g71
NtRp1916
(dp1917
g74
(dp1918
g82
I4
ssg83
g1912
sg76
(lp1919
S"<Values at 0x2e0b248: {'verbose': False, 'ip': '127.0.0.1', 'with_scheduler': False, 'ips': [], 'shutdown_timeout': 5, 'taskbar': False, 'port': 8000, 'maxthreads': None, 'softcron': False, 'server_name': 'fernando-workstation', 'bpython': False, 'nogui': False, 'pid_filename': 'httpserver.pid', 'extcron': False, 'runcron': False, 'run_system_tests': False, 'test': None, 'folder': '/var/www/conferencia', 'config': '', 'minthreads': None, 'winservice': '', 'shell': None, 'run': '', 'log_filename': 'httpserver.log', 'debuglevel': 30, 'args': [''], 'socket_timeout': 5, 'ssl_ca_certificate': None, 'scheduler': None, 'profiler_filename': None, 'ssl_private_key': '', 'scheduler_groups': None, 'password': '123456', 'request_queue_size': 5, 'ssl_certificate': '', 'cronjob': False, 'numthreads': None, 'quiet': False, 'interfaces': None, 'import_models': False, 'timeout': 10, 'plain': False, 'nobanner': False}>"
p1920
asbasbasbag69
(g85
g71
NtRp1921
(dp1922
g74
(dp1923
sg83
g1831
sg76
(lp1924
g69
(g90
g71
NtRp1925
(dp1926
g74
(dp1927
g94
g95
ssg83
g1921
sg76
(lp1928
g776
asbag69
(g90
g71
NtRp1929
(dp1930
g74
(dp1931
g101
g102
ssg83
g1921
sg76
(lp1932
S':'
asbag69
(g90
g71
NtRp1933
(dp1934
g74
(dp1935
sg83
g1921
sg76
(lp1936
g69
(g70
g71
NtRp1937
(dp1938
g74
(dp1939
g82
I4
ssg83
g1933
sg76
(lp1940
S'set([])'
p1941
asbasbasbag69
(g85
g71
NtRp1942
(dp1943
g74
(dp1944
sg83
g1831
sg76
(lp1945
g69
(g90
g71
NtRp1946
(dp1947
g74
(dp1948
g94
g95
ssg83
g1942
sg76
(lp1949
g798
asbag69
(g90
g71
NtRp1950
(dp1951
g74
(dp1952
g101
g102
ssg83
g1942
sg76
(lp1953
S':'
asbag69
(g90
g71
NtRp1954
(dp1955
g74
(dp1956
sg83
g1942
sg76
(lp1957
g69
(g70
g71
NtRp1958
(dp1959
g74
(dp1960
g82
I4
ssg83
g1954
sg76
(lp1961
g112
asbasbasbag69
(g85
g71
NtRp1962
(dp1963
g74
(dp1964
sg83
g1831
sg76
(lp1965
g69
(g90
g71
NtRp1966
(dp1967
g74
(dp1968
g94
g95
ssg83
g1962
sg76
(lp1969
g819
asbag69
(g90
g71
NtRp1970
(dp1971
g74
(dp1972
g101
g102
ssg83
g1962
sg76
(lp1973
S':'
asbag69
(g90
g71
NtRp1974
(dp1975
g74
(dp1976
sg83
g1962
sg76
(lp1977
g69
(g70
g71
NtRp1978
(dp1979
g74
(dp1980
g82
I4
ssg83
g1974
sg76
(lp1981
g832
asbasbasbag69
(g85
g71
NtRp1982
(dp1983
g74
(dp1984
sg83
g1831
sg76
(lp1985
g69
(g90
g71
NtRp1986
(dp1987
g74
(dp1988
g94
g95
ssg83
g1982
sg76
(lp1989
g1039
asbag69
(g90
g71
NtRp1990
(dp1991
g74
(dp1992
g101
g102
ssg83
g1982
sg76
(lp1993
S':'
asbag69
(g90
g71
NtRp1994
(dp1995
g74
(dp1996
sg83
g1982
sg76
(lp1997
g69
(g70
g71
NtRp1998
(dp1999
g74
(dp2000
g82
I4
ssg83
g1994
sg76
(lp2001
g112
asbasbasbag69
(g85
g71
NtRp2002
(dp2003
g74
(dp2004
sg83
g1831
sg76
(lp2005
g69
(g90
g71
NtRp2006
(dp2007
g74
(dp2008
g94
g95
ssg83
g2002
sg76
(lp2009
g1060
asbag69
(g90
g71
NtRp2010
(dp2011
g74
(dp2012
g101
g102
ssg83
g2002
sg76
(lp2013
S':'
asbag69
(g90
g71
NtRp2014
(dp2015
g74
(dp2016
sg83
g2002
sg76
(lp2017
g69
(g70
g71
NtRp2018
(dp2019
g74
(dp2020
g82
I4
ssg83
g2014
sg76
(lp2021
g112
asbasbasbag69
(g85
g71
NtRp2022
(dp2023
g74
(dp2024
sg83
g1831
sg76
(lp2025
g69
(g90
g71
NtRp2026
(dp2027
g74
(dp2028
g94
g95
ssg83
g2022
sg76
(lp2029
g1081
asbag69
(g90
g71
NtRp2030
(dp2031
g74
(dp2032
g101
g102
ssg83
g2022
sg76
(lp2033
S':'
asbag69
(g90
g71
NtRp2034
(dp2035
g74
(dp2036
sg83
g2022
sg76
(lp2037
g69
(g70
g71
NtRp2038
(dp2039
g74
(dp2040
g82
I4
ssg83
g2034
sg76
(lp2041
g69
(g78
g71
NtRp2042
(dp2043
g74
(dp2044
g82
I3
ssg83
Nsg76
(lp2045
g69
(g85
g71
NtRp2046
(dp2047
g74
(dp2048
sg83
g2042
sg76
(lp2049
g69
(g90
g71
NtRp2050
(dp2051
g74
(dp2052
sg83
g2046
sg76
(lp2053
g69
(g70
g71
NtRp2054
(dp2055
g74
(dp2056
g82
I3
ssg83
g2050
sg76
(lp2057
g1110
asbasbasbag69
(g85
g71
NtRp2058
(dp2059
g74
(dp2060
sg83
g2042
sg76
(lp2061
g69
(g90
g71
NtRp2062
(dp2063
g74
(dp2064
sg83
g2058
sg76
(lp2065
g69
(g70
g71
NtRp2066
(dp2067
g74
(dp2068
g82
I3
ssg83
g2062
sg76
(lp2069
g1123
asbasbasbag69
(g85
g71
NtRp2070
(dp2071
g74
(dp2072
sg83
g2042
sg76
(lp2073
g69
(g90
g71
NtRp2074
(dp2075
g74
(dp2076
sg83
g2070
sg76
(lp2077
g69
(g70
g71
NtRp2078
(dp2079
g74
(dp2080
g82
I3
ssg83
g2074
sg76
(lp2081
g1136
asbasbasbag69
(g85
g71
NtRp2082
(dp2083
g74
(dp2084
sg83
g2042
sg76
(lp2085
g69
(g90
g71
NtRp2086
(dp2087
g74
(dp2088
sg83
g2082
sg76
(lp2089
g69
(g70
g71
NtRp2090
(dp2091
g74
(dp2092
g82
I3
ssg83
g2086
sg76
(lp2093
g1149
asbasbasbasbasbasbasbag69
(g85
g71
NtRp2094
(dp2095
g74
(dp2096
sg83
g1831
sg76
(lp2097
g69
(g90
g71
NtRp2098
(dp2099
g74
(dp2100
g94
g95
ssg83
g2094
sg76
(lp2101
g1439
asbag69
(g90
g71
NtRp2102
(dp2103
g74
(dp2104
g101
g102
ssg83
g2094
sg76
(lp2105
S':'
asbag69
(g90
g71
NtRp2106
(dp2107
g74
(dp2108
sg83
g2094
sg76
(lp2109
g69
(g70
g71
NtRp2110
(dp2111
g74
(dp2112
g82
I4
ssg83
g2106
sg76
(lp2113
g69
(g78
g71
NtRp2114
(dp2115
g74
(dp2116
g82
I3
ssg83
Nsg76
(lp2117
g69
(g85
g71
NtRp2118
(dp2119
g74
(dp2120
sg83
g2114
sg76
(lp2121
g69
(g90
g71
NtRp2122
(dp2123
g74
(dp2124
sg83
g2118
sg76
(lp2125
g69
(g70
g71
NtRp2126
(dp2127
g74
(dp2128
g82
I3
ssg83
g2122
sg76
(lp2129
S'2'
asbasbasbag69
(g85
g71
NtRp2130
(dp2131
g74
(dp2132
sg83
g2114
sg76
(lp2133
g69
(g90
g71
NtRp2134
(dp2135
g74
(dp2136
sg83
g2130
sg76
(lp2137
g69
(g70
g71
NtRp2138
(dp2139
g74
(dp2140
g82
I3
ssg83
g2134
sg76
(lp2141
S'3'
asbasbasbag69
(g85
g71
NtRp2142
(dp2143
g74
(dp2144
sg83
g2114
sg76
(lp2145
g69
(g90
g71
NtRp2146
(dp2147
g74
(dp2148
sg83
g2142
sg76
(lp2149
g69
(g70
g71
NtRp2150
(dp2151
g74
(dp2152
g82
I3
ssg83
g2146
sg76
(lp2153
S'2'
asbasbasbag69
(g85
g71
NtRp2154
(dp2155
g74
(dp2156
sg83
g2114
sg76
(lp2157
g69
(g90
g71
NtRp2158
(dp2159
g74
(dp2160
sg83
g2154
sg76
(lp2161
g69
(g70
g71
NtRp2162
(dp2163
g74
(dp2164
g82
I3
ssg83
g2158
sg76
(lp2165
S'datetime.datetime(2012, 12, 17, 15, 3, 30)'
p2166
asbasbasbag69
(g85
g71
NtRp2167
(dp2168
g74
(dp2169
sg83
g2114
sg76
(lp2170
g69
(g90
g71
NtRp2171
(dp2172
g74
(dp2173
sg83
g2167
sg76
(lp2174
g69
(g70
g71
NtRp2175
(dp2176
g74
(dp2177
g82
I3
ssg83
g2171
sg76
(lp2178
g1517
asbasbasbasbasbasbasbasbasbasbasbag69
(g85
g71
NtRp2179
(dp2180
g74
(dp2181
sg83
g79
sg76
(lp2182
g69
(g90
g71
NtRp2183
(dp2184
g74
(dp2185
g94
g95
ssg83
g2179
sg76
(lp2186
S'is_https'
p2187
asbag69
(g90
g71
NtRp2188
(dp2189
g74
(dp2190
g101
g102
ssg83
g2179
sg76
(lp2191
S':'
asbag69
(g90
g71
NtRp2192
(dp2193
g74
(dp2194
sg83
g2179
sg76
(lp2195
g69
(g70
g71
NtRp2196
(dp2197
g74
(dp2198
g82
I5
ssg83
g2192
sg76
(lp2199
g112
asbasbasbag69
(g85
g71
NtRp2200
(dp2201
g74
(dp2202
sg83
g79
sg76
(lp2203
g69
(g90
g71
NtRp2204
(dp2205
g74
(dp2206
g94
g95
ssg83
g2200
sg76
(lp2207
S'is_local'
p2208
asbag69
(g90
g71
NtRp2209
(dp2210
g74
(dp2211
g101
g102
ssg83
g2200
sg76
(lp2212
S':'
asbag69
(g90
g71
NtRp2213
(dp2214
g74
(dp2215
sg83
g2200
sg76
(lp2216
g69
(g70
g71
NtRp2217
(dp2218
g74
(dp2219
g82
I5
ssg83
g2213
sg76
(lp2220
g1626
asbasbasbag69
(g85
g71
NtRp2221
(dp2222
g74
(dp2223
sg83
g79
sg76
(lp2224
g69
(g90
g71
NtRp2225
(dp2226
g74
(dp2227
g94
g95
ssg83
g2221
sg76
(lp2228
S'is_restful'
p2229
asbag69
(g90
g71
NtRp2230
(dp2231
g74
(dp2232
g101
g102
ssg83
g2221
sg76
(lp2233
S':'
asbag69
(g90
g71
NtRp2234
(dp2235
g74
(dp2236
sg83
g2221
sg76
(lp2237
g69
(g70
g71
NtRp2238
(dp2239
g74
(dp2240
g82
I5
ssg83
g2234
sg76
(lp2241
g112
asbasbasbag69
(g85
g71
NtRp2242
(dp2243
g74
(dp2244
sg83
g79
sg76
(lp2245
g69
(g90
g71
NtRp2246
(dp2247
g74
(dp2248
g94
g95
ssg83
g2242
sg76
(lp2249
S'now'
p2250
asbag69
(g90
g71
NtRp2251
(dp2252
g74
(dp2253
g101
g102
ssg83
g2242
sg76
(lp2254
S':'
asbag69
(g90
g71
NtRp2255
(dp2256
g74
(dp2257
sg83
g2242
sg76
(lp2258
g69
(g70
g71
NtRp2259
(dp2260
g74
(dp2261
g82
I5
ssg83
g2255
sg76
(lp2262
S'datetime.datetime(2013, 4, 2, 18, 26, 24, 895885)'
p2263
asbasbasbag69
(g85
g71
NtRp2264
(dp2265
g74
(dp2266
sg83
g79
sg76
(lp2267
g69
(g90
g71
NtRp2268
(dp2269
g74
(dp2270
g94
g95
ssg83
g2264
sg76
(lp2271
S'post_vars'
p2272
asbag69
(g90
g71
NtRp2273
(dp2274
g74
(dp2275
g101
g102
ssg83
g2264
sg76
(lp2276
S':'
asbag69
(g90
g71
NtRp2277
(dp2278
g74
(dp2279
sg83
g2264
sg76
(lp2280
g69
(g70
g71
NtRp2281
(dp2282
g74
(dp2283
g82
I5
ssg83
g2277
sg76
(lp2284
g69
(g78
g71
NtRp2285
(dp2286
g74
(dp2287
g82
I4
ssg83
Nsg76
(lp2288
sbasbasbasbag69
(g85
g71
NtRp2289
(dp2290
g74
(dp2291
sg83
g79
sg76
(lp2292
g69
(g90
g71
NtRp2293
(dp2294
g74
(dp2295
g94
g95
ssg83
g2289
sg76
(lp2296
S'url'
p2297
asbag69
(g90
g71
NtRp2298
(dp2299
g74
(dp2300
g101
g102
ssg83
g2289
sg76
(lp2301
S':'
asbag69
(g90
g71
NtRp2302
(dp2303
g74
(dp2304
sg83
g2289
sg76
(lp2305
g69
(g70
g71
NtRp2306
(dp2307
g74
(dp2308
g82
I5
ssg83
g2302
sg76
(lp2309
g1171
asbasbasbag69
(g85
g71
NtRp2310
(dp2311
g74
(dp2312
sg83
g79
sg76
(lp2313
g69
(g90
g71
NtRp2314
(dp2315
g74
(dp2316
g94
g95
ssg83
g2310
sg76
(lp2317
S'utcnow'
p2318
asbag69
(g90
g71
NtRp2319
(dp2320
g74
(dp2321
g101
g102
ssg83
g2310
sg76
(lp2322
S':'
asbag69
(g90
g71
NtRp2323
(dp2324
g74
(dp2325
sg83
g2310
sg76
(lp2326
g69
(g70
g71
NtRp2327
(dp2328
g74
(dp2329
g82
I5
ssg83
g2323
sg76
(lp2330
S'datetime.datetime(2013, 4, 2, 21, 26, 24, 895949)'
p2331
asbasbasbag69
(g85
g71
NtRp2332
(dp2333
g74
(dp2334
sg83
g79
sg76
(lp2335
g69
(g90
g71
NtRp2336
(dp2337
g74
(dp2338
g94
g95
ssg83
g2332
sg76
(lp2339
S'uuid'
p2340
asbag69
(g90
g71
NtRp2341
(dp2342
g74
(dp2343
g101
g102
ssg83
g2332
sg76
(lp2344
S':'
asbag69
(g90
g71
NtRp2345
(dp2346
g74
(dp2347
sg83
g2332
sg76
(lp2348
g69
(g70
g71
NtRp2349
(dp2350
g74
(dp2351
g82
I5
ssg83
g2345
sg76
(lp2352
S'projeto/127.0.0.1.2013-04-02.18-26-24.210947ec-40a8-48ff-9fac-4bd1dfbcaac7'
p2353
asbasbasbag69
(g85
g71
NtRp2354
(dp2355
g74
(dp2356
sg83
g79
sg76
(lp2357
g69
(g90
g71
NtRp2358
(dp2359
g74
(dp2360
g94
g95
ssg83
g2354
sg76
(lp2361
S'vars'
p2362
asbag69
(g90
g71
NtRp2363
(dp2364
g74
(dp2365
g101
g102
ssg83
g2354
sg76
(lp2366
S':'
asbag69
(g90
g71
NtRp2367
(dp2368
g74
(dp2369
sg83
g2354
sg76
(lp2370
g69
(g70
g71
NtRp2371
(dp2372
g74
(dp2373
g82
I5
ssg83
g2367
sg76
(lp2374
g69
(g78
g71
NtRp2375
(dp2376
g74
(dp2377
g82
I4
ssg83
Nsg76
(lp2378
sbasbasbasbag69
(g85
g71
NtRp2379
(dp2380
g74
(dp2381
sg83
g79
sg76
(lp2382
g69
(g90
g71
NtRp2383
(dp2384
g74
(dp2385
g94
g95
ssg83
g2379
sg76
(lp2386
S'wsgi'
p2387
asbag69
(g90
g71
NtRp2388
(dp2389
g74
(dp2390
g101
g102
ssg83
g2379
sg76
(lp2391
S':'
asbag69
(g90
g71
NtRp2392
(dp2393
g74
(dp2394
sg83
g2379
sg76
(lp2395
g69
(g70
g71
NtRp2396
(dp2397
g74
(dp2398
g82
I5
ssg83
g2392
sg76
(lp2399
g69
(g78
g71
NtRp2400
(dp2401
g74
(dp2402
g82
I4
ssg83
Nsg76
(lp2403
g69
(g85
g71
NtRp2404
(dp2405
g74
(dp2406
sg83
g2400
sg76
(lp2407
g69
(g90
g71
NtRp2408
(dp2409
g74
(dp2410
g94
g95
ssg83
g2404
sg76
(lp2411
S'environ'
p2412
asbag69
(g90
g71
NtRp2413
(dp2414
g74
(dp2415
g101
g102
ssg83
g2404
sg76
(lp2416
S':'
asbag69
(g90
g71
NtRp2417
(dp2418
g74
(dp2419
sg83
g2404
sg76
(lp2420
g69
(g70
g71
NtRp2421
(dp2422
g74
(dp2423
g82
I4
ssg83
g2417
sg76
(lp2424
g69
(g78
g71
NtRp2425
(dp2426
g74
(dp2427
g82
I3
ssg83
Nsg76
(lp2428
g69
(g85
g71
NtRp2429
(dp2430
g74
(dp2431
sg83
g2425
sg76
(lp2432
g69
(g90
g71
NtRp2433
(dp2434
g74
(dp2435
g94
g95
ssg83
g2429
sg76
(lp2436
S'HTTP_ACCEPT'
p2437
asbag69
(g90
g71
NtRp2438
(dp2439
g74
(dp2440
g101
g102
ssg83
g2429
sg76
(lp2441
S':'
asbag69
(g90
g71
NtRp2442
(dp2443
g74
(dp2444
sg83
g2429
sg76
(lp2445
g69
(g70
g71
NtRp2446
(dp2447
g74
(dp2448
g82
I3
ssg83
g2442
sg76
(lp2449
g854
asbasbasbag69
(g85
g71
NtRp2450
(dp2451
g74
(dp2452
sg83
g2425
sg76
(lp2453
g69
(g90
g71
NtRp2454
(dp2455
g74
(dp2456
g94
g95
ssg83
g2450
sg76
(lp2457
S'HTTP_ACCEPT_CHARSET'
p2458
asbag69
(g90
g71
NtRp2459
(dp2460
g74
(dp2461
g101
g102
ssg83
g2450
sg76
(lp2462
S':'
asbag69
(g90
g71
NtRp2463
(dp2464
g74
(dp2465
sg83
g2450
sg76
(lp2466
g69
(g70
g71
NtRp2467
(dp2468
g74
(dp2469
g82
I3
ssg83
g2463
sg76
(lp2470
g876
asbasbasbag69
(g85
g71
NtRp2471
(dp2472
g74
(dp2473
sg83
g2425
sg76
(lp2474
g69
(g90
g71
NtRp2475
(dp2476
g74
(dp2477
g94
g95
ssg83
g2471
sg76
(lp2478
S'HTTP_ACCEPT_ENCODING'
p2479
asbag69
(g90
g71
NtRp2480
(dp2481
g74
(dp2482
g101
g102
ssg83
g2471
sg76
(lp2483
S':'
asbag69
(g90
g71
NtRp2484
(dp2485
g74
(dp2486
sg83
g2471
sg76
(lp2487
g69
(g70
g71
NtRp2488
(dp2489
g74
(dp2490
g82
I3
ssg83
g2484
sg76
(lp2491
g898
asbasbasbag69
(g85
g71
NtRp2492
(dp2493
g74
(dp2494
sg83
g2425
sg76
(lp2495
g69
(g90
g71
NtRp2496
(dp2497
g74
(dp2498
g94
g95
ssg83
g2492
sg76
(lp2499
S'HTTP_ACCEPT_LANGUAGE'
p2500
asbag69
(g90
g71
NtRp2501
(dp2502
g74
(dp2503
g101
g102
ssg83
g2492
sg76
(lp2504
S':'
asbag69
(g90
g71
NtRp2505
(dp2506
g74
(dp2507
sg83
g2492
sg76
(lp2508
g69
(g70
g71
NtRp2509
(dp2510
g74
(dp2511
g82
I3
ssg83
g2505
sg76
(lp2512
g920
asbasbasbag69
(g85
g71
NtRp2513
(dp2514
g74
(dp2515
sg83
g2425
sg76
(lp2516
g69
(g90
g71
NtRp2517
(dp2518
g74
(dp2519
g94
g95
ssg83
g2513
sg76
(lp2520
S'HTTP_CONNECTION'
p2521
asbag69
(g90
g71
NtRp2522
(dp2523
g74
(dp2524
g101
g102
ssg83
g2513
sg76
(lp2525
S':'
asbag69
(g90
g71
NtRp2526
(dp2527
g74
(dp2528
sg83
g2513
sg76
(lp2529
g69
(g70
g71
NtRp2530
(dp2531
g74
(dp2532
g82
I3
ssg83
g2526
sg76
(lp2533
g942
asbasbasbag69
(g85
g71
NtRp2534
(dp2535
g74
(dp2536
sg83
g2425
sg76
(lp2537
g69
(g90
g71
NtRp2538
(dp2539
g74
(dp2540
g94
g95
ssg83
g2534
sg76
(lp2541
S'HTTP_COOKIE'
p2542
asbag69
(g90
g71
NtRp2543
(dp2544
g74
(dp2545
g101
g102
ssg83
g2534
sg76
(lp2546
S':'
asbag69
(g90
g71
NtRp2547
(dp2548
g74
(dp2549
sg83
g2534
sg76
(lp2550
g69
(g70
g71
NtRp2551
(dp2552
g74
(dp2553
g82
I3
ssg83
g2547
sg76
(lp2554
g964
asbasbasbag69
(g85
g71
NtRp2555
(dp2556
g74
(dp2557
sg83
g2425
sg76
(lp2558
g69
(g90
g71
NtRp2559
(dp2560
g74
(dp2561
g94
g95
ssg83
g2555
sg76
(lp2562
S'HTTP_HOST'
p2563
asbag69
(g90
g71
NtRp2564
(dp2565
g74
(dp2566
g101
g102
ssg83
g2555
sg76
(lp2567
S':'
asbag69
(g90
g71
NtRp2568
(dp2569
g74
(dp2570
sg83
g2555
sg76
(lp2571
g69
(g70
g71
NtRp2572
(dp2573
g74
(dp2574
g82
I3
ssg83
g2568
sg76
(lp2575
g986
asbasbasbag69
(g85
g71
NtRp2576
(dp2577
g74
(dp2578
sg83
g2425
sg76
(lp2579
g69
(g90
g71
NtRp2580
(dp2581
g74
(dp2582
g94
g95
ssg83
g2576
sg76
(lp2583
S'HTTP_REFERER'
p2584
asbag69
(g90
g71
NtRp2585
(dp2586
g74
(dp2587
g101
g102
ssg83
g2576
sg76
(lp2588
S':'
asbag69
(g90
g71
NtRp2589
(dp2590
g74
(dp2591
sg83
g2576
sg76
(lp2592
g69
(g70
g71
NtRp2593
(dp2594
g74
(dp2595
g82
I3
ssg83
g2589
sg76
(lp2596
g1008
asbasbasbag69
(g85
g71
NtRp2597
(dp2598
g74
(dp2599
sg83
g2425
sg76
(lp2600
g69
(g90
g71
NtRp2601
(dp2602
g74
(dp2603
g94
g95
ssg83
g2597
sg76
(lp2604
S'HTTP_USER_AGENT'
p2605
asbag69
(g90
g71
NtRp2606
(dp2607
g74
(dp2608
g101
g102
ssg83
g2597
sg76
(lp2609
S':'
asbag69
(g90
g71
NtRp2610
(dp2611
g74
(dp2612
sg83
g2597
sg76
(lp2613
g69
(g70
g71
NtRp2614
(dp2615
g74
(dp2616
g82
I3
ssg83
g2610
sg76
(lp2617
g1030
asbasbasbag69
(g85
g71
NtRp2618
(dp2619
g74
(dp2620
sg83
g2425
sg76
(lp2621
g69
(g90
g71
NtRp2622
(dp2623
g74
(dp2624
g94
g95
ssg83
g2618
sg76
(lp2625
S'PATH_INFO'
p2626
asbag69
(g90
g71
NtRp2627
(dp2628
g74
(dp2629
g101
g102
ssg83
g2618
sg76
(lp2630
S':'
asbag69
(g90
g71
NtRp2631
(dp2632
g74
(dp2633
sg83
g2618
sg76
(lp2634
g69
(g70
g71
NtRp2635
(dp2636
g74
(dp2637
g82
I3
ssg83
g2631
sg76
(lp2638
g1171
asbasbasbag69
(g85
g71
NtRp2639
(dp2640
g74
(dp2641
sg83
g2425
sg76
(lp2642
g69
(g90
g71
NtRp2643
(dp2644
g74
(dp2645
g94
g95
ssg83
g2639
sg76
(lp2646
S'QUERY_STRING'
p2647
asbag69
(g90
g71
NtRp2648
(dp2649
g74
(dp2650
g101
g102
ssg83
g2639
sg76
(lp2651
S':'
asbag69
(g90
g71
NtRp2652
(dp2653
g74
(dp2654
sg83
g2639
sg76
(lp2655
g69
(g70
g71
NtRp2656
(dp2657
g74
(dp2658
g82
I3
ssg83
g2652
sg76
(lp2659
S''
asbasbasbag69
(g85
g71
NtRp2660
(dp2661
g74
(dp2662
sg83
g2425
sg76
(lp2663
g69
(g90
g71
NtRp2664
(dp2665
g74
(dp2666
g94
g95
ssg83
g2660
sg76
(lp2667
S'REMOTE_ADDR'
p2668
asbag69
(g90
g71
NtRp2669
(dp2670
g74
(dp2671
g101
g102
ssg83
g2660
sg76
(lp2672
S':'
asbag69
(g90
g71
NtRp2673
(dp2674
g74
(dp2675
sg83
g2660
sg76
(lp2676
g69
(g70
g71
NtRp2677
(dp2678
g74
(dp2679
g82
I3
ssg83
g2673
sg76
(lp2680
g224
asbasbasbag69
(g85
g71
NtRp2681
(dp2682
g74
(dp2683
sg83
g2425
sg76
(lp2684
g69
(g90
g71
NtRp2685
(dp2686
g74
(dp2687
g94
g95
ssg83
g2681
sg76
(lp2688
S'REMOTE_PORT'
p2689
asbag69
(g90
g71
NtRp2690
(dp2691
g74
(dp2692
g101
g102
ssg83
g2681
sg76
(lp2693
S':'
asbag69
(g90
g71
NtRp2694
(dp2695
g74
(dp2696
sg83
g2681
sg76
(lp2697
g69
(g70
g71
NtRp2698
(dp2699
g74
(dp2700
g82
I3
ssg83
g2694
sg76
(lp2701
g1235
asbasbasbag69
(g85
g71
NtRp2702
(dp2703
g74
(dp2704
sg83
g2425
sg76
(lp2705
g69
(g90
g71
NtRp2706
(dp2707
g74
(dp2708
g94
g95
ssg83
g2702
sg76
(lp2709
S'REQUEST_METHOD'
p2710
asbag69
(g90
g71
NtRp2711
(dp2712
g74
(dp2713
g101
g102
ssg83
g2702
sg76
(lp2714
S':'
asbag69
(g90
g71
NtRp2715
(dp2716
g74
(dp2717
sg83
g2702
sg76
(lp2718
g69
(g70
g71
NtRp2719
(dp2720
g74
(dp2721
g82
I3
ssg83
g2715
sg76
(lp2722
g1257
asbasbasbag69
(g85
g71
NtRp2723
(dp2724
g74
(dp2725
sg83
g2425
sg76
(lp2726
g69
(g90
g71
NtRp2727
(dp2728
g74
(dp2729
g94
g95
ssg83
g2723
sg76
(lp2730
S'REQUEST_URI'
p2731
asbag69
(g90
g71
NtRp2732
(dp2733
g74
(dp2734
g101
g102
ssg83
g2723
sg76
(lp2735
S':'
asbag69
(g90
g71
NtRp2736
(dp2737
g74
(dp2738
sg83
g2723
sg76
(lp2739
g69
(g70
g71
NtRp2740
(dp2741
g74
(dp2742
g82
I3
ssg83
g2736
sg76
(lp2743
g1279
asbasbasbag69
(g85
g71
NtRp2744
(dp2745
g74
(dp2746
sg83
g2425
sg76
(lp2747
g69
(g90
g71
NtRp2748
(dp2749
g74
(dp2750
g94
g95
ssg83
g2744
sg76
(lp2751
S'SCRIPT_NAME'
p2752
asbag69
(g90
g71
NtRp2753
(dp2754
g74
(dp2755
g101
g102
ssg83
g2744
sg76
(lp2756
S':'
asbag69
(g90
g71
NtRp2757
(dp2758
g74
(dp2759
sg83
g2744
sg76
(lp2760
g69
(g70
g71
NtRp2761
(dp2762
g74
(dp2763
g82
I3
ssg83
g2757
sg76
(lp2764
S''
asbasbasbag69
(g85
g71
NtRp2765
(dp2766
g74
(dp2767
sg83
g2425
sg76
(lp2768
g69
(g90
g71
NtRp2769
(dp2770
g74
(dp2771
g94
g95
ssg83
g2765
sg76
(lp2772
S'SERVER_NAME'
p2773
asbag69
(g90
g71
NtRp2774
(dp2775
g74
(dp2776
g101
g102
ssg83
g2765
sg76
(lp2777
S':'
asbag69
(g90
g71
NtRp2778
(dp2779
g74
(dp2780
sg83
g2765
sg76
(lp2781
g69
(g70
g71
NtRp2782
(dp2783
g74
(dp2784
g82
I3
ssg83
g2778
sg76
(lp2785
g1322
asbasbasbag69
(g85
g71
NtRp2786
(dp2787
g74
(dp2788
sg83
g2425
sg76
(lp2789
g69
(g90
g71
NtRp2790
(dp2791
g74
(dp2792
g94
g95
ssg83
g2786
sg76
(lp2793
S'SERVER_PORT'
p2794
asbag69
(g90
g71
NtRp2795
(dp2796
g74
(dp2797
g101
g102
ssg83
g2786
sg76
(lp2798
S':'
asbag69
(g90
g71
NtRp2799
(dp2800
g74
(dp2801
sg83
g2786
sg76
(lp2802
g69
(g70
g71
NtRp2803
(dp2804
g74
(dp2805
g82
I3
ssg83
g2799
sg76
(lp2806
g1344
asbasbasbag69
(g85
g71
NtRp2807
(dp2808
g74
(dp2809
sg83
g2425
sg76
(lp2810
g69
(g90
g71
NtRp2811
(dp2812
g74
(dp2813
g94
g95
ssg83
g2807
sg76
(lp2814
S'SERVER_PROTOCOL'
p2815
asbag69
(g90
g71
NtRp2816
(dp2817
g74
(dp2818
g101
g102
ssg83
g2807
sg76
(lp2819
S':'
asbag69
(g90
g71
NtRp2820
(dp2821
g74
(dp2822
sg83
g2807
sg76
(lp2823
g69
(g70
g71
NtRp2824
(dp2825
g74
(dp2826
g82
I3
ssg83
g2820
sg76
(lp2827
g1366
asbasbasbag69
(g85
g71
NtRp2828
(dp2829
g74
(dp2830
sg83
g2425
sg76
(lp2831
g69
(g90
g71
NtRp2832
(dp2833
g74
(dp2834
g94
g95
ssg83
g2828
sg76
(lp2835
S'SERVER_SOFTWARE'
p2836
asbag69
(g90
g71
NtRp2837
(dp2838
g74
(dp2839
g101
g102
ssg83
g2828
sg76
(lp2840
S':'
asbag69
(g90
g71
NtRp2841
(dp2842
g74
(dp2843
sg83
g2828
sg76
(lp2844
g69
(g70
g71
NtRp2845
(dp2846
g74
(dp2847
g82
I3
ssg83
g2841
sg76
(lp2848
g1388
asbasbasbag69
(g85
g71
NtRp2849
(dp2850
g74
(dp2851
sg83
g2425
sg76
(lp2852
g69
(g90
g71
NtRp2853
(dp2854
g74
(dp2855
g94
g95
ssg83
g2849
sg76
(lp2856
S'WEB2PY_ORIGINAL_URI'
p2857
asbag69
(g90
g71
NtRp2858
(dp2859
g74
(dp2860
g101
g102
ssg83
g2849
sg76
(lp2861
S':'
asbag69
(g90
g71
NtRp2862
(dp2863
g74
(dp2864
sg83
g2849
sg76
(lp2865
g69
(g70
g71
NtRp2866
(dp2867
g74
(dp2868
g82
I3
ssg83
g2862
sg76
(lp2869
g1171
asbasbasbag69
(g85
g71
NtRp2870
(dp2871
g74
(dp2872
sg83
g2425
sg76
(lp2873
g69
(g90
g71
NtRp2874
(dp2875
g74
(dp2876
g94
g95
ssg83
g2870
sg76
(lp2877
S'wsgi.errors'
p2878
asbag69
(g90
g71
NtRp2879
(dp2880
g74
(dp2881
g101
g102
ssg83
g2870
sg76
(lp2882
S':'
asbag69
(g90
g71
NtRp2883
(dp2884
g74
(dp2885
sg83
g2870
sg76
(lp2886
g69
(g70
g71
NtRp2887
(dp2888
g74
(dp2889
g82
I3
ssg83
g2883
sg76
(lp2890
S"<open file '<stderr>', mode 'w' at 0x7f7c5e970270>"
p2891
asbasbasbag69
(g85
g71
NtRp2892
(dp2893
g74
(dp2894
sg83
g2425
sg76
(lp2895
g69
(g90
g71
NtRp2896
(dp2897
g74
(dp2898
g94
g95
ssg83
g2892
sg76
(lp2899
S'wsgi.file_wrapper'
p2900
asbag69
(g90
g71
NtRp2901
(dp2902
g74
(dp2903
g101
g102
ssg83
g2892
sg76
(lp2904
S':'
asbag69
(g90
g71
NtRp2905
(dp2906
g74
(dp2907
sg83
g2892
sg76
(lp2908
g69
(g70
g71
NtRp2909
(dp2910
g74
(dp2911
g82
I3
ssg83
g2905
sg76
(lp2912
S'<class wsgiref.util.FileWrapper at 0x2d82598>'
p2913
asbasbasbag69
(g85
g71
NtRp2914
(dp2915
g74
(dp2916
sg83
g2425
sg76
(lp2917
g69
(g90
g71
NtRp2918
(dp2919
g74
(dp2920
g94
g95
ssg83
g2914
sg76
(lp2921
S'wsgi.input'
p2922
asbag69
(g90
g71
NtRp2923
(dp2924
g74
(dp2925
g101
g102
ssg83
g2914
sg76
(lp2926
S':'
asbag69
(g90
g71
NtRp2927
(dp2928
g74
(dp2929
sg83
g2914
sg76
(lp2930
g69
(g70
g71
NtRp2931
(dp2932
g74
(dp2933
g82
I3
ssg83
g2927
sg76
(lp2934
S'<cStringIO.StringO object at 0x7f7c5024dce0>'
p2935
asbasbasbag69
(g85
g71
NtRp2936
(dp2937
g74
(dp2938
sg83
g2425
sg76
(lp2939
g69
(g90
g71
NtRp2940
(dp2941
g74
(dp2942
g94
g95
ssg83
g2936
sg76
(lp2943
S'wsgi.multiprocess'
p2944
asbag69
(g90
g71
NtRp2945
(dp2946
g74
(dp2947
g101
g102
ssg83
g2936
sg76
(lp2948
S':'
asbag69
(g90
g71
NtRp2949
(dp2950
g74
(dp2951
sg83
g2936
sg76
(lp2952
g69
(g70
g71
NtRp2953
(dp2954
g74
(dp2955
g82
I3
ssg83
g2949
sg76
(lp2956
g112
asbasbasbag69
(g85
g71
NtRp2957
(dp2958
g74
(dp2959
sg83
g2425
sg76
(lp2960
g69
(g90
g71
NtRp2961
(dp2962
g74
(dp2963
g94
g95
ssg83
g2957
sg76
(lp2964
S'wsgi.multithread'
p2965
asbag69
(g90
g71
NtRp2966
(dp2967
g74
(dp2968
g101
g102
ssg83
g2957
sg76
(lp2969
S':'
asbag69
(g90
g71
NtRp2970
(dp2971
g74
(dp2972
sg83
g2957
sg76
(lp2973
g69
(g70
g71
NtRp2974
(dp2975
g74
(dp2976
g82
I3
ssg83
g2970
sg76
(lp2977
g1626
asbasbasbag69
(g85
g71
NtRp2978
(dp2979
g74
(dp2980
sg83
g2425
sg76
(lp2981
g69
(g90
g71
NtRp2982
(dp2983
g74
(dp2984
g94
g95
ssg83
g2978
sg76
(lp2985
S'wsgi.run_once'
p2986
asbag69
(g90
g71
NtRp2987
(dp2988
g74
(dp2989
g101
g102
ssg83
g2978
sg76
(lp2990
S':'
asbag69
(g90
g71
NtRp2991
(dp2992
g74
(dp2993
sg83
g2978
sg76
(lp2994
g69
(g70
g71
NtRp2995
(dp2996
g74
(dp2997
g82
I3
ssg83
g2991
sg76
(lp2998
g112
asbasbasbag69
(g85
g71
NtRp2999
(dp3000
g74
(dp3001
sg83
g2425
sg76
(lp3002
g69
(g90
g71
NtRp3003
(dp3004
g74
(dp3005
g94
g95
ssg83
g2999
sg76
(lp3006
S'wsgi.url_scheme'
p3007
asbag69
(g90
g71
NtRp3008
(dp3009
g74
(dp3010
g101
g102
ssg83
g2999
sg76
(lp3011
S':'
asbag69
(g90
g71
NtRp3012
(dp3013
g74
(dp3014
sg83
g2999
sg76
(lp3015
g69
(g70
g71
NtRp3016
(dp3017
g74
(dp3018
g82
I3
ssg83
g3012
sg76
(lp3019
g1669
asbasbasbag69
(g85
g71
NtRp3020
(dp3021
g74
(dp3022
sg83
g2425
sg76
(lp3023
g69
(g90
g71
NtRp3024
(dp3025
g74
(dp3026
g94
g95
ssg83
g3020
sg76
(lp3027
S'wsgi.version'
p3028
asbag69
(g90
g71
NtRp3029
(dp3030
g74
(dp3031
g101
g102
ssg83
g3020
sg76
(lp3032
S':'
asbag69
(g90
g71
NtRp3033
(dp3034
g74
(dp3035
sg83
g3020
sg76
(lp3036
g69
(g70
g71
NtRp3037
(dp3038
g74
(dp3039
g82
I3
ssg83
g3033
sg76
(lp3040
S'1'
asbasbasbasbasbasbasbasbasbasbasbasbasbsS'frames'
p3041
(lp3042
(dp3043
S'file'
p3044
S'/var/www/conferencia/gluon/restricted.py'
p3045
sS'dump'
p3046
(dp3047
S'code'
p3048
S'\'usuario = db.define_table("usuario",\\n      Field...suario\\\'),\\n      primarykey=[\\\'confno\\\']\\n      )\\n\\n\\n\\n\''
p3049
sS'layer'
p3050
S"'/var/www/conferencia/applications/projeto/models/models.py'"
p3051
sS'global compile2'
p3052
S'<function compile2>'
p3053
sS'ccode'
p3054
S'undefined'
p3055
ssS'lnum'
p3056
I211
sS'lines'
p3057
(dp3058
I206
S"    environment['__name__'] = '__restricted__'"
p3059
sI207
S'    try:'
p3060
sI208
S'        if isinstance(code, types.CodeType):'
p3061
sI209
S'            ccode = code'
p3062
sI210
S'        else:'
p3063
sI211
S'            ccode = compile2(code, layer)'
p3064
sI212
S'        exec ccode in environment'
p3065
sI213
S'    except HTTP:'
p3066
sI214
S'        raise'
p3067
sI215
S'    except RestrictedError:'
p3068
ssS'call'
p3069
S'(code=\'usuario = db.define_table("usuario",\\n      Field...suario\\\'),\\n      primarykey=[\\\'confno\\\']\\n      )\\n\\n\\n\\n\', environment={\'A\': <class \'gluon.html.A\'>, \'Auth\': <class \'gluon.tools.Auth\'>, \'B\': <class \'gluon.html.B\'>, \'BEAUTIFY\': <class \'gluon.html.BEAUTIFY\'>, \'BODY\': <class \'gluon.html.BODY\'>, \'BR\': <class \'gluon.html.BR\'>, \'BUTTON\': <class \'gluon.html.BUTTON\'>, \'CAT\': <class \'gluon.html.CAT\'>, \'CENTER\': <class \'gluon.html.CENTER\'>, \'CLEANUP\': <class \'gluon.validators.CLEANUP\'>, ...}, layer=\'/var/www/conferencia/applications/projeto/models/models.py\')'
p3070
sS'func'
p3071
S'restricted'
p3072
sa(dp3073
g3044
S'/var/www/conferencia/gluon/restricted.py'
p3074
sg3046
(dp3075
S'builtincompile'
p3076
S'<built-in function compile>'
p3077
sS'code'
p3078
S'\'usuario = db.define_table("usuario",\\n      Field...suario\\\'),\\n      primarykey=[\\\'confno\\\']\\n      )\\n\\n\\n\\n\''
p3079
sS'code.rstrip'
p3080
S'<built-in method rstrip of str object>'
p3081
sS').replace'
p3082
g3055
sS'layer'
p3083
S"'/var/www/conferencia/applications/projeto/models/models.py'"
p3084
ssg3056
I194
sg3057
(dp3085
I192
S"    The +'\\n' is necessary else compile fails when code ends in a comment."
p3086
sI193
S'    """'
p3087
sI194
S"    return compile(code.rstrip().replace('\\r\\n', '\\n') + '\\n', layer, 'exec')"
p3088
sI195
S''
sI196
S''
sI197
S"def restricted(code, environment=None, layer='Unknown'):"
p3089
sI198
S'    """'
p3090
sI189
S''
sI190
S'def compile2(code, layer):'
p3091
sI191
S'    """'
p3092
ssg3069
S'(code=\'usuario = db.define_table("usuario",\\n      Field...suario\\\'),\\n      primarykey=[\\\'confno\\\']\\n      )\\n\\n\\n\\n\', layer=\'/var/www/conferencia/applications/projeto/models/models.py\')'
p3093
sg3071
S'compile2'
p3094
sasS'pyver'
p3095
S'Python 2.7.3: /usr/bin/python'
p3096
sS'session'
p3097
g69
(g70
g71
NtRp3098
(dp3099
g74
(dp3100
sg76
(lp3101
g69
(g78
g71
NtRp3102
(dp3103
g74
(dp3104
g82
I5
ssg83
Nsg76
(lp3105
g69
(g85
g71
NtRp3106
(dp3107
g74
(dp3108
sg83
g3102
sg76
(lp3109
g69
(g90
g71
NtRp3110
(dp3111
g74
(dp3112
g94
g95
ssg83
g3106
sg76
(lp3113
S'flash'
p3114
asbag69
(g90
g71
NtRp3115
(dp3116
g74
(dp3117
g101
g102
ssg83
g3106
sg76
(lp3118
S':'
asbag69
(g90
g71
NtRp3119
(dp3120
g74
(dp3121
sg83
g3106
sg76
(lp3122
g69
(g70
g71
NtRp3123
(dp3124
g74
(dp3125
g82
I5
ssg83
g3119
sg76
(lp3126
S'None'
p3127
asbasbasbasbasbsS'etype'
p3128
S"<type 'exceptions.SyntaxError'>"
p3129
sS'date'
p3130
S'Tue Apr  2 18:26:24 2013'
p3131
sS'response'
p3132
g69
(g70
g71
NtRp3133
(dp3134
g74
(dp3135
sg76
(lp3136
g69
(g78
g71
NtRp3137
(dp3138
g74
(dp3139
g82
I5
ssg83
Nsg76
(lp3140
g69
(g85
g71
NtRp3141
(dp3142
g74
(dp3143
sg83
g3137
sg76
(lp3144
g69
(g90
g71
NtRp3145
(dp3146
g74
(dp3147
g94
g95
ssg83
g3141
sg76
(lp3148
g167
asbag69
(g90
g71
NtRp3149
(dp3150
g74
(dp3151
g101
g102
ssg83
g3141
sg76
(lp3152
S':'
asbag69
(g90
g71
NtRp3153
(dp3154
g74
(dp3155
sg83
g3141
sg76
(lp3156
g69
(g70
g71
NtRp3157
(dp3158
g74
(dp3159
g82
I5
ssg83
g3153
sg76
(lp3160
S'<cStringIO.StringO object at 0x7f7c5022afb8>'
p3161
asbasbasbag69
(g85
g71
NtRp3162
(dp3163
g74
(dp3164
sg83
g3137
sg76
(lp3165
g69
(g90
g71
NtRp3166
(dp3167
g74
(dp3168
g94
g95
ssg83
g3162
sg76
(lp3169
g255
asbag69
(g90
g71
NtRp3170
(dp3171
g74
(dp3172
g101
g102
ssg83
g3162
sg76
(lp3173
S':'
asbag69
(g90
g71
NtRp3174
(dp3175
g74
(dp3176
sg83
g3162
sg76
(lp3177
g69
(g70
g71
NtRp3178
(dp3179
g74
(dp3180
g82
I5
ssg83
g3174
sg76
(lp3181
g69
(g78
g71
NtRp3182
(dp3183
g74
(dp3184
g82
I4
ssg83
Nsg76
(lp3185
g69
(g85
g71
NtRp3186
(dp3187
g74
(dp3188
sg83
g3182
sg76
(lp3189
g69
(g90
g71
NtRp3190
(dp3191
g74
(dp3192
g94
g95
ssg83
g3186
sg76
(lp3193
S'session_id_projeto'
p3194
asbag69
(g90
g71
NtRp3195
(dp3196
g74
(dp3197
g101
g102
ssg83
g3186
sg76
(lp3198
S':'
asbag69
(g90
g71
NtRp3199
(dp3200
g74
(dp3201
sg83
g3186
sg76
(lp3202
g69
(g70
g71
NtRp3203
(dp3204
g74
(dp3205
g82
I4
ssg83
g3199
sg76
(lp3206
g487
ag69
(g78
g71
NtRp3207
(dp3208
g74
(dp3209
g82
I3
ssg83
Nsg76
(lp3210
g69
(g85
g71
NtRp3211
(dp3212
g74
(dp3213
sg83
g3207
sg76
(lp3214
g69
(g90
g71
NtRp3215
(dp3216
g74
(dp3217
g94
g95
ssg83
g3211
sg76
(lp3218
g306
asbag69
(g90
g71
NtRp3219
(dp3220
g74
(dp3221
g101
g102
ssg83
g3211
sg76
(lp3222
S':'
asbag69
(g90
g71
NtRp3223
(dp3224
g74
(dp3225
sg83
g3211
sg76
(lp3226
g69
(g70
g71
NtRp3227
(dp3228
g74
(dp3229
g82
I3
ssg83
g3223
sg76
(lp3230
S''
asbasbasbag69
(g85
g71
NtRp3231
(dp3232
g74
(dp3233
sg83
g3207
sg76
(lp3234
g69
(g90
g71
NtRp3235
(dp3236
g74
(dp3237
g94
g95
ssg83
g3231
sg76
(lp3238
g327
asbag69
(g90
g71
NtRp3239
(dp3240
g74
(dp3241
g101
g102
ssg83
g3231
sg76
(lp3242
S':'
asbag69
(g90
g71
NtRp3243
(dp3244
g74
(dp3245
sg83
g3231
sg76
(lp3246
g69
(g70
g71
NtRp3247
(dp3248
g74
(dp3249
g82
I3
ssg83
g3243
sg76
(lp3250
S''
asbasbasbag69
(g85
g71
NtRp3251
(dp3252
g74
(dp3253
sg83
g3207
sg76
(lp3254
g69
(g90
g71
NtRp3255
(dp3256
g74
(dp3257
g94
g95
ssg83
g3251
sg76
(lp3258
g348
asbag69
(g90
g71
NtRp3259
(dp3260
g74
(dp3261
g101
g102
ssg83
g3251
sg76
(lp3262
S':'
asbag69
(g90
g71
NtRp3263
(dp3264
g74
(dp3265
sg83
g3251
sg76
(lp3266
g69
(g70
g71
NtRp3267
(dp3268
g74
(dp3269
g82
I3
ssg83
g3263
sg76
(lp3270
S''
asbasbasbag69
(g85
g71
NtRp3271
(dp3272
g74
(dp3273
sg83
g3207
sg76
(lp3274
g69
(g90
g71
NtRp3275
(dp3276
g74
(dp3277
g94
g95
ssg83
g3271
sg76
(lp3278
g369
asbag69
(g90
g71
NtRp3279
(dp3280
g74
(dp3281
g101
g102
ssg83
g3271
sg76
(lp3282
S':'
asbag69
(g90
g71
NtRp3283
(dp3284
g74
(dp3285
sg83
g3271
sg76
(lp3286
g69
(g70
g71
NtRp3287
(dp3288
g74
(dp3289
g82
I3
ssg83
g3283
sg76
(lp3290
S''
asbasbasbag69
(g85
g71
NtRp3291
(dp3292
g74
(dp3293
sg83
g3207
sg76
(lp3294
g69
(g90
g71
NtRp3295
(dp3296
g74
(dp3297
g94
g95
ssg83
g3291
sg76
(lp3298
g390
asbag69
(g90
g71
NtRp3299
(dp3300
g74
(dp3301
g101
g102
ssg83
g3291
sg76
(lp3302
S':'
asbag69
(g90
g71
NtRp3303
(dp3304
g74
(dp3305
sg83
g3291
sg76
(lp3306
g69
(g70
g71
NtRp3307
(dp3308
g74
(dp3309
g82
I3
ssg83
g3303
sg76
(lp3310
S''
asbasbasbag69
(g85
g71
NtRp3311
(dp3312
g74
(dp3313
sg83
g3207
sg76
(lp3314
g69
(g90
g71
NtRp3315
(dp3316
g74
(dp3317
g94
g95
ssg83
g3311
sg76
(lp3318
g411
asbag69
(g90
g71
NtRp3319
(dp3320
g74
(dp3321
g101
g102
ssg83
g3311
sg76
(lp3322
S':'
asbag69
(g90
g71
NtRp3323
(dp3324
g74
(dp3325
sg83
g3311
sg76
(lp3326
g69
(g70
g71
NtRp3327
(dp3328
g74
(dp3329
g82
I3
ssg83
g3323
sg76
(lp3330
S'/'
asbasbasbag69
(g85
g71
NtRp3331
(dp3332
g74
(dp3333
sg83
g3207
sg76
(lp3334
g69
(g90
g71
NtRp3335
(dp3336
g74
(dp3337
g94
g95
ssg83
g3331
sg76
(lp3338
g432
asbag69
(g90
g71
NtRp3339
(dp3340
g74
(dp3341
g101
g102
ssg83
g3331
sg76
(lp3342
S':'
asbag69
(g90
g71
NtRp3343
(dp3344
g74
(dp3345
sg83
g3331
sg76
(lp3346
g69
(g70
g71
NtRp3347
(dp3348
g74
(dp3349
g82
I3
ssg83
g3343
sg76
(lp3350
S''
asbasbasbag69
(g85
g71
NtRp3351
(dp3352
g74
(dp3353
sg83
g3207
sg76
(lp3354
g69
(g90
g71
NtRp3355
(dp3356
g74
(dp3357
g94
g95
ssg83
g3351
sg76
(lp3358
g453
asbag69
(g90
g71
NtRp3359
(dp3360
g74
(dp3361
g101
g102
ssg83
g3351
sg76
(lp3362
S':'
asbag69
(g90
g71
NtRp3363
(dp3364
g74
(dp3365
sg83
g3351
sg76
(lp3366
g69
(g70
g71
NtRp3367
(dp3368
g74
(dp3369
g82
I3
ssg83
g3363
sg76
(lp3370
S''
asbasbasbasbasbasbasbasbasbasbasbag69
(g85
g71
NtRp3371
(dp3372
g74
(dp3373
sg83
g3137
sg76
(lp3374
g69
(g90
g71
NtRp3375
(dp3376
g74
(dp3377
g94
g95
ssg83
g3371
sg76
(lp3378
S'delimiters'
p3379
asbag69
(g90
g71
NtRp3380
(dp3381
g74
(dp3382
g101
g102
ssg83
g3371
sg76
(lp3383
S':'
asbag69
(g90
g71
NtRp3384
(dp3385
g74
(dp3386
sg83
g3371
sg76
(lp3387
g69
(g70
g71
NtRp3388
(dp3389
g74
(dp3390
g82
I5
ssg83
g3384
sg76
(lp3391
g69
(g78
g71
NtRp3392
(dp3393
g74
(dp3394
g82
I4
ssg83
Nsg76
(lp3395
g69
(g85
g71
NtRp3396
(dp3397
g74
(dp3398
sg83
g3392
sg76
(lp3399
g69
(g90
g71
NtRp3400
(dp3401
g74
(dp3402
sg83
g3396
sg76
(lp3403
g69
(g70
g71
NtRp3404
(dp3405
g74
(dp3406
g82
I4
ssg83
g3400
sg76
(lp3407
S'{{'
p3408
asbasbasbag69
(g85
g71
NtRp3409
(dp3410
g74
(dp3411
sg83
g3392
sg76
(lp3412
g69
(g90
g71
NtRp3413
(dp3414
g74
(dp3415
sg83
g3409
sg76
(lp3416
g69
(g70
g71
NtRp3417
(dp3418
g74
(dp3419
g82
I4
ssg83
g3413
sg76
(lp3420
S'}}'
p3421
asbasbasbasbasbasbasbag69
(g85
g71
NtRp3422
(dp3423
g74
(dp3424
sg83
g3137
sg76
(lp3425
g69
(g90
g71
NtRp3426
(dp3427
g74
(dp3428
g94
g95
ssg83
g3422
sg76
(lp3429
S'files'
p3430
asbag69
(g90
g71
NtRp3431
(dp3432
g74
(dp3433
g101
g102
ssg83
g3422
sg76
(lp3434
S':'
asbag69
(g90
g71
NtRp3435
(dp3436
g74
(dp3437
sg83
g3422
sg76
(lp3438
g69
(g70
g71
NtRp3439
(dp3440
g74
(dp3441
g82
I5
ssg83
g3435
sg76
(lp3442
g69
(g78
g71
NtRp3443
(dp3444
g74
(dp3445
g82
I4
ssg83
Nsg76
(lp3446
sbasbasbasbag69
(g85
g71
NtRp3447
(dp3448
g74
(dp3449
sg83
g3137
sg76
(lp3450
g69
(g90
g71
NtRp3451
(dp3452
g74
(dp3453
g94
g95
ssg83
g3447
sg76
(lp3454
S'flash'
p3455
asbag69
(g90
g71
NtRp3456
(dp3457
g74
(dp3458
g101
g102
ssg83
g3447
sg76
(lp3459
S':'
asbag69
(g90
g71
NtRp3460
(dp3461
g74
(dp3462
sg83
g3447
sg76
(lp3463
g69
(g70
g71
NtRp3464
(dp3465
g74
(dp3466
g82
I5
ssg83
g3460
sg76
(lp3467
S''
asbasbasbag69
(g85
g71
NtRp3468
(dp3469
g74
(dp3470
sg83
g3137
sg76
(lp3471
g69
(g90
g71
NtRp3472
(dp3473
g74
(dp3474
g94
g95
ssg83
g3468
sg76
(lp3475
S'generic_patterns'
p3476
asbag69
(g90
g71
NtRp3477
(dp3478
g74
(dp3479
g101
g102
ssg83
g3468
sg76
(lp3480
S':'
asbag69
(g90
g71
NtRp3481
(dp3482
g74
(dp3483
sg83
g3468
sg76
(lp3484
g69
(g70
g71
NtRp3485
(dp3486
g74
(dp3487
g82
I5
ssg83
g3481
sg76
(lp3488
g69
(g78
g71
NtRp3489
(dp3490
g74
(dp3491
g82
I4
ssg83
Nsg76
(lp3492
g69
(g85
g71
NtRp3493
(dp3494
g74
(dp3495
sg83
g3489
sg76
(lp3496
g69
(g90
g71
NtRp3497
(dp3498
g74
(dp3499
sg83
g3493
sg76
(lp3500
g69
(g70
g71
NtRp3501
(dp3502
g74
(dp3503
g82
I4
ssg83
g3497
sg76
(lp3504
S'*'
asbasbasbasbasbasbasbag69
(g85
g71
NtRp3505
(dp3506
g74
(dp3507
sg83
g3137
sg76
(lp3508
g69
(g90
g71
NtRp3509
(dp3510
g74
(dp3511
g94
g95
ssg83
g3505
sg76
(lp3512
S'google_analytics_id'
p3513
asbag69
(g90
g71
NtRp3514
(dp3515
g74
(dp3516
g101
g102
ssg83
g3505
sg76
(lp3517
S':'
asbag69
(g90
g71
NtRp3518
(dp3519
g74
(dp3520
sg83
g3505
sg76
(lp3521
g69
(g70
g71
NtRp3522
(dp3523
g74
(dp3524
g82
I5
ssg83
g3518
sg76
(lp3525
S'None'
p3526
asbasbasbag69
(g85
g71
NtRp3527
(dp3528
g74
(dp3529
sg83
g3137
sg76
(lp3530
g69
(g90
g71
NtRp3531
(dp3532
g74
(dp3533
g94
g95
ssg83
g3527
sg76
(lp3534
S'headers'
p3535
asbag69
(g90
g71
NtRp3536
(dp3537
g74
(dp3538
g101
g102
ssg83
g3527
sg76
(lp3539
S':'
asbag69
(g90
g71
NtRp3540
(dp3541
g74
(dp3542
sg83
g3527
sg76
(lp3543
g69
(g70
g71
NtRp3544
(dp3545
g74
(dp3546
g82
I5
ssg83
g3540
sg76
(lp3547
g69
(g78
g71
NtRp3548
(dp3549
g74
(dp3550
g82
I4
ssg83
Nsg76
(lp3551
g69
(g85
g71
NtRp3552
(dp3553
g74
(dp3554
sg83
g3548
sg76
(lp3555
g69
(g90
g71
NtRp3556
(dp3557
g74
(dp3558
g94
g95
ssg83
g3552
sg76
(lp3559
S'X-Powered-By'
p3560
asbag69
(g90
g71
NtRp3561
(dp3562
g74
(dp3563
g101
g102
ssg83
g3552
sg76
(lp3564
S':'
asbag69
(g90
g71
NtRp3565
(dp3566
g74
(dp3567
sg83
g3552
sg76
(lp3568
g69
(g70
g71
NtRp3569
(dp3570
g74
(dp3571
g82
I4
ssg83
g3565
sg76
(lp3572
S'web2py'
p3573
asbasbasbasbasbasbasbag69
(g85
g71
NtRp3574
(dp3575
g74
(dp3576
sg83
g3137
sg76
(lp3577
g69
(g90
g71
NtRp3578
(dp3579
g74
(dp3580
g94
g95
ssg83
g3574
sg76
(lp3581
S'logo'
p3582
asbag69
(g90
g71
NtRp3583
(dp3584
g74
(dp3585
g101
g102
ssg83
g3574
sg76
(lp3586
S':'
asbag69
(g90
g71
NtRp3587
(dp3588
g74
(dp3589
sg83
g3574
sg76
(lp3590
g69
(g70
g71
NtRp3591
(dp3592
g74
(dp3593
g82
I5
ssg83
g3587
sg76
(lp3594
g69
(cgluon.html
A
p3595
g71
NtRp3596
(dp3597
g74
(dp3598
S'_class'
p3599
S'brand'
p3600
sS'_href'
p3601
S'principal'
p3602
ssg83
Nsg76
(lp3603
g69
(cgluon.html
B
p3604
g71
NtRp3605
(dp3606
g74
(dp3607
sg83
g3596
sg76
(lp3608
S'hosts'
p3609
ag69
(cgluon.html
SPAN
p3610
g71
NtRp3611
(dp3612
g74
(dp3613
sg83
g3605
sg76
(lp3614
S'3'
asbaS''
asbacgluon.html
XML_unpickle
p3615
(S's\r\x00\x00\x00&trade;&nbsp;'
tRp3616
asbasbasbasbag69
(g85
g71
NtRp3617
(dp3618
g74
(dp3619
sg83
g3137
sg76
(lp3620
g69
(g90
g71
NtRp3621
(dp3622
g74
(dp3623
g94
g95
ssg83
g3617
sg76
(lp3624
S'menu'
p3625
asbag69
(g90
g71
NtRp3626
(dp3627
g74
(dp3628
g101
g102
ssg83
g3617
sg76
(lp3629
S':'
asbag69
(g90
g71
NtRp3630
(dp3631
g74
(dp3632
sg83
g3617
sg76
(lp3633
g69
(g70
g71
NtRp3634
(dp3635
g74
(dp3636
g82
I5
ssg83
g3630
sg76
(lp3637
g69
(g78
g71
NtRp3638
(dp3639
g74
(dp3640
g82
I4
ssg83
Nsg76
(lp3641
g69
(g85
g71
NtRp3642
(dp3643
g74
(dp3644
sg83
g3638
sg76
(lp3645
g69
(g90
g71
NtRp3646
(dp3647
g74
(dp3648
sg83
g3642
sg76
(lp3649
g69
(g70
g71
NtRp3650
(dp3651
g74
(dp3652
g82
I4
ssg83
g3646
sg76
(lp3653
g69
(g78
g71
NtRp3654
(dp3655
g74
(dp3656
g82
I3
ssg83
Nsg76
(lp3657
g69
(g85
g71
NtRp3658
(dp3659
g74
(dp3660
sg83
g3654
sg76
(lp3661
g69
(g90
g71
NtRp3662
(dp3663
g74
(dp3664
sg83
g3658
sg76
(lp3665
g69
(g70
g71
NtRp3666
(dp3667
g74
(dp3668
g82
I3
ssg83
g3662
sg76
(lp3669
cgluon.languages
lazyT_unpickle
p3670
(S't\x08\x00\x00\x00Clientes'
tRp3671
asbasbasbag69
(g85
g71
NtRp3672
(dp3673
g74
(dp3674
sg83
g3654
sg76
(lp3675
g69
(g90
g71
NtRp3676
(dp3677
g74
(dp3678
sg83
g3672
sg76
(lp3679
g69
(g70
g71
NtRp3680
(dp3681
g74
(dp3682
g82
I3
ssg83
g3676
sg76
(lp3683
g112
asbasbasbag69
(g85
g71
NtRp3684
(dp3685
g74
(dp3686
sg83
g3654
sg76
(lp3687
g69
(g90
g71
NtRp3688
(dp3689
g74
(dp3690
sg83
g3684
sg76
(lp3691
g69
(g70
g71
NtRp3692
(dp3693
g74
(dp3694
g82
I3
ssg83
g3688
sg76
(lp3695
S'/show_cliente'
p3696
asbasbasbag69
(g85
g71
NtRp3697
(dp3698
g74
(dp3699
sg83
g3654
sg76
(lp3700
g69
(g90
g71
NtRp3701
(dp3702
g74
(dp3703
sg83
g3697
sg76
(lp3704
g69
(g70
g71
NtRp3705
(dp3706
g74
(dp3707
g82
I3
ssg83
g3701
sg76
(lp3708
g69
(g78
g71
NtRp3709
(dp3710
g74
(dp3711
g82
I2
ssg83
Nsg76
(lp3712
sbasbasbasbasbasbasbasbag69
(g85
g71
NtRp3713
(dp3714
g74
(dp3715
sg83
g3638
sg76
(lp3716
g69
(g90
g71
NtRp3717
(dp3718
g74
(dp3719
sg83
g3713
sg76
(lp3720
g69
(g70
g71
NtRp3721
(dp3722
g74
(dp3723
g82
I4
ssg83
g3717
sg76
(lp3724
g69
(g78
g71
NtRp3725
(dp3726
g74
(dp3727
g82
I3
ssg83
Nsg76
(lp3728
g69
(g85
g71
NtRp3729
(dp3730
g74
(dp3731
sg83
g3725
sg76
(lp3732
g69
(g90
g71
NtRp3733
(dp3734
g74
(dp3735
sg83
g3729
sg76
(lp3736
g69
(g70
g71
NtRp3737
(dp3738
g74
(dp3739
g82
I3
ssg83
g3733
sg76
(lp3740
g3670
(S't\n\x00\x00\x00Servidores'
tRp3741
asbasbasbag69
(g85
g71
NtRp3742
(dp3743
g74
(dp3744
sg83
g3725
sg76
(lp3745
g69
(g90
g71
NtRp3746
(dp3747
g74
(dp3748
sg83
g3742
sg76
(lp3749
g69
(g70
g71
NtRp3750
(dp3751
g74
(dp3752
g82
I3
ssg83
g3746
sg76
(lp3753
g112
asbasbasbag69
(g85
g71
NtRp3754
(dp3755
g74
(dp3756
sg83
g3725
sg76
(lp3757
g69
(g90
g71
NtRp3758
(dp3759
g74
(dp3760
sg83
g3754
sg76
(lp3761
g69
(g70
g71
NtRp3762
(dp3763
g74
(dp3764
g82
I3
ssg83
g3758
sg76
(lp3765
S'/show_servidor'
p3766
asbasbasbag69
(g85
g71
NtRp3767
(dp3768
g74
(dp3769
sg83
g3725
sg76
(lp3770
g69
(g90
g71
NtRp3771
(dp3772
g74
(dp3773
sg83
g3767
sg76
(lp3774
g69
(g70
g71
NtRp3775
(dp3776
g74
(dp3777
g82
I3
ssg83
g3771
sg76
(lp3778
g69
(g78
g71
NtRp3779
(dp3780
g74
(dp3781
g82
I2
ssg83
Nsg76
(lp3782
sbasbasbasbasbasbasbasbag69
(g85
g71
NtRp3783
(dp3784
g74
(dp3785
sg83
g3638
sg76
(lp3786
g69
(g90
g71
NtRp3787
(dp3788
g74
(dp3789
sg83
g3783
sg76
(lp3790
g69
(g70
g71
NtRp3791
(dp3792
g74
(dp3793
g82
I4
ssg83
g3787
sg76
(lp3794
g69
(g78
g71
NtRp3795
(dp3796
g74
(dp3797
g82
I3
ssg83
Nsg76
(lp3798
g69
(g85
g71
NtRp3799
(dp3800
g74
(dp3801
sg83
g3795
sg76
(lp3802
g69
(g90
g71
NtRp3803
(dp3804
g74
(dp3805
sg83
g3799
sg76
(lp3806
g69
(g70
g71
NtRp3807
(dp3808
g74
(dp3809
g82
I3
ssg83
g3803
sg76
(lp3810
g3670
(S't\x07\x00\x00\x00Distros'
tRp3811
asbasbasbag69
(g85
g71
NtRp3812
(dp3813
g74
(dp3814
sg83
g3795
sg76
(lp3815
g69
(g90
g71
NtRp3816
(dp3817
g74
(dp3818
sg83
g3812
sg76
(lp3819
g69
(g70
g71
NtRp3820
(dp3821
g74
(dp3822
g82
I3
ssg83
g3816
sg76
(lp3823
g112
asbasbasbag69
(g85
g71
NtRp3824
(dp3825
g74
(dp3826
sg83
g3795
sg76
(lp3827
g69
(g90
g71
NtRp3828
(dp3829
g74
(dp3830
sg83
g3824
sg76
(lp3831
g69
(g70
g71
NtRp3832
(dp3833
g74
(dp3834
g82
I3
ssg83
g3828
sg76
(lp3835
S'/show_distro'
p3836
asbasbasbag69
(g85
g71
NtRp3837
(dp3838
g74
(dp3839
sg83
g3795
sg76
(lp3840
g69
(g90
g71
NtRp3841
(dp3842
g74
(dp3843
sg83
g3837
sg76
(lp3844
g69
(g70
g71
NtRp3845
(dp3846
g74
(dp3847
g82
I3
ssg83
g3841
sg76
(lp3848
g69
(g78
g71
NtRp3849
(dp3850
g74
(dp3851
g82
I2
ssg83
Nsg76
(lp3852
sbasbasbasbasbasbasbasbag69
(g85
g71
NtRp3853
(dp3854
g74
(dp3855
sg83
g3638
sg76
(lp3856
g69
(g90
g71
NtRp3857
(dp3858
g74
(dp3859
sg83
g3853
sg76
(lp3860
g69
(g70
g71
NtRp3861
(dp3862
g74
(dp3863
g82
I4
ssg83
g3857
sg76
(lp3864
g69
(g78
g71
NtRp3865
(dp3866
g74
(dp3867
g82
I3
ssg83
Nsg76
(lp3868
g69
(g85
g71
NtRp3869
(dp3870
g74
(dp3871
sg83
g3865
sg76
(lp3872
g69
(g90
g71
NtRp3873
(dp3874
g74
(dp3875
sg83
g3869
sg76
(lp3876
g69
(g70
g71
NtRp3877
(dp3878
g74
(dp3879
g82
I3
ssg83
g3873
sg76
(lp3880
g3670
(S's\x05\x00\x00\x00+host'
tRp3881
asbasbasbag69
(g85
g71
NtRp3882
(dp3883
g74
(dp3884
sg83
g3865
sg76
(lp3885
g69
(g90
g71
NtRp3886
(dp3887
g74
(dp3888
sg83
g3882
sg76
(lp3889
g69
(g70
g71
NtRp3890
(dp3891
g74
(dp3892
g82
I3
ssg83
g3886
sg76
(lp3893
g112
asbasbasbag69
(g85
g71
NtRp3894
(dp3895
g74
(dp3896
sg83
g3865
sg76
(lp3897
g69
(g90
g71
NtRp3898
(dp3899
g74
(dp3900
sg83
g3894
sg76
(lp3901
g69
(g70
g71
NtRp3902
(dp3903
g74
(dp3904
g82
I3
ssg83
g3898
sg76
(lp3905
S'/interface'
p3906
asbasbasbag69
(g85
g71
NtRp3907
(dp3908
g74
(dp3909
sg83
g3865
sg76
(lp3910
g69
(g90
g71
NtRp3911
(dp3912
g74
(dp3913
sg83
g3907
sg76
(lp3914
g69
(g70
g71
NtRp3915
(dp3916
g74
(dp3917
g82
I3
ssg83
g3911
sg76
(lp3918
g69
(g78
g71
NtRp3919
(dp3920
g74
(dp3921
g82
I2
ssg83
Nsg76
(lp3922
sbasbasbasbasbasbasbasbasbasbasbasbag69
(g85
g71
NtRp3923
(dp3924
g74
(dp3925
sg83
g3137
sg76
(lp3926
g69
(g90
g71
NtRp3927
(dp3928
g74
(dp3929
g94
g95
ssg83
g3923
sg76
(lp3930
S'menu2'
p3931
asbag69
(g90
g71
NtRp3932
(dp3933
g74
(dp3934
g101
g102
ssg83
g3923
sg76
(lp3935
S':'
asbag69
(g90
g71
NtRp3936
(dp3937
g74
(dp3938
sg83
g3923
sg76
(lp3939
g69
(g70
g71
NtRp3940
(dp3941
g74
(dp3942
g82
I5
ssg83
g3936
sg76
(lp3943
g69
(g78
g71
NtRp3944
(dp3945
g74
(dp3946
g82
I4
ssg83
Nsg76
(lp3947
g69
(g85
g71
NtRp3948
(dp3949
g74
(dp3950
sg83
g3944
sg76
(lp3951
g69
(g90
g71
NtRp3952
(dp3953
g74
(dp3954
sg83
g3948
sg76
(lp3955
g69
(g70
g71
NtRp3956
(dp3957
g74
(dp3958
g82
I4
ssg83
g3952
sg76
(lp3959
g69
(g78
g71
NtRp3960
(dp3961
g74
(dp3962
g82
I3
ssg83
Nsg76
(lp3963
g69
(g85
g71
NtRp3964
(dp3965
g74
(dp3966
sg83
g3960
sg76
(lp3967
g69
(g90
g71
NtRp3968
(dp3969
g74
(dp3970
sg83
g3964
sg76
(lp3971
g69
(g70
g71
NtRp3972
(dp3973
g74
(dp3974
g82
I3
ssg83
g3968
sg76
(lp3975
g69
(g3610
g71
NtRp3976
(dp3977
g74
(dp3978
g3599
S'dropdown-toggle'
p3979
ssg83
Nsg76
(lp3980
S'Admin'
p3981
asbasbasbasbag69
(g85
g71
NtRp3982
(dp3983
g74
(dp3984
sg83
g3960
sg76
(lp3985
g69
(g90
g71
NtRp3986
(dp3987
g74
(dp3988
sg83
g3982
sg76
(lp3989
g69
(g70
g71
NtRp3990
(dp3991
g74
(dp3992
g82
I3
ssg83
g3986
sg76
(lp3993
g112
asbasbasbag69
(g85
g71
NtRp3994
(dp3995
g74
(dp3996
sg83
g3960
sg76
(lp3997
g69
(g90
g71
NtRp3998
(dp3999
g74
(dp4000
sg83
g3994
sg76
(lp4001
g69
(g70
g71
NtRp4002
(dp4003
g74
(dp4004
g82
I3
ssg83
g3998
sg76
(lp4005
S'#'
asbasbasbag69
(g85
g71
NtRp4006
(dp4007
g74
(dp4008
sg83
g3960
sg76
(lp4009
g69
(g90
g71
NtRp4010
(dp4011
g74
(dp4012
sg83
g4006
sg76
(lp4013
g69
(g70
g71
NtRp4014
(dp4015
g74
(dp4016
g82
I3
ssg83
g4010
sg76
(lp4017
g69
(g78
g71
NtRp4018
(dp4019
g74
(dp4020
g82
I2
ssg83
Nsg76
(lp4021
g69
(g85
g71
NtRp4022
(dp4023
g74
(dp4024
sg83
g4018
sg76
(lp4025
g69
(g90
g71
NtRp4026
(dp4027
g74
(dp4028
sg83
g4022
sg76
(lp4029
g69
(g70
g71
NtRp4030
(dp4031
g74
(dp4032
g82
I2
ssg83
g4026
sg76
(lp4033
g69
(g78
g71
NtRp4034
(dp4035
g74
(dp4036
g82
I1
ssg83
Nsg76
(lp4037
g69
(g85
g71
NtRp4038
(dp4039
g74
(dp4040
sg83
g4034
sg76
(lp4041
g69
(g90
g71
NtRp4042
(dp4043
g74
(dp4044
sg83
g4038
sg76
(lp4045
g69
(g70
g71
NtRp4046
(dp4047
g74
(dp4048
g82
I1
ssg83
g4042
sg76
(lp4049
g3670
(S's\t\x00\x00\x00Usu\xc3\xa1rios'
tRp4050
asbasbasbag69
(g85
g71
NtRp4051
(dp4052
g74
(dp4053
sg83
g4034
sg76
(lp4054
g69
(g90
g71
NtRp4055
(dp4056
g74
(dp4057
sg83
g4051
sg76
(lp4058
g69
(g70
g71
NtRp4059
(dp4060
g74
(dp4061
g82
I1
ssg83
g4055
sg76
(lp4062
I00
asbasbasbag69
(g85
g71
NtRp4063
(dp4064
g74
(dp4065
sg83
g4034
sg76
(lp4066
g69
(g90
g71
NtRp4067
(dp4068
g74
(dp4069
sg83
g4063
sg76
(lp4070
g69
(g70
g71
NtRp4071
(dp4072
g74
(dp4073
g82
I1
ssg83
g4067
sg76
(lp4074
S'/manager/users'
p4075
asbasbasbasbasbasbasbag69
(g85
g71
NtRp4076
(dp4077
g74
(dp4078
sg83
g4018
sg76
(lp4079
g69
(g90
g71
NtRp4080
(dp4081
g74
(dp4082
sg83
g4076
sg76
(lp4083
g69
(g70
g71
NtRp4084
(dp4085
g74
(dp4086
g82
I2
ssg83
g4080
sg76
(lp4087
g69
(g78
g71
NtRp4088
(dp4089
g74
(dp4090
g82
I1
ssg83
Nsg76
(lp4091
g69
(g85
g71
NtRp4092
(dp4093
g74
(dp4094
sg83
g4088
sg76
(lp4095
g69
(g90
g71
NtRp4096
(dp4097
g74
(dp4098
sg83
g4092
sg76
(lp4099
g69
(g70
g71
NtRp4100
(dp4101
g74
(dp4102
g82
I1
ssg83
g4096
sg76
(lp4103
g3670
(S't\x06\x00\x00\x00Grupos'
tRp4104
asbasbasbag69
(g85
g71
NtRp4105
(dp4106
g74
(dp4107
sg83
g4088
sg76
(lp4108
g69
(g90
g71
NtRp4109
(dp4110
g74
(dp4111
sg83
g4105
sg76
(lp4112
g69
(g70
g71
NtRp4113
(dp4114
g74
(dp4115
g82
I1
ssg83
g4109
sg76
(lp4116
I00
asbasbasbag69
(g85
g71
NtRp4117
(dp4118
g74
(dp4119
sg83
g4088
sg76
(lp4120
g69
(g90
g71
NtRp4121
(dp4122
g74
(dp4123
sg83
g4117
sg76
(lp4124
g69
(g70
g71
NtRp4125
(dp4126
g74
(dp4127
g82
I1
ssg83
g4121
sg76
(lp4128
S'/manager/groups'
p4129
asbasbasbasbasbasbasbag69
(g85
g71
NtRp4130
(dp4131
g74
(dp4132
sg83
g4018
sg76
(lp4133
g69
(g90
g71
NtRp4134
(dp4135
g74
(dp4136
sg83
g4130
sg76
(lp4137
g69
(g70
g71
NtRp4138
(dp4139
g74
(dp4140
g82
I2
ssg83
g4134
sg76
(lp4141
g69
(g78
g71
NtRp4142
(dp4143
g74
(dp4144
g82
I1
ssg83
Nsg76
(lp4145
g69
(g85
g71
NtRp4146
(dp4147
g74
(dp4148
sg83
g4142
sg76
(lp4149
g69
(g90
g71
NtRp4150
(dp4151
g74
(dp4152
sg83
g4146
sg76
(lp4153
g69
(g70
g71
NtRp4154
(dp4155
g74
(dp4156
g82
I1
ssg83
g4150
sg76
(lp4157
g3670
(S't\x07\x00\x00\x00Membros'
tRp4158
asbasbasbag69
(g85
g71
NtRp4159
(dp4160
g74
(dp4161
sg83
g4142
sg76
(lp4162
g69
(g90
g71
NtRp4163
(dp4164
g74
(dp4165
sg83
g4159
sg76
(lp4166
g69
(g70
g71
NtRp4167
(dp4168
g74
(dp4169
g82
I1
ssg83
g4163
sg76
(lp4170
I00
asbasbasbag69
(g85
g71
NtRp4171
(dp4172
g74
(dp4173
sg83
g4142
sg76
(lp4174
g69
(g90
g71
NtRp4175
(dp4176
g74
(dp4177
sg83
g4171
sg76
(lp4178
g69
(g70
g71
NtRp4179
(dp4180
g74
(dp4181
g82
I1
ssg83
g4175
sg76
(lp4182
S'/manager/membership'
p4183
asbasbasbasbasbasbasbasbasbasbasbasbasbasbasbag69
(g85
g71
NtRp4184
(dp4185
g74
(dp4186
sg83
g3944
sg76
(lp4187
g69
(g90
g71
NtRp4188
(dp4189
g74
(dp4190
sg83
g4184
sg76
(lp4191
g69
(g70
g71
NtRp4192
(dp4193
g74
(dp4194
g82
I4
ssg83
g4188
sg76
(lp4195
g69
(g78
g71
NtRp4196
(dp4197
g74
(dp4198
g82
I3
ssg83
Nsg76
(lp4199
g69
(g85
g71
NtRp4200
(dp4201
g74
(dp4202
sg83
g4196
sg76
(lp4203
g69
(g90
g71
NtRp4204
(dp4205
g74
(dp4206
sg83
g4200
sg76
(lp4207
g69
(g70
g71
NtRp4208
(dp4209
g74
(dp4210
g82
I3
ssg83
g4204
sg76
(lp4211
g69
(g3610
g71
NtRp4212
(dp4213
g74
(dp4214
g3599
g3979
ssg83
Nsg76
(lp4215
S'Login'
p4216
asbasbasbasbag69
(g85
g71
NtRp4217
(dp4218
g74
(dp4219
sg83
g4196
sg76
(lp4220
g69
(g90
g71
NtRp4221
(dp4222
g74
(dp4223
sg83
g4217
sg76
(lp4224
g69
(g70
g71
NtRp4225
(dp4226
g74
(dp4227
g82
I3
ssg83
g4221
sg76
(lp4228
g112
asbasbasbag69
(g85
g71
NtRp4229
(dp4230
g74
(dp4231
sg83
g4196
sg76
(lp4232
g69
(g90
g71
NtRp4233
(dp4234
g74
(dp4235
sg83
g4229
sg76
(lp4236
g69
(g70
g71
NtRp4237
(dp4238
g74
(dp4239
g82
I3
ssg83
g4233
sg76
(lp4240
S'#'
asbasbasbag69
(g85
g71
NtRp4241
(dp4242
g74
(dp4243
sg83
g4196
sg76
(lp4244
g69
(g90
g71
NtRp4245
(dp4246
g74
(dp4247
sg83
g4241
sg76
(lp4248
g69
(g70
g71
NtRp4249
(dp4250
g74
(dp4251
g82
I3
ssg83
g4245
sg76
(lp4252
g69
(g78
g71
NtRp4253
(dp4254
g74
(dp4255
g82
I2
ssg83
Nsg76
(lp4256
g69
(g85
g71
NtRp4257
(dp4258
g74
(dp4259
sg83
g4253
sg76
(lp4260
g69
(g90
g71
NtRp4261
(dp4262
g74
(dp4263
sg83
g4257
sg76
(lp4264
g69
(g70
g71
NtRp4265
(dp4266
g74
(dp4267
g82
I2
ssg83
g4261
sg76
(lp4268
g69
(g78
g71
NtRp4269
(dp4270
g74
(dp4271
g82
I1
ssg83
Nsg76
(lp4272
g69
(g85
g71
NtRp4273
(dp4274
g74
(dp4275
sg83
g4269
sg76
(lp4276
g69
(g90
g71
NtRp4277
(dp4278
g74
(dp4279
sg83
g4273
sg76
(lp4280
g69
(g70
g71
NtRp4281
(dp4282
g74
(dp4283
g82
I1
ssg83
g4277
sg76
(lp4284
g3670
(S't\x06\x00\x00\x00Logout'
tRp4285
asbasbasbag69
(g85
g71
NtRp4286
(dp4287
g74
(dp4288
sg83
g4269
sg76
(lp4289
g69
(g90
g71
NtRp4290
(dp4291
g74
(dp4292
sg83
g4286
sg76
(lp4293
g69
(g70
g71
NtRp4294
(dp4295
g74
(dp4296
g82
I1
ssg83
g4290
sg76
(lp4297
I00
asbasbasbag69
(g85
g71
NtRp4298
(dp4299
g74
(dp4300
sg83
g4269
sg76
(lp4301
g69
(g90
g71
NtRp4302
(dp4303
g74
(dp4304
sg83
g4298
sg76
(lp4305
g69
(g70
g71
NtRp4306
(dp4307
g74
(dp4308
g82
I1
ssg83
g4302
sg76
(lp4309
S'/initial/user/logout'
p4310
asbasbasbasbasbasbasbasbasbasbasbasbasbasbasbasbasbasbasbag69
(g85
g71
NtRp4311
(dp4312
g74
(dp4313
sg83
g3137
sg76
(lp4314
g69
(g90
g71
NtRp4315
(dp4316
g74
(dp4317
g94
g95
ssg83
g4311
sg76
(lp4318
S'meta'
p4319
asbag69
(g90
g71
NtRp4320
(dp4321
g74
(dp4322
g101
g102
ssg83
g4311
sg76
(lp4323
S':'
asbag69
(g90
g71
NtRp4324
(dp4325
g74
(dp4326
sg83
g4311
sg76
(lp4327
g69
(g70
g71
NtRp4328
(dp4329
g74
(dp4330
g82
I5
ssg83
g4324
sg76
(lp4331
g69
(g78
g71
NtRp4332
(dp4333
g74
(dp4334
g82
I4
ssg83
Nsg76
(lp4335
g69
(g85
g71
NtRp4336
(dp4337
g74
(dp4338
sg83
g4332
sg76
(lp4339
g69
(g90
g71
NtRp4340
(dp4341
g74
(dp4342
g94
g95
ssg83
g4336
sg76
(lp4343
S'author'
p4344
asbag69
(g90
g71
NtRp4345
(dp4346
g74
(dp4347
g101
g102
ssg83
g4336
sg76
(lp4348
S':'
asbag69
(g90
g71
NtRp4349
(dp4350
g74
(dp4351
sg83
g4336
sg76
(lp4352
g69
(g70
g71
NtRp4353
(dp4354
g74
(dp4355
g82
I4
ssg83
g4349
sg76
(lp4356
S'Your Name <you@example.com>'
p4357
asbasbasbag69
(g85
g71
NtRp4358
(dp4359
g74
(dp4360
sg83
g4332
sg76
(lp4361
g69
(g90
g71
NtRp4362
(dp4363
g74
(dp4364
g94
g95
ssg83
g4358
sg76
(lp4365
S'description'
p4366
asbag69
(g90
g71
NtRp4367
(dp4368
g74
(dp4369
g101
g102
ssg83
g4358
sg76
(lp4370
S':'
asbag69
(g90
g71
NtRp4371
(dp4372
g74
(dp4373
sg83
g4358
sg76
(lp4374
g69
(g70
g71
NtRp4375
(dp4376
g74
(dp4377
g82
I4
ssg83
g4371
sg76
(lp4378
S'a cool new app'
p4379
asbasbasbag69
(g85
g71
NtRp4380
(dp4381
g74
(dp4382
sg83
g4332
sg76
(lp4383
g69
(g90
g71
NtRp4384
(dp4385
g74
(dp4386
g94
g95
ssg83
g4380
sg76
(lp4387
S'generator'
p4388
asbag69
(g90
g71
NtRp4389
(dp4390
g74
(dp4391
g101
g102
ssg83
g4380
sg76
(lp4392
S':'
asbag69
(g90
g71
NtRp4393
(dp4394
g74
(dp4395
sg83
g4380
sg76
(lp4396
g69
(g70
g71
NtRp4397
(dp4398
g74
(dp4399
g82
I4
ssg83
g4393
sg76
(lp4400
S'Web2py Web Framework'
p4401
asbasbasbag69
(g85
g71
NtRp4402
(dp4403
g74
(dp4404
sg83
g4332
sg76
(lp4405
g69
(g90
g71
NtRp4406
(dp4407
g74
(dp4408
g94
g95
ssg83
g4402
sg76
(lp4409
S'keywords'
p4410
asbag69
(g90
g71
NtRp4411
(dp4412
g74
(dp4413
g101
g102
ssg83
g4402
sg76
(lp4414
S':'
asbag69
(g90
g71
NtRp4415
(dp4416
g74
(dp4417
sg83
g4402
sg76
(lp4418
g69
(g70
g71
NtRp4419
(dp4420
g74
(dp4421
g82
I4
ssg83
g4415
sg76
(lp4422
S'web2py, python, framework'
p4423
asbasbasbasbasbasbasbag69
(g85
g71
NtRp4424
(dp4425
g74
(dp4426
sg83
g3137
sg76
(lp4427
g69
(g90
g71
NtRp4428
(dp4429
g74
(dp4430
g94
g95
ssg83
g4424
sg76
(lp4431
S'models_to_run'
p4432
asbag69
(g90
g71
NtRp4433
(dp4434
g74
(dp4435
g101
g102
ssg83
g4424
sg76
(lp4436
S':'
asbag69
(g90
g71
NtRp4437
(dp4438
g74
(dp4439
sg83
g4424
sg76
(lp4440
g69
(g70
g71
NtRp4441
(dp4442
g74
(dp4443
g82
I5
ssg83
g4437
sg76
(lp4444
g69
(g78
g71
NtRp4445
(dp4446
g74
(dp4447
g82
I4
ssg83
Nsg76
(lp4448
g69
(g85
g71
NtRp4449
(dp4450
g74
(dp4451
sg83
g4445
sg76
(lp4452
g69
(g90
g71
NtRp4453
(dp4454
g74
(dp4455
sg83
g4449
sg76
(lp4456
g69
(g70
g71
NtRp4457
(dp4458
g74
(dp4459
g82
I4
ssg83
g4453
sg76
(lp4460
S'^\\w+\\.py$'
p4461
asbasbasbag69
(g85
g71
NtRp4462
(dp4463
g74
(dp4464
sg83
g4445
sg76
(lp4465
g69
(g90
g71
NtRp4466
(dp4467
g74
(dp4468
sg83
g4462
sg76
(lp4469
g69
(g70
g71
NtRp4470
(dp4471
g74
(dp4472
g82
I4
ssg83
g4466
sg76
(lp4473
S'^initial/\\w+\\.py$'
p4474
asbasbasbag69
(g85
g71
NtRp4475
(dp4476
g74
(dp4477
sg83
g4445
sg76
(lp4478
g69
(g90
g71
NtRp4479
(dp4480
g74
(dp4481
sg83
g4475
sg76
(lp4482
g69
(g70
g71
NtRp4483
(dp4484
g74
(dp4485
g82
I4
ssg83
g4479
sg76
(lp4486
S'^initial/show_cliente/\\w+\\.py$'
p4487
asbasbasbasbasbasbasbag69
(g85
g71
NtRp4488
(dp4489
g74
(dp4490
sg83
g3137
sg76
(lp4491
g69
(g90
g71
NtRp4492
(dp4493
g74
(dp4494
g94
g95
ssg83
g4488
sg76
(lp4495
S'postprocessing'
p4496
asbag69
(g90
g71
NtRp4497
(dp4498
g74
(dp4499
g101
g102
ssg83
g4488
sg76
(lp4500
S':'
asbag69
(g90
g71
NtRp4501
(dp4502
g74
(dp4503
sg83
g4488
sg76
(lp4504
g69
(g70
g71
NtRp4505
(dp4506
g74
(dp4507
g82
I5
ssg83
g4501
sg76
(lp4508
g69
(g78
g71
NtRp4509
(dp4510
g74
(dp4511
g82
I4
ssg83
Nsg76
(lp4512
sbasbasbasbag69
(g85
g71
NtRp4513
(dp4514
g74
(dp4515
sg83
g3137
sg76
(lp4516
g69
(g90
g71
NtRp4517
(dp4518
g74
(dp4519
g94
g95
ssg83
g4513
sg76
(lp4520
S'session_cookie_expires'
p4521
asbag69
(g90
g71
NtRp4522
(dp4523
g74
(dp4524
g101
g102
ssg83
g4513
sg76
(lp4525
S':'
asbag69
(g90
g71
NtRp4526
(dp4527
g74
(dp4528
sg83
g4513
sg76
(lp4529
g69
(g70
g71
NtRp4530
(dp4531
g74
(dp4532
g82
I5
ssg83
g4526
sg76
(lp4533
S'None'
p4534
asbasbasbag69
(g85
g71
NtRp4535
(dp4536
g74
(dp4537
sg83
g3137
sg76
(lp4538
g69
(g90
g71
NtRp4539
(dp4540
g74
(dp4541
g94
g95
ssg83
g4535
sg76
(lp4542
S'session_data_name'
p4543
asbag69
(g90
g71
NtRp4544
(dp4545
g74
(dp4546
g101
g102
ssg83
g4535
sg76
(lp4547
S':'
asbag69
(g90
g71
NtRp4548
(dp4549
g74
(dp4550
sg83
g4535
sg76
(lp4551
g69
(g70
g71
NtRp4552
(dp4553
g74
(dp4554
g82
I5
ssg83
g4548
sg76
(lp4555
S'session_data_projeto'
p4556
asbasbasbag69
(g85
g71
NtRp4557
(dp4558
g74
(dp4559
sg83
g3137
sg76
(lp4560
g69
(g90
g71
NtRp4561
(dp4562
g74
(dp4563
g94
g95
ssg83
g4557
sg76
(lp4564
S'session_file'
p4565
asbag69
(g90
g71
NtRp4566
(dp4567
g74
(dp4568
g101
g102
ssg83
g4557
sg76
(lp4569
S':'
asbag69
(g90
g71
NtRp4570
(dp4571
g74
(dp4572
sg83
g4557
sg76
(lp4573
g69
(g70
g71
NtRp4574
(dp4575
g74
(dp4576
g82
I5
ssg83
g4570
sg76
(lp4577
S"<open file '/var/www/conferencia/applications/projeto/sessions/127.0.0.1-0fe02c32-0739-4f06-a369-3bba6377da8b', mode 'rb+' at 0x7f7c50126930>"
p4578
asbasbasbag69
(g85
g71
NtRp4579
(dp4580
g74
(dp4581
sg83
g3137
sg76
(lp4582
g69
(g90
g71
NtRp4583
(dp4584
g74
(dp4585
g94
g95
ssg83
g4579
sg76
(lp4586
S'session_filename'
p4587
asbag69
(g90
g71
NtRp4588
(dp4589
g74
(dp4590
g101
g102
ssg83
g4579
sg76
(lp4591
S':'
asbag69
(g90
g71
NtRp4592
(dp4593
g74
(dp4594
sg83
g4579
sg76
(lp4595
g69
(g70
g71
NtRp4596
(dp4597
g74
(dp4598
g82
I5
ssg83
g4592
sg76
(lp4599
S'/var/www/conferencia/applications/projeto/sessions/127.0.0.1-0fe02c32-0739-4f06-a369-3bba6377da8b'
p4600
asbasbasbag69
(g85
g71
NtRp4601
(dp4602
g74
(dp4603
sg83
g3137
sg76
(lp4604
g69
(g90
g71
NtRp4605
(dp4606
g74
(dp4607
g94
g95
ssg83
g4601
sg76
(lp4608
S'session_id'
p4609
asbag69
(g90
g71
NtRp4610
(dp4611
g74
(dp4612
g101
g102
ssg83
g4601
sg76
(lp4613
S':'
asbag69
(g90
g71
NtRp4614
(dp4615
g74
(dp4616
sg83
g4601
sg76
(lp4617
g69
(g70
g71
NtRp4618
(dp4619
g74
(dp4620
g82
I5
ssg83
g4614
sg76
(lp4621
g487
asbasbasbag69
(g85
g71
NtRp4622
(dp4623
g74
(dp4624
sg83
g3137
sg76
(lp4625
g69
(g90
g71
NtRp4626
(dp4627
g74
(dp4628
g94
g95
ssg83
g4622
sg76
(lp4629
S'session_id_name'
p4630
asbag69
(g90
g71
NtRp4631
(dp4632
g74
(dp4633
g101
g102
ssg83
g4622
sg76
(lp4634
S':'
asbag69
(g90
g71
NtRp4635
(dp4636
g74
(dp4637
sg83
g4622
sg76
(lp4638
g69
(g70
g71
NtRp4639
(dp4640
g74
(dp4641
g82
I5
ssg83
g4635
sg76
(lp4642
g3194
asbasbasbag69
(g85
g71
NtRp4643
(dp4644
g74
(dp4645
sg83
g3137
sg76
(lp4646
g69
(g90
g71
NtRp4647
(dp4648
g74
(dp4649
g94
g95
ssg83
g4643
sg76
(lp4650
S'session_locked'
p4651
asbag69
(g90
g71
NtRp4652
(dp4653
g74
(dp4654
g101
g102
ssg83
g4643
sg76
(lp4655
S':'
asbag69
(g90
g71
NtRp4656
(dp4657
g74
(dp4658
sg83
g4643
sg76
(lp4659
g69
(g70
g71
NtRp4660
(dp4661
g74
(dp4662
g82
I5
ssg83
g4656
sg76
(lp4663
g1626
asbasbasbag69
(g85
g71
NtRp4664
(dp4665
g74
(dp4666
sg83
g3137
sg76
(lp4667
g69
(g90
g71
NtRp4668
(dp4669
g74
(dp4670
g94
g95
ssg83
g4664
sg76
(lp4671
S'session_new'
p4672
asbag69
(g90
g71
NtRp4673
(dp4674
g74
(dp4675
g101
g102
ssg83
g4664
sg76
(lp4676
S':'
asbag69
(g90
g71
NtRp4677
(dp4678
g74
(dp4679
sg83
g4664
sg76
(lp4680
g69
(g70
g71
NtRp4681
(dp4682
g74
(dp4683
g82
I5
ssg83
g4677
sg76
(lp4684
g112
asbasbasbag69
(g85
g71
NtRp4685
(dp4686
g74
(dp4687
sg83
g3137
sg76
(lp4688
g69
(g90
g71
NtRp4689
(dp4690
g74
(dp4691
g94
g95
ssg83
g4685
sg76
(lp4692
S'session_storage_type'
p4693
asbag69
(g90
g71
NtRp4694
(dp4695
g74
(dp4696
g101
g102
ssg83
g4685
sg76
(lp4697
S':'
asbag69
(g90
g71
NtRp4698
(dp4699
g74
(dp4700
sg83
g4685
sg76
(lp4701
g69
(g70
g71
NtRp4702
(dp4703
g74
(dp4704
g82
I5
ssg83
g4698
sg76
(lp4705
g3044
asbasbasbag69
(g85
g71
NtRp4706
(dp4707
g74
(dp4708
sg83
g3137
sg76
(lp4709
g69
(g90
g71
NtRp4710
(dp4711
g74
(dp4712
g94
g95
ssg83
g4706
sg76
(lp4713
S'status'
p4714
asbag69
(g90
g71
NtRp4715
(dp4716
g74
(dp4717
g101
g102
ssg83
g4706
sg76
(lp4718
S':'
asbag69
(g90
g71
NtRp4719
(dp4720
g74
(dp4721
sg83
g4706
sg76
(lp4722
g69
(g70
g71
NtRp4723
(dp4724
g74
(dp4725
g82
I5
ssg83
g4719
sg76
(lp4726
S'200'
p4727
asbasbasbag69
(g85
g71
NtRp4728
(dp4729
g74
(dp4730
sg83
g3137
sg76
(lp4731
g69
(g90
g71
NtRp4732
(dp4733
g74
(dp4734
g94
g95
ssg83
g4728
sg76
(lp4735
S'subtitle'
p4736
asbag69
(g90
g71
NtRp4737
(dp4738
g74
(dp4739
g101
g102
ssg83
g4728
sg76
(lp4740
S':'
asbag69
(g90
g71
NtRp4741
(dp4742
g74
(dp4743
sg83
g4728
sg76
(lp4744
g69
(g70
g71
NtRp4745
(dp4746
g74
(dp4747
g82
I5
ssg83
g4741
sg76
(lp4748
g3670
(S's\r\x00\x00\x00customize me!'
tRp4749
asbasbasbag69
(g85
g71
NtRp4750
(dp4751
g74
(dp4752
sg83
g3137
sg76
(lp4753
g69
(g90
g71
NtRp4754
(dp4755
g74
(dp4756
g94
g95
ssg83
g4750
sg76
(lp4757
S'title'
p4758
asbag69
(g90
g71
NtRp4759
(dp4760
g74
(dp4761
g101
g102
ssg83
g4750
sg76
(lp4762
S':'
asbag69
(g90
g71
NtRp4763
(dp4764
g74
(dp4765
sg83
g4750
sg76
(lp4766
g69
(g70
g71
NtRp4767
(dp4768
g74
(dp4769
g82
I5
ssg83
g4763
sg76
(lp4770
S'Projeto'
p4771
asbasbasbag69
(g85
g71
NtRp4772
(dp4773
g74
(dp4774
sg83
g3137
sg76
(lp4775
g69
(g90
g71
NtRp4776
(dp4777
g74
(dp4778
g94
g95
ssg83
g4772
sg76
(lp4779
S'view'
p4780
asbag69
(g90
g71
NtRp4781
(dp4782
g74
(dp4783
g101
g102
ssg83
g4772
sg76
(lp4784
S':'
asbag69
(g90
g71
NtRp4785
(dp4786
g74
(dp4787
sg83
g4772
sg76
(lp4788
g69
(g70
g71
NtRp4789
(dp4790
g74
(dp4791
g82
I5
ssg83
g4785
sg76
(lp4792
S'initial/show_cliente.html'
p4793
asbasbasbasbasbsS'locals'
p4794
(dp4795
g4
S"'/var/www/conferencia/applications/projeto/models/models.py'"
p4796
sg6
S'\'usuario = db.define_table("usuario",\\n      Field...suario\\\'),\\n      primarykey=[\\\'confno\\\']\\n      )\\n\\n\\n\\n\''
p4797
sssS'traceback'
p4798
S'Traceback (most recent call last):\n  File "/var/www/conferencia/gluon/restricted.py", line 211, in restricted\n    ccode = compile2(code, layer)\n  File "/var/www/conferencia/gluon/restricted.py", line 194, in compile2\n    return compile(code.rstrip().replace(\'\\r\\n\', \'\\n\') + \'\\n\', layer, \'exec\')\n  File "/var/www/conferencia/applications/projeto/models/models.py", line 11\n    Field("starttime", "datetime"),\n        ^\nSyntaxError: invalid syntax\n'
p4799
s.