(dp1
S'output'
p2
S"<type 'exceptions.IndentationError'> unexpected indent (models.py, line 11)"
p3
sS'layer'
p4
S'/var/www/conferencia/applications/projeto/models/models.py'
p5
sS'code'
p6
S'usuario = db.define_table("usuario",\n      Field("nome", notnull=True, unique=True),\n      Field("pin"),\n      Field("email"),\n      #auth.signature\n      format="%(nome)s")\n\n\nmeetme = db.define_table("meetme",\n      Field("confno", notnull=True, unique=True), AUTO_INCREMENT),\n      Field("starttime", "datetime"),\n      Field("endtime", "datetime"),\n      Field("membros_user", \'list:reference usuario\'),\n      primarykey=[\'confno\']\n      )\n\n\n\n'
p7
sS'snapshot'
p8
(dp9
S'exception'
p10
(dp11
S'__getslice__'
p12
S"<method-wrapper '__getslice__' of exceptions.IndentationError object>"
p13
sS'text'
p14
S'\'      Field("starttime", "datetime"),\\n\''
p15
sS'__str__'
p16
S"<method-wrapper '__str__' of exceptions.IndentationError object>"
p17
sS'__reduce__'
p18
S'<built-in method __reduce__ of exceptions.IndentationError object>'
p19
sS'__dict__'
p20
S'{}'
p21
sS'__sizeof__'
p22
S'<built-in method __sizeof__ of exceptions.IndentationError object>'
p23
sS'__init__'
p24
S"<method-wrapper '__init__' of exceptions.IndentationError object>"
p25
sS'__setattr__'
p26
S"<method-wrapper '__setattr__' of exceptions.IndentationError object>"
p27
sS'__reduce_ex__'
p28
S'<built-in method __reduce_ex__ of exceptions.IndentationError object>'
p29
sS'__new__'
p30
S'<built-in method __new__ of type object>'
p31
sS'__format__'
p32
S'<built-in method __format__ of exceptions.IndentationError object>'
p33
sS'__class__'
p34
S"<type 'exceptions.IndentationError'>"
p35
sS'filename'
p36
S"'/var/www/conferencia/applications/projeto/models/models.py'"
p37
sS'lineno'
p38
S'11'
p39
sS'msg'
p40
S"'unexpected indent'"
p41
sS'__doc__'
p42
S"'Improper indentation.'"
p43
sS'__getitem__'
p44
S"<method-wrapper '__getitem__' of exceptions.IndentationError object>"
p45
sS'__setstate__'
p46
S'<built-in method __setstate__ of exceptions.IndentationError object>'
p47
sS'__getattribute__'
p48
S"<method-wrapper '__getattribute__' of exceptions.IndentationError object>"
p49
sS'print_file_and_line'
p50
S'None'
p51
sS'args'
p52
S'(\'unexpected indent\', (\'/var/www/conferencia/applications/projeto/models/models.py\', 11, 6, \'      Field("starttime", "datetime"),\\n\'))'
p53
sS'__subclasshook__'
p54
S'<built-in method __subclasshook__ of type object>'
p55
sS'offset'
p56
S'6'
sS'__unicode__'
p57
S'<built-in method __unicode__ of exceptions.IndentationError object>'
p58
sS'__delattr__'
p59
S"<method-wrapper '__delattr__' of exceptions.IndentationError object>"
p60
sS'__repr__'
p61
S"<method-wrapper '__repr__' of exceptions.IndentationError object>"
p62
sS'__hash__'
p63
S"<method-wrapper '__hash__' of exceptions.IndentationError object>"
p64
ssS'evalue'
p65
S'unexpected indent (models.py, line 11)'
p66
sS'request'
p67
ccopy_reg
_reconstructor
p68
(cgluon.html
BEAUTIFY
p69
c__builtin__
object
p70
NtRp71
(dp72
S'attributes'
p73
(dp74
sS'components'
p75
(lp76
g68
(cgluon.html
TABLE
p77
g70
NtRp78
(dp79
g73
(dp80
S'level'
p81
I5
ssS'parent'
p82
Nsg75
(lp83
g68
(cgluon.html
TR
p84
g70
NtRp85
(dp86
g73
(dp87
sg82
g78
sg75
(lp88
g68
(cgluon.html
TD
p89
g70
NtRp90
(dp91
g73
(dp92
S'_style'
p93
S'font-weight:bold;vertical-align:top'
p94
ssg82
g85
sg75
(lp95
S'ajax'
p96
asbag68
(g89
g70
NtRp97
(dp98
g73
(dp99
S'_valign'
p100
S'top'
p101
ssg82
g85
sg75
(lp102
S':'
asbag68
(g89
g70
NtRp103
(dp104
g73
(dp105
sg82
g85
sg75
(lp106
g68
(g69
g70
NtRp107
(dp108
g73
(dp109
g81
I5
ssg82
g103
sg75
(lp110
S'False'
p111
asbasbasbag68
(g84
g70
NtRp112
(dp113
g73
(dp114
sg82
g78
sg75
(lp115
g68
(g89
g70
NtRp116
(dp117
g73
(dp118
g93
g94
ssg82
g112
sg75
(lp119
S'application'
p120
asbag68
(g89
g70
NtRp121
(dp122
g73
(dp123
g100
g101
ssg82
g112
sg75
(lp124
S':'
asbag68
(g89
g70
NtRp125
(dp126
g73
(dp127
sg82
g112
sg75
(lp128
g68
(g69
g70
NtRp129
(dp130
g73
(dp131
g81
I5
ssg82
g125
sg75
(lp132
S'projeto'
p133
asbasbasbag68
(g84
g70
NtRp134
(dp135
g73
(dp136
sg82
g78
sg75
(lp137
g68
(g89
g70
NtRp138
(dp139
g73
(dp140
g93
g94
ssg82
g134
sg75
(lp141
g52
asbag68
(g89
g70
NtRp142
(dp143
g73
(dp144
g100
g101
ssg82
g134
sg75
(lp145
S':'
asbag68
(g89
g70
NtRp146
(dp147
g73
(dp148
sg82
g134
sg75
(lp149
g68
(g69
g70
NtRp150
(dp151
g73
(dp152
g81
I5
ssg82
g146
sg75
(lp153
g68
(g77
g70
NtRp154
(dp155
g73
(dp156
g81
I4
ssg82
Nsg75
(lp157
sbasbasbasbag68
(g84
g70
NtRp158
(dp159
g73
(dp160
sg82
g78
sg75
(lp161
g68
(g89
g70
NtRp162
(dp163
g73
(dp164
g93
g94
ssg82
g158
sg75
(lp165
S'body'
p166
asbag68
(g89
g70
NtRp167
(dp168
g73
(dp169
g100
g101
ssg82
g158
sg75
(lp170
S':'
asbag68
(g89
g70
NtRp171
(dp172
g73
(dp173
sg82
g158
sg75
(lp174
g68
(g69
g70
NtRp175
(dp176
g73
(dp177
g81
I5
ssg82
g171
sg75
(lp178
S'<cStringIO.StringO object at 0x7f7c2c077dc0>'
p179
asbasbasbag68
(g84
g70
NtRp180
(dp181
g73
(dp182
sg82
g78
sg75
(lp183
g68
(g89
g70
NtRp184
(dp185
g73
(dp186
g93
g94
ssg82
g180
sg75
(lp187
S'cid'
p188
asbag68
(g89
g70
NtRp189
(dp190
g73
(dp191
g100
g101
ssg82
g180
sg75
(lp192
S':'
asbag68
(g89
g70
NtRp193
(dp194
g73
(dp195
sg82
g180
sg75
(lp196
g68
(g69
g70
NtRp197
(dp198
g73
(dp199
g81
I5
ssg82
g193
sg75
(lp200
S'None'
p201
asbasbasbag68
(g84
g70
NtRp202
(dp203
g73
(dp204
sg82
g78
sg75
(lp205
g68
(g89
g70
NtRp206
(dp207
g73
(dp208
g93
g94
ssg82
g202
sg75
(lp209
S'client'
p210
asbag68
(g89
g70
NtRp211
(dp212
g73
(dp213
g100
g101
ssg82
g202
sg75
(lp214
S':'
asbag68
(g89
g70
NtRp215
(dp216
g73
(dp217
sg82
g202
sg75
(lp218
g68
(g69
g70
NtRp219
(dp220
g73
(dp221
g81
I5
ssg82
g215
sg75
(lp222
S'127.0.0.1'
p223
asbasbasbag68
(g84
g70
NtRp224
(dp225
g73
(dp226
sg82
g78
sg75
(lp227
g68
(g89
g70
NtRp228
(dp229
g73
(dp230
g93
g94
ssg82
g224
sg75
(lp231
S'controller'
p232
asbag68
(g89
g70
NtRp233
(dp234
g73
(dp235
g100
g101
ssg82
g224
sg75
(lp236
S':'
asbag68
(g89
g70
NtRp237
(dp238
g73
(dp239
sg82
g224
sg75
(lp240
g68
(g69
g70
NtRp241
(dp242
g73
(dp243
g81
I5
ssg82
g237
sg75
(lp244
S'initial'
p245
asbasbasbag68
(g84
g70
NtRp246
(dp247
g73
(dp248
sg82
g78
sg75
(lp249
g68
(g89
g70
NtRp250
(dp251
g73
(dp252
g93
g94
ssg82
g246
sg75
(lp253
S'cookies'
p254
asbag68
(g89
g70
NtRp255
(dp256
g73
(dp257
g100
g101
ssg82
g246
sg75
(lp258
S':'
asbag68
(g89
g70
NtRp259
(dp260
g73
(dp261
sg82
g246
sg75
(lp262
g68
(g69
g70
NtRp263
(dp264
g73
(dp265
g81
I5
ssg82
g259
sg75
(lp266
g68
(g77
g70
NtRp267
(dp268
g73
(dp269
g81
I4
ssg82
Nsg75
(lp270
g68
(g84
g70
NtRp271
(dp272
g73
(dp273
sg82
g267
sg75
(lp274
g68
(g89
g70
NtRp275
(dp276
g73
(dp277
g93
g94
ssg82
g271
sg75
(lp278
S'session_id_admin'
p279
asbag68
(g89
g70
NtRp280
(dp281
g73
(dp282
g100
g101
ssg82
g271
sg75
(lp283
S':'
asbag68
(g89
g70
NtRp284
(dp285
g73
(dp286
sg82
g271
sg75
(lp287
g68
(g69
g70
NtRp288
(dp289
g73
(dp290
g81
I4
ssg82
g284
sg75
(lp291
S'127.0.0.1-f08163e7-63a0-4e97-8334-13b9dc892d78'
p292
ag68
(g77
g70
NtRp293
(dp294
g73
(dp295
g81
I3
ssg82
Nsg75
(lp296
g68
(g84
g70
NtRp297
(dp298
g73
(dp299
sg82
g293
sg75
(lp300
g68
(g89
g70
NtRp301
(dp302
g73
(dp303
g93
g94
ssg82
g297
sg75
(lp304
S'comment'
p305
asbag68
(g89
g70
NtRp306
(dp307
g73
(dp308
g100
g101
ssg82
g297
sg75
(lp309
S':'
asbag68
(g89
g70
NtRp310
(dp311
g73
(dp312
sg82
g297
sg75
(lp313
g68
(g69
g70
NtRp314
(dp315
g73
(dp316
g81
I3
ssg82
g310
sg75
(lp317
S''
asbasbasbag68
(g84
g70
NtRp318
(dp319
g73
(dp320
sg82
g293
sg75
(lp321
g68
(g89
g70
NtRp322
(dp323
g73
(dp324
g93
g94
ssg82
g318
sg75
(lp325
S'domain'
p326
asbag68
(g89
g70
NtRp327
(dp328
g73
(dp329
g100
g101
ssg82
g318
sg75
(lp330
S':'
asbag68
(g89
g70
NtRp331
(dp332
g73
(dp333
sg82
g318
sg75
(lp334
g68
(g69
g70
NtRp335
(dp336
g73
(dp337
g81
I3
ssg82
g331
sg75
(lp338
S''
asbasbasbag68
(g84
g70
NtRp339
(dp340
g73
(dp341
sg82
g293
sg75
(lp342
g68
(g89
g70
NtRp343
(dp344
g73
(dp345
g93
g94
ssg82
g339
sg75
(lp346
S'expires'
p347
asbag68
(g89
g70
NtRp348
(dp349
g73
(dp350
g100
g101
ssg82
g339
sg75
(lp351
S':'
asbag68
(g89
g70
NtRp352
(dp353
g73
(dp354
sg82
g339
sg75
(lp355
g68
(g69
g70
NtRp356
(dp357
g73
(dp358
g81
I3
ssg82
g352
sg75
(lp359
S''
asbasbasbag68
(g84
g70
NtRp360
(dp361
g73
(dp362
sg82
g293
sg75
(lp363
g68
(g89
g70
NtRp364
(dp365
g73
(dp366
g93
g94
ssg82
g360
sg75
(lp367
S'httponly'
p368
asbag68
(g89
g70
NtRp369
(dp370
g73
(dp371
g100
g101
ssg82
g360
sg75
(lp372
S':'
asbag68
(g89
g70
NtRp373
(dp374
g73
(dp375
sg82
g360
sg75
(lp376
g68
(g69
g70
NtRp377
(dp378
g73
(dp379
g81
I3
ssg82
g373
sg75
(lp380
S''
asbasbasbag68
(g84
g70
NtRp381
(dp382
g73
(dp383
sg82
g293
sg75
(lp384
g68
(g89
g70
NtRp385
(dp386
g73
(dp387
g93
g94
ssg82
g381
sg75
(lp388
S'max-age'
p389
asbag68
(g89
g70
NtRp390
(dp391
g73
(dp392
g100
g101
ssg82
g381
sg75
(lp393
S':'
asbag68
(g89
g70
NtRp394
(dp395
g73
(dp396
sg82
g381
sg75
(lp397
g68
(g69
g70
NtRp398
(dp399
g73
(dp400
g81
I3
ssg82
g394
sg75
(lp401
S''
asbasbasbag68
(g84
g70
NtRp402
(dp403
g73
(dp404
sg82
g293
sg75
(lp405
g68
(g89
g70
NtRp406
(dp407
g73
(dp408
g93
g94
ssg82
g402
sg75
(lp409
S'path'
p410
asbag68
(g89
g70
NtRp411
(dp412
g73
(dp413
g100
g101
ssg82
g402
sg75
(lp414
S':'
asbag68
(g89
g70
NtRp415
(dp416
g73
(dp417
sg82
g402
sg75
(lp418
g68
(g69
g70
NtRp419
(dp420
g73
(dp421
g81
I3
ssg82
g415
sg75
(lp422
S''
asbasbasbag68
(g84
g70
NtRp423
(dp424
g73
(dp425
sg82
g293
sg75
(lp426
g68
(g89
g70
NtRp427
(dp428
g73
(dp429
g93
g94
ssg82
g423
sg75
(lp430
S'secure'
p431
asbag68
(g89
g70
NtRp432
(dp433
g73
(dp434
g100
g101
ssg82
g423
sg75
(lp435
S':'
asbag68
(g89
g70
NtRp436
(dp437
g73
(dp438
sg82
g423
sg75
(lp439
g68
(g69
g70
NtRp440
(dp441
g73
(dp442
g81
I3
ssg82
g436
sg75
(lp443
S''
asbasbasbag68
(g84
g70
NtRp444
(dp445
g73
(dp446
sg82
g293
sg75
(lp447
g68
(g89
g70
NtRp448
(dp449
g73
(dp450
g93
g94
ssg82
g444
sg75
(lp451
S'version'
p452
asbag68
(g89
g70
NtRp453
(dp454
g73
(dp455
g100
g101
ssg82
g444
sg75
(lp456
S':'
asbag68
(g89
g70
NtRp457
(dp458
g73
(dp459
sg82
g444
sg75
(lp460
g68
(g69
g70
NtRp461
(dp462
g73
(dp463
g81
I3
ssg82
g457
sg75
(lp464
S''
asbasbasbasbasbasbasbag68
(g84
g70
NtRp465
(dp466
g73
(dp467
sg82
g267
sg75
(lp468
g68
(g89
g70
NtRp469
(dp470
g73
(dp471
g93
g94
ssg82
g465
sg75
(lp472
S'session_id_projeto'
p473
asbag68
(g89
g70
NtRp474
(dp475
g73
(dp476
g100
g101
ssg82
g465
sg75
(lp477
S':'
asbag68
(g89
g70
NtRp478
(dp479
g73
(dp480
sg82
g465
sg75
(lp481
g68
(g69
g70
NtRp482
(dp483
g73
(dp484
g81
I4
ssg82
g478
sg75
(lp485
S'127.0.0.1-0fe02c32-0739-4f06-a369-3bba6377da8b'
p486
ag68
(g77
g70
NtRp487
(dp488
g73
(dp489
g81
I3
ssg82
Nsg75
(lp490
g68
(g84
g70
NtRp491
(dp492
g73
(dp493
sg82
g487
sg75
(lp494
g68
(g89
g70
NtRp495
(dp496
g73
(dp497
g93
g94
ssg82
g491
sg75
(lp498
g305
asbag68
(g89
g70
NtRp499
(dp500
g73
(dp501
g100
g101
ssg82
g491
sg75
(lp502
S':'
asbag68
(g89
g70
NtRp503
(dp504
g73
(dp505
sg82
g491
sg75
(lp506
g68
(g69
g70
NtRp507
(dp508
g73
(dp509
g81
I3
ssg82
g503
sg75
(lp510
S''
asbasbasbag68
(g84
g70
NtRp511
(dp512
g73
(dp513
sg82
g487
sg75
(lp514
g68
(g89
g70
NtRp515
(dp516
g73
(dp517
g93
g94
ssg82
g511
sg75
(lp518
g326
asbag68
(g89
g70
NtRp519
(dp520
g73
(dp521
g100
g101
ssg82
g511
sg75
(lp522
S':'
asbag68
(g89
g70
NtRp523
(dp524
g73
(dp525
sg82
g511
sg75
(lp526
g68
(g69
g70
NtRp527
(dp528
g73
(dp529
g81
I3
ssg82
g523
sg75
(lp530
S''
asbasbasbag68
(g84
g70
NtRp531
(dp532
g73
(dp533
sg82
g487
sg75
(lp534
g68
(g89
g70
NtRp535
(dp536
g73
(dp537
g93
g94
ssg82
g531
sg75
(lp538
g347
asbag68
(g89
g70
NtRp539
(dp540
g73
(dp541
g100
g101
ssg82
g531
sg75
(lp542
S':'
asbag68
(g89
g70
NtRp543
(dp544
g73
(dp545
sg82
g531
sg75
(lp546
g68
(g69
g70
NtRp547
(dp548
g73
(dp549
g81
I3
ssg82
g543
sg75
(lp550
S''
asbasbasbag68
(g84
g70
NtRp551
(dp552
g73
(dp553
sg82
g487
sg75
(lp554
g68
(g89
g70
NtRp555
(dp556
g73
(dp557
g93
g94
ssg82
g551
sg75
(lp558
g368
asbag68
(g89
g70
NtRp559
(dp560
g73
(dp561
g100
g101
ssg82
g551
sg75
(lp562
S':'
asbag68
(g89
g70
NtRp563
(dp564
g73
(dp565
sg82
g551
sg75
(lp566
g68
(g69
g70
NtRp567
(dp568
g73
(dp569
g81
I3
ssg82
g563
sg75
(lp570
S''
asbasbasbag68
(g84
g70
NtRp571
(dp572
g73
(dp573
sg82
g487
sg75
(lp574
g68
(g89
g70
NtRp575
(dp576
g73
(dp577
g93
g94
ssg82
g571
sg75
(lp578
g389
asbag68
(g89
g70
NtRp579
(dp580
g73
(dp581
g100
g101
ssg82
g571
sg75
(lp582
S':'
asbag68
(g89
g70
NtRp583
(dp584
g73
(dp585
sg82
g571
sg75
(lp586
g68
(g69
g70
NtRp587
(dp588
g73
(dp589
g81
I3
ssg82
g583
sg75
(lp590
S''
asbasbasbag68
(g84
g70
NtRp591
(dp592
g73
(dp593
sg82
g487
sg75
(lp594
g68
(g89
g70
NtRp595
(dp596
g73
(dp597
g93
g94
ssg82
g591
sg75
(lp598
g410
asbag68
(g89
g70
NtRp599
(dp600
g73
(dp601
g100
g101
ssg82
g591
sg75
(lp602
S':'
asbag68
(g89
g70
NtRp603
(dp604
g73
(dp605
sg82
g591
sg75
(lp606
g68
(g69
g70
NtRp607
(dp608
g73
(dp609
g81
I3
ssg82
g603
sg75
(lp610
S''
asbasbasbag68
(g84
g70
NtRp611
(dp612
g73
(dp613
sg82
g487
sg75
(lp614
g68
(g89
g70
NtRp615
(dp616
g73
(dp617
g93
g94
ssg82
g611
sg75
(lp618
g431
asbag68
(g89
g70
NtRp619
(dp620
g73
(dp621
g100
g101
ssg82
g611
sg75
(lp622
S':'
asbag68
(g89
g70
NtRp623
(dp624
g73
(dp625
sg82
g611
sg75
(lp626
g68
(g69
g70
NtRp627
(dp628
g73
(dp629
g81
I3
ssg82
g623
sg75
(lp630
S''
asbasbasbag68
(g84
g70
NtRp631
(dp632
g73
(dp633
sg82
g487
sg75
(lp634
g68
(g89
g70
NtRp635
(dp636
g73
(dp637
g93
g94
ssg82
g631
sg75
(lp638
g452
asbag68
(g89
g70
NtRp639
(dp640
g73
(dp641
g100
g101
ssg82
g631
sg75
(lp642
S':'
asbag68
(g89
g70
NtRp643
(dp644
g73
(dp645
sg82
g631
sg75
(lp646
g68
(g69
g70
NtRp647
(dp648
g73
(dp649
g81
I3
ssg82
g643
sg75
(lp650
S''
asbasbasbasbasbasbasbasbasbasbasbag68
(g84
g70
NtRp651
(dp652
g73
(dp653
sg82
g78
sg75
(lp654
g68
(g89
g70
NtRp655
(dp656
g73
(dp657
g93
g94
ssg82
g651
sg75
(lp658
S'env'
p659
asbag68
(g89
g70
NtRp660
(dp661
g73
(dp662
g100
g101
ssg82
g651
sg75
(lp663
S':'
asbag68
(g89
g70
NtRp664
(dp665
g73
(dp666
sg82
g651
sg75
(lp667
g68
(g69
g70
NtRp668
(dp669
g73
(dp670
g81
I5
ssg82
g664
sg75
(lp671
g68
(g77
g70
NtRp672
(dp673
g73
(dp674
g81
I4
ssg82
Nsg75
(lp675
g68
(g84
g70
NtRp676
(dp677
g73
(dp678
sg82
g672
sg75
(lp679
g68
(g89
g70
NtRp680
(dp681
g73
(dp682
g93
g94
ssg82
g676
sg75
(lp683
S'app_folders'
p684
asbag68
(g89
g70
NtRp685
(dp686
g73
(dp687
g100
g101
ssg82
g676
sg75
(lp688
S':'
asbag68
(g89
g70
NtRp689
(dp690
g73
(dp691
sg82
g676
sg75
(lp692
g68
(g69
g70
NtRp693
(dp694
g73
(dp695
g81
I4
ssg82
g689
sg75
(lp696
S"set(['/var/www/conferencia/applications/projeto/'])"
p697
asbasbasbag68
(g84
g70
NtRp698
(dp699
g73
(dp700
sg82
g672
sg75
(lp701
g68
(g89
g70
NtRp702
(dp703
g73
(dp704
g93
g94
ssg82
g698
sg75
(lp705
S'applications_parent'
p706
asbag68
(g89
g70
NtRp707
(dp708
g73
(dp709
g100
g101
ssg82
g698
sg75
(lp710
S':'
asbag68
(g89
g70
NtRp711
(dp712
g73
(dp713
sg82
g698
sg75
(lp714
g68
(g69
g70
NtRp715
(dp716
g73
(dp717
g81
I4
ssg82
g711
sg75
(lp718
S'/var/www/conferencia'
p719
asbasbasbag68
(g84
g70
NtRp720
(dp721
g73
(dp722
sg82
g672
sg75
(lp723
g68
(g89
g70
NtRp724
(dp725
g73
(dp726
g93
g94
ssg82
g720
sg75
(lp727
S'cmd_args'
p728
asbag68
(g89
g70
NtRp729
(dp730
g73
(dp731
g100
g101
ssg82
g720
sg75
(lp732
S':'
asbag68
(g89
g70
NtRp733
(dp734
g73
(dp735
sg82
g720
sg75
(lp736
g68
(g69
g70
NtRp737
(dp738
g73
(dp739
g81
I4
ssg82
g733
sg75
(lp740
g68
(g77
g70
NtRp741
(dp742
g73
(dp743
g81
I3
ssg82
Nsg75
(lp744
sbasbasbasbag68
(g84
g70
NtRp745
(dp746
g73
(dp747
sg82
g672
sg75
(lp748
g68
(g89
g70
NtRp749
(dp750
g73
(dp751
g93
g94
ssg82
g745
sg75
(lp752
S'cmd_options'
p753
asbag68
(g89
g70
NtRp754
(dp755
g73
(dp756
g100
g101
ssg82
g745
sg75
(lp757
S':'
asbag68
(g89
g70
NtRp758
(dp759
g73
(dp760
sg82
g745
sg75
(lp761
g68
(g69
g70
NtRp762
(dp763
g73
(dp764
g81
I4
ssg82
g758
sg75
(lp765
S"<Values at 0x2e0b248: {'verbose': False, 'ip': '127.0.0.1', 'with_scheduler': False, 'ips': [], 'shutdown_timeout': 5, 'taskbar': False, 'port': 8000, 'maxthreads': None, 'softcron': False, 'server_name': 'fernando-workstation', 'bpython': False, 'nogui': False, 'pid_filename': 'httpserver.pid', 'extcron': False, 'runcron': False, 'run_system_tests': False, 'test': None, 'folder': '/var/www/conferencia', 'config': '', 'minthreads': None, 'winservice': '', 'shell': None, 'run': '', 'log_filename': 'httpserver.log', 'debuglevel': 30, 'args': [''], 'socket_timeout': 5, 'ssl_ca_certificate': None, 'scheduler': None, 'profiler_filename': None, 'ssl_private_key': '', 'scheduler_groups': None, 'password': '123456', 'request_queue_size': 5, 'ssl_certificate': '', 'cronjob': False, 'numthreads': None, 'quiet': False, 'interfaces': None, 'import_models': False, 'timeout': 10, 'plain': False, 'nobanner': False}>"
p766
asbasbasbag68
(g84
g70
NtRp767
(dp768
g73
(dp769
sg82
g672
sg75
(lp770
g68
(g89
g70
NtRp771
(dp772
g73
(dp773
g93
g94
ssg82
g767
sg75
(lp774
S'db_sessions'
p775
asbag68
(g89
g70
NtRp776
(dp777
g73
(dp778
g100
g101
ssg82
g767
sg75
(lp779
S':'
asbag68
(g89
g70
NtRp780
(dp781
g73
(dp782
sg82
g767
sg75
(lp783
g68
(g69
g70
NtRp784
(dp785
g73
(dp786
g81
I4
ssg82
g780
sg75
(lp787
S'set([])'
p788
asbasbasbag68
(g84
g70
NtRp789
(dp790
g73
(dp791
sg82
g672
sg75
(lp792
g68
(g89
g70
NtRp793
(dp794
g73
(dp795
g93
g94
ssg82
g789
sg75
(lp796
S'debugging'
p797
asbag68
(g89
g70
NtRp798
(dp799
g73
(dp800
g100
g101
ssg82
g789
sg75
(lp801
S':'
asbag68
(g89
g70
NtRp802
(dp803
g73
(dp804
sg82
g789
sg75
(lp805
g68
(g69
g70
NtRp806
(dp807
g73
(dp808
g81
I4
ssg82
g802
sg75
(lp809
g111
asbasbasbag68
(g84
g70
NtRp810
(dp811
g73
(dp812
sg82
g672
sg75
(lp813
g68
(g89
g70
NtRp814
(dp815
g73
(dp816
g93
g94
ssg82
g810
sg75
(lp817
S'gluon_parent'
p818
asbag68
(g89
g70
NtRp819
(dp820
g73
(dp821
g100
g101
ssg82
g810
sg75
(lp822
S':'
asbag68
(g89
g70
NtRp823
(dp824
g73
(dp825
sg82
g810
sg75
(lp826
g68
(g69
g70
NtRp827
(dp828
g73
(dp829
g81
I4
ssg82
g823
sg75
(lp830
S'/var/www/conferencia'
p831
asbasbasbag68
(g84
g70
NtRp832
(dp833
g73
(dp834
sg82
g672
sg75
(lp835
g68
(g89
g70
NtRp836
(dp837
g73
(dp838
g93
g94
ssg82
g832
sg75
(lp839
S'http_accept'
p840
asbag68
(g89
g70
NtRp841
(dp842
g73
(dp843
g100
g101
ssg82
g832
sg75
(lp844
S':'
asbag68
(g89
g70
NtRp845
(dp846
g73
(dp847
sg82
g832
sg75
(lp848
g68
(g69
g70
NtRp849
(dp850
g73
(dp851
g81
I4
ssg82
g845
sg75
(lp852
S'text/html,application/xhtml+xml,application/xml;q=0.9,*/*;q=0.8'
p853
asbasbasbag68
(g84
g70
NtRp854
(dp855
g73
(dp856
sg82
g672
sg75
(lp857
g68
(g89
g70
NtRp858
(dp859
g73
(dp860
g93
g94
ssg82
g854
sg75
(lp861
S'http_accept_charset'
p862
asbag68
(g89
g70
NtRp863
(dp864
g73
(dp865
g100
g101
ssg82
g854
sg75
(lp866
S':'
asbag68
(g89
g70
NtRp867
(dp868
g73
(dp869
sg82
g854
sg75
(lp870
g68
(g69
g70
NtRp871
(dp872
g73
(dp873
g81
I4
ssg82
g867
sg75
(lp874
S'ISO-8859-1,utf-8;q=0.7,*;q=0.3'
p875
asbasbasbag68
(g84
g70
NtRp876
(dp877
g73
(dp878
sg82
g672
sg75
(lp879
g68
(g89
g70
NtRp880
(dp881
g73
(dp882
g93
g94
ssg82
g876
sg75
(lp883
S'http_accept_encoding'
p884
asbag68
(g89
g70
NtRp885
(dp886
g73
(dp887
g100
g101
ssg82
g876
sg75
(lp888
S':'
asbag68
(g89
g70
NtRp889
(dp890
g73
(dp891
sg82
g876
sg75
(lp892
g68
(g69
g70
NtRp893
(dp894
g73
(dp895
g81
I4
ssg82
g889
sg75
(lp896
S'gzip,deflate,sdch'
p897
asbasbasbag68
(g84
g70
NtRp898
(dp899
g73
(dp900
sg82
g672
sg75
(lp901
g68
(g89
g70
NtRp902
(dp903
g73
(dp904
g93
g94
ssg82
g898
sg75
(lp905
S'http_accept_language'
p906
asbag68
(g89
g70
NtRp907
(dp908
g73
(dp909
g100
g101
ssg82
g898
sg75
(lp910
S':'
asbag68
(g89
g70
NtRp911
(dp912
g73
(dp913
sg82
g898
sg75
(lp914
g68
(g69
g70
NtRp915
(dp916
g73
(dp917
g81
I4
ssg82
g911
sg75
(lp918
S'pt-BR,pt;q=0.8,en-US;q=0.6,en;q=0.4'
p919
asbasbasbag68
(g84
g70
NtRp920
(dp921
g73
(dp922
sg82
g672
sg75
(lp923
g68
(g89
g70
NtRp924
(dp925
g73
(dp926
g93
g94
ssg82
g920
sg75
(lp927
S'http_cache_control'
p928
asbag68
(g89
g70
NtRp929
(dp930
g73
(dp931
g100
g101
ssg82
g920
sg75
(lp932
S':'
asbag68
(g89
g70
NtRp933
(dp934
g73
(dp935
sg82
g920
sg75
(lp936
g68
(g69
g70
NtRp937
(dp938
g73
(dp939
g81
I4
ssg82
g933
sg75
(lp940
S'max-age=0'
p941
asbasbasbag68
(g84
g70
NtRp942
(dp943
g73
(dp944
sg82
g672
sg75
(lp945
g68
(g89
g70
NtRp946
(dp947
g73
(dp948
g93
g94
ssg82
g942
sg75
(lp949
S'http_connection'
p950
asbag68
(g89
g70
NtRp951
(dp952
g73
(dp953
g100
g101
ssg82
g942
sg75
(lp954
S':'
asbag68
(g89
g70
NtRp955
(dp956
g73
(dp957
sg82
g942
sg75
(lp958
g68
(g69
g70
NtRp959
(dp960
g73
(dp961
g81
I4
ssg82
g955
sg75
(lp962
S'keep-alive'
p963
asbasbasbag68
(g84
g70
NtRp964
(dp965
g73
(dp966
sg82
g672
sg75
(lp967
g68
(g89
g70
NtRp968
(dp969
g73
(dp970
g93
g94
ssg82
g964
sg75
(lp971
S'http_cookie'
p972
asbag68
(g89
g70
NtRp973
(dp974
g73
(dp975
g100
g101
ssg82
g964
sg75
(lp976
S':'
asbag68
(g89
g70
NtRp977
(dp978
g73
(dp979
sg82
g964
sg75
(lp980
g68
(g69
g70
NtRp981
(dp982
g73
(dp983
g81
I4
ssg82
g977
sg75
(lp984
S'session_id_admin=127.0.0.1-f08163e7-63a0-4e97-8334-13b9dc892d78; session_id_projeto=127.0.0.1-0fe02c32-0739-4f06-a369-3bba6377da8b'
p985
asbasbasbag68
(g84
g70
NtRp986
(dp987
g73
(dp988
sg82
g672
sg75
(lp989
g68
(g89
g70
NtRp990
(dp991
g73
(dp992
g93
g94
ssg82
g986
sg75
(lp993
S'http_host'
p994
asbag68
(g89
g70
NtRp995
(dp996
g73
(dp997
g100
g101
ssg82
g986
sg75
(lp998
S':'
asbag68
(g89
g70
NtRp999
(dp1000
g73
(dp1001
sg82
g986
sg75
(lp1002
g68
(g69
g70
NtRp1003
(dp1004
g73
(dp1005
g81
I4
ssg82
g999
sg75
(lp1006
S'127.0.0.1:8000'
p1007
asbasbasbag68
(g84
g70
NtRp1008
(dp1009
g73
(dp1010
sg82
g672
sg75
(lp1011
g68
(g89
g70
NtRp1012
(dp1013
g73
(dp1014
g93
g94
ssg82
g1008
sg75
(lp1015
S'http_referer'
p1016
asbag68
(g89
g70
NtRp1017
(dp1018
g73
(dp1019
g100
g101
ssg82
g1008
sg75
(lp1020
S':'
asbag68
(g89
g70
NtRp1021
(dp1022
g73
(dp1023
sg82
g1008
sg75
(lp1024
g68
(g69
g70
NtRp1025
(dp1026
g73
(dp1027
g81
I4
ssg82
g1021
sg75
(lp1028
S'http://127.0.0.1:8000/show_cliente'
p1029
asbasbasbag68
(g84
g70
NtRp1030
(dp1031
g73
(dp1032
sg82
g672
sg75
(lp1033
g68
(g89
g70
NtRp1034
(dp1035
g73
(dp1036
g93
g94
ssg82
g1030
sg75
(lp1037
S'http_user_agent'
p1038
asbag68
(g89
g70
NtRp1039
(dp1040
g73
(dp1041
g100
g101
ssg82
g1030
sg75
(lp1042
S':'
asbag68
(g89
g70
NtRp1043
(dp1044
g73
(dp1045
sg82
g1030
sg75
(lp1046
g68
(g69
g70
NtRp1047
(dp1048
g73
(dp1049
g81
I4
ssg82
g1043
sg75
(lp1050
S'Mozilla/5.0 (X11; Linux x86_64) AppleWebKit/537.4 (KHTML, like Gecko) Ubuntu/12.10 Chromium/22.0.1229.94 Chrome/22.0.1229.94 Safari/537.4'
p1051
asbasbasbag68
(g84
g70
NtRp1052
(dp1053
g73
(dp1054
sg82
g672
sg75
(lp1055
g68
(g89
g70
NtRp1056
(dp1057
g73
(dp1058
g93
g94
ssg82
g1052
sg75
(lp1059
S'is_jython'
p1060
asbag68
(g89
g70
NtRp1061
(dp1062
g73
(dp1063
g100
g101
ssg82
g1052
sg75
(lp1064
S':'
asbag68
(g89
g70
NtRp1065
(dp1066
g73
(dp1067
sg82
g1052
sg75
(lp1068
g68
(g69
g70
NtRp1069
(dp1070
g73
(dp1071
g81
I4
ssg82
g1065
sg75
(lp1072
g111
asbasbasbag68
(g84
g70
NtRp1073
(dp1074
g73
(dp1075
sg82
g672
sg75
(lp1076
g68
(g89
g70
NtRp1077
(dp1078
g73
(dp1079
g93
g94
ssg82
g1073
sg75
(lp1080
S'is_pypy'
p1081
asbag68
(g89
g70
NtRp1082
(dp1083
g73
(dp1084
g100
g101
ssg82
g1073
sg75
(lp1085
S':'
asbag68
(g89
g70
NtRp1086
(dp1087
g73
(dp1088
sg82
g1073
sg75
(lp1089
g68
(g69
g70
NtRp1090
(dp1091
g73
(dp1092
g81
I4
ssg82
g1086
sg75
(lp1093
g111
asbasbasbag68
(g84
g70
NtRp1094
(dp1095
g73
(dp1096
sg82
g672
sg75
(lp1097
g68
(g89
g70
NtRp1098
(dp1099
g73
(dp1100
g93
g94
ssg82
g1094
sg75
(lp1101
S'local_hosts'
p1102
asbag68
(g89
g70
NtRp1103
(dp1104
g73
(dp1105
g100
g101
ssg82
g1094
sg75
(lp1106
S':'
asbag68
(g89
g70
NtRp1107
(dp1108
g73
(dp1109
sg82
g1094
sg75
(lp1110
g68
(g69
g70
NtRp1111
(dp1112
g73
(dp1113
g81
I4
ssg82
g1107
sg75
(lp1114
g68
(g77
g70
NtRp1115
(dp1116
g73
(dp1117
g81
I3
ssg82
Nsg75
(lp1118
g68
(g84
g70
NtRp1119
(dp1120
g73
(dp1121
sg82
g1115
sg75
(lp1122
g68
(g89
g70
NtRp1123
(dp1124
g73
(dp1125
sg82
g1119
sg75
(lp1126
g68
(g69
g70
NtRp1127
(dp1128
g73
(dp1129
g81
I3
ssg82
g1123
sg75
(lp1130
S'::1'
p1131
asbasbasbag68
(g84
g70
NtRp1132
(dp1133
g73
(dp1134
sg82
g1115
sg75
(lp1135
g68
(g89
g70
NtRp1136
(dp1137
g73
(dp1138
sg82
g1132
sg75
(lp1139
g68
(g69
g70
NtRp1140
(dp1141
g73
(dp1142
g81
I3
ssg82
g1136
sg75
(lp1143
S'::ffff:127.0.0.1'
p1144
asbasbasbag68
(g84
g70
NtRp1145
(dp1146
g73
(dp1147
sg82
g1115
sg75
(lp1148
g68
(g89
g70
NtRp1149
(dp1150
g73
(dp1151
sg82
g1145
sg75
(lp1152
g68
(g69
g70
NtRp1153
(dp1154
g73
(dp1155
g81
I3
ssg82
g1149
sg75
(lp1156
S'127.0.0.1'
p1157
asbasbasbag68
(g84
g70
NtRp1158
(dp1159
g73
(dp1160
sg82
g1115
sg75
(lp1161
g68
(g89
g70
NtRp1162
(dp1163
g73
(dp1164
sg82
g1158
sg75
(lp1165
g68
(g69
g70
NtRp1166
(dp1167
g73
(dp1168
g81
I3
ssg82
g1162
sg75
(lp1169
S'fernando-workstation'
p1170
asbasbasbasbasbasbasbag68
(g84
g70
NtRp1171
(dp1172
g73
(dp1173
sg82
g672
sg75
(lp1174
g68
(g89
g70
NtRp1175
(dp1176
g73
(dp1177
g93
g94
ssg82
g1171
sg75
(lp1178
S'path_info'
p1179
asbag68
(g89
g70
NtRp1180
(dp1181
g73
(dp1182
g100
g101
ssg82
g1171
sg75
(lp1183
S':'
asbag68
(g89
g70
NtRp1184
(dp1185
g73
(dp1186
sg82
g1171
sg75
(lp1187
g68
(g69
g70
NtRp1188
(dp1189
g73
(dp1190
g81
I4
ssg82
g1184
sg75
(lp1191
S'/show_cliente'
p1192
asbasbasbag68
(g84
g70
NtRp1193
(dp1194
g73
(dp1195
sg82
g672
sg75
(lp1196
g68
(g89
g70
NtRp1197
(dp1198
g73
(dp1199
g93
g94
ssg82
g1193
sg75
(lp1200
S'query_string'
p1201
asbag68
(g89
g70
NtRp1202
(dp1203
g73
(dp1204
g100
g101
ssg82
g1193
sg75
(lp1205
S':'
asbag68
(g89
g70
NtRp1206
(dp1207
g73
(dp1208
sg82
g1193
sg75
(lp1209
g68
(g69
g70
NtRp1210
(dp1211
g73
(dp1212
g81
I4
ssg82
g1206
sg75
(lp1213
S''
asbasbasbag68
(g84
g70
NtRp1214
(dp1215
g73
(dp1216
sg82
g672
sg75
(lp1217
g68
(g89
g70
NtRp1218
(dp1219
g73
(dp1220
g93
g94
ssg82
g1214
sg75
(lp1221
S'remote_addr'
p1222
asbag68
(g89
g70
NtRp1223
(dp1224
g73
(dp1225
g100
g101
ssg82
g1214
sg75
(lp1226
S':'
asbag68
(g89
g70
NtRp1227
(dp1228
g73
(dp1229
sg82
g1214
sg75
(lp1230
g68
(g69
g70
NtRp1231
(dp1232
g73
(dp1233
g81
I4
ssg82
g1227
sg75
(lp1234
g223
asbasbasbag68
(g84
g70
NtRp1235
(dp1236
g73
(dp1237
sg82
g672
sg75
(lp1238
g68
(g89
g70
NtRp1239
(dp1240
g73
(dp1241
g93
g94
ssg82
g1235
sg75
(lp1242
S'remote_port'
p1243
asbag68
(g89
g70
NtRp1244
(dp1245
g73
(dp1246
g100
g101
ssg82
g1235
sg75
(lp1247
S':'
asbag68
(g89
g70
NtRp1248
(dp1249
g73
(dp1250
sg82
g1235
sg75
(lp1251
g68
(g69
g70
NtRp1252
(dp1253
g73
(dp1254
g81
I4
ssg82
g1248
sg75
(lp1255
S'45317'
p1256
asbasbasbag68
(g84
g70
NtRp1257
(dp1258
g73
(dp1259
sg82
g672
sg75
(lp1260
g68
(g89
g70
NtRp1261
(dp1262
g73
(dp1263
g93
g94
ssg82
g1257
sg75
(lp1264
S'request_method'
p1265
asbag68
(g89
g70
NtRp1266
(dp1267
g73
(dp1268
g100
g101
ssg82
g1257
sg75
(lp1269
S':'
asbag68
(g89
g70
NtRp1270
(dp1271
g73
(dp1272
sg82
g1257
sg75
(lp1273
g68
(g69
g70
NtRp1274
(dp1275
g73
(dp1276
g81
I4
ssg82
g1270
sg75
(lp1277
S'GET'
p1278
asbasbasbag68
(g84
g70
NtRp1279
(dp1280
g73
(dp1281
sg82
g672
sg75
(lp1282
g68
(g89
g70
NtRp1283
(dp1284
g73
(dp1285
g93
g94
ssg82
g1279
sg75
(lp1286
S'request_uri'
p1287
asbag68
(g89
g70
NtRp1288
(dp1289
g73
(dp1290
g100
g101
ssg82
g1279
sg75
(lp1291
S':'
asbag68
(g89
g70
NtRp1292
(dp1293
g73
(dp1294
sg82
g1279
sg75
(lp1295
g68
(g69
g70
NtRp1296
(dp1297
g73
(dp1298
g81
I4
ssg82
g1292
sg75
(lp1299
S'/projeto/initial/show_cliente'
p1300
asbasbasbag68
(g84
g70
NtRp1301
(dp1302
g73
(dp1303
sg82
g672
sg75
(lp1304
g68
(g89
g70
NtRp1305
(dp1306
g73
(dp1307
g93
g94
ssg82
g1301
sg75
(lp1308
S'script_name'
p1309
asbag68
(g89
g70
NtRp1310
(dp1311
g73
(dp1312
g100
g101
ssg82
g1301
sg75
(lp1313
S':'
asbag68
(g89
g70
NtRp1314
(dp1315
g73
(dp1316
sg82
g1301
sg75
(lp1317
g68
(g69
g70
NtRp1318
(dp1319
g73
(dp1320
g81
I4
ssg82
g1314
sg75
(lp1321
S''
asbasbasbag68
(g84
g70
NtRp1322
(dp1323
g73
(dp1324
sg82
g672
sg75
(lp1325
g68
(g89
g70
NtRp1326
(dp1327
g73
(dp1328
g93
g94
ssg82
g1322
sg75
(lp1329
S'server_name'
p1330
asbag68
(g89
g70
NtRp1331
(dp1332
g73
(dp1333
g100
g101
ssg82
g1322
sg75
(lp1334
S':'
asbag68
(g89
g70
NtRp1335
(dp1336
g73
(dp1337
sg82
g1322
sg75
(lp1338
g68
(g69
g70
NtRp1339
(dp1340
g73
(dp1341
g81
I4
ssg82
g1335
sg75
(lp1342
S'fernando-workstation'
p1343
asbasbasbag68
(g84
g70
NtRp1344
(dp1345
g73
(dp1346
sg82
g672
sg75
(lp1347
g68
(g89
g70
NtRp1348
(dp1349
g73
(dp1350
g93
g94
ssg82
g1344
sg75
(lp1351
S'server_port'
p1352
asbag68
(g89
g70
NtRp1353
(dp1354
g73
(dp1355
g100
g101
ssg82
g1344
sg75
(lp1356
S':'
asbag68
(g89
g70
NtRp1357
(dp1358
g73
(dp1359
sg82
g1344
sg75
(lp1360
g68
(g69
g70
NtRp1361
(dp1362
g73
(dp1363
g81
I4
ssg82
g1357
sg75
(lp1364
S'8000'
p1365
asbasbasbag68
(g84
g70
NtRp1366
(dp1367
g73
(dp1368
sg82
g672
sg75
(lp1369
g68
(g89
g70
NtRp1370
(dp1371
g73
(dp1372
g93
g94
ssg82
g1366
sg75
(lp1373
S'server_protocol'
p1374
asbag68
(g89
g70
NtRp1375
(dp1376
g73
(dp1377
g100
g101
ssg82
g1366
sg75
(lp1378
S':'
asbag68
(g89
g70
NtRp1379
(dp1380
g73
(dp1381
sg82
g1366
sg75
(lp1382
g68
(g69
g70
NtRp1383
(dp1384
g73
(dp1385
g81
I4
ssg82
g1379
sg75
(lp1386
S'HTTP/1.1'
p1387
asbasbasbag68
(g84
g70
NtRp1388
(dp1389
g73
(dp1390
sg82
g672
sg75
(lp1391
g68
(g89
g70
NtRp1392
(dp1393
g73
(dp1394
g93
g94
ssg82
g1388
sg75
(lp1395
S'server_software'
p1396
asbag68
(g89
g70
NtRp1397
(dp1398
g73
(dp1399
g100
g101
ssg82
g1388
sg75
(lp1400
S':'
asbag68
(g89
g70
NtRp1401
(dp1402
g73
(dp1403
sg82
g1388
sg75
(lp1404
g68
(g69
g70
NtRp1405
(dp1406
g73
(dp1407
g81
I4
ssg82
g1401
sg75
(lp1408
S'Rocket 1.2.6'
p1409
asbasbasbag68
(g84
g70
NtRp1410
(dp1411
g73
(dp1412
sg82
g672
sg75
(lp1413
g68
(g89
g70
NtRp1414
(dp1415
g73
(dp1416
g93
g94
ssg82
g1410
sg75
(lp1417
S'web2py_original_uri'
p1418
asbag68
(g89
g70
NtRp1419
(dp1420
g73
(dp1421
g100
g101
ssg82
g1410
sg75
(lp1422
S':'
asbag68
(g89
g70
NtRp1423
(dp1424
g73
(dp1425
sg82
g1410
sg75
(lp1426
g68
(g69
g70
NtRp1427
(dp1428
g73
(dp1429
g81
I4
ssg82
g1423
sg75
(lp1430
g1192
asbasbasbag68
(g84
g70
NtRp1431
(dp1432
g73
(dp1433
sg82
g672
sg75
(lp1434
g68
(g89
g70
NtRp1435
(dp1436
g73
(dp1437
g93
g94
ssg82
g1431
sg75
(lp1438
S'web2py_path'
p1439
asbag68
(g89
g70
NtRp1440
(dp1441
g73
(dp1442
g100
g101
ssg82
g1431
sg75
(lp1443
S':'
asbag68
(g89
g70
NtRp1444
(dp1445
g73
(dp1446
sg82
g1431
sg75
(lp1447
g68
(g69
g70
NtRp1448
(dp1449
g73
(dp1450
g81
I4
ssg82
g1444
sg75
(lp1451
g719
asbasbasbag68
(g84
g70
NtRp1452
(dp1453
g73
(dp1454
sg82
g672
sg75
(lp1455
g68
(g89
g70
NtRp1456
(dp1457
g73
(dp1458
g93
g94
ssg82
g1452
sg75
(lp1459
S'web2py_version'
p1460
asbag68
(g89
g70
NtRp1461
(dp1462
g73
(dp1463
g100
g101
ssg82
g1452
sg75
(lp1464
S':'
asbag68
(g89
g70
NtRp1465
(dp1466
g73
(dp1467
sg82
g1452
sg75
(lp1468
g68
(g69
g70
NtRp1469
(dp1470
g73
(dp1471
g81
I4
ssg82
g1465
sg75
(lp1472
g68
(g77
g70
NtRp1473
(dp1474
g73
(dp1475
g81
I3
ssg82
Nsg75
(lp1476
g68
(g84
g70
NtRp1477
(dp1478
g73
(dp1479
sg82
g1473
sg75
(lp1480
g68
(g89
g70
NtRp1481
(dp1482
g73
(dp1483
sg82
g1477
sg75
(lp1484
g68
(g69
g70
NtRp1485
(dp1486
g73
(dp1487
g81
I3
ssg82
g1481
sg75
(lp1488
S'2'
asbasbasbag68
(g84
g70
NtRp1489
(dp1490
g73
(dp1491
sg82
g1473
sg75
(lp1492
g68
(g89
g70
NtRp1493
(dp1494
g73
(dp1495
sg82
g1489
sg75
(lp1496
g68
(g69
g70
NtRp1497
(dp1498
g73
(dp1499
g81
I3
ssg82
g1493
sg75
(lp1500
S'3'
asbasbasbag68
(g84
g70
NtRp1501
(dp1502
g73
(dp1503
sg82
g1473
sg75
(lp1504
g68
(g89
g70
NtRp1505
(dp1506
g73
(dp1507
sg82
g1501
sg75
(lp1508
g68
(g69
g70
NtRp1509
(dp1510
g73
(dp1511
g81
I3
ssg82
g1505
sg75
(lp1512
S'2'
asbasbasbag68
(g84
g70
NtRp1513
(dp1514
g73
(dp1515
sg82
g1473
sg75
(lp1516
g68
(g89
g70
NtRp1517
(dp1518
g73
(dp1519
sg82
g1513
sg75
(lp1520
g68
(g69
g70
NtRp1521
(dp1522
g73
(dp1523
g81
I3
ssg82
g1517
sg75
(lp1524
S'datetime.datetime(2012, 12, 17, 15, 3, 30)'
p1525
asbasbasbag68
(g84
g70
NtRp1526
(dp1527
g73
(dp1528
sg82
g1473
sg75
(lp1529
g68
(g89
g70
NtRp1530
(dp1531
g73
(dp1532
sg82
g1526
sg75
(lp1533
g68
(g69
g70
NtRp1534
(dp1535
g73
(dp1536
g81
I3
ssg82
g1530
sg75
(lp1537
S'stable'
p1538
asbasbasbasbasbasbasbag68
(g84
g70
NtRp1539
(dp1540
g73
(dp1541
sg82
g672
sg75
(lp1542
g68
(g89
g70
NtRp1543
(dp1544
g73
(dp1545
g93
g94
ssg82
g1539
sg75
(lp1546
S'wsgi_errors'
p1547
asbag68
(g89
g70
NtRp1548
(dp1549
g73
(dp1550
g100
g101
ssg82
g1539
sg75
(lp1551
S':'
asbag68
(g89
g70
NtRp1552
(dp1553
g73
(dp1554
sg82
g1539
sg75
(lp1555
g68
(g69
g70
NtRp1556
(dp1557
g73
(dp1558
g81
I4
ssg82
g1552
sg75
(lp1559
S"<open file '<stderr>', mode 'w' at 0x7f7c5e970270>"
p1560
asbasbasbag68
(g84
g70
NtRp1561
(dp1562
g73
(dp1563
sg82
g672
sg75
(lp1564
g68
(g89
g70
NtRp1565
(dp1566
g73
(dp1567
g93
g94
ssg82
g1561
sg75
(lp1568
S'wsgi_file_wrapper'
p1569
asbag68
(g89
g70
NtRp1570
(dp1571
g73
(dp1572
g100
g101
ssg82
g1561
sg75
(lp1573
S':'
asbag68
(g89
g70
NtRp1574
(dp1575
g73
(dp1576
sg82
g1561
sg75
(lp1577
g68
(g69
g70
NtRp1578
(dp1579
g73
(dp1580
g81
I4
ssg82
g1574
sg75
(lp1581
S'<class wsgiref.util.FileWrapper at 0x2d82598>'
p1582
asbasbasbag68
(g84
g70
NtRp1583
(dp1584
g73
(dp1585
sg82
g672
sg75
(lp1586
g68
(g89
g70
NtRp1587
(dp1588
g73
(dp1589
g93
g94
ssg82
g1583
sg75
(lp1590
S'wsgi_input'
p1591
asbag68
(g89
g70
NtRp1592
(dp1593
g73
(dp1594
g100
g101
ssg82
g1583
sg75
(lp1595
S':'
asbag68
(g89
g70
NtRp1596
(dp1597
g73
(dp1598
sg82
g1583
sg75
(lp1599
g68
(g69
g70
NtRp1600
(dp1601
g73
(dp1602
g81
I4
ssg82
g1596
sg75
(lp1603
S'<socket._fileobject object at 0x7f7c340d80d0>'
p1604
asbasbasbag68
(g84
g70
NtRp1605
(dp1606
g73
(dp1607
sg82
g672
sg75
(lp1608
g68
(g89
g70
NtRp1609
(dp1610
g73
(dp1611
g93
g94
ssg82
g1605
sg75
(lp1612
S'wsgi_multiprocess'
p1613
asbag68
(g89
g70
NtRp1614
(dp1615
g73
(dp1616
g100
g101
ssg82
g1605
sg75
(lp1617
S':'
asbag68
(g89
g70
NtRp1618
(dp1619
g73
(dp1620
sg82
g1605
sg75
(lp1621
g68
(g69
g70
NtRp1622
(dp1623
g73
(dp1624
g81
I4
ssg82
g1618
sg75
(lp1625
g111
asbasbasbag68
(g84
g70
NtRp1626
(dp1627
g73
(dp1628
sg82
g672
sg75
(lp1629
g68
(g89
g70
NtRp1630
(dp1631
g73
(dp1632
g93
g94
ssg82
g1626
sg75
(lp1633
S'wsgi_multithread'
p1634
asbag68
(g89
g70
NtRp1635
(dp1636
g73
(dp1637
g100
g101
ssg82
g1626
sg75
(lp1638
S':'
asbag68
(g89
g70
NtRp1639
(dp1640
g73
(dp1641
sg82
g1626
sg75
(lp1642
g68
(g69
g70
NtRp1643
(dp1644
g73
(dp1645
g81
I4
ssg82
g1639
sg75
(lp1646
S'True'
p1647
asbasbasbag68
(g84
g70
NtRp1648
(dp1649
g73
(dp1650
sg82
g672
sg75
(lp1651
g68
(g89
g70
NtRp1652
(dp1653
g73
(dp1654
g93
g94
ssg82
g1648
sg75
(lp1655
S'wsgi_run_once'
p1656
asbag68
(g89
g70
NtRp1657
(dp1658
g73
(dp1659
g100
g101
ssg82
g1648
sg75
(lp1660
S':'
asbag68
(g89
g70
NtRp1661
(dp1662
g73
(dp1663
sg82
g1648
sg75
(lp1664
g68
(g69
g70
NtRp1665
(dp1666
g73
(dp1667
g81
I4
ssg82
g1661
sg75
(lp1668
g111
asbasbasbag68
(g84
g70
NtRp1669
(dp1670
g73
(dp1671
sg82
g672
sg75
(lp1672
g68
(g89
g70
NtRp1673
(dp1674
g73
(dp1675
g93
g94
ssg82
g1669
sg75
(lp1676
S'wsgi_url_scheme'
p1677
asbag68
(g89
g70
NtRp1678
(dp1679
g73
(dp1680
g100
g101
ssg82
g1669
sg75
(lp1681
S':'
asbag68
(g89
g70
NtRp1682
(dp1683
g73
(dp1684
sg82
g1669
sg75
(lp1685
g68
(g69
g70
NtRp1686
(dp1687
g73
(dp1688
g81
I4
ssg82
g1682
sg75
(lp1689
S'http'
p1690
asbasbasbag68
(g84
g70
NtRp1691
(dp1692
g73
(dp1693
sg82
g672
sg75
(lp1694
g68
(g89
g70
NtRp1695
(dp1696
g73
(dp1697
g93
g94
ssg82
g1691
sg75
(lp1698
S'wsgi_version'
p1699
asbag68
(g89
g70
NtRp1700
(dp1701
g73
(dp1702
g100
g101
ssg82
g1691
sg75
(lp1703
S':'
asbag68
(g89
g70
NtRp1704
(dp1705
g73
(dp1706
sg82
g1691
sg75
(lp1707
g68
(g69
g70
NtRp1708
(dp1709
g73
(dp1710
g81
I4
ssg82
g1704
sg75
(lp1711
g68
(g77
g70
NtRp1712
(dp1713
g73
(dp1714
g81
I3
ssg82
Nsg75
(lp1715
g68
(g84
g70
NtRp1716
(dp1717
g73
(dp1718
sg82
g1712
sg75
(lp1719
g68
(g89
g70
NtRp1720
(dp1721
g73
(dp1722
sg82
g1716
sg75
(lp1723
g68
(g69
g70
NtRp1724
(dp1725
g73
(dp1726
g81
I3
ssg82
g1720
sg75
(lp1727
S'1'
asbasbasbag68
(g84
g70
NtRp1728
(dp1729
g73
(dp1730
sg82
g1712
sg75
(lp1731
g68
(g89
g70
NtRp1732
(dp1733
g73
(dp1734
sg82
g1728
sg75
(lp1735
g68
(g69
g70
NtRp1736
(dp1737
g73
(dp1738
g81
I3
ssg82
g1732
sg75
(lp1739
S'0'
asbasbasbasbasbasbasbasbasbasbasbag68
(g84
g70
NtRp1740
(dp1741
g73
(dp1742
sg82
g78
sg75
(lp1743
g68
(g89
g70
NtRp1744
(dp1745
g73
(dp1746
g93
g94
ssg82
g1740
sg75
(lp1747
S'extension'
p1748
asbag68
(g89
g70
NtRp1749
(dp1750
g73
(dp1751
g100
g101
ssg82
g1740
sg75
(lp1752
S':'
asbag68
(g89
g70
NtRp1753
(dp1754
g73
(dp1755
sg82
g1740
sg75
(lp1756
g68
(g69
g70
NtRp1757
(dp1758
g73
(dp1759
g81
I5
ssg82
g1753
sg75
(lp1760
S'html'
p1761
asbasbasbag68
(g84
g70
NtRp1762
(dp1763
g73
(dp1764
sg82
g78
sg75
(lp1765
g68
(g89
g70
NtRp1766
(dp1767
g73
(dp1768
g93
g94
ssg82
g1762
sg75
(lp1769
S'folder'
p1770
asbag68
(g89
g70
NtRp1771
(dp1772
g73
(dp1773
g100
g101
ssg82
g1762
sg75
(lp1774
S':'
asbag68
(g89
g70
NtRp1775
(dp1776
g73
(dp1777
sg82
g1762
sg75
(lp1778
g68
(g69
g70
NtRp1779
(dp1780
g73
(dp1781
g81
I5
ssg82
g1775
sg75
(lp1782
S'/var/www/conferencia/applications/projeto/'
p1783
asbasbasbag68
(g84
g70
NtRp1784
(dp1785
g73
(dp1786
sg82
g78
sg75
(lp1787
g68
(g89
g70
NtRp1788
(dp1789
g73
(dp1790
g93
g94
ssg82
g1784
sg75
(lp1791
S'function'
p1792
asbag68
(g89
g70
NtRp1793
(dp1794
g73
(dp1795
g100
g101
ssg82
g1784
sg75
(lp1796
S':'
asbag68
(g89
g70
NtRp1797
(dp1798
g73
(dp1799
sg82
g1784
sg75
(lp1800
g68
(g69
g70
NtRp1801
(dp1802
g73
(dp1803
g81
I5
ssg82
g1797
sg75
(lp1804
S'show_cliente'
p1805
asbasbasbag68
(g84
g70
NtRp1806
(dp1807
g73
(dp1808
sg82
g78
sg75
(lp1809
g68
(g89
g70
NtRp1810
(dp1811
g73
(dp1812
g93
g94
ssg82
g1806
sg75
(lp1813
S'get_vars'
p1814
asbag68
(g89
g70
NtRp1815
(dp1816
g73
(dp1817
g100
g101
ssg82
g1806
sg75
(lp1818
S':'
asbag68
(g89
g70
NtRp1819
(dp1820
g73
(dp1821
sg82
g1806
sg75
(lp1822
g68
(g69
g70
NtRp1823
(dp1824
g73
(dp1825
g81
I5
ssg82
g1819
sg75
(lp1826
g68
(g77
g70
NtRp1827
(dp1828
g73
(dp1829
g81
I4
ssg82
Nsg75
(lp1830
sbasbasbasbag68
(g84
g70
NtRp1831
(dp1832
g73
(dp1833
sg82
g78
sg75
(lp1834
g68
(g89
g70
NtRp1835
(dp1836
g73
(dp1837
g93
g94
ssg82
g1831
sg75
(lp1838
S'global_settings'
p1839
asbag68
(g89
g70
NtRp1840
(dp1841
g73
(dp1842
g100
g101
ssg82
g1831
sg75
(lp1843
S':'
asbag68
(g89
g70
NtRp1844
(dp1845
g73
(dp1846
sg82
g1831
sg75
(lp1847
g68
(g69
g70
NtRp1848
(dp1849
g73
(dp1850
g81
I5
ssg82
g1844
sg75
(lp1851
g68
(g77
g70
NtRp1852
(dp1853
g73
(dp1854
g81
I4
ssg82
Nsg75
(lp1855
g68
(g84
g70
NtRp1856
(dp1857
g73
(dp1858
sg82
g1852
sg75
(lp1859
g68
(g89
g70
NtRp1860
(dp1861
g73
(dp1862
g93
g94
ssg82
g1856
sg75
(lp1863
g684
asbag68
(g89
g70
NtRp1864
(dp1865
g73
(dp1866
g100
g101
ssg82
g1856
sg75
(lp1867
S':'
asbag68
(g89
g70
NtRp1868
(dp1869
g73
(dp1870
sg82
g1856
sg75
(lp1871
g68
(g69
g70
NtRp1872
(dp1873
g73
(dp1874
g81
I4
ssg82
g1868
sg75
(lp1875
S"set(['/var/www/conferencia/applications/projeto/'])"
p1876
asbasbasbag68
(g84
g70
NtRp1877
(dp1878
g73
(dp1879
sg82
g1852
sg75
(lp1880
g68
(g89
g70
NtRp1881
(dp1882
g73
(dp1883
g93
g94
ssg82
g1877
sg75
(lp1884
g706
asbag68
(g89
g70
NtRp1885
(dp1886
g73
(dp1887
g100
g101
ssg82
g1877
sg75
(lp1888
S':'
asbag68
(g89
g70
NtRp1889
(dp1890
g73
(dp1891
sg82
g1877
sg75
(lp1892
g68
(g69
g70
NtRp1893
(dp1894
g73
(dp1895
g81
I4
ssg82
g1889
sg75
(lp1896
g719
asbasbasbag68
(g84
g70
NtRp1897
(dp1898
g73
(dp1899
sg82
g1852
sg75
(lp1900
g68
(g89
g70
NtRp1901
(dp1902
g73
(dp1903
g93
g94
ssg82
g1897
sg75
(lp1904
g728
asbag68
(g89
g70
NtRp1905
(dp1906
g73
(dp1907
g100
g101
ssg82
g1897
sg75
(lp1908
S':'
asbag68
(g89
g70
NtRp1909
(dp1910
g73
(dp1911
sg82
g1897
sg75
(lp1912
g68
(g69
g70
NtRp1913
(dp1914
g73
(dp1915
g81
I4
ssg82
g1909
sg75
(lp1916
g68
(g77
g70
NtRp1917
(dp1918
g73
(dp1919
g81
I3
ssg82
Nsg75
(lp1920
sbasbasbasbag68
(g84
g70
NtRp1921
(dp1922
g73
(dp1923
sg82
g1852
sg75
(lp1924
g68
(g89
g70
NtRp1925
(dp1926
g73
(dp1927
g93
g94
ssg82
g1921
sg75
(lp1928
g753
asbag68
(g89
g70
NtRp1929
(dp1930
g73
(dp1931
g100
g101
ssg82
g1921
sg75
(lp1932
S':'
asbag68
(g89
g70
NtRp1933
(dp1934
g73
(dp1935
sg82
g1921
sg75
(lp1936
g68
(g69
g70
NtRp1937
(dp1938
g73
(dp1939
g81
I4
ssg82
g1933
sg75
(lp1940
S"<Values at 0x2e0b248: {'verbose': False, 'ip': '127.0.0.1', 'with_scheduler': False, 'ips': [], 'shutdown_timeout': 5, 'taskbar': False, 'port': 8000, 'maxthreads': None, 'softcron': False, 'server_name': 'fernando-workstation', 'bpython': False, 'nogui': False, 'pid_filename': 'httpserver.pid', 'extcron': False, 'runcron': False, 'run_system_tests': False, 'test': None, 'folder': '/var/www/conferencia', 'config': '', 'minthreads': None, 'winservice': '', 'shell': None, 'run': '', 'log_filename': 'httpserver.log', 'debuglevel': 30, 'args': [''], 'socket_timeout': 5, 'ssl_ca_certificate': None, 'scheduler': None, 'profiler_filename': None, 'ssl_private_key': '', 'scheduler_groups': None, 'password': '123456', 'request_queue_size': 5, 'ssl_certificate': '', 'cronjob': False, 'numthreads': None, 'quiet': False, 'interfaces': None, 'import_models': False, 'timeout': 10, 'plain': False, 'nobanner': False}>"
p1941
asbasbasbag68
(g84
g70
NtRp1942
(dp1943
g73
(dp1944
sg82
g1852
sg75
(lp1945
g68
(g89
g70
NtRp1946
(dp1947
g73
(dp1948
g93
g94
ssg82
g1942
sg75
(lp1949
g775
asbag68
(g89
g70
NtRp1950
(dp1951
g73
(dp1952
g100
g101
ssg82
g1942
sg75
(lp1953
S':'
asbag68
(g89
g70
NtRp1954
(dp1955
g73
(dp1956
sg82
g1942
sg75
(lp1957
g68
(g69
g70
NtRp1958
(dp1959
g73
(dp1960
g81
I4
ssg82
g1954
sg75
(lp1961
S'set([])'
p1962
asbasbasbag68
(g84
g70
NtRp1963
(dp1964
g73
(dp1965
sg82
g1852
sg75
(lp1966
g68
(g89
g70
NtRp1967
(dp1968
g73
(dp1969
g93
g94
ssg82
g1963
sg75
(lp1970
g797
asbag68
(g89
g70
NtRp1971
(dp1972
g73
(dp1973
g100
g101
ssg82
g1963
sg75
(lp1974
S':'
asbag68
(g89
g70
NtRp1975
(dp1976
g73
(dp1977
sg82
g1963
sg75
(lp1978
g68
(g69
g70
NtRp1979
(dp1980
g73
(dp1981
g81
I4
ssg82
g1975
sg75
(lp1982
g111
asbasbasbag68
(g84
g70
NtRp1983
(dp1984
g73
(dp1985
sg82
g1852
sg75
(lp1986
g68
(g89
g70
NtRp1987
(dp1988
g73
(dp1989
g93
g94
ssg82
g1983
sg75
(lp1990
g818
asbag68
(g89
g70
NtRp1991
(dp1992
g73
(dp1993
g100
g101
ssg82
g1983
sg75
(lp1994
S':'
asbag68
(g89
g70
NtRp1995
(dp1996
g73
(dp1997
sg82
g1983
sg75
(lp1998
g68
(g69
g70
NtRp1999
(dp2000
g73
(dp2001
g81
I4
ssg82
g1995
sg75
(lp2002
g831
asbasbasbag68
(g84
g70
NtRp2003
(dp2004
g73
(dp2005
sg82
g1852
sg75
(lp2006
g68
(g89
g70
NtRp2007
(dp2008
g73
(dp2009
g93
g94
ssg82
g2003
sg75
(lp2010
g1060
asbag68
(g89
g70
NtRp2011
(dp2012
g73
(dp2013
g100
g101
ssg82
g2003
sg75
(lp2014
S':'
asbag68
(g89
g70
NtRp2015
(dp2016
g73
(dp2017
sg82
g2003
sg75
(lp2018
g68
(g69
g70
NtRp2019
(dp2020
g73
(dp2021
g81
I4
ssg82
g2015
sg75
(lp2022
g111
asbasbasbag68
(g84
g70
NtRp2023
(dp2024
g73
(dp2025
sg82
g1852
sg75
(lp2026
g68
(g89
g70
NtRp2027
(dp2028
g73
(dp2029
g93
g94
ssg82
g2023
sg75
(lp2030
g1081
asbag68
(g89
g70
NtRp2031
(dp2032
g73
(dp2033
g100
g101
ssg82
g2023
sg75
(lp2034
S':'
asbag68
(g89
g70
NtRp2035
(dp2036
g73
(dp2037
sg82
g2023
sg75
(lp2038
g68
(g69
g70
NtRp2039
(dp2040
g73
(dp2041
g81
I4
ssg82
g2035
sg75
(lp2042
g111
asbasbasbag68
(g84
g70
NtRp2043
(dp2044
g73
(dp2045
sg82
g1852
sg75
(lp2046
g68
(g89
g70
NtRp2047
(dp2048
g73
(dp2049
g93
g94
ssg82
g2043
sg75
(lp2050
g1102
asbag68
(g89
g70
NtRp2051
(dp2052
g73
(dp2053
g100
g101
ssg82
g2043
sg75
(lp2054
S':'
asbag68
(g89
g70
NtRp2055
(dp2056
g73
(dp2057
sg82
g2043
sg75
(lp2058
g68
(g69
g70
NtRp2059
(dp2060
g73
(dp2061
g81
I4
ssg82
g2055
sg75
(lp2062
g68
(g77
g70
NtRp2063
(dp2064
g73
(dp2065
g81
I3
ssg82
Nsg75
(lp2066
g68
(g84
g70
NtRp2067
(dp2068
g73
(dp2069
sg82
g2063
sg75
(lp2070
g68
(g89
g70
NtRp2071
(dp2072
g73
(dp2073
sg82
g2067
sg75
(lp2074
g68
(g69
g70
NtRp2075
(dp2076
g73
(dp2077
g81
I3
ssg82
g2071
sg75
(lp2078
g1131
asbasbasbag68
(g84
g70
NtRp2079
(dp2080
g73
(dp2081
sg82
g2063
sg75
(lp2082
g68
(g89
g70
NtRp2083
(dp2084
g73
(dp2085
sg82
g2079
sg75
(lp2086
g68
(g69
g70
NtRp2087
(dp2088
g73
(dp2089
g81
I3
ssg82
g2083
sg75
(lp2090
g1144
asbasbasbag68
(g84
g70
NtRp2091
(dp2092
g73
(dp2093
sg82
g2063
sg75
(lp2094
g68
(g89
g70
NtRp2095
(dp2096
g73
(dp2097
sg82
g2091
sg75
(lp2098
g68
(g69
g70
NtRp2099
(dp2100
g73
(dp2101
g81
I3
ssg82
g2095
sg75
(lp2102
g1157
asbasbasbag68
(g84
g70
NtRp2103
(dp2104
g73
(dp2105
sg82
g2063
sg75
(lp2106
g68
(g89
g70
NtRp2107
(dp2108
g73
(dp2109
sg82
g2103
sg75
(lp2110
g68
(g69
g70
NtRp2111
(dp2112
g73
(dp2113
g81
I3
ssg82
g2107
sg75
(lp2114
g1170
asbasbasbasbasbasbasbag68
(g84
g70
NtRp2115
(dp2116
g73
(dp2117
sg82
g1852
sg75
(lp2118
g68
(g89
g70
NtRp2119
(dp2120
g73
(dp2121
g93
g94
ssg82
g2115
sg75
(lp2122
g1460
asbag68
(g89
g70
NtRp2123
(dp2124
g73
(dp2125
g100
g101
ssg82
g2115
sg75
(lp2126
S':'
asbag68
(g89
g70
NtRp2127
(dp2128
g73
(dp2129
sg82
g2115
sg75
(lp2130
g68
(g69
g70
NtRp2131
(dp2132
g73
(dp2133
g81
I4
ssg82
g2127
sg75
(lp2134
g68
(g77
g70
NtRp2135
(dp2136
g73
(dp2137
g81
I3
ssg82
Nsg75
(lp2138
g68
(g84
g70
NtRp2139
(dp2140
g73
(dp2141
sg82
g2135
sg75
(lp2142
g68
(g89
g70
NtRp2143
(dp2144
g73
(dp2145
sg82
g2139
sg75
(lp2146
g68
(g69
g70
NtRp2147
(dp2148
g73
(dp2149
g81
I3
ssg82
g2143
sg75
(lp2150
S'2'
asbasbasbag68
(g84
g70
NtRp2151
(dp2152
g73
(dp2153
sg82
g2135
sg75
(lp2154
g68
(g89
g70
NtRp2155
(dp2156
g73
(dp2157
sg82
g2151
sg75
(lp2158
g68
(g69
g70
NtRp2159
(dp2160
g73
(dp2161
g81
I3
ssg82
g2155
sg75
(lp2162
S'3'
asbasbasbag68
(g84
g70
NtRp2163
(dp2164
g73
(dp2165
sg82
g2135
sg75
(lp2166
g68
(g89
g70
NtRp2167
(dp2168
g73
(dp2169
sg82
g2163
sg75
(lp2170
g68
(g69
g70
NtRp2171
(dp2172
g73
(dp2173
g81
I3
ssg82
g2167
sg75
(lp2174
S'2'
asbasbasbag68
(g84
g70
NtRp2175
(dp2176
g73
(dp2177
sg82
g2135
sg75
(lp2178
g68
(g89
g70
NtRp2179
(dp2180
g73
(dp2181
sg82
g2175
sg75
(lp2182
g68
(g69
g70
NtRp2183
(dp2184
g73
(dp2185
g81
I3
ssg82
g2179
sg75
(lp2186
S'datetime.datetime(2012, 12, 17, 15, 3, 30)'
p2187
asbasbasbag68
(g84
g70
NtRp2188
(dp2189
g73
(dp2190
sg82
g2135
sg75
(lp2191
g68
(g89
g70
NtRp2192
(dp2193
g73
(dp2194
sg82
g2188
sg75
(lp2195
g68
(g69
g70
NtRp2196
(dp2197
g73
(dp2198
g81
I3
ssg82
g2192
sg75
(lp2199
g1538
asbasbasbasbasbasbasbasbasbasbasbag68
(g84
g70
NtRp2200
(dp2201
g73
(dp2202
sg82
g78
sg75
(lp2203
g68
(g89
g70
NtRp2204
(dp2205
g73
(dp2206
g93
g94
ssg82
g2200
sg75
(lp2207
S'is_https'
p2208
asbag68
(g89
g70
NtRp2209
(dp2210
g73
(dp2211
g100
g101
ssg82
g2200
sg75
(lp2212
S':'
asbag68
(g89
g70
NtRp2213
(dp2214
g73
(dp2215
sg82
g2200
sg75
(lp2216
g68
(g69
g70
NtRp2217
(dp2218
g73
(dp2219
g81
I5
ssg82
g2213
sg75
(lp2220
g111
asbasbasbag68
(g84
g70
NtRp2221
(dp2222
g73
(dp2223
sg82
g78
sg75
(lp2224
g68
(g89
g70
NtRp2225
(dp2226
g73
(dp2227
g93
g94
ssg82
g2221
sg75
(lp2228
S'is_local'
p2229
asbag68
(g89
g70
NtRp2230
(dp2231
g73
(dp2232
g100
g101
ssg82
g2221
sg75
(lp2233
S':'
asbag68
(g89
g70
NtRp2234
(dp2235
g73
(dp2236
sg82
g2221
sg75
(lp2237
g68
(g69
g70
NtRp2238
(dp2239
g73
(dp2240
g81
I5
ssg82
g2234
sg75
(lp2241
g1647
asbasbasbag68
(g84
g70
NtRp2242
(dp2243
g73
(dp2244
sg82
g78
sg75
(lp2245
g68
(g89
g70
NtRp2246
(dp2247
g73
(dp2248
g93
g94
ssg82
g2242
sg75
(lp2249
S'is_restful'
p2250
asbag68
(g89
g70
NtRp2251
(dp2252
g73
(dp2253
g100
g101
ssg82
g2242
sg75
(lp2254
S':'
asbag68
(g89
g70
NtRp2255
(dp2256
g73
(dp2257
sg82
g2242
sg75
(lp2258
g68
(g69
g70
NtRp2259
(dp2260
g73
(dp2261
g81
I5
ssg82
g2255
sg75
(lp2262
g111
asbasbasbag68
(g84
g70
NtRp2263
(dp2264
g73
(dp2265
sg82
g78
sg75
(lp2266
g68
(g89
g70
NtRp2267
(dp2268
g73
(dp2269
g93
g94
ssg82
g2263
sg75
(lp2270
S'now'
p2271
asbag68
(g89
g70
NtRp2272
(dp2273
g73
(dp2274
g100
g101
ssg82
g2263
sg75
(lp2275
S':'
asbag68
(g89
g70
NtRp2276
(dp2277
g73
(dp2278
sg82
g2263
sg75
(lp2279
g68
(g69
g70
NtRp2280
(dp2281
g73
(dp2282
g81
I5
ssg82
g2276
sg75
(lp2283
S'datetime.datetime(2013, 4, 2, 18, 26, 41, 290501)'
p2284
asbasbasbag68
(g84
g70
NtRp2285
(dp2286
g73
(dp2287
sg82
g78
sg75
(lp2288
g68
(g89
g70
NtRp2289
(dp2290
g73
(dp2291
g93
g94
ssg82
g2285
sg75
(lp2292
S'post_vars'
p2293
asbag68
(g89
g70
NtRp2294
(dp2295
g73
(dp2296
g100
g101
ssg82
g2285
sg75
(lp2297
S':'
asbag68
(g89
g70
NtRp2298
(dp2299
g73
(dp2300
sg82
g2285
sg75
(lp2301
g68
(g69
g70
NtRp2302
(dp2303
g73
(dp2304
g81
I5
ssg82
g2298
sg75
(lp2305
g68
(g77
g70
NtRp2306
(dp2307
g73
(dp2308
g81
I4
ssg82
Nsg75
(lp2309
sbasbasbasbag68
(g84
g70
NtRp2310
(dp2311
g73
(dp2312
sg82
g78
sg75
(lp2313
g68
(g89
g70
NtRp2314
(dp2315
g73
(dp2316
g93
g94
ssg82
g2310
sg75
(lp2317
S'url'
p2318
asbag68
(g89
g70
NtRp2319
(dp2320
g73
(dp2321
g100
g101
ssg82
g2310
sg75
(lp2322
S':'
asbag68
(g89
g70
NtRp2323
(dp2324
g73
(dp2325
sg82
g2310
sg75
(lp2326
g68
(g69
g70
NtRp2327
(dp2328
g73
(dp2329
g81
I5
ssg82
g2323
sg75
(lp2330
g1192
asbasbasbag68
(g84
g70
NtRp2331
(dp2332
g73
(dp2333
sg82
g78
sg75
(lp2334
g68
(g89
g70
NtRp2335
(dp2336
g73
(dp2337
g93
g94
ssg82
g2331
sg75
(lp2338
S'utcnow'
p2339
asbag68
(g89
g70
NtRp2340
(dp2341
g73
(dp2342
g100
g101
ssg82
g2331
sg75
(lp2343
S':'
asbag68
(g89
g70
NtRp2344
(dp2345
g73
(dp2346
sg82
g2331
sg75
(lp2347
g68
(g69
g70
NtRp2348
(dp2349
g73
(dp2350
g81
I5
ssg82
g2344
sg75
(lp2351
S'datetime.datetime(2013, 4, 2, 21, 26, 41, 290550)'
p2352
asbasbasbag68
(g84
g70
NtRp2353
(dp2354
g73
(dp2355
sg82
g78
sg75
(lp2356
g68
(g89
g70
NtRp2357
(dp2358
g73
(dp2359
g93
g94
ssg82
g2353
sg75
(lp2360
S'uuid'
p2361
asbag68
(g89
g70
NtRp2362
(dp2363
g73
(dp2364
g100
g101
ssg82
g2353
sg75
(lp2365
S':'
asbag68
(g89
g70
NtRp2366
(dp2367
g73
(dp2368
sg82
g2353
sg75
(lp2369
g68
(g69
g70
NtRp2370
(dp2371
g73
(dp2372
g81
I5
ssg82
g2366
sg75
(lp2373
S'projeto/127.0.0.1.2013-04-02.18-26-41.56c4a341-030b-4e12-a598-0702579beb7d'
p2374
asbasbasbag68
(g84
g70
NtRp2375
(dp2376
g73
(dp2377
sg82
g78
sg75
(lp2378
g68
(g89
g70
NtRp2379
(dp2380
g73
(dp2381
g93
g94
ssg82
g2375
sg75
(lp2382
S'vars'
p2383
asbag68
(g89
g70
NtRp2384
(dp2385
g73
(dp2386
g100
g101
ssg82
g2375
sg75
(lp2387
S':'
asbag68
(g89
g70
NtRp2388
(dp2389
g73
(dp2390
sg82
g2375
sg75
(lp2391
g68
(g69
g70
NtRp2392
(dp2393
g73
(dp2394
g81
I5
ssg82
g2388
sg75
(lp2395
g68
(g77
g70
NtRp2396
(dp2397
g73
(dp2398
g81
I4
ssg82
Nsg75
(lp2399
sbasbasbasbag68
(g84
g70
NtRp2400
(dp2401
g73
(dp2402
sg82
g78
sg75
(lp2403
g68
(g89
g70
NtRp2404
(dp2405
g73
(dp2406
g93
g94
ssg82
g2400
sg75
(lp2407
S'wsgi'
p2408
asbag68
(g89
g70
NtRp2409
(dp2410
g73
(dp2411
g100
g101
ssg82
g2400
sg75
(lp2412
S':'
asbag68
(g89
g70
NtRp2413
(dp2414
g73
(dp2415
sg82
g2400
sg75
(lp2416
g68
(g69
g70
NtRp2417
(dp2418
g73
(dp2419
g81
I5
ssg82
g2413
sg75
(lp2420
g68
(g77
g70
NtRp2421
(dp2422
g73
(dp2423
g81
I4
ssg82
Nsg75
(lp2424
g68
(g84
g70
NtRp2425
(dp2426
g73
(dp2427
sg82
g2421
sg75
(lp2428
g68
(g89
g70
NtRp2429
(dp2430
g73
(dp2431
g93
g94
ssg82
g2425
sg75
(lp2432
S'environ'
p2433
asbag68
(g89
g70
NtRp2434
(dp2435
g73
(dp2436
g100
g101
ssg82
g2425
sg75
(lp2437
S':'
asbag68
(g89
g70
NtRp2438
(dp2439
g73
(dp2440
sg82
g2425
sg75
(lp2441
g68
(g69
g70
NtRp2442
(dp2443
g73
(dp2444
g81
I4
ssg82
g2438
sg75
(lp2445
g68
(g77
g70
NtRp2446
(dp2447
g73
(dp2448
g81
I3
ssg82
Nsg75
(lp2449
g68
(g84
g70
NtRp2450
(dp2451
g73
(dp2452
sg82
g2446
sg75
(lp2453
g68
(g89
g70
NtRp2454
(dp2455
g73
(dp2456
g93
g94
ssg82
g2450
sg75
(lp2457
S'HTTP_ACCEPT'
p2458
asbag68
(g89
g70
NtRp2459
(dp2460
g73
(dp2461
g100
g101
ssg82
g2450
sg75
(lp2462
S':'
asbag68
(g89
g70
NtRp2463
(dp2464
g73
(dp2465
sg82
g2450
sg75
(lp2466
g68
(g69
g70
NtRp2467
(dp2468
g73
(dp2469
g81
I3
ssg82
g2463
sg75
(lp2470
g853
asbasbasbag68
(g84
g70
NtRp2471
(dp2472
g73
(dp2473
sg82
g2446
sg75
(lp2474
g68
(g89
g70
NtRp2475
(dp2476
g73
(dp2477
g93
g94
ssg82
g2471
sg75
(lp2478
S'HTTP_ACCEPT_CHARSET'
p2479
asbag68
(g89
g70
NtRp2480
(dp2481
g73
(dp2482
g100
g101
ssg82
g2471
sg75
(lp2483
S':'
asbag68
(g89
g70
NtRp2484
(dp2485
g73
(dp2486
sg82
g2471
sg75
(lp2487
g68
(g69
g70
NtRp2488
(dp2489
g73
(dp2490
g81
I3
ssg82
g2484
sg75
(lp2491
g875
asbasbasbag68
(g84
g70
NtRp2492
(dp2493
g73
(dp2494
sg82
g2446
sg75
(lp2495
g68
(g89
g70
NtRp2496
(dp2497
g73
(dp2498
g93
g94
ssg82
g2492
sg75
(lp2499
S'HTTP_ACCEPT_ENCODING'
p2500
asbag68
(g89
g70
NtRp2501
(dp2502
g73
(dp2503
g100
g101
ssg82
g2492
sg75
(lp2504
S':'
asbag68
(g89
g70
NtRp2505
(dp2506
g73
(dp2507
sg82
g2492
sg75
(lp2508
g68
(g69
g70
NtRp2509
(dp2510
g73
(dp2511
g81
I3
ssg82
g2505
sg75
(lp2512
g897
asbasbasbag68
(g84
g70
NtRp2513
(dp2514
g73
(dp2515
sg82
g2446
sg75
(lp2516
g68
(g89
g70
NtRp2517
(dp2518
g73
(dp2519
g93
g94
ssg82
g2513
sg75
(lp2520
S'HTTP_ACCEPT_LANGUAGE'
p2521
asbag68
(g89
g70
NtRp2522
(dp2523
g73
(dp2524
g100
g101
ssg82
g2513
sg75
(lp2525
S':'
asbag68
(g89
g70
NtRp2526
(dp2527
g73
(dp2528
sg82
g2513
sg75
(lp2529
g68
(g69
g70
NtRp2530
(dp2531
g73
(dp2532
g81
I3
ssg82
g2526
sg75
(lp2533
g919
asbasbasbag68
(g84
g70
NtRp2534
(dp2535
g73
(dp2536
sg82
g2446
sg75
(lp2537
g68
(g89
g70
NtRp2538
(dp2539
g73
(dp2540
g93
g94
ssg82
g2534
sg75
(lp2541
S'HTTP_CACHE_CONTROL'
p2542
asbag68
(g89
g70
NtRp2543
(dp2544
g73
(dp2545
g100
g101
ssg82
g2534
sg75
(lp2546
S':'
asbag68
(g89
g70
NtRp2547
(dp2548
g73
(dp2549
sg82
g2534
sg75
(lp2550
g68
(g69
g70
NtRp2551
(dp2552
g73
(dp2553
g81
I3
ssg82
g2547
sg75
(lp2554
g941
asbasbasbag68
(g84
g70
NtRp2555
(dp2556
g73
(dp2557
sg82
g2446
sg75
(lp2558
g68
(g89
g70
NtRp2559
(dp2560
g73
(dp2561
g93
g94
ssg82
g2555
sg75
(lp2562
S'HTTP_CONNECTION'
p2563
asbag68
(g89
g70
NtRp2564
(dp2565
g73
(dp2566
g100
g101
ssg82
g2555
sg75
(lp2567
S':'
asbag68
(g89
g70
NtRp2568
(dp2569
g73
(dp2570
sg82
g2555
sg75
(lp2571
g68
(g69
g70
NtRp2572
(dp2573
g73
(dp2574
g81
I3
ssg82
g2568
sg75
(lp2575
g963
asbasbasbag68
(g84
g70
NtRp2576
(dp2577
g73
(dp2578
sg82
g2446
sg75
(lp2579
g68
(g89
g70
NtRp2580
(dp2581
g73
(dp2582
g93
g94
ssg82
g2576
sg75
(lp2583
S'HTTP_COOKIE'
p2584
asbag68
(g89
g70
NtRp2585
(dp2586
g73
(dp2587
g100
g101
ssg82
g2576
sg75
(lp2588
S':'
asbag68
(g89
g70
NtRp2589
(dp2590
g73
(dp2591
sg82
g2576
sg75
(lp2592
g68
(g69
g70
NtRp2593
(dp2594
g73
(dp2595
g81
I3
ssg82
g2589
sg75
(lp2596
g985
asbasbasbag68
(g84
g70
NtRp2597
(dp2598
g73
(dp2599
sg82
g2446
sg75
(lp2600
g68
(g89
g70
NtRp2601
(dp2602
g73
(dp2603
g93
g94
ssg82
g2597
sg75
(lp2604
S'HTTP_HOST'
p2605
asbag68
(g89
g70
NtRp2606
(dp2607
g73
(dp2608
g100
g101
ssg82
g2597
sg75
(lp2609
S':'
asbag68
(g89
g70
NtRp2610
(dp2611
g73
(dp2612
sg82
g2597
sg75
(lp2613
g68
(g69
g70
NtRp2614
(dp2615
g73
(dp2616
g81
I3
ssg82
g2610
sg75
(lp2617
g1007
asbasbasbag68
(g84
g70
NtRp2618
(dp2619
g73
(dp2620
sg82
g2446
sg75
(lp2621
g68
(g89
g70
NtRp2622
(dp2623
g73
(dp2624
g93
g94
ssg82
g2618
sg75
(lp2625
S'HTTP_REFERER'
p2626
asbag68
(g89
g70
NtRp2627
(dp2628
g73
(dp2629
g100
g101
ssg82
g2618
sg75
(lp2630
S':'
asbag68
(g89
g70
NtRp2631
(dp2632
g73
(dp2633
sg82
g2618
sg75
(lp2634
g68
(g69
g70
NtRp2635
(dp2636
g73
(dp2637
g81
I3
ssg82
g2631
sg75
(lp2638
g1029
asbasbasbag68
(g84
g70
NtRp2639
(dp2640
g73
(dp2641
sg82
g2446
sg75
(lp2642
g68
(g89
g70
NtRp2643
(dp2644
g73
(dp2645
g93
g94
ssg82
g2639
sg75
(lp2646
S'HTTP_USER_AGENT'
p2647
asbag68
(g89
g70
NtRp2648
(dp2649
g73
(dp2650
g100
g101
ssg82
g2639
sg75
(lp2651
S':'
asbag68
(g89
g70
NtRp2652
(dp2653
g73
(dp2654
sg82
g2639
sg75
(lp2655
g68
(g69
g70
NtRp2656
(dp2657
g73
(dp2658
g81
I3
ssg82
g2652
sg75
(lp2659
g1051
asbasbasbag68
(g84
g70
NtRp2660
(dp2661
g73
(dp2662
sg82
g2446
sg75
(lp2663
g68
(g89
g70
NtRp2664
(dp2665
g73
(dp2666
g93
g94
ssg82
g2660
sg75
(lp2667
S'PATH_INFO'
p2668
asbag68
(g89
g70
NtRp2669
(dp2670
g73
(dp2671
g100
g101
ssg82
g2660
sg75
(lp2672
S':'
asbag68
(g89
g70
NtRp2673
(dp2674
g73
(dp2675
sg82
g2660
sg75
(lp2676
g68
(g69
g70
NtRp2677
(dp2678
g73
(dp2679
g81
I3
ssg82
g2673
sg75
(lp2680
g1192
asbasbasbag68
(g84
g70
NtRp2681
(dp2682
g73
(dp2683
sg82
g2446
sg75
(lp2684
g68
(g89
g70
NtRp2685
(dp2686
g73
(dp2687
g93
g94
ssg82
g2681
sg75
(lp2688
S'QUERY_STRING'
p2689
asbag68
(g89
g70
NtRp2690
(dp2691
g73
(dp2692
g100
g101
ssg82
g2681
sg75
(lp2693
S':'
asbag68
(g89
g70
NtRp2694
(dp2695
g73
(dp2696
sg82
g2681
sg75
(lp2697
g68
(g69
g70
NtRp2698
(dp2699
g73
(dp2700
g81
I3
ssg82
g2694
sg75
(lp2701
S''
asbasbasbag68
(g84
g70
NtRp2702
(dp2703
g73
(dp2704
sg82
g2446
sg75
(lp2705
g68
(g89
g70
NtRp2706
(dp2707
g73
(dp2708
g93
g94
ssg82
g2702
sg75
(lp2709
S'REMOTE_ADDR'
p2710
asbag68
(g89
g70
NtRp2711
(dp2712
g73
(dp2713
g100
g101
ssg82
g2702
sg75
(lp2714
S':'
asbag68
(g89
g70
NtRp2715
(dp2716
g73
(dp2717
sg82
g2702
sg75
(lp2718
g68
(g69
g70
NtRp2719
(dp2720
g73
(dp2721
g81
I3
ssg82
g2715
sg75
(lp2722
g223
asbasbasbag68
(g84
g70
NtRp2723
(dp2724
g73
(dp2725
sg82
g2446
sg75
(lp2726
g68
(g89
g70
NtRp2727
(dp2728
g73
(dp2729
g93
g94
ssg82
g2723
sg75
(lp2730
S'REMOTE_PORT'
p2731
asbag68
(g89
g70
NtRp2732
(dp2733
g73
(dp2734
g100
g101
ssg82
g2723
sg75
(lp2735
S':'
asbag68
(g89
g70
NtRp2736
(dp2737
g73
(dp2738
sg82
g2723
sg75
(lp2739
g68
(g69
g70
NtRp2740
(dp2741
g73
(dp2742
g81
I3
ssg82
g2736
sg75
(lp2743
g1256
asbasbasbag68
(g84
g70
NtRp2744
(dp2745
g73
(dp2746
sg82
g2446
sg75
(lp2747
g68
(g89
g70
NtRp2748
(dp2749
g73
(dp2750
g93
g94
ssg82
g2744
sg75
(lp2751
S'REQUEST_METHOD'
p2752
asbag68
(g89
g70
NtRp2753
(dp2754
g73
(dp2755
g100
g101
ssg82
g2744
sg75
(lp2756
S':'
asbag68
(g89
g70
NtRp2757
(dp2758
g73
(dp2759
sg82
g2744
sg75
(lp2760
g68
(g69
g70
NtRp2761
(dp2762
g73
(dp2763
g81
I3
ssg82
g2757
sg75
(lp2764
g1278
asbasbasbag68
(g84
g70
NtRp2765
(dp2766
g73
(dp2767
sg82
g2446
sg75
(lp2768
g68
(g89
g70
NtRp2769
(dp2770
g73
(dp2771
g93
g94
ssg82
g2765
sg75
(lp2772
S'REQUEST_URI'
p2773
asbag68
(g89
g70
NtRp2774
(dp2775
g73
(dp2776
g100
g101
ssg82
g2765
sg75
(lp2777
S':'
asbag68
(g89
g70
NtRp2778
(dp2779
g73
(dp2780
sg82
g2765
sg75
(lp2781
g68
(g69
g70
NtRp2782
(dp2783
g73
(dp2784
g81
I3
ssg82
g2778
sg75
(lp2785
g1300
asbasbasbag68
(g84
g70
NtRp2786
(dp2787
g73
(dp2788
sg82
g2446
sg75
(lp2789
g68
(g89
g70
NtRp2790
(dp2791
g73
(dp2792
g93
g94
ssg82
g2786
sg75
(lp2793
S'SCRIPT_NAME'
p2794
asbag68
(g89
g70
NtRp2795
(dp2796
g73
(dp2797
g100
g101
ssg82
g2786
sg75
(lp2798
S':'
asbag68
(g89
g70
NtRp2799
(dp2800
g73
(dp2801
sg82
g2786
sg75
(lp2802
g68
(g69
g70
NtRp2803
(dp2804
g73
(dp2805
g81
I3
ssg82
g2799
sg75
(lp2806
S''
asbasbasbag68
(g84
g70
NtRp2807
(dp2808
g73
(dp2809
sg82
g2446
sg75
(lp2810
g68
(g89
g70
NtRp2811
(dp2812
g73
(dp2813
g93
g94
ssg82
g2807
sg75
(lp2814
S'SERVER_NAME'
p2815
asbag68
(g89
g70
NtRp2816
(dp2817
g73
(dp2818
g100
g101
ssg82
g2807
sg75
(lp2819
S':'
asbag68
(g89
g70
NtRp2820
(dp2821
g73
(dp2822
sg82
g2807
sg75
(lp2823
g68
(g69
g70
NtRp2824
(dp2825
g73
(dp2826
g81
I3
ssg82
g2820
sg75
(lp2827
g1343
asbasbasbag68
(g84
g70
NtRp2828
(dp2829
g73
(dp2830
sg82
g2446
sg75
(lp2831
g68
(g89
g70
NtRp2832
(dp2833
g73
(dp2834
g93
g94
ssg82
g2828
sg75
(lp2835
S'SERVER_PORT'
p2836
asbag68
(g89
g70
NtRp2837
(dp2838
g73
(dp2839
g100
g101
ssg82
g2828
sg75
(lp2840
S':'
asbag68
(g89
g70
NtRp2841
(dp2842
g73
(dp2843
sg82
g2828
sg75
(lp2844
g68
(g69
g70
NtRp2845
(dp2846
g73
(dp2847
g81
I3
ssg82
g2841
sg75
(lp2848
g1365
asbasbasbag68
(g84
g70
NtRp2849
(dp2850
g73
(dp2851
sg82
g2446
sg75
(lp2852
g68
(g89
g70
NtRp2853
(dp2854
g73
(dp2855
g93
g94
ssg82
g2849
sg75
(lp2856
S'SERVER_PROTOCOL'
p2857
asbag68
(g89
g70
NtRp2858
(dp2859
g73
(dp2860
g100
g101
ssg82
g2849
sg75
(lp2861
S':'
asbag68
(g89
g70
NtRp2862
(dp2863
g73
(dp2864
sg82
g2849
sg75
(lp2865
g68
(g69
g70
NtRp2866
(dp2867
g73
(dp2868
g81
I3
ssg82
g2862
sg75
(lp2869
g1387
asbasbasbag68
(g84
g70
NtRp2870
(dp2871
g73
(dp2872
sg82
g2446
sg75
(lp2873
g68
(g89
g70
NtRp2874
(dp2875
g73
(dp2876
g93
g94
ssg82
g2870
sg75
(lp2877
S'SERVER_SOFTWARE'
p2878
asbag68
(g89
g70
NtRp2879
(dp2880
g73
(dp2881
g100
g101
ssg82
g2870
sg75
(lp2882
S':'
asbag68
(g89
g70
NtRp2883
(dp2884
g73
(dp2885
sg82
g2870
sg75
(lp2886
g68
(g69
g70
NtRp2887
(dp2888
g73
(dp2889
g81
I3
ssg82
g2883
sg75
(lp2890
g1409
asbasbasbag68
(g84
g70
NtRp2891
(dp2892
g73
(dp2893
sg82
g2446
sg75
(lp2894
g68
(g89
g70
NtRp2895
(dp2896
g73
(dp2897
g93
g94
ssg82
g2891
sg75
(lp2898
S'WEB2PY_ORIGINAL_URI'
p2899
asbag68
(g89
g70
NtRp2900
(dp2901
g73
(dp2902
g100
g101
ssg82
g2891
sg75
(lp2903
S':'
asbag68
(g89
g70
NtRp2904
(dp2905
g73
(dp2906
sg82
g2891
sg75
(lp2907
g68
(g69
g70
NtRp2908
(dp2909
g73
(dp2910
g81
I3
ssg82
g2904
sg75
(lp2911
g1192
asbasbasbag68
(g84
g70
NtRp2912
(dp2913
g73
(dp2914
sg82
g2446
sg75
(lp2915
g68
(g89
g70
NtRp2916
(dp2917
g73
(dp2918
g93
g94
ssg82
g2912
sg75
(lp2919
S'wsgi.errors'
p2920
asbag68
(g89
g70
NtRp2921
(dp2922
g73
(dp2923
g100
g101
ssg82
g2912
sg75
(lp2924
S':'
asbag68
(g89
g70
NtRp2925
(dp2926
g73
(dp2927
sg82
g2912
sg75
(lp2928
g68
(g69
g70
NtRp2929
(dp2930
g73
(dp2931
g81
I3
ssg82
g2925
sg75
(lp2932
S"<open file '<stderr>', mode 'w' at 0x7f7c5e970270>"
p2933
asbasbasbag68
(g84
g70
NtRp2934
(dp2935
g73
(dp2936
sg82
g2446
sg75
(lp2937
g68
(g89
g70
NtRp2938
(dp2939
g73
(dp2940
g93
g94
ssg82
g2934
sg75
(lp2941
S'wsgi.file_wrapper'
p2942
asbag68
(g89
g70
NtRp2943
(dp2944
g73
(dp2945
g100
g101
ssg82
g2934
sg75
(lp2946
S':'
asbag68
(g89
g70
NtRp2947
(dp2948
g73
(dp2949
sg82
g2934
sg75
(lp2950
g68
(g69
g70
NtRp2951
(dp2952
g73
(dp2953
g81
I3
ssg82
g2947
sg75
(lp2954
S'<class wsgiref.util.FileWrapper at 0x2d82598>'
p2955
asbasbasbag68
(g84
g70
NtRp2956
(dp2957
g73
(dp2958
sg82
g2446
sg75
(lp2959
g68
(g89
g70
NtRp2960
(dp2961
g73
(dp2962
g93
g94
ssg82
g2956
sg75
(lp2963
S'wsgi.input'
p2964
asbag68
(g89
g70
NtRp2965
(dp2966
g73
(dp2967
g100
g101
ssg82
g2956
sg75
(lp2968
S':'
asbag68
(g89
g70
NtRp2969
(dp2970
g73
(dp2971
sg82
g2956
sg75
(lp2972
g68
(g69
g70
NtRp2973
(dp2974
g73
(dp2975
g81
I3
ssg82
g2969
sg75
(lp2976
S'<cStringIO.StringO object at 0x7f7c2c077dc0>'
p2977
asbasbasbag68
(g84
g70
NtRp2978
(dp2979
g73
(dp2980
sg82
g2446
sg75
(lp2981
g68
(g89
g70
NtRp2982
(dp2983
g73
(dp2984
g93
g94
ssg82
g2978
sg75
(lp2985
S'wsgi.multiprocess'
p2986
asbag68
(g89
g70
NtRp2987
(dp2988
g73
(dp2989
g100
g101
ssg82
g2978
sg75
(lp2990
S':'
asbag68
(g89
g70
NtRp2991
(dp2992
g73
(dp2993
sg82
g2978
sg75
(lp2994
g68
(g69
g70
NtRp2995
(dp2996
g73
(dp2997
g81
I3
ssg82
g2991
sg75
(lp2998
g111
asbasbasbag68
(g84
g70
NtRp2999
(dp3000
g73
(dp3001
sg82
g2446
sg75
(lp3002
g68
(g89
g70
NtRp3003
(dp3004
g73
(dp3005
g93
g94
ssg82
g2999
sg75
(lp3006
S'wsgi.multithread'
p3007
asbag68
(g89
g70
NtRp3008
(dp3009
g73
(dp3010
g100
g101
ssg82
g2999
sg75
(lp3011
S':'
asbag68
(g89
g70
NtRp3012
(dp3013
g73
(dp3014
sg82
g2999
sg75
(lp3015
g68
(g69
g70
NtRp3016
(dp3017
g73
(dp3018
g81
I3
ssg82
g3012
sg75
(lp3019
g1647
asbasbasbag68
(g84
g70
NtRp3020
(dp3021
g73
(dp3022
sg82
g2446
sg75
(lp3023
g68
(g89
g70
NtRp3024
(dp3025
g73
(dp3026
g93
g94
ssg82
g3020
sg75
(lp3027
S'wsgi.run_once'
p3028
asbag68
(g89
g70
NtRp3029
(dp3030
g73
(dp3031
g100
g101
ssg82
g3020
sg75
(lp3032
S':'
asbag68
(g89
g70
NtRp3033
(dp3034
g73
(dp3035
sg82
g3020
sg75
(lp3036
g68
(g69
g70
NtRp3037
(dp3038
g73
(dp3039
g81
I3
ssg82
g3033
sg75
(lp3040
g111
asbasbasbag68
(g84
g70
NtRp3041
(dp3042
g73
(dp3043
sg82
g2446
sg75
(lp3044
g68
(g89
g70
NtRp3045
(dp3046
g73
(dp3047
g93
g94
ssg82
g3041
sg75
(lp3048
S'wsgi.url_scheme'
p3049
asbag68
(g89
g70
NtRp3050
(dp3051
g73
(dp3052
g100
g101
ssg82
g3041
sg75
(lp3053
S':'
asbag68
(g89
g70
NtRp3054
(dp3055
g73
(dp3056
sg82
g3041
sg75
(lp3057
g68
(g69
g70
NtRp3058
(dp3059
g73
(dp3060
g81
I3
ssg82
g3054
sg75
(lp3061
g1690
asbasbasbag68
(g84
g70
NtRp3062
(dp3063
g73
(dp3064
sg82
g2446
sg75
(lp3065
g68
(g89
g70
NtRp3066
(dp3067
g73
(dp3068
g93
g94
ssg82
g3062
sg75
(lp3069
S'wsgi.version'
p3070
asbag68
(g89
g70
NtRp3071
(dp3072
g73
(dp3073
g100
g101
ssg82
g3062
sg75
(lp3074
S':'
asbag68
(g89
g70
NtRp3075
(dp3076
g73
(dp3077
sg82
g3062
sg75
(lp3078
g68
(g69
g70
NtRp3079
(dp3080
g73
(dp3081
g81
I3
ssg82
g3075
sg75
(lp3082
S'1'
asbasbasbasbasbasbasbasbasbasbasbasbasbsS'frames'
p3083
(lp3084
(dp3085
S'file'
p3086
S'/var/www/conferencia/gluon/restricted.py'
p3087
sS'dump'
p3088
(dp3089
S'code'
p3090
S'\'usuario = db.define_table("usuario",\\n      Field...suario\\\'),\\n      primarykey=[\\\'confno\\\']\\n      )\\n\\n\\n\\n\''
p3091
sS'layer'
p3092
S"'/var/www/conferencia/applications/projeto/models/models.py'"
p3093
sS'global compile2'
p3094
S'<function compile2>'
p3095
sS'ccode'
p3096
S'undefined'
p3097
ssS'lnum'
p3098
I211
sS'lines'
p3099
(dp3100
I206
S"    environment['__name__'] = '__restricted__'"
p3101
sI207
S'    try:'
p3102
sI208
S'        if isinstance(code, types.CodeType):'
p3103
sI209
S'            ccode = code'
p3104
sI210
S'        else:'
p3105
sI211
S'            ccode = compile2(code, layer)'
p3106
sI212
S'        exec ccode in environment'
p3107
sI213
S'    except HTTP:'
p3108
sI214
S'        raise'
p3109
sI215
S'    except RestrictedError:'
p3110
ssS'call'
p3111
S'(code=\'usuario = db.define_table("usuario",\\n      Field...suario\\\'),\\n      primarykey=[\\\'confno\\\']\\n      )\\n\\n\\n\\n\', environment={\'A\': <class \'gluon.html.A\'>, \'Auth\': <class \'gluon.tools.Auth\'>, \'B\': <class \'gluon.html.B\'>, \'BEAUTIFY\': <class \'gluon.html.BEAUTIFY\'>, \'BODY\': <class \'gluon.html.BODY\'>, \'BR\': <class \'gluon.html.BR\'>, \'BUTTON\': <class \'gluon.html.BUTTON\'>, \'CAT\': <class \'gluon.html.CAT\'>, \'CENTER\': <class \'gluon.html.CENTER\'>, \'CLEANUP\': <class \'gluon.validators.CLEANUP\'>, ...}, layer=\'/var/www/conferencia/applications/projeto/models/models.py\')'
p3112
sS'func'
p3113
S'restricted'
p3114
sa(dp3115
g3086
S'/var/www/conferencia/gluon/restricted.py'
p3116
sg3088
(dp3117
S'builtincompile'
p3118
S'<built-in function compile>'
p3119
sS'code'
p3120
S'\'usuario = db.define_table("usuario",\\n      Field...suario\\\'),\\n      primarykey=[\\\'confno\\\']\\n      )\\n\\n\\n\\n\''
p3121
sS'code.rstrip'
p3122
S'<built-in method rstrip of str object>'
p3123
sS').replace'
p3124
g3097
sS'layer'
p3125
S"'/var/www/conferencia/applications/projeto/models/models.py'"
p3126
ssg3098
I194
sg3099
(dp3127
I192
S"    The +'\\n' is necessary else compile fails when code ends in a comment."
p3128
sI193
S'    """'
p3129
sI194
S"    return compile(code.rstrip().replace('\\r\\n', '\\n') + '\\n', layer, 'exec')"
p3130
sI195
S''
sI196
S''
sI197
S"def restricted(code, environment=None, layer='Unknown'):"
p3131
sI198
S'    """'
p3132
sI189
S''
sI190
S'def compile2(code, layer):'
p3133
sI191
S'    """'
p3134
ssg3111
S'(code=\'usuario = db.define_table("usuario",\\n      Field...suario\\\'),\\n      primarykey=[\\\'confno\\\']\\n      )\\n\\n\\n\\n\', layer=\'/var/www/conferencia/applications/projeto/models/models.py\')'
p3135
sg3113
S'compile2'
p3136
sasS'pyver'
p3137
S'Python 2.7.3: /usr/bin/python'
p3138
sS'session'
p3139
g68
(g69
g70
NtRp3140
(dp3141
g73
(dp3142
sg75
(lp3143
g68
(g77
g70
NtRp3144
(dp3145
g73
(dp3146
g81
I5
ssg82
Nsg75
(lp3147
g68
(g84
g70
NtRp3148
(dp3149
g73
(dp3150
sg82
g3144
sg75
(lp3151
g68
(g89
g70
NtRp3152
(dp3153
g73
(dp3154
g93
g94
ssg82
g3148
sg75
(lp3155
S'flash'
p3156
asbag68
(g89
g70
NtRp3157
(dp3158
g73
(dp3159
g100
g101
ssg82
g3148
sg75
(lp3160
S':'
asbag68
(g89
g70
NtRp3161
(dp3162
g73
(dp3163
sg82
g3148
sg75
(lp3164
g68
(g69
g70
NtRp3165
(dp3166
g73
(dp3167
g81
I5
ssg82
g3161
sg75
(lp3168
S'None'
p3169
asbasbasbasbasbsS'etype'
p3170
S"<type 'exceptions.IndentationError'>"
p3171
sS'date'
p3172
S'Tue Apr  2 18:26:41 2013'
p3173
sS'response'
p3174
g68
(g69
g70
NtRp3175
(dp3176
g73
(dp3177
sg75
(lp3178
g68
(g77
g70
NtRp3179
(dp3180
g73
(dp3181
g81
I5
ssg82
Nsg75
(lp3182
g68
(g84
g70
NtRp3183
(dp3184
g73
(dp3185
sg82
g3179
sg75
(lp3186
g68
(g89
g70
NtRp3187
(dp3188
g73
(dp3189
g93
g94
ssg82
g3183
sg75
(lp3190
g166
asbag68
(g89
g70
NtRp3191
(dp3192
g73
(dp3193
g100
g101
ssg82
g3183
sg75
(lp3194
S':'
asbag68
(g89
g70
NtRp3195
(dp3196
g73
(dp3197
sg82
g3183
sg75
(lp3198
g68
(g69
g70
NtRp3199
(dp3200
g73
(dp3201
g81
I5
ssg82
g3195
sg75
(lp3202
S'<cStringIO.StringO object at 0x7f7c50152260>'
p3203
asbasbasbag68
(g84
g70
NtRp3204
(dp3205
g73
(dp3206
sg82
g3179
sg75
(lp3207
g68
(g89
g70
NtRp3208
(dp3209
g73
(dp3210
g93
g94
ssg82
g3204
sg75
(lp3211
g254
asbag68
(g89
g70
NtRp3212
(dp3213
g73
(dp3214
g100
g101
ssg82
g3204
sg75
(lp3215
S':'
asbag68
(g89
g70
NtRp3216
(dp3217
g73
(dp3218
sg82
g3204
sg75
(lp3219
g68
(g69
g70
NtRp3220
(dp3221
g73
(dp3222
g81
I5
ssg82
g3216
sg75
(lp3223
g68
(g77
g70
NtRp3224
(dp3225
g73
(dp3226
g81
I4
ssg82
Nsg75
(lp3227
g68
(g84
g70
NtRp3228
(dp3229
g73
(dp3230
sg82
g3224
sg75
(lp3231
g68
(g89
g70
NtRp3232
(dp3233
g73
(dp3234
g93
g94
ssg82
g3228
sg75
(lp3235
S'session_id_projeto'
p3236
asbag68
(g89
g70
NtRp3237
(dp3238
g73
(dp3239
g100
g101
ssg82
g3228
sg75
(lp3240
S':'
asbag68
(g89
g70
NtRp3241
(dp3242
g73
(dp3243
sg82
g3228
sg75
(lp3244
g68
(g69
g70
NtRp3245
(dp3246
g73
(dp3247
g81
I4
ssg82
g3241
sg75
(lp3248
g486
ag68
(g77
g70
NtRp3249
(dp3250
g73
(dp3251
g81
I3
ssg82
Nsg75
(lp3252
g68
(g84
g70
NtRp3253
(dp3254
g73
(dp3255
sg82
g3249
sg75
(lp3256
g68
(g89
g70
NtRp3257
(dp3258
g73
(dp3259
g93
g94
ssg82
g3253
sg75
(lp3260
g305
asbag68
(g89
g70
NtRp3261
(dp3262
g73
(dp3263
g100
g101
ssg82
g3253
sg75
(lp3264
S':'
asbag68
(g89
g70
NtRp3265
(dp3266
g73
(dp3267
sg82
g3253
sg75
(lp3268
g68
(g69
g70
NtRp3269
(dp3270
g73
(dp3271
g81
I3
ssg82
g3265
sg75
(lp3272
S''
asbasbasbag68
(g84
g70
NtRp3273
(dp3274
g73
(dp3275
sg82
g3249
sg75
(lp3276
g68
(g89
g70
NtRp3277
(dp3278
g73
(dp3279
g93
g94
ssg82
g3273
sg75
(lp3280
g326
asbag68
(g89
g70
NtRp3281
(dp3282
g73
(dp3283
g100
g101
ssg82
g3273
sg75
(lp3284
S':'
asbag68
(g89
g70
NtRp3285
(dp3286
g73
(dp3287
sg82
g3273
sg75
(lp3288
g68
(g69
g70
NtRp3289
(dp3290
g73
(dp3291
g81
I3
ssg82
g3285
sg75
(lp3292
S''
asbasbasbag68
(g84
g70
NtRp3293
(dp3294
g73
(dp3295
sg82
g3249
sg75
(lp3296
g68
(g89
g70
NtRp3297
(dp3298
g73
(dp3299
g93
g94
ssg82
g3293
sg75
(lp3300
g347
asbag68
(g89
g70
NtRp3301
(dp3302
g73
(dp3303
g100
g101
ssg82
g3293
sg75
(lp3304
S':'
asbag68
(g89
g70
NtRp3305
(dp3306
g73
(dp3307
sg82
g3293
sg75
(lp3308
g68
(g69
g70
NtRp3309
(dp3310
g73
(dp3311
g81
I3
ssg82
g3305
sg75
(lp3312
S''
asbasbasbag68
(g84
g70
NtRp3313
(dp3314
g73
(dp3315
sg82
g3249
sg75
(lp3316
g68
(g89
g70
NtRp3317
(dp3318
g73
(dp3319
g93
g94
ssg82
g3313
sg75
(lp3320
g368
asbag68
(g89
g70
NtRp3321
(dp3322
g73
(dp3323
g100
g101
ssg82
g3313
sg75
(lp3324
S':'
asbag68
(g89
g70
NtRp3325
(dp3326
g73
(dp3327
sg82
g3313
sg75
(lp3328
g68
(g69
g70
NtRp3329
(dp3330
g73
(dp3331
g81
I3
ssg82
g3325
sg75
(lp3332
S''
asbasbasbag68
(g84
g70
NtRp3333
(dp3334
g73
(dp3335
sg82
g3249
sg75
(lp3336
g68
(g89
g70
NtRp3337
(dp3338
g73
(dp3339
g93
g94
ssg82
g3333
sg75
(lp3340
g389
asbag68
(g89
g70
NtRp3341
(dp3342
g73
(dp3343
g100
g101
ssg82
g3333
sg75
(lp3344
S':'
asbag68
(g89
g70
NtRp3345
(dp3346
g73
(dp3347
sg82
g3333
sg75
(lp3348
g68
(g69
g70
NtRp3349
(dp3350
g73
(dp3351
g81
I3
ssg82
g3345
sg75
(lp3352
S''
asbasbasbag68
(g84
g70
NtRp3353
(dp3354
g73
(dp3355
sg82
g3249
sg75
(lp3356
g68
(g89
g70
NtRp3357
(dp3358
g73
(dp3359
g93
g94
ssg82
g3353
sg75
(lp3360
g410
asbag68
(g89
g70
NtRp3361
(dp3362
g73
(dp3363
g100
g101
ssg82
g3353
sg75
(lp3364
S':'
asbag68
(g89
g70
NtRp3365
(dp3366
g73
(dp3367
sg82
g3353
sg75
(lp3368
g68
(g69
g70
NtRp3369
(dp3370
g73
(dp3371
g81
I3
ssg82
g3365
sg75
(lp3372
S'/'
asbasbasbag68
(g84
g70
NtRp3373
(dp3374
g73
(dp3375
sg82
g3249
sg75
(lp3376
g68
(g89
g70
NtRp3377
(dp3378
g73
(dp3379
g93
g94
ssg82
g3373
sg75
(lp3380
g431
asbag68
(g89
g70
NtRp3381
(dp3382
g73
(dp3383
g100
g101
ssg82
g3373
sg75
(lp3384
S':'
asbag68
(g89
g70
NtRp3385
(dp3386
g73
(dp3387
sg82
g3373
sg75
(lp3388
g68
(g69
g70
NtRp3389
(dp3390
g73
(dp3391
g81
I3
ssg82
g3385
sg75
(lp3392
S''
asbasbasbag68
(g84
g70
NtRp3393
(dp3394
g73
(dp3395
sg82
g3249
sg75
(lp3396
g68
(g89
g70
NtRp3397
(dp3398
g73
(dp3399
g93
g94
ssg82
g3393
sg75
(lp3400
g452
asbag68
(g89
g70
NtRp3401
(dp3402
g73
(dp3403
g100
g101
ssg82
g3393
sg75
(lp3404
S':'
asbag68
(g89
g70
NtRp3405
(dp3406
g73
(dp3407
sg82
g3393
sg75
(lp3408
g68
(g69
g70
NtRp3409
(dp3410
g73
(dp3411
g81
I3
ssg82
g3405
sg75
(lp3412
S''
asbasbasbasbasbasbasbasbasbasbasbag68
(g84
g70
NtRp3413
(dp3414
g73
(dp3415
sg82
g3179
sg75
(lp3416
g68
(g89
g70
NtRp3417
(dp3418
g73
(dp3419
g93
g94
ssg82
g3413
sg75
(lp3420
S'delimiters'
p3421
asbag68
(g89
g70
NtRp3422
(dp3423
g73
(dp3424
g100
g101
ssg82
g3413
sg75
(lp3425
S':'
asbag68
(g89
g70
NtRp3426
(dp3427
g73
(dp3428
sg82
g3413
sg75
(lp3429
g68
(g69
g70
NtRp3430
(dp3431
g73
(dp3432
g81
I5
ssg82
g3426
sg75
(lp3433
g68
(g77
g70
NtRp3434
(dp3435
g73
(dp3436
g81
I4
ssg82
Nsg75
(lp3437
g68
(g84
g70
NtRp3438
(dp3439
g73
(dp3440
sg82
g3434
sg75
(lp3441
g68
(g89
g70
NtRp3442
(dp3443
g73
(dp3444
sg82
g3438
sg75
(lp3445
g68
(g69
g70
NtRp3446
(dp3447
g73
(dp3448
g81
I4
ssg82
g3442
sg75
(lp3449
S'{{'
p3450
asbasbasbag68
(g84
g70
NtRp3451
(dp3452
g73
(dp3453
sg82
g3434
sg75
(lp3454
g68
(g89
g70
NtRp3455
(dp3456
g73
(dp3457
sg82
g3451
sg75
(lp3458
g68
(g69
g70
NtRp3459
(dp3460
g73
(dp3461
g81
I4
ssg82
g3455
sg75
(lp3462
S'}}'
p3463
asbasbasbasbasbasbasbag68
(g84
g70
NtRp3464
(dp3465
g73
(dp3466
sg82
g3179
sg75
(lp3467
g68
(g89
g70
NtRp3468
(dp3469
g73
(dp3470
g93
g94
ssg82
g3464
sg75
(lp3471
S'files'
p3472
asbag68
(g89
g70
NtRp3473
(dp3474
g73
(dp3475
g100
g101
ssg82
g3464
sg75
(lp3476
S':'
asbag68
(g89
g70
NtRp3477
(dp3478
g73
(dp3479
sg82
g3464
sg75
(lp3480
g68
(g69
g70
NtRp3481
(dp3482
g73
(dp3483
g81
I5
ssg82
g3477
sg75
(lp3484
g68
(g77
g70
NtRp3485
(dp3486
g73
(dp3487
g81
I4
ssg82
Nsg75
(lp3488
sbasbasbasbag68
(g84
g70
NtRp3489
(dp3490
g73
(dp3491
sg82
g3179
sg75
(lp3492
g68
(g89
g70
NtRp3493
(dp3494
g73
(dp3495
g93
g94
ssg82
g3489
sg75
(lp3496
S'flash'
p3497
asbag68
(g89
g70
NtRp3498
(dp3499
g73
(dp3500
g100
g101
ssg82
g3489
sg75
(lp3501
S':'
asbag68
(g89
g70
NtRp3502
(dp3503
g73
(dp3504
sg82
g3489
sg75
(lp3505
g68
(g69
g70
NtRp3506
(dp3507
g73
(dp3508
g81
I5
ssg82
g3502
sg75
(lp3509
S''
asbasbasbag68
(g84
g70
NtRp3510
(dp3511
g73
(dp3512
sg82
g3179
sg75
(lp3513
g68
(g89
g70
NtRp3514
(dp3515
g73
(dp3516
g93
g94
ssg82
g3510
sg75
(lp3517
S'generic_patterns'
p3518
asbag68
(g89
g70
NtRp3519
(dp3520
g73
(dp3521
g100
g101
ssg82
g3510
sg75
(lp3522
S':'
asbag68
(g89
g70
NtRp3523
(dp3524
g73
(dp3525
sg82
g3510
sg75
(lp3526
g68
(g69
g70
NtRp3527
(dp3528
g73
(dp3529
g81
I5
ssg82
g3523
sg75
(lp3530
g68
(g77
g70
NtRp3531
(dp3532
g73
(dp3533
g81
I4
ssg82
Nsg75
(lp3534
g68
(g84
g70
NtRp3535
(dp3536
g73
(dp3537
sg82
g3531
sg75
(lp3538
g68
(g89
g70
NtRp3539
(dp3540
g73
(dp3541
sg82
g3535
sg75
(lp3542
g68
(g69
g70
NtRp3543
(dp3544
g73
(dp3545
g81
I4
ssg82
g3539
sg75
(lp3546
S'*'
asbasbasbasbasbasbasbag68
(g84
g70
NtRp3547
(dp3548
g73
(dp3549
sg82
g3179
sg75
(lp3550
g68
(g89
g70
NtRp3551
(dp3552
g73
(dp3553
g93
g94
ssg82
g3547
sg75
(lp3554
S'google_analytics_id'
p3555
asbag68
(g89
g70
NtRp3556
(dp3557
g73
(dp3558
g100
g101
ssg82
g3547
sg75
(lp3559
S':'
asbag68
(g89
g70
NtRp3560
(dp3561
g73
(dp3562
sg82
g3547
sg75
(lp3563
g68
(g69
g70
NtRp3564
(dp3565
g73
(dp3566
g81
I5
ssg82
g3560
sg75
(lp3567
S'None'
p3568
asbasbasbag68
(g84
g70
NtRp3569
(dp3570
g73
(dp3571
sg82
g3179
sg75
(lp3572
g68
(g89
g70
NtRp3573
(dp3574
g73
(dp3575
g93
g94
ssg82
g3569
sg75
(lp3576
S'headers'
p3577
asbag68
(g89
g70
NtRp3578
(dp3579
g73
(dp3580
g100
g101
ssg82
g3569
sg75
(lp3581
S':'
asbag68
(g89
g70
NtRp3582
(dp3583
g73
(dp3584
sg82
g3569
sg75
(lp3585
g68
(g69
g70
NtRp3586
(dp3587
g73
(dp3588
g81
I5
ssg82
g3582
sg75
(lp3589
g68
(g77
g70
NtRp3590
(dp3591
g73
(dp3592
g81
I4
ssg82
Nsg75
(lp3593
g68
(g84
g70
NtRp3594
(dp3595
g73
(dp3596
sg82
g3590
sg75
(lp3597
g68
(g89
g70
NtRp3598
(dp3599
g73
(dp3600
g93
g94
ssg82
g3594
sg75
(lp3601
S'X-Powered-By'
p3602
asbag68
(g89
g70
NtRp3603
(dp3604
g73
(dp3605
g100
g101
ssg82
g3594
sg75
(lp3606
S':'
asbag68
(g89
g70
NtRp3607
(dp3608
g73
(dp3609
sg82
g3594
sg75
(lp3610
g68
(g69
g70
NtRp3611
(dp3612
g73
(dp3613
g81
I4
ssg82
g3607
sg75
(lp3614
S'web2py'
p3615
asbasbasbasbasbasbasbag68
(g84
g70
NtRp3616
(dp3617
g73
(dp3618
sg82
g3179
sg75
(lp3619
g68
(g89
g70
NtRp3620
(dp3621
g73
(dp3622
g93
g94
ssg82
g3616
sg75
(lp3623
S'logo'
p3624
asbag68
(g89
g70
NtRp3625
(dp3626
g73
(dp3627
g100
g101
ssg82
g3616
sg75
(lp3628
S':'
asbag68
(g89
g70
NtRp3629
(dp3630
g73
(dp3631
sg82
g3616
sg75
(lp3632
g68
(g69
g70
NtRp3633
(dp3634
g73
(dp3635
g81
I5
ssg82
g3629
sg75
(lp3636
g68
(cgluon.html
A
p3637
g70
NtRp3638
(dp3639
g73
(dp3640
S'_class'
p3641
S'brand'
p3642
sS'_href'
p3643
S'principal'
p3644
ssg82
Nsg75
(lp3645
g68
(cgluon.html
B
p3646
g70
NtRp3647
(dp3648
g73
(dp3649
sg82
g3638
sg75
(lp3650
S'hosts'
p3651
ag68
(cgluon.html
SPAN
p3652
g70
NtRp3653
(dp3654
g73
(dp3655
sg82
g3647
sg75
(lp3656
S'3'
asbaS''
asbacgluon.html
XML_unpickle
p3657
(S's\r\x00\x00\x00&trade;&nbsp;'
tRp3658
asbasbasbasbag68
(g84
g70
NtRp3659
(dp3660
g73
(dp3661
sg82
g3179
sg75
(lp3662
g68
(g89
g70
NtRp3663
(dp3664
g73
(dp3665
g93
g94
ssg82
g3659
sg75
(lp3666
S'menu'
p3667
asbag68
(g89
g70
NtRp3668
(dp3669
g73
(dp3670
g100
g101
ssg82
g3659
sg75
(lp3671
S':'
asbag68
(g89
g70
NtRp3672
(dp3673
g73
(dp3674
sg82
g3659
sg75
(lp3675
g68
(g69
g70
NtRp3676
(dp3677
g73
(dp3678
g81
I5
ssg82
g3672
sg75
(lp3679
g68
(g77
g70
NtRp3680
(dp3681
g73
(dp3682
g81
I4
ssg82
Nsg75
(lp3683
g68
(g84
g70
NtRp3684
(dp3685
g73
(dp3686
sg82
g3680
sg75
(lp3687
g68
(g89
g70
NtRp3688
(dp3689
g73
(dp3690
sg82
g3684
sg75
(lp3691
g68
(g69
g70
NtRp3692
(dp3693
g73
(dp3694
g81
I4
ssg82
g3688
sg75
(lp3695
g68
(g77
g70
NtRp3696
(dp3697
g73
(dp3698
g81
I3
ssg82
Nsg75
(lp3699
g68
(g84
g70
NtRp3700
(dp3701
g73
(dp3702
sg82
g3696
sg75
(lp3703
g68
(g89
g70
NtRp3704
(dp3705
g73
(dp3706
sg82
g3700
sg75
(lp3707
g68
(g69
g70
NtRp3708
(dp3709
g73
(dp3710
g81
I3
ssg82
g3704
sg75
(lp3711
cgluon.languages
lazyT_unpickle
p3712
(S't\x08\x00\x00\x00Clientes'
tRp3713
asbasbasbag68
(g84
g70
NtRp3714
(dp3715
g73
(dp3716
sg82
g3696
sg75
(lp3717
g68
(g89
g70
NtRp3718
(dp3719
g73
(dp3720
sg82
g3714
sg75
(lp3721
g68
(g69
g70
NtRp3722
(dp3723
g73
(dp3724
g81
I3
ssg82
g3718
sg75
(lp3725
g111
asbasbasbag68
(g84
g70
NtRp3726
(dp3727
g73
(dp3728
sg82
g3696
sg75
(lp3729
g68
(g89
g70
NtRp3730
(dp3731
g73
(dp3732
sg82
g3726
sg75
(lp3733
g68
(g69
g70
NtRp3734
(dp3735
g73
(dp3736
g81
I3
ssg82
g3730
sg75
(lp3737
S'/show_cliente'
p3738
asbasbasbag68
(g84
g70
NtRp3739
(dp3740
g73
(dp3741
sg82
g3696
sg75
(lp3742
g68
(g89
g70
NtRp3743
(dp3744
g73
(dp3745
sg82
g3739
sg75
(lp3746
g68
(g69
g70
NtRp3747
(dp3748
g73
(dp3749
g81
I3
ssg82
g3743
sg75
(lp3750
g68
(g77
g70
NtRp3751
(dp3752
g73
(dp3753
g81
I2
ssg82
Nsg75
(lp3754
sbasbasbasbasbasbasbasbag68
(g84
g70
NtRp3755
(dp3756
g73
(dp3757
sg82
g3680
sg75
(lp3758
g68
(g89
g70
NtRp3759
(dp3760
g73
(dp3761
sg82
g3755
sg75
(lp3762
g68
(g69
g70
NtRp3763
(dp3764
g73
(dp3765
g81
I4
ssg82
g3759
sg75
(lp3766
g68
(g77
g70
NtRp3767
(dp3768
g73
(dp3769
g81
I3
ssg82
Nsg75
(lp3770
g68
(g84
g70
NtRp3771
(dp3772
g73
(dp3773
sg82
g3767
sg75
(lp3774
g68
(g89
g70
NtRp3775
(dp3776
g73
(dp3777
sg82
g3771
sg75
(lp3778
g68
(g69
g70
NtRp3779
(dp3780
g73
(dp3781
g81
I3
ssg82
g3775
sg75
(lp3782
g3712
(S't\n\x00\x00\x00Servidores'
tRp3783
asbasbasbag68
(g84
g70
NtRp3784
(dp3785
g73
(dp3786
sg82
g3767
sg75
(lp3787
g68
(g89
g70
NtRp3788
(dp3789
g73
(dp3790
sg82
g3784
sg75
(lp3791
g68
(g69
g70
NtRp3792
(dp3793
g73
(dp3794
g81
I3
ssg82
g3788
sg75
(lp3795
g111
asbasbasbag68
(g84
g70
NtRp3796
(dp3797
g73
(dp3798
sg82
g3767
sg75
(lp3799
g68
(g89
g70
NtRp3800
(dp3801
g73
(dp3802
sg82
g3796
sg75
(lp3803
g68
(g69
g70
NtRp3804
(dp3805
g73
(dp3806
g81
I3
ssg82
g3800
sg75
(lp3807
S'/show_servidor'
p3808
asbasbasbag68
(g84
g70
NtRp3809
(dp3810
g73
(dp3811
sg82
g3767
sg75
(lp3812
g68
(g89
g70
NtRp3813
(dp3814
g73
(dp3815
sg82
g3809
sg75
(lp3816
g68
(g69
g70
NtRp3817
(dp3818
g73
(dp3819
g81
I3
ssg82
g3813
sg75
(lp3820
g68
(g77
g70
NtRp3821
(dp3822
g73
(dp3823
g81
I2
ssg82
Nsg75
(lp3824
sbasbasbasbasbasbasbasbag68
(g84
g70
NtRp3825
(dp3826
g73
(dp3827
sg82
g3680
sg75
(lp3828
g68
(g89
g70
NtRp3829
(dp3830
g73
(dp3831
sg82
g3825
sg75
(lp3832
g68
(g69
g70
NtRp3833
(dp3834
g73
(dp3835
g81
I4
ssg82
g3829
sg75
(lp3836
g68
(g77
g70
NtRp3837
(dp3838
g73
(dp3839
g81
I3
ssg82
Nsg75
(lp3840
g68
(g84
g70
NtRp3841
(dp3842
g73
(dp3843
sg82
g3837
sg75
(lp3844
g68
(g89
g70
NtRp3845
(dp3846
g73
(dp3847
sg82
g3841
sg75
(lp3848
g68
(g69
g70
NtRp3849
(dp3850
g73
(dp3851
g81
I3
ssg82
g3845
sg75
(lp3852
g3712
(S't\x07\x00\x00\x00Distros'
tRp3853
asbasbasbag68
(g84
g70
NtRp3854
(dp3855
g73
(dp3856
sg82
g3837
sg75
(lp3857
g68
(g89
g70
NtRp3858
(dp3859
g73
(dp3860
sg82
g3854
sg75
(lp3861
g68
(g69
g70
NtRp3862
(dp3863
g73
(dp3864
g81
I3
ssg82
g3858
sg75
(lp3865
g111
asbasbasbag68
(g84
g70
NtRp3866
(dp3867
g73
(dp3868
sg82
g3837
sg75
(lp3869
g68
(g89
g70
NtRp3870
(dp3871
g73
(dp3872
sg82
g3866
sg75
(lp3873
g68
(g69
g70
NtRp3874
(dp3875
g73
(dp3876
g81
I3
ssg82
g3870
sg75
(lp3877
S'/show_distro'
p3878
asbasbasbag68
(g84
g70
NtRp3879
(dp3880
g73
(dp3881
sg82
g3837
sg75
(lp3882
g68
(g89
g70
NtRp3883
(dp3884
g73
(dp3885
sg82
g3879
sg75
(lp3886
g68
(g69
g70
NtRp3887
(dp3888
g73
(dp3889
g81
I3
ssg82
g3883
sg75
(lp3890
g68
(g77
g70
NtRp3891
(dp3892
g73
(dp3893
g81
I2
ssg82
Nsg75
(lp3894
sbasbasbasbasbasbasbasbag68
(g84
g70
NtRp3895
(dp3896
g73
(dp3897
sg82
g3680
sg75
(lp3898
g68
(g89
g70
NtRp3899
(dp3900
g73
(dp3901
sg82
g3895
sg75
(lp3902
g68
(g69
g70
NtRp3903
(dp3904
g73
(dp3905
g81
I4
ssg82
g3899
sg75
(lp3906
g68
(g77
g70
NtRp3907
(dp3908
g73
(dp3909
g81
I3
ssg82
Nsg75
(lp3910
g68
(g84
g70
NtRp3911
(dp3912
g73
(dp3913
sg82
g3907
sg75
(lp3914
g68
(g89
g70
NtRp3915
(dp3916
g73
(dp3917
sg82
g3911
sg75
(lp3918
g68
(g69
g70
NtRp3919
(dp3920
g73
(dp3921
g81
I3
ssg82
g3915
sg75
(lp3922
g3712
(S's\x05\x00\x00\x00+host'
tRp3923
asbasbasbag68
(g84
g70
NtRp3924
(dp3925
g73
(dp3926
sg82
g3907
sg75
(lp3927
g68
(g89
g70
NtRp3928
(dp3929
g73
(dp3930
sg82
g3924
sg75
(lp3931
g68
(g69
g70
NtRp3932
(dp3933
g73
(dp3934
g81
I3
ssg82
g3928
sg75
(lp3935
g111
asbasbasbag68
(g84
g70
NtRp3936
(dp3937
g73
(dp3938
sg82
g3907
sg75
(lp3939
g68
(g89
g70
NtRp3940
(dp3941
g73
(dp3942
sg82
g3936
sg75
(lp3943
g68
(g69
g70
NtRp3944
(dp3945
g73
(dp3946
g81
I3
ssg82
g3940
sg75
(lp3947
S'/interface'
p3948
asbasbasbag68
(g84
g70
NtRp3949
(dp3950
g73
(dp3951
sg82
g3907
sg75
(lp3952
g68
(g89
g70
NtRp3953
(dp3954
g73
(dp3955
sg82
g3949
sg75
(lp3956
g68
(g69
g70
NtRp3957
(dp3958
g73
(dp3959
g81
I3
ssg82
g3953
sg75
(lp3960
g68
(g77
g70
NtRp3961
(dp3962
g73
(dp3963
g81
I2
ssg82
Nsg75
(lp3964
sbasbasbasbasbasbasbasbasbasbasbasbag68
(g84
g70
NtRp3965
(dp3966
g73
(dp3967
sg82
g3179
sg75
(lp3968
g68
(g89
g70
NtRp3969
(dp3970
g73
(dp3971
g93
g94
ssg82
g3965
sg75
(lp3972
S'menu2'
p3973
asbag68
(g89
g70
NtRp3974
(dp3975
g73
(dp3976
g100
g101
ssg82
g3965
sg75
(lp3977
S':'
asbag68
(g89
g70
NtRp3978
(dp3979
g73
(dp3980
sg82
g3965
sg75
(lp3981
g68
(g69
g70
NtRp3982
(dp3983
g73
(dp3984
g81
I5
ssg82
g3978
sg75
(lp3985
g68
(g77
g70
NtRp3986
(dp3987
g73
(dp3988
g81
I4
ssg82
Nsg75
(lp3989
g68
(g84
g70
NtRp3990
(dp3991
g73
(dp3992
sg82
g3986
sg75
(lp3993
g68
(g89
g70
NtRp3994
(dp3995
g73
(dp3996
sg82
g3990
sg75
(lp3997
g68
(g69
g70
NtRp3998
(dp3999
g73
(dp4000
g81
I4
ssg82
g3994
sg75
(lp4001
g68
(g77
g70
NtRp4002
(dp4003
g73
(dp4004
g81
I3
ssg82
Nsg75
(lp4005
g68
(g84
g70
NtRp4006
(dp4007
g73
(dp4008
sg82
g4002
sg75
(lp4009
g68
(g89
g70
NtRp4010
(dp4011
g73
(dp4012
sg82
g4006
sg75
(lp4013
g68
(g69
g70
NtRp4014
(dp4015
g73
(dp4016
g81
I3
ssg82
g4010
sg75
(lp4017
g68
(g3652
g70
NtRp4018
(dp4019
g73
(dp4020
g3641
S'dropdown-toggle'
p4021
ssg82
Nsg75
(lp4022
S'Admin'
p4023
asbasbasbasbag68
(g84
g70
NtRp4024
(dp4025
g73
(dp4026
sg82
g4002
sg75
(lp4027
g68
(g89
g70
NtRp4028
(dp4029
g73
(dp4030
sg82
g4024
sg75
(lp4031
g68
(g69
g70
NtRp4032
(dp4033
g73
(dp4034
g81
I3
ssg82
g4028
sg75
(lp4035
g111
asbasbasbag68
(g84
g70
NtRp4036
(dp4037
g73
(dp4038
sg82
g4002
sg75
(lp4039
g68
(g89
g70
NtRp4040
(dp4041
g73
(dp4042
sg82
g4036
sg75
(lp4043
g68
(g69
g70
NtRp4044
(dp4045
g73
(dp4046
g81
I3
ssg82
g4040
sg75
(lp4047
S'#'
asbasbasbag68
(g84
g70
NtRp4048
(dp4049
g73
(dp4050
sg82
g4002
sg75
(lp4051
g68
(g89
g70
NtRp4052
(dp4053
g73
(dp4054
sg82
g4048
sg75
(lp4055
g68
(g69
g70
NtRp4056
(dp4057
g73
(dp4058
g81
I3
ssg82
g4052
sg75
(lp4059
g68
(g77
g70
NtRp4060
(dp4061
g73
(dp4062
g81
I2
ssg82
Nsg75
(lp4063
g68
(g84
g70
NtRp4064
(dp4065
g73
(dp4066
sg82
g4060
sg75
(lp4067
g68
(g89
g70
NtRp4068
(dp4069
g73
(dp4070
sg82
g4064
sg75
(lp4071
g68
(g69
g70
NtRp4072
(dp4073
g73
(dp4074
g81
I2
ssg82
g4068
sg75
(lp4075
g68
(g77
g70
NtRp4076
(dp4077
g73
(dp4078
g81
I1
ssg82
Nsg75
(lp4079
g68
(g84
g70
NtRp4080
(dp4081
g73
(dp4082
sg82
g4076
sg75
(lp4083
g68
(g89
g70
NtRp4084
(dp4085
g73
(dp4086
sg82
g4080
sg75
(lp4087
g68
(g69
g70
NtRp4088
(dp4089
g73
(dp4090
g81
I1
ssg82
g4084
sg75
(lp4091
g3712
(S's\t\x00\x00\x00Usu\xc3\xa1rios'
tRp4092
asbasbasbag68
(g84
g70
NtRp4093
(dp4094
g73
(dp4095
sg82
g4076
sg75
(lp4096
g68
(g89
g70
NtRp4097
(dp4098
g73
(dp4099
sg82
g4093
sg75
(lp4100
g68
(g69
g70
NtRp4101
(dp4102
g73
(dp4103
g81
I1
ssg82
g4097
sg75
(lp4104
I00
asbasbasbag68
(g84
g70
NtRp4105
(dp4106
g73
(dp4107
sg82
g4076
sg75
(lp4108
g68
(g89
g70
NtRp4109
(dp4110
g73
(dp4111
sg82
g4105
sg75
(lp4112
g68
(g69
g70
NtRp4113
(dp4114
g73
(dp4115
g81
I1
ssg82
g4109
sg75
(lp4116
S'/manager/users'
p4117
asbasbasbasbasbasbasbag68
(g84
g70
NtRp4118
(dp4119
g73
(dp4120
sg82
g4060
sg75
(lp4121
g68
(g89
g70
NtRp4122
(dp4123
g73
(dp4124
sg82
g4118
sg75
(lp4125
g68
(g69
g70
NtRp4126
(dp4127
g73
(dp4128
g81
I2
ssg82
g4122
sg75
(lp4129
g68
(g77
g70
NtRp4130
(dp4131
g73
(dp4132
g81
I1
ssg82
Nsg75
(lp4133
g68
(g84
g70
NtRp4134
(dp4135
g73
(dp4136
sg82
g4130
sg75
(lp4137
g68
(g89
g70
NtRp4138
(dp4139
g73
(dp4140
sg82
g4134
sg75
(lp4141
g68
(g69
g70
NtRp4142
(dp4143
g73
(dp4144
g81
I1
ssg82
g4138
sg75
(lp4145
g3712
(S't\x06\x00\x00\x00Grupos'
tRp4146
asbasbasbag68
(g84
g70
NtRp4147
(dp4148
g73
(dp4149
sg82
g4130
sg75
(lp4150
g68
(g89
g70
NtRp4151
(dp4152
g73
(dp4153
sg82
g4147
sg75
(lp4154
g68
(g69
g70
NtRp4155
(dp4156
g73
(dp4157
g81
I1
ssg82
g4151
sg75
(lp4158
I00
asbasbasbag68
(g84
g70
NtRp4159
(dp4160
g73
(dp4161
sg82
g4130
sg75
(lp4162
g68
(g89
g70
NtRp4163
(dp4164
g73
(dp4165
sg82
g4159
sg75
(lp4166
g68
(g69
g70
NtRp4167
(dp4168
g73
(dp4169
g81
I1
ssg82
g4163
sg75
(lp4170
S'/manager/groups'
p4171
asbasbasbasbasbasbasbag68
(g84
g70
NtRp4172
(dp4173
g73
(dp4174
sg82
g4060
sg75
(lp4175
g68
(g89
g70
NtRp4176
(dp4177
g73
(dp4178
sg82
g4172
sg75
(lp4179
g68
(g69
g70
NtRp4180
(dp4181
g73
(dp4182
g81
I2
ssg82
g4176
sg75
(lp4183
g68
(g77
g70
NtRp4184
(dp4185
g73
(dp4186
g81
I1
ssg82
Nsg75
(lp4187
g68
(g84
g70
NtRp4188
(dp4189
g73
(dp4190
sg82
g4184
sg75
(lp4191
g68
(g89
g70
NtRp4192
(dp4193
g73
(dp4194
sg82
g4188
sg75
(lp4195
g68
(g69
g70
NtRp4196
(dp4197
g73
(dp4198
g81
I1
ssg82
g4192
sg75
(lp4199
g3712
(S't\x07\x00\x00\x00Membros'
tRp4200
asbasbasbag68
(g84
g70
NtRp4201
(dp4202
g73
(dp4203
sg82
g4184
sg75
(lp4204
g68
(g89
g70
NtRp4205
(dp4206
g73
(dp4207
sg82
g4201
sg75
(lp4208
g68
(g69
g70
NtRp4209
(dp4210
g73
(dp4211
g81
I1
ssg82
g4205
sg75
(lp4212
I00
asbasbasbag68
(g84
g70
NtRp4213
(dp4214
g73
(dp4215
sg82
g4184
sg75
(lp4216
g68
(g89
g70
NtRp4217
(dp4218
g73
(dp4219
sg82
g4213
sg75
(lp4220
g68
(g69
g70
NtRp4221
(dp4222
g73
(dp4223
g81
I1
ssg82
g4217
sg75
(lp4224
S'/manager/membership'
p4225
asbasbasbasbasbasbasbasbasbasbasbasbasbasbasbag68
(g84
g70
NtRp4226
(dp4227
g73
(dp4228
sg82
g3986
sg75
(lp4229
g68
(g89
g70
NtRp4230
(dp4231
g73
(dp4232
sg82
g4226
sg75
(lp4233
g68
(g69
g70
NtRp4234
(dp4235
g73
(dp4236
g81
I4
ssg82
g4230
sg75
(lp4237
g68
(g77
g70
NtRp4238
(dp4239
g73
(dp4240
g81
I3
ssg82
Nsg75
(lp4241
g68
(g84
g70
NtRp4242
(dp4243
g73
(dp4244
sg82
g4238
sg75
(lp4245
g68
(g89
g70
NtRp4246
(dp4247
g73
(dp4248
sg82
g4242
sg75
(lp4249
g68
(g69
g70
NtRp4250
(dp4251
g73
(dp4252
g81
I3
ssg82
g4246
sg75
(lp4253
g68
(g3652
g70
NtRp4254
(dp4255
g73
(dp4256
g3641
g4021
ssg82
Nsg75
(lp4257
S'Login'
p4258
asbasbasbasbag68
(g84
g70
NtRp4259
(dp4260
g73
(dp4261
sg82
g4238
sg75
(lp4262
g68
(g89
g70
NtRp4263
(dp4264
g73
(dp4265
sg82
g4259
sg75
(lp4266
g68
(g69
g70
NtRp4267
(dp4268
g73
(dp4269
g81
I3
ssg82
g4263
sg75
(lp4270
g111
asbasbasbag68
(g84
g70
NtRp4271
(dp4272
g73
(dp4273
sg82
g4238
sg75
(lp4274
g68
(g89
g70
NtRp4275
(dp4276
g73
(dp4277
sg82
g4271
sg75
(lp4278
g68
(g69
g70
NtRp4279
(dp4280
g73
(dp4281
g81
I3
ssg82
g4275
sg75
(lp4282
S'#'
asbasbasbag68
(g84
g70
NtRp4283
(dp4284
g73
(dp4285
sg82
g4238
sg75
(lp4286
g68
(g89
g70
NtRp4287
(dp4288
g73
(dp4289
sg82
g4283
sg75
(lp4290
g68
(g69
g70
NtRp4291
(dp4292
g73
(dp4293
g81
I3
ssg82
g4287
sg75
(lp4294
g68
(g77
g70
NtRp4295
(dp4296
g73
(dp4297
g81
I2
ssg82
Nsg75
(lp4298
g68
(g84
g70
NtRp4299
(dp4300
g73
(dp4301
sg82
g4295
sg75
(lp4302
g68
(g89
g70
NtRp4303
(dp4304
g73
(dp4305
sg82
g4299
sg75
(lp4306
g68
(g69
g70
NtRp4307
(dp4308
g73
(dp4309
g81
I2
ssg82
g4303
sg75
(lp4310
g68
(g77
g70
NtRp4311
(dp4312
g73
(dp4313
g81
I1
ssg82
Nsg75
(lp4314
g68
(g84
g70
NtRp4315
(dp4316
g73
(dp4317
sg82
g4311
sg75
(lp4318
g68
(g89
g70
NtRp4319
(dp4320
g73
(dp4321
sg82
g4315
sg75
(lp4322
g68
(g69
g70
NtRp4323
(dp4324
g73
(dp4325
g81
I1
ssg82
g4319
sg75
(lp4326
g3712
(S't\x06\x00\x00\x00Logout'
tRp4327
asbasbasbag68
(g84
g70
NtRp4328
(dp4329
g73
(dp4330
sg82
g4311
sg75
(lp4331
g68
(g89
g70
NtRp4332
(dp4333
g73
(dp4334
sg82
g4328
sg75
(lp4335
g68
(g69
g70
NtRp4336
(dp4337
g73
(dp4338
g81
I1
ssg82
g4332
sg75
(lp4339
I00
asbasbasbag68
(g84
g70
NtRp4340
(dp4341
g73
(dp4342
sg82
g4311
sg75
(lp4343
g68
(g89
g70
NtRp4344
(dp4345
g73
(dp4346
sg82
g4340
sg75
(lp4347
g68
(g69
g70
NtRp4348
(dp4349
g73
(dp4350
g81
I1
ssg82
g4344
sg75
(lp4351
S'/initial/user/logout'
p4352
asbasbasbasbasbasbasbasbasbasbasbasbasbasbasbasbasbasbasbag68
(g84
g70
NtRp4353
(dp4354
g73
(dp4355
sg82
g3179
sg75
(lp4356
g68
(g89
g70
NtRp4357
(dp4358
g73
(dp4359
g93
g94
ssg82
g4353
sg75
(lp4360
S'meta'
p4361
asbag68
(g89
g70
NtRp4362
(dp4363
g73
(dp4364
g100
g101
ssg82
g4353
sg75
(lp4365
S':'
asbag68
(g89
g70
NtRp4366
(dp4367
g73
(dp4368
sg82
g4353
sg75
(lp4369
g68
(g69
g70
NtRp4370
(dp4371
g73
(dp4372
g81
I5
ssg82
g4366
sg75
(lp4373
g68
(g77
g70
NtRp4374
(dp4375
g73
(dp4376
g81
I4
ssg82
Nsg75
(lp4377
g68
(g84
g70
NtRp4378
(dp4379
g73
(dp4380
sg82
g4374
sg75
(lp4381
g68
(g89
g70
NtRp4382
(dp4383
g73
(dp4384
g93
g94
ssg82
g4378
sg75
(lp4385
S'author'
p4386
asbag68
(g89
g70
NtRp4387
(dp4388
g73
(dp4389
g100
g101
ssg82
g4378
sg75
(lp4390
S':'
asbag68
(g89
g70
NtRp4391
(dp4392
g73
(dp4393
sg82
g4378
sg75
(lp4394
g68
(g69
g70
NtRp4395
(dp4396
g73
(dp4397
g81
I4
ssg82
g4391
sg75
(lp4398
S'Your Name <you@example.com>'
p4399
asbasbasbag68
(g84
g70
NtRp4400
(dp4401
g73
(dp4402
sg82
g4374
sg75
(lp4403
g68
(g89
g70
NtRp4404
(dp4405
g73
(dp4406
g93
g94
ssg82
g4400
sg75
(lp4407
S'description'
p4408
asbag68
(g89
g70
NtRp4409
(dp4410
g73
(dp4411
g100
g101
ssg82
g4400
sg75
(lp4412
S':'
asbag68
(g89
g70
NtRp4413
(dp4414
g73
(dp4415
sg82
g4400
sg75
(lp4416
g68
(g69
g70
NtRp4417
(dp4418
g73
(dp4419
g81
I4
ssg82
g4413
sg75
(lp4420
S'a cool new app'
p4421
asbasbasbag68
(g84
g70
NtRp4422
(dp4423
g73
(dp4424
sg82
g4374
sg75
(lp4425
g68
(g89
g70
NtRp4426
(dp4427
g73
(dp4428
g93
g94
ssg82
g4422
sg75
(lp4429
S'generator'
p4430
asbag68
(g89
g70
NtRp4431
(dp4432
g73
(dp4433
g100
g101
ssg82
g4422
sg75
(lp4434
S':'
asbag68
(g89
g70
NtRp4435
(dp4436
g73
(dp4437
sg82
g4422
sg75
(lp4438
g68
(g69
g70
NtRp4439
(dp4440
g73
(dp4441
g81
I4
ssg82
g4435
sg75
(lp4442
S'Web2py Web Framework'
p4443
asbasbasbag68
(g84
g70
NtRp4444
(dp4445
g73
(dp4446
sg82
g4374
sg75
(lp4447
g68
(g89
g70
NtRp4448
(dp4449
g73
(dp4450
g93
g94
ssg82
g4444
sg75
(lp4451
S'keywords'
p4452
asbag68
(g89
g70
NtRp4453
(dp4454
g73
(dp4455
g100
g101
ssg82
g4444
sg75
(lp4456
S':'
asbag68
(g89
g70
NtRp4457
(dp4458
g73
(dp4459
sg82
g4444
sg75
(lp4460
g68
(g69
g70
NtRp4461
(dp4462
g73
(dp4463
g81
I4
ssg82
g4457
sg75
(lp4464
S'web2py, python, framework'
p4465
asbasbasbasbasbasbasbag68
(g84
g70
NtRp4466
(dp4467
g73
(dp4468
sg82
g3179
sg75
(lp4469
g68
(g89
g70
NtRp4470
(dp4471
g73
(dp4472
g93
g94
ssg82
g4466
sg75
(lp4473
S'models_to_run'
p4474
asbag68
(g89
g70
NtRp4475
(dp4476
g73
(dp4477
g100
g101
ssg82
g4466
sg75
(lp4478
S':'
asbag68
(g89
g70
NtRp4479
(dp4480
g73
(dp4481
sg82
g4466
sg75
(lp4482
g68
(g69
g70
NtRp4483
(dp4484
g73
(dp4485
g81
I5
ssg82
g4479
sg75
(lp4486
g68
(g77
g70
NtRp4487
(dp4488
g73
(dp4489
g81
I4
ssg82
Nsg75
(lp4490
g68
(g84
g70
NtRp4491
(dp4492
g73
(dp4493
sg82
g4487
sg75
(lp4494
g68
(g89
g70
NtRp4495
(dp4496
g73
(dp4497
sg82
g4491
sg75
(lp4498
g68
(g69
g70
NtRp4499
(dp4500
g73
(dp4501
g81
I4
ssg82
g4495
sg75
(lp4502
S'^\\w+\\.py$'
p4503
asbasbasbag68
(g84
g70
NtRp4504
(dp4505
g73
(dp4506
sg82
g4487
sg75
(lp4507
g68
(g89
g70
NtRp4508
(dp4509
g73
(dp4510
sg82
g4504
sg75
(lp4511
g68
(g69
g70
NtRp4512
(dp4513
g73
(dp4514
g81
I4
ssg82
g4508
sg75
(lp4515
S'^initial/\\w+\\.py$'
p4516
asbasbasbag68
(g84
g70
NtRp4517
(dp4518
g73
(dp4519
sg82
g4487
sg75
(lp4520
g68
(g89
g70
NtRp4521
(dp4522
g73
(dp4523
sg82
g4517
sg75
(lp4524
g68
(g69
g70
NtRp4525
(dp4526
g73
(dp4527
g81
I4
ssg82
g4521
sg75
(lp4528
S'^initial/show_cliente/\\w+\\.py$'
p4529
asbasbasbasbasbasbasbag68
(g84
g70
NtRp4530
(dp4531
g73
(dp4532
sg82
g3179
sg75
(lp4533
g68
(g89
g70
NtRp4534
(dp4535
g73
(dp4536
g93
g94
ssg82
g4530
sg75
(lp4537
S'postprocessing'
p4538
asbag68
(g89
g70
NtRp4539
(dp4540
g73
(dp4541
g100
g101
ssg82
g4530
sg75
(lp4542
S':'
asbag68
(g89
g70
NtRp4543
(dp4544
g73
(dp4545
sg82
g4530
sg75
(lp4546
g68
(g69
g70
NtRp4547
(dp4548
g73
(dp4549
g81
I5
ssg82
g4543
sg75
(lp4550
g68
(g77
g70
NtRp4551
(dp4552
g73
(dp4553
g81
I4
ssg82
Nsg75
(lp4554
sbasbasbasbag68
(g84
g70
NtRp4555
(dp4556
g73
(dp4557
sg82
g3179
sg75
(lp4558
g68
(g89
g70
NtRp4559
(dp4560
g73
(dp4561
g93
g94
ssg82
g4555
sg75
(lp4562
S'session_cookie_expires'
p4563
asbag68
(g89
g70
NtRp4564
(dp4565
g73
(dp4566
g100
g101
ssg82
g4555
sg75
(lp4567
S':'
asbag68
(g89
g70
NtRp4568
(dp4569
g73
(dp4570
sg82
g4555
sg75
(lp4571
g68
(g69
g70
NtRp4572
(dp4573
g73
(dp4574
g81
I5
ssg82
g4568
sg75
(lp4575
S'None'
p4576
asbasbasbag68
(g84
g70
NtRp4577
(dp4578
g73
(dp4579
sg82
g3179
sg75
(lp4580
g68
(g89
g70
NtRp4581
(dp4582
g73
(dp4583
g93
g94
ssg82
g4577
sg75
(lp4584
S'session_data_name'
p4585
asbag68
(g89
g70
NtRp4586
(dp4587
g73
(dp4588
g100
g101
ssg82
g4577
sg75
(lp4589
S':'
asbag68
(g89
g70
NtRp4590
(dp4591
g73
(dp4592
sg82
g4577
sg75
(lp4593
g68
(g69
g70
NtRp4594
(dp4595
g73
(dp4596
g81
I5
ssg82
g4590
sg75
(lp4597
S'session_data_projeto'
p4598
asbasbasbag68
(g84
g70
NtRp4599
(dp4600
g73
(dp4601
sg82
g3179
sg75
(lp4602
g68
(g89
g70
NtRp4603
(dp4604
g73
(dp4605
g93
g94
ssg82
g4599
sg75
(lp4606
S'session_file'
p4607
asbag68
(g89
g70
NtRp4608
(dp4609
g73
(dp4610
g100
g101
ssg82
g4599
sg75
(lp4611
S':'
asbag68
(g89
g70
NtRp4612
(dp4613
g73
(dp4614
sg82
g4599
sg75
(lp4615
g68
(g69
g70
NtRp4616
(dp4617
g73
(dp4618
g81
I5
ssg82
g4612
sg75
(lp4619
S"<open file '/var/www/conferencia/applications/projeto/sessions/127.0.0.1-0fe02c32-0739-4f06-a369-3bba6377da8b', mode 'rb+' at 0x7f7c50261e40>"
p4620
asbasbasbag68
(g84
g70
NtRp4621
(dp4622
g73
(dp4623
sg82
g3179
sg75
(lp4624
g68
(g89
g70
NtRp4625
(dp4626
g73
(dp4627
g93
g94
ssg82
g4621
sg75
(lp4628
S'session_filename'
p4629
asbag68
(g89
g70
NtRp4630
(dp4631
g73
(dp4632
g100
g101
ssg82
g4621
sg75
(lp4633
S':'
asbag68
(g89
g70
NtRp4634
(dp4635
g73
(dp4636
sg82
g4621
sg75
(lp4637
g68
(g69
g70
NtRp4638
(dp4639
g73
(dp4640
g81
I5
ssg82
g4634
sg75
(lp4641
S'/var/www/conferencia/applications/projeto/sessions/127.0.0.1-0fe02c32-0739-4f06-a369-3bba6377da8b'
p4642
asbasbasbag68
(g84
g70
NtRp4643
(dp4644
g73
(dp4645
sg82
g3179
sg75
(lp4646
g68
(g89
g70
NtRp4647
(dp4648
g73
(dp4649
g93
g94
ssg82
g4643
sg75
(lp4650
S'session_id'
p4651
asbag68
(g89
g70
NtRp4652
(dp4653
g73
(dp4654
g100
g101
ssg82
g4643
sg75
(lp4655
S':'
asbag68
(g89
g70
NtRp4656
(dp4657
g73
(dp4658
sg82
g4643
sg75
(lp4659
g68
(g69
g70
NtRp4660
(dp4661
g73
(dp4662
g81
I5
ssg82
g4656
sg75
(lp4663
g486
asbasbasbag68
(g84
g70
NtRp4664
(dp4665
g73
(dp4666
sg82
g3179
sg75
(lp4667
g68
(g89
g70
NtRp4668
(dp4669
g73
(dp4670
g93
g94
ssg82
g4664
sg75
(lp4671
S'session_id_name'
p4672
asbag68
(g89
g70
NtRp4673
(dp4674
g73
(dp4675
g100
g101
ssg82
g4664
sg75
(lp4676
S':'
asbag68
(g89
g70
NtRp4677
(dp4678
g73
(dp4679
sg82
g4664
sg75
(lp4680
g68
(g69
g70
NtRp4681
(dp4682
g73
(dp4683
g81
I5
ssg82
g4677
sg75
(lp4684
g3236
asbasbasbag68
(g84
g70
NtRp4685
(dp4686
g73
(dp4687
sg82
g3179
sg75
(lp4688
g68
(g89
g70
NtRp4689
(dp4690
g73
(dp4691
g93
g94
ssg82
g4685
sg75
(lp4692
S'session_locked'
p4693
asbag68
(g89
g70
NtRp4694
(dp4695
g73
(dp4696
g100
g101
ssg82
g4685
sg75
(lp4697
S':'
asbag68
(g89
g70
NtRp4698
(dp4699
g73
(dp4700
sg82
g4685
sg75
(lp4701
g68
(g69
g70
NtRp4702
(dp4703
g73
(dp4704
g81
I5
ssg82
g4698
sg75
(lp4705
g1647
asbasbasbag68
(g84
g70
NtRp4706
(dp4707
g73
(dp4708
sg82
g3179
sg75
(lp4709
g68
(g89
g70
NtRp4710
(dp4711
g73
(dp4712
g93
g94
ssg82
g4706
sg75
(lp4713
S'session_new'
p4714
asbag68
(g89
g70
NtRp4715
(dp4716
g73
(dp4717
g100
g101
ssg82
g4706
sg75
(lp4718
S':'
asbag68
(g89
g70
NtRp4719
(dp4720
g73
(dp4721
sg82
g4706
sg75
(lp4722
g68
(g69
g70
NtRp4723
(dp4724
g73
(dp4725
g81
I5
ssg82
g4719
sg75
(lp4726
g111
asbasbasbag68
(g84
g70
NtRp4727
(dp4728
g73
(dp4729
sg82
g3179
sg75
(lp4730
g68
(g89
g70
NtRp4731
(dp4732
g73
(dp4733
g93
g94
ssg82
g4727
sg75
(lp4734
S'session_storage_type'
p4735
asbag68
(g89
g70
NtRp4736
(dp4737
g73
(dp4738
g100
g101
ssg82
g4727
sg75
(lp4739
S':'
asbag68
(g89
g70
NtRp4740
(dp4741
g73
(dp4742
sg82
g4727
sg75
(lp4743
g68
(g69
g70
NtRp4744
(dp4745
g73
(dp4746
g81
I5
ssg82
g4740
sg75
(lp4747
g3086
asbasbasbag68
(g84
g70
NtRp4748
(dp4749
g73
(dp4750
sg82
g3179
sg75
(lp4751
g68
(g89
g70
NtRp4752
(dp4753
g73
(dp4754
g93
g94
ssg82
g4748
sg75
(lp4755
S'status'
p4756
asbag68
(g89
g70
NtRp4757
(dp4758
g73
(dp4759
g100
g101
ssg82
g4748
sg75
(lp4760
S':'
asbag68
(g89
g70
NtRp4761
(dp4762
g73
(dp4763
sg82
g4748
sg75
(lp4764
g68
(g69
g70
NtRp4765
(dp4766
g73
(dp4767
g81
I5
ssg82
g4761
sg75
(lp4768
S'200'
p4769
asbasbasbag68
(g84
g70
NtRp4770
(dp4771
g73
(dp4772
sg82
g3179
sg75
(lp4773
g68
(g89
g70
NtRp4774
(dp4775
g73
(dp4776
g93
g94
ssg82
g4770
sg75
(lp4777
S'subtitle'
p4778
asbag68
(g89
g70
NtRp4779
(dp4780
g73
(dp4781
g100
g101
ssg82
g4770
sg75
(lp4782
S':'
asbag68
(g89
g70
NtRp4783
(dp4784
g73
(dp4785
sg82
g4770
sg75
(lp4786
g68
(g69
g70
NtRp4787
(dp4788
g73
(dp4789
g81
I5
ssg82
g4783
sg75
(lp4790
g3712
(S's\r\x00\x00\x00customize me!'
tRp4791
asbasbasbag68
(g84
g70
NtRp4792
(dp4793
g73
(dp4794
sg82
g3179
sg75
(lp4795
g68
(g89
g70
NtRp4796
(dp4797
g73
(dp4798
g93
g94
ssg82
g4792
sg75
(lp4799
S'title'
p4800
asbag68
(g89
g70
NtRp4801
(dp4802
g73
(dp4803
g100
g101
ssg82
g4792
sg75
(lp4804
S':'
asbag68
(g89
g70
NtRp4805
(dp4806
g73
(dp4807
sg82
g4792
sg75
(lp4808
g68
(g69
g70
NtRp4809
(dp4810
g73
(dp4811
g81
I5
ssg82
g4805
sg75
(lp4812
S'Projeto'
p4813
asbasbasbag68
(g84
g70
NtRp4814
(dp4815
g73
(dp4816
sg82
g3179
sg75
(lp4817
g68
(g89
g70
NtRp4818
(dp4819
g73
(dp4820
g93
g94
ssg82
g4814
sg75
(lp4821
S'view'
p4822
asbag68
(g89
g70
NtRp4823
(dp4824
g73
(dp4825
g100
g101
ssg82
g4814
sg75
(lp4826
S':'
asbag68
(g89
g70
NtRp4827
(dp4828
g73
(dp4829
sg82
g4814
sg75
(lp4830
g68
(g69
g70
NtRp4831
(dp4832
g73
(dp4833
g81
I5
ssg82
g4827
sg75
(lp4834
S'initial/show_cliente.html'
p4835
asbasbasbasbasbsS'locals'
p4836
(dp4837
g4
S"'/var/www/conferencia/applications/projeto/models/models.py'"
p4838
sg6
S'\'usuario = db.define_table("usuario",\\n      Field...suario\\\'),\\n      primarykey=[\\\'confno\\\']\\n      )\\n\\n\\n\\n\''
p4839
sssS'traceback'
p4840
S'Traceback (most recent call last):\n  File "/var/www/conferencia/gluon/restricted.py", line 211, in restricted\n    ccode = compile2(code, layer)\n  File "/var/www/conferencia/gluon/restricted.py", line 194, in compile2\n    return compile(code.rstrip().replace(\'\\r\\n\', \'\\n\') + \'\\n\', layer, \'exec\')\n  File "/var/www/conferencia/applications/projeto/models/models.py", line 11\n    Field("starttime", "datetime"),\n   ^\nIndentationError: unexpected indent\n'
p4841
s.