(dp1
S'output'
p2
S"<type 'exceptions.SyntaxError'> user is tampering with form's record_id: {'confno': None} != 1014"
p3
sS'layer'
p4
S'/var/www/conferencia/applications/projeto/controllers/initial.py'
p5
sS'code'
p6
S'# coding: utf-8\n\ndef show_cliente():\n\tresponse.title="Eventos"\n\tprint request.now\n\n\tgrid = SQLFORM.grid(db.meetme, orderby=db.meetme.endtime,\n\t\tuser_signature=False, searchable=True, csv=False, \n\t\tpaginate=50, details=False,  \n\t\tignore_rw = True, maxtextlength=36, \n    \t)\n\treturn response.render("initial/show_grid.html", grid=grid)\n\ndef show_servidor():\n\tresponse.title="Eventos"\n\tdata = request.now\n\n\tquery=(db.meetme.endtime > \'2013-04-03 09:38:17.902532\') \n\tquery2=(\'SELECT * from meetme order by id desc LIMIT 4;\')\n\tprint query\n\n\tgrid = SQLFORM.grid(query=query, orderby=db.meetme.endtime,\n\t\tuser_signature=False, searchable=True, csv=False, \n\t\tpaginate=50, details=False,  \n\t\tignore_rw = True, maxtextlength=36, \n    \t)\n\treturn response.render("initial/show_grid.html", grid=grid)\n\n\n@auth.requires_login()\ndef show_distro():\n\tresponse.title="Distribui\xc3\xa7\xc3\xb5es"\n\n\tdb.args=Distro.id.readable=False\n\tdb.args=Distro.img.readable=False\n\tgrid = SQLFORM.grid(Distro,\n\t\tuser_signature=True, searchable=True, csv=False,\n\t\tpaginate=50, details=False, ignore_rw = True, \n\t\tmaxtextlength=26, links_placement=\'left\',\n\t\tcreate=auth.has_membership("admin"),\n\t\teditable=auth.has_membership("admin"),\n\t\tdeletable=auth.has_membership("admin"),  \n    \tlinks = [lambda row: A(\'hosts\', \n    \t\t_class=\'btn\', \n    \t\t_title=\'ver servidores\', \n    \t\t_href=URL("initial", "/distro_host", \n    \t\tvars=dict(f=row.id, n1=\'Distros\', p1=\'show_distro\'))), \n    \tdict(header=\'\',body=lambda row: A( IMG(_src=URL("static", "images", args=(row.img) ))))]\n\t\t)\n\treturn response.render("initial/show_grid.html", grid=grid)\n\n\n@auth.requires_login()\ndef cliente_host():\n\tfiltro = request.vars[\'f\']\n\tqueryset = db(db.cliente.id == filtro)\n\trows = queryset.select()\n\tcliente = rows[0]\n\tresponse.title = cliente.nome\n\tprint cliente\n\n\tnome_ant1 = request.vars[\'n1\']\n\tfuncao_ant1 = request.vars[\'p1\']\n\tnome_atual = cliente.nome\n\n\tquery = ((db.hosts.id_cliente == filtro) & (db.distro.id == db.hosts.id_distro))\n\tlinks = [dict(header=\'\',body=lambda row: A( IMG(_src=URL("static", "images", args=(row.distro.img)) ))), \n\t lambda row: A(\'Detalhes\', \n    \t\t      _class=\'btn\', \n    \t\t      _title=\'Detalhes\', \n    \t\t      _href=URL("initial", "/detalhes_nav", \n    \t\t      vars=dict(f=row.hosts.id, c=filtro, n=cliente.nome, \n    \t\t      \t\t\tn1=\'Clientes\', p1=\'show_cliente\', p=\'cliente_host\'))),\n\t lambda row: A(\'Editar\', \n    \t\t      _class=\'btn\', \n    \t\t      _title=\'Editar\', \n    \t\t      _href=URL("initial", "/edit_host", \n    \t\t      vars=dict(f=row.hosts.id, c=filtro, n=cliente.nome, \n    \t\t      \t\tn1=\'Clientes\', p1=\'show_cliente\', p=\'cliente_host\')))]\n\tdb.hosts.id.readable=False\n\tdb.distro.img.readable=False\n\t\n\tfields = (db.hosts.id, db.hosts.id_servidor, db.hosts.id_distro, db.distro.img, \n\t\t\t  db.hosts.ip_chegada, db.hosts.porta_ssh, db.hosts.gateway)\n\theaders = {\'hosts.id\':   \'ID\',\n\t\t\t   \'hosts.id_cliente\': \'Cliente\',\n               \'hosts.id_servidor\': \'Servidor\',\n               \'hosts.id_distro\': \'Distro\',\n               \'hosts.nome\': \'Nome\',\n\t           \'hosts.servicos\': \'Servicos\'}\n\tgrid = SQLFORM.grid(query=query, fields=fields, headers=headers, csv=False,\n\t\t\t\t\t\tdetails=False, searchable=False, maxtextlength=23, links=links, \n\t\t\t\t\t\tlinks_placement=\'left\', editable=False, create=False)\n\n\treturn response.render("initial/show_grid2.html", grid=grid, nome_ant1=nome_ant1, \n\t\t\t\t\t\tfuncao_ant1=funcao_ant1, nome_atual=nome_atual)\n\n@auth.requires_login()\ndef servidor_host():\n\tfiltro = request.vars[\'f\']\n\tqueryset = db(db.servidor.id == filtro)\n\trows = queryset.select()\n\tservidor = rows[0]\n\tresponse.title = servidor.nome\n\n\tnome_ant1 = request.vars[\'n1\']\n\tfuncao_ant1 = request.vars[\'p1\']\n\tnome_atual = servidor.nome\t\n\n\tdb.distro.img.readable=False\n\tdb.hosts.id.readable=False\n\tquery = ((db.hosts.id_servidor == filtro) & (db.distro.id == db.hosts.id_distro))\n\n\tlinks = [dict(header=\'\',body=lambda row: A( IMG(_src=URL("static", "images", args=(row.distro.img)) ))), \n\t lambda row: A(\'Detalhes\', \n    \t\t      _class=\'btn\', \n    \t\t      _title=\'Detalhes\', \n    \t\t      _href=URL("initial", "/detalhes_nav", \n    \t\t      vars=dict(f=row.hosts.id, c=filtro, n=servidor.nome, \n    \t\t      \t\tn1=\'Servidores\', p1=\'show_servidor\', p=\'servidor_host\'))),\n\t lambda row: A(\'Editar\', \n    \t\t      _class=\'btn\', \n    \t\t      _title=\'Editar\', \n    \t\t      _href=URL("initial", "/edit_host", \n    \t\t      vars=dict(f=row.hosts.id, c=filtro, n=servidor.nome, \n    \t\t      \t\tn1=\'Servidores\', p1=\'show_servidor\', p=\'servidor_host\')))]\n\n\tfields = (db.hosts.id, db.hosts.id_cliente, db.hosts.id_distro, db.distro.img, \n\t\t\t\tdb.hosts.ip_chegada, db.hosts.porta_ssh, db.hosts.gateway)\n\theaders = {\'hosts.id\':   \'ID\',\n\t\t\t   \'hosts.id_cliente\': \'Cliente\',\n               \'hosts.id_servidor\': \'Servidor\',\n               \'hosts.id_distro\': \'Distro\',\n               \'hosts.nome\': \'Nome\',\n\t           \'hosts.servicos\': \'Servicos\'}\n\tgrid = SQLFORM.grid(query=query, fields=fields, headers=headers, csv=False,\n\t\t\t\t\t\tdetails=False, searchable=False, maxtextlength=23, links=links, \n\t\t\t\t\t\tlinks_placement=\'left\', editable=False, create=False)\n\n\treturn response.render("initial/show_grid2.html", grid=grid, nome_ant1=nome_ant1, \n\t\t\t\t\t\tfuncao_ant1=funcao_ant1, nome_atual=nome_atual)\n\n@auth.requires_login()\ndef distro_host():\n\tfiltro = request.vars[\'f\']\n\tqueryset = db(db.distro.id == filtro)\n\trows = queryset.select()\n\tdistro = rows[0]\n\tresponse.title = distro.nome\n\n\tnome_ant1 = request.vars[\'n1\']\n\tfuncao_ant1 = request.vars[\'p1\']\n\tnome_atual = distro.nome\t\n\t\n\tdb.hosts.id.readable=False\n\tdb.distro.img.readable=False\n\tquery = ((db.hosts.id_distro == filtro) & (db.distro.id == db.hosts.id_distro))\n\tlinks = [dict(header=\'\',body=lambda row: A( IMG(_src=URL("static", "images", args=(row.distro.img)) ))), \n\t lambda row: A(\'Detalhes\', \n    \t\t      _class=\'btn\', \n    \t\t      _title=\'Detalhes\', \n    \t\t      _href=URL("initial", "/detalhes_nav", \n    \t\t      vars=dict(f=row.hosts.id, c=filtro, n=distro.nome, \n    \t\t      \t\tn1=\'Distros\', p1=\'show_distro\', p=\'distro_host\'))),\n\t lambda row: A(\'Editar\', \n    \t\t      _class=\'btn\', \n    \t\t      _title=\'Editar\', \n    \t\t      _href=URL("initial", "/edit_host", \n    \t\t      vars=dict(f=row.hosts.id, c=filtro, n=distro.nome, \n    \t\t      \t\tn1=\'Distros\', p1=\'show_distro\', p=\'distro_host\')))]\n\n\tfields = (db.hosts.id, db.hosts.id_cliente, db.hosts.id_servidor, db.distro.img, \n\t\t\t  db.hosts.ip_chegada, db.hosts.porta_ssh, db.hosts.gateway)\n\theaders = {\'hosts.id\':   \'ID\',\n\t\t\t\t\'hosts.id_cliente\': \'Cliente\',\n               \'hosts.id_servidor\': \'Servidor\',\n               \'hosts.id_distro\': \'Distro\',\n               \'hosts.nome\': \'Nome\',\n\t           \'hosts.servicos\': \'Servicos\'}\n\tgrid = SQLFORM.grid(query=query, fields=fields, headers=headers, csv=False,\n\t\t\t\t\t\tdetails=False, searchable=False, maxtextlength=23, links=links, \n\t\t\t\t\t\tlinks_placement=\'left\', editable=False, create=False)\n\n\treturn response.render("initial/show_grid2.html", grid=grid, nome_ant1=nome_ant1, \n\t\t\t\t\t\tfuncao_ant1=funcao_ant1, nome_atual=nome_atual)\n\ndef detalhes_nav():\n\t#detalhes\n\tfiltro = request.vars[\'f\'] #id_host\n\tid_cliente = request.vars[\'c\'] #id_cliente\n\tnome_ant = request.vars[\'n\'] #nome (asterisk ou agronelli ou debian)\n\tnome_ant1 = request.vars[\'n1\'] #nome (servidores ou clientes ou distros)\n\tfuncao_ant = request.vars[\'p\'] #funcao(host_servidores)\n\tfuncao_ant1 = request.vars[\'p1\'] #funcao(show_servidores)\n\t\n\n\tquery = ((db.hosts.id == filtro) & (db.hosts.id_cliente == db.cliente.id)\n\t \t    & (db.hosts.id_servidor == db.servidor.id) \n\t \t    & (db.hosts.id_distro == db.distro.id)) \n\tdetalhes = db.hosts(query)\n\t\n\t\n\treturn response.render("initial/detalhes_host.html", detalhes=detalhes, \n\t\t\t\tid_cliente=id_cliente, funcao_ant=funcao_ant, funcao_ant1=funcao_ant1, \n\t\t\t\tnome_ant=nome_ant, nome_ant1=nome_ant1, filtro=filtro)\n\n\ndef edit_host():\n    form = SQLFORM(db.hosts, request.vars[\'f\'], submit_button=\'Editar\', fields = [\'id_cliente\', \'id_servidor\', \'id_distro\', \'servicos\',\n\t\t\t\t\'if1\', \'ip1\', \'masc1\', \'obs1\', \'if2\', \'ip2\', \'masc2\', \'obs2\',\n\t\t\t\t\'if3\', \'ip3\', \'masc3\', \'obs3\', \'if4\', \'ip4\', \'masc4\', \'obs4\',\n\t\t\t\t\'nome\', \'ip_chegada\', \'porta_ssh\', \'gateway\', \'rotas\', \'obs_gerais\'],\n\t\t\t\tlabels = {\'id_cliente\':\'Cliente\', \'id_servidor\':\'Servidor\', \'id_distro\':\'Distro\',\n\t\t\t\t\'if1\':\'Interface 1\', \'ip1\':\'IP\', \'masc1\':\'M\xc3\xa1scara\', \'obs1\':\'Obs\',\n\t\t\t\t\'if2\':\'Interface 2\', \'ip2\':\'IP\', \'masc2\':\'M\xc3\xa1scara\', \'obs2\':\'Obs\',\n\t\t\t\t\'if3\':\'Interface 3\', \'ip3\':\'IP\', \'masc3\':\'M\xc3\xa1scara\', \'obs3\':\'Obs\',\n\t\t\t\t\'if4\':\'Interface 4\', \'ip4\':\'IP\', \'masc4\':\'M\xc3\xa1scara\', \'obs4\':\'Obs\'})\n\n    if form.process().accepted:\n       response.flash = \'Editado com sucesso\'\n    elif form.errors:\n       response.flash = \'Ops, algo n\xc3\xa3o est\xc3\xa1 correto\'\n    else:\n       response.flash = \'Edite os dados do host\'\n\n    return response.render("initial/show_form.html", form=form, id_cliente = request.vars[\'c\'], \n    \t\t\t\tnome_ant = request.vars[\'n\'], nome_ant1 = request.vars[\'n1\'], \n    \t\t\t\tfuncao_ant = request.vars[\'p\'], funcao_ant1 = request.vars[\'p1\'])\n\n\n@auth.requires_login()\ndef interface():\n\t#adicionar\n    form = SQLFORM(db.hosts, submit_button=\'Adicionar\', \n    \t\t\tfields = [\'id_cliente\', \'id_servidor\', \'id_distro\', \'servicos\',\n\t\t\t\t\'if1\', \'ip1\', \'masc1\', \'obs1\', \'if2\', \'ip2\', \'masc2\', \'obs2\',\n\t\t\t\t\'if3\', \'ip3\', \'masc3\', \'obs3\', \'if4\', \'ip4\', \'masc4\', \'obs4\',\n\t\t\t\t\'nome\', \'ip_chegada\', \'porta_ssh\', \'gateway\', \'rotas\', \'obs_gerais\'], \n\t\t\t\tlabels = {\'id_cliente\':\'Cliente\', \'id_servidor\':\'Servidor\', \'id_distro\':\'Distro\',\n\t\t\t\t\'if1\':\'Interface 1\', \'ip1\':\'IP\', \'masc1\':\'M\xc3\xa1scara\', \'obs1\':\'Obs\',\n\t\t\t\t\'if2\':\'Interface 2\', \'ip2\':\'IP\', \'masc2\':\'M\xc3\xa1scara\', \'obs2\':\'Obs\',\n\t\t\t\t\'if3\':\'Interface 3\', \'ip3\':\'IP\', \'masc3\':\'M\xc3\xa1scara\', \'obs3\':\'Obs\',\n\t\t\t\t\'if4\':\'Interface 4\', \'ip4\':\'IP\', \'masc4\':\'M\xc3\xa1scara\', \'obs4\':\'Obs\'})\n   \n    if form.process().accepted:\n    \thost = request.vars\n    \temail(host)\n    \tresponse.flash = \'Inserido com sucesso\'\t\t\n    elif form.errors:\n       response.flash = \'Ops, algo n\xc3\xa3o est\xc3\xa1 correto\'\n    else:\n       response.flash = \'Insira os dados do novo host\'\n    return response.render("initial/show_form2.html", form=form)\n\ndef about():\n\tfiltro = request.vars[\'f\']\n\tquery = ((db.hosts.id_servidor == filtro) & (db.distro.id == db.hosts.id_distro))\n\tfields = (db.hosts.id, db.hosts.id_cliente, db.hosts.id_distro, db.distro.img, \n\t\t\t\tdb.hosts.ip_chegada, db.hosts.porta_ssh, db.hosts.gateway)\n\theaders = {\'host.id\':   \'ID\',\n               \'host.id_servidor\': \'Servidor\',\n               \'host.id_distro\': \'Distro\',\n               \'host.nome\': \'Nome\',\n\t           \'host.servicos\': \'Servicos\'}\n\tgrid = SQLFORM.grid(query=query, fields=fields, headers=headers, csv=False,\n\t\t\t\t\t\tdetails=False, maxtextlength=23, searchable=True, editable=False, create=False)\n\n\treturn response.render("initial/teste.html", grid=grid,)\n\ndef user():\n\t#if request.args(0) == \'register\':\n    #    \tdb.auth_user.bio.writable = db.auth_user.bio.readable = False\n\treturn response.render("initial/user.html", user=auth())\n\ndef register():\n\treturn auth.register()\n\ndef login():\n        return auth.login()\n\ndef account():\n    return dict(register=auth.register(),\n                login=auth.login())\n\t\ndef download():\n\treturn response.download(request, db)\n\n\ndef principal():\n\tresponse.title="Usu\xc3\xa1rios"\n\n\tgrid = SQLFORM.grid(db.usuario,\n\t\tuser_signature=False, searchable=True, csv=False, \n\t\tpaginate=50, details=False,  \n\t\tignore_rw = True, maxtextlength=36, \n    \t)\n\treturn response.render("initial/show_grid.html", grid=grid)\n\n\t\ndef detalhes_clean():\n\tfiltro = request.vars[\'f\'] #id_host\n\t\t\n\n\tquery = ((db.hosts.id == filtro) & (db.hosts.id_cliente == db.cliente.id)\n\t \t    & (db.hosts.id_servidor == db.servidor.id) \n\t \t    & (db.hosts.id_distro == db.distro.id)) \n\tdetalhes = db.hosts(query)\n\n\t\n\treturn response.render("initial/detalhes_host_clean.html", detalhes=detalhes)\n\ndef email(host):\n\tif auth.has_membership(\'voip\'):\n\t\tmail.send(\n\t\t\tto="fndiaz02@gmail.com",\n\t\t\tsubject="host adicionado",\n\t\t\tmessage="<html>Um novo host foi adicionado pelo usu\xc3\xa1rio %s <br>nome: %s <br>vpn: %s<br><br>\xc3\x89 preciso fazer a instala\xc3\xa7\xc3\xa3o do client zabbix e bacula</html>" % (auth.user.first_name, host.nome, host.ip_chegada,)\n\t\t\t)\n\telif auth.has_membership(\'internet\'):\n\t\tmail.send(\n\t\t\tto="fernando@ad2.com.br",\n\t\t\tsubject="host adicionado",\n\t\t\tmessage="<html>Um novo host foi adicionado pelo usu\xc3\xa1rio %s <br>nome: %s <br>vpn: %s<br><br>\xc3\x89 preciso fazer a instala\xc3\xa7\xc3\xa3o do client zabbix e bacula</html>" % (auth.user.first_name, host.nome, host.ip_chegada,)\n\t\t\t)\n\nresponse._vars=response._caller(show_servidor)\n'
p7
sS'snapshot'
p8
(dp9
S'exception'
p10
(dp11
S'__getslice__'
p12
S"<method-wrapper '__getslice__' of exceptions.SyntaxError object>"
p13
sS'text'
p14
S'None'
p15
sS'__str__'
p16
S"<method-wrapper '__str__' of exceptions.SyntaxError object>"
p17
sS'__reduce__'
p18
S'<built-in method __reduce__ of exceptions.SyntaxError object>'
p19
sS'__dict__'
p20
S'{}'
p21
sS'__sizeof__'
p22
S'<built-in method __sizeof__ of exceptions.SyntaxError object>'
p23
sS'__init__'
p24
S"<method-wrapper '__init__' of exceptions.SyntaxError object>"
p25
sS'__setattr__'
p26
S"<method-wrapper '__setattr__' of exceptions.SyntaxError object>"
p27
sS'__reduce_ex__'
p28
S'<built-in method __reduce_ex__ of exceptions.SyntaxError object>'
p29
sS'__new__'
p30
S'<built-in method __new__ of type object>'
p31
sS'__format__'
p32
S'<built-in method __format__ of exceptions.SyntaxError object>'
p33
sS'__class__'
p34
S"<type 'exceptions.SyntaxError'>"
p35
sS'filename'
p36
S'None'
p37
sS'lineno'
p38
S'None'
p39
sS'msg'
p40
S'"user is tampering with form\'s record_id: {\'confno\': None} != 1014"'
p41
sS'__doc__'
p42
S"'Invalid syntax.'"
p43
sS'__getitem__'
p44
S"<method-wrapper '__getitem__' of exceptions.SyntaxError object>"
p45
sS'__setstate__'
p46
S'<built-in method __setstate__ of exceptions.SyntaxError object>'
p47
sS'__getattribute__'
p48
S"<method-wrapper '__getattribute__' of exceptions.SyntaxError object>"
p49
sS'print_file_and_line'
p50
S'None'
p51
sS'args'
p52
S'("user is tampering with form\'s record_id: {\'confno\': None} != 1014",)'
p53
sS'__subclasshook__'
p54
S'<built-in method __subclasshook__ of type object>'
p55
sS'offset'
p56
S'None'
p57
sS'__unicode__'
p58
S'<built-in method __unicode__ of exceptions.SyntaxError object>'
p59
sS'__delattr__'
p60
S"<method-wrapper '__delattr__' of exceptions.SyntaxError object>"
p61
sS'__repr__'
p62
S"<method-wrapper '__repr__' of exceptions.SyntaxError object>"
p63
sS'__hash__'
p64
S"<method-wrapper '__hash__' of exceptions.SyntaxError object>"
p65
ssS'evalue'
p66
S"user is tampering with form's record_id: {'confno': None} != 1014"
p67
sS'request'
p68
ccopy_reg
_reconstructor
p69
(cgluon.html
BEAUTIFY
p70
c__builtin__
object
p71
NtRp72
(dp73
S'attributes'
p74
(dp75
sS'components'
p76
(lp77
g69
(cgluon.html
TABLE
p78
g71
NtRp79
(dp80
g74
(dp81
S'level'
p82
I5
ssS'parent'
p83
Nsg76
(lp84
g69
(cgluon.html
TR
p85
g71
NtRp86
(dp87
g74
(dp88
sg83
g79
sg76
(lp89
g69
(cgluon.html
TD
p90
g71
NtRp91
(dp92
g74
(dp93
S'_style'
p94
S'font-weight:bold;vertical-align:top'
p95
ssg83
g86
sg76
(lp96
S'ajax'
p97
asbag69
(g90
g71
NtRp98
(dp99
g74
(dp100
S'_valign'
p101
S'top'
p102
ssg83
g86
sg76
(lp103
S':'
asbag69
(g90
g71
NtRp104
(dp105
g74
(dp106
sg83
g86
sg76
(lp107
g69
(g70
g71
NtRp108
(dp109
g74
(dp110
g82
I5
ssg83
g104
sg76
(lp111
S'False'
p112
asbasbasbag69
(g85
g71
NtRp113
(dp114
g74
(dp115
sg83
g79
sg76
(lp116
g69
(g90
g71
NtRp117
(dp118
g74
(dp119
g94
g95
ssg83
g113
sg76
(lp120
S'application'
p121
asbag69
(g90
g71
NtRp122
(dp123
g74
(dp124
g101
g102
ssg83
g113
sg76
(lp125
S':'
asbag69
(g90
g71
NtRp126
(dp127
g74
(dp128
sg83
g113
sg76
(lp129
g69
(g70
g71
NtRp130
(dp131
g74
(dp132
g82
I5
ssg83
g126
sg76
(lp133
S'projeto'
p134
asbasbasbag69
(g85
g71
NtRp135
(dp136
g74
(dp137
sg83
g79
sg76
(lp138
g69
(g90
g71
NtRp139
(dp140
g74
(dp141
g94
g95
ssg83
g135
sg76
(lp142
g52
asbag69
(g90
g71
NtRp143
(dp144
g74
(dp145
g101
g102
ssg83
g135
sg76
(lp146
S':'
asbag69
(g90
g71
NtRp147
(dp148
g74
(dp149
sg83
g135
sg76
(lp150
g69
(g70
g71
NtRp151
(dp152
g74
(dp153
g82
I5
ssg83
g147
sg76
(lp154
g69
(g78
g71
NtRp155
(dp156
g74
(dp157
g82
I4
ssg83
Nsg76
(lp158
g69
(g85
g71
NtRp159
(dp160
g74
(dp161
sg83
g155
sg76
(lp162
g69
(g90
g71
NtRp163
(dp164
g74
(dp165
sg83
g159
sg76
(lp166
g69
(g70
g71
NtRp167
(dp168
g74
(dp169
g82
I4
ssg83
g163
sg76
(lp170
S'edit'
p171
asbasbasbag69
(g85
g71
NtRp172
(dp173
g74
(dp174
sg83
g155
sg76
(lp175
g69
(g90
g71
NtRp176
(dp177
g74
(dp178
sg83
g172
sg76
(lp179
g69
(g70
g71
NtRp180
(dp181
g74
(dp182
g82
I4
ssg83
g176
sg76
(lp183
S'meetme'
p184
asbasbasbag69
(g85
g71
NtRp185
(dp186
g74
(dp187
sg83
g155
sg76
(lp188
g69
(g90
g71
NtRp189
(dp190
g74
(dp191
sg83
g185
sg76
(lp192
g69
(g70
g71
NtRp193
(dp194
g74
(dp195
g82
I4
ssg83
g189
sg76
(lp196
S'1014'
p197
asbasbasbasbasbasbasbag69
(g85
g71
NtRp198
(dp199
g74
(dp200
sg83
g79
sg76
(lp201
g69
(g90
g71
NtRp202
(dp203
g74
(dp204
g94
g95
ssg83
g198
sg76
(lp205
S'body'
p206
asbag69
(g90
g71
NtRp207
(dp208
g74
(dp209
g101
g102
ssg83
g198
sg76
(lp210
S':'
asbag69
(g90
g71
NtRp211
(dp212
g74
(dp213
sg83
g198
sg76
(lp214
g69
(g70
g71
NtRp215
(dp216
g74
(dp217
g82
I5
ssg83
g211
sg76
(lp218
S"<open file '<fdopen>', mode 'w+b' at 0x7f63407aa420>"
p219
asbasbasbag69
(g85
g71
NtRp220
(dp221
g74
(dp222
sg83
g79
sg76
(lp223
g69
(g90
g71
NtRp224
(dp225
g74
(dp226
g94
g95
ssg83
g220
sg76
(lp227
S'cid'
p228
asbag69
(g90
g71
NtRp229
(dp230
g74
(dp231
g101
g102
ssg83
g220
sg76
(lp232
S':'
asbag69
(g90
g71
NtRp233
(dp234
g74
(dp235
sg83
g220
sg76
(lp236
g69
(g70
g71
NtRp237
(dp238
g74
(dp239
g82
I5
ssg83
g233
sg76
(lp240
S'None'
p241
asbasbasbag69
(g85
g71
NtRp242
(dp243
g74
(dp244
sg83
g79
sg76
(lp245
g69
(g90
g71
NtRp246
(dp247
g74
(dp248
g94
g95
ssg83
g242
sg76
(lp249
S'client'
p250
asbag69
(g90
g71
NtRp251
(dp252
g74
(dp253
g101
g102
ssg83
g242
sg76
(lp254
S':'
asbag69
(g90
g71
NtRp255
(dp256
g74
(dp257
sg83
g242
sg76
(lp258
g69
(g70
g71
NtRp259
(dp260
g74
(dp261
g82
I5
ssg83
g255
sg76
(lp262
S'127.0.0.1'
p263
asbasbasbag69
(g85
g71
NtRp264
(dp265
g74
(dp266
sg83
g79
sg76
(lp267
g69
(g90
g71
NtRp268
(dp269
g74
(dp270
g94
g95
ssg83
g264
sg76
(lp271
S'controller'
p272
asbag69
(g90
g71
NtRp273
(dp274
g74
(dp275
g101
g102
ssg83
g264
sg76
(lp276
S':'
asbag69
(g90
g71
NtRp277
(dp278
g74
(dp279
sg83
g264
sg76
(lp280
g69
(g70
g71
NtRp281
(dp282
g74
(dp283
g82
I5
ssg83
g277
sg76
(lp284
S'initial'
p285
asbasbasbag69
(g85
g71
NtRp286
(dp287
g74
(dp288
sg83
g79
sg76
(lp289
g69
(g90
g71
NtRp290
(dp291
g74
(dp292
g94
g95
ssg83
g286
sg76
(lp293
S'cookies'
p294
asbag69
(g90
g71
NtRp295
(dp296
g74
(dp297
g101
g102
ssg83
g286
sg76
(lp298
S':'
asbag69
(g90
g71
NtRp299
(dp300
g74
(dp301
sg83
g286
sg76
(lp302
g69
(g70
g71
NtRp303
(dp304
g74
(dp305
g82
I5
ssg83
g299
sg76
(lp306
g69
(g78
g71
NtRp307
(dp308
g74
(dp309
g82
I4
ssg83
Nsg76
(lp310
g69
(g85
g71
NtRp311
(dp312
g74
(dp313
sg83
g307
sg76
(lp314
g69
(g90
g71
NtRp315
(dp316
g74
(dp317
g94
g95
ssg83
g311
sg76
(lp318
S'session_id_admin'
p319
asbag69
(g90
g71
NtRp320
(dp321
g74
(dp322
g101
g102
ssg83
g311
sg76
(lp323
S':'
asbag69
(g90
g71
NtRp324
(dp325
g74
(dp326
sg83
g311
sg76
(lp327
g69
(g70
g71
NtRp328
(dp329
g74
(dp330
g82
I4
ssg83
g324
sg76
(lp331
S'127.0.0.1-9ca8fc56-3213-4881-b103-95238a337326'
p332
ag69
(g78
g71
NtRp333
(dp334
g74
(dp335
g82
I3
ssg83
Nsg76
(lp336
g69
(g85
g71
NtRp337
(dp338
g74
(dp339
sg83
g333
sg76
(lp340
g69
(g90
g71
NtRp341
(dp342
g74
(dp343
g94
g95
ssg83
g337
sg76
(lp344
S'comment'
p345
asbag69
(g90
g71
NtRp346
(dp347
g74
(dp348
g101
g102
ssg83
g337
sg76
(lp349
S':'
asbag69
(g90
g71
NtRp350
(dp351
g74
(dp352
sg83
g337
sg76
(lp353
g69
(g70
g71
NtRp354
(dp355
g74
(dp356
g82
I3
ssg83
g350
sg76
(lp357
S''
asbasbasbag69
(g85
g71
NtRp358
(dp359
g74
(dp360
sg83
g333
sg76
(lp361
g69
(g90
g71
NtRp362
(dp363
g74
(dp364
g94
g95
ssg83
g358
sg76
(lp365
S'domain'
p366
asbag69
(g90
g71
NtRp367
(dp368
g74
(dp369
g101
g102
ssg83
g358
sg76
(lp370
S':'
asbag69
(g90
g71
NtRp371
(dp372
g74
(dp373
sg83
g358
sg76
(lp374
g69
(g70
g71
NtRp375
(dp376
g74
(dp377
g82
I3
ssg83
g371
sg76
(lp378
S''
asbasbasbag69
(g85
g71
NtRp379
(dp380
g74
(dp381
sg83
g333
sg76
(lp382
g69
(g90
g71
NtRp383
(dp384
g74
(dp385
g94
g95
ssg83
g379
sg76
(lp386
S'expires'
p387
asbag69
(g90
g71
NtRp388
(dp389
g74
(dp390
g101
g102
ssg83
g379
sg76
(lp391
S':'
asbag69
(g90
g71
NtRp392
(dp393
g74
(dp394
sg83
g379
sg76
(lp395
g69
(g70
g71
NtRp396
(dp397
g74
(dp398
g82
I3
ssg83
g392
sg76
(lp399
S''
asbasbasbag69
(g85
g71
NtRp400
(dp401
g74
(dp402
sg83
g333
sg76
(lp403
g69
(g90
g71
NtRp404
(dp405
g74
(dp406
g94
g95
ssg83
g400
sg76
(lp407
S'httponly'
p408
asbag69
(g90
g71
NtRp409
(dp410
g74
(dp411
g101
g102
ssg83
g400
sg76
(lp412
S':'
asbag69
(g90
g71
NtRp413
(dp414
g74
(dp415
sg83
g400
sg76
(lp416
g69
(g70
g71
NtRp417
(dp418
g74
(dp419
g82
I3
ssg83
g413
sg76
(lp420
S''
asbasbasbag69
(g85
g71
NtRp421
(dp422
g74
(dp423
sg83
g333
sg76
(lp424
g69
(g90
g71
NtRp425
(dp426
g74
(dp427
g94
g95
ssg83
g421
sg76
(lp428
S'max-age'
p429
asbag69
(g90
g71
NtRp430
(dp431
g74
(dp432
g101
g102
ssg83
g421
sg76
(lp433
S':'
asbag69
(g90
g71
NtRp434
(dp435
g74
(dp436
sg83
g421
sg76
(lp437
g69
(g70
g71
NtRp438
(dp439
g74
(dp440
g82
I3
ssg83
g434
sg76
(lp441
S''
asbasbasbag69
(g85
g71
NtRp442
(dp443
g74
(dp444
sg83
g333
sg76
(lp445
g69
(g90
g71
NtRp446
(dp447
g74
(dp448
g94
g95
ssg83
g442
sg76
(lp449
S'path'
p450
asbag69
(g90
g71
NtRp451
(dp452
g74
(dp453
g101
g102
ssg83
g442
sg76
(lp454
S':'
asbag69
(g90
g71
NtRp455
(dp456
g74
(dp457
sg83
g442
sg76
(lp458
g69
(g70
g71
NtRp459
(dp460
g74
(dp461
g82
I3
ssg83
g455
sg76
(lp462
S''
asbasbasbag69
(g85
g71
NtRp463
(dp464
g74
(dp465
sg83
g333
sg76
(lp466
g69
(g90
g71
NtRp467
(dp468
g74
(dp469
g94
g95
ssg83
g463
sg76
(lp470
S'secure'
p471
asbag69
(g90
g71
NtRp472
(dp473
g74
(dp474
g101
g102
ssg83
g463
sg76
(lp475
S':'
asbag69
(g90
g71
NtRp476
(dp477
g74
(dp478
sg83
g463
sg76
(lp479
g69
(g70
g71
NtRp480
(dp481
g74
(dp482
g82
I3
ssg83
g476
sg76
(lp483
S''
asbasbasbag69
(g85
g71
NtRp484
(dp485
g74
(dp486
sg83
g333
sg76
(lp487
g69
(g90
g71
NtRp488
(dp489
g74
(dp490
g94
g95
ssg83
g484
sg76
(lp491
S'version'
p492
asbag69
(g90
g71
NtRp493
(dp494
g74
(dp495
g101
g102
ssg83
g484
sg76
(lp496
S':'
asbag69
(g90
g71
NtRp497
(dp498
g74
(dp499
sg83
g484
sg76
(lp500
g69
(g70
g71
NtRp501
(dp502
g74
(dp503
g82
I3
ssg83
g497
sg76
(lp504
S''
asbasbasbasbasbasbasbag69
(g85
g71
NtRp505
(dp506
g74
(dp507
sg83
g307
sg76
(lp508
g69
(g90
g71
NtRp509
(dp510
g74
(dp511
g94
g95
ssg83
g505
sg76
(lp512
S'session_id_projeto'
p513
asbag69
(g90
g71
NtRp514
(dp515
g74
(dp516
g101
g102
ssg83
g505
sg76
(lp517
S':'
asbag69
(g90
g71
NtRp518
(dp519
g74
(dp520
sg83
g505
sg76
(lp521
g69
(g70
g71
NtRp522
(dp523
g74
(dp524
g82
I4
ssg83
g518
sg76
(lp525
S'127.0.0.1-001edd4c-cc9d-40b6-92aa-d3bbbc6019b5'
p526
ag69
(g78
g71
NtRp527
(dp528
g74
(dp529
g82
I3
ssg83
Nsg76
(lp530
g69
(g85
g71
NtRp531
(dp532
g74
(dp533
sg83
g527
sg76
(lp534
g69
(g90
g71
NtRp535
(dp536
g74
(dp537
g94
g95
ssg83
g531
sg76
(lp538
g345
asbag69
(g90
g71
NtRp539
(dp540
g74
(dp541
g101
g102
ssg83
g531
sg76
(lp542
S':'
asbag69
(g90
g71
NtRp543
(dp544
g74
(dp545
sg83
g531
sg76
(lp546
g69
(g70
g71
NtRp547
(dp548
g74
(dp549
g82
I3
ssg83
g543
sg76
(lp550
S''
asbasbasbag69
(g85
g71
NtRp551
(dp552
g74
(dp553
sg83
g527
sg76
(lp554
g69
(g90
g71
NtRp555
(dp556
g74
(dp557
g94
g95
ssg83
g551
sg76
(lp558
g366
asbag69
(g90
g71
NtRp559
(dp560
g74
(dp561
g101
g102
ssg83
g551
sg76
(lp562
S':'
asbag69
(g90
g71
NtRp563
(dp564
g74
(dp565
sg83
g551
sg76
(lp566
g69
(g70
g71
NtRp567
(dp568
g74
(dp569
g82
I3
ssg83
g563
sg76
(lp570
S''
asbasbasbag69
(g85
g71
NtRp571
(dp572
g74
(dp573
sg83
g527
sg76
(lp574
g69
(g90
g71
NtRp575
(dp576
g74
(dp577
g94
g95
ssg83
g571
sg76
(lp578
g387
asbag69
(g90
g71
NtRp579
(dp580
g74
(dp581
g101
g102
ssg83
g571
sg76
(lp582
S':'
asbag69
(g90
g71
NtRp583
(dp584
g74
(dp585
sg83
g571
sg76
(lp586
g69
(g70
g71
NtRp587
(dp588
g74
(dp589
g82
I3
ssg83
g583
sg76
(lp590
S''
asbasbasbag69
(g85
g71
NtRp591
(dp592
g74
(dp593
sg83
g527
sg76
(lp594
g69
(g90
g71
NtRp595
(dp596
g74
(dp597
g94
g95
ssg83
g591
sg76
(lp598
g408
asbag69
(g90
g71
NtRp599
(dp600
g74
(dp601
g101
g102
ssg83
g591
sg76
(lp602
S':'
asbag69
(g90
g71
NtRp603
(dp604
g74
(dp605
sg83
g591
sg76
(lp606
g69
(g70
g71
NtRp607
(dp608
g74
(dp609
g82
I3
ssg83
g603
sg76
(lp610
S''
asbasbasbag69
(g85
g71
NtRp611
(dp612
g74
(dp613
sg83
g527
sg76
(lp614
g69
(g90
g71
NtRp615
(dp616
g74
(dp617
g94
g95
ssg83
g611
sg76
(lp618
g429
asbag69
(g90
g71
NtRp619
(dp620
g74
(dp621
g101
g102
ssg83
g611
sg76
(lp622
S':'
asbag69
(g90
g71
NtRp623
(dp624
g74
(dp625
sg83
g611
sg76
(lp626
g69
(g70
g71
NtRp627
(dp628
g74
(dp629
g82
I3
ssg83
g623
sg76
(lp630
S''
asbasbasbag69
(g85
g71
NtRp631
(dp632
g74
(dp633
sg83
g527
sg76
(lp634
g69
(g90
g71
NtRp635
(dp636
g74
(dp637
g94
g95
ssg83
g631
sg76
(lp638
g450
asbag69
(g90
g71
NtRp639
(dp640
g74
(dp641
g101
g102
ssg83
g631
sg76
(lp642
S':'
asbag69
(g90
g71
NtRp643
(dp644
g74
(dp645
sg83
g631
sg76
(lp646
g69
(g70
g71
NtRp647
(dp648
g74
(dp649
g82
I3
ssg83
g643
sg76
(lp650
S''
asbasbasbag69
(g85
g71
NtRp651
(dp652
g74
(dp653
sg83
g527
sg76
(lp654
g69
(g90
g71
NtRp655
(dp656
g74
(dp657
g94
g95
ssg83
g651
sg76
(lp658
g471
asbag69
(g90
g71
NtRp659
(dp660
g74
(dp661
g101
g102
ssg83
g651
sg76
(lp662
S':'
asbag69
(g90
g71
NtRp663
(dp664
g74
(dp665
sg83
g651
sg76
(lp666
g69
(g70
g71
NtRp667
(dp668
g74
(dp669
g82
I3
ssg83
g663
sg76
(lp670
S''
asbasbasbag69
(g85
g71
NtRp671
(dp672
g74
(dp673
sg83
g527
sg76
(lp674
g69
(g90
g71
NtRp675
(dp676
g74
(dp677
g94
g95
ssg83
g671
sg76
(lp678
g492
asbag69
(g90
g71
NtRp679
(dp680
g74
(dp681
g101
g102
ssg83
g671
sg76
(lp682
S':'
asbag69
(g90
g71
NtRp683
(dp684
g74
(dp685
sg83
g671
sg76
(lp686
g69
(g70
g71
NtRp687
(dp688
g74
(dp689
g82
I3
ssg83
g683
sg76
(lp690
S''
asbasbasbasbasbasbasbasbasbasbasbag69
(g85
g71
NtRp691
(dp692
g74
(dp693
sg83
g79
sg76
(lp694
g69
(g90
g71
NtRp695
(dp696
g74
(dp697
g94
g95
ssg83
g691
sg76
(lp698
S'env'
p699
asbag69
(g90
g71
NtRp700
(dp701
g74
(dp702
g101
g102
ssg83
g691
sg76
(lp703
S':'
asbag69
(g90
g71
NtRp704
(dp705
g74
(dp706
sg83
g691
sg76
(lp707
g69
(g70
g71
NtRp708
(dp709
g74
(dp710
g82
I5
ssg83
g704
sg76
(lp711
g69
(g78
g71
NtRp712
(dp713
g74
(dp714
g82
I4
ssg83
Nsg76
(lp715
g69
(g85
g71
NtRp716
(dp717
g74
(dp718
sg83
g712
sg76
(lp719
g69
(g90
g71
NtRp720
(dp721
g74
(dp722
g94
g95
ssg83
g716
sg76
(lp723
S'app_folders'
p724
asbag69
(g90
g71
NtRp725
(dp726
g74
(dp727
g101
g102
ssg83
g716
sg76
(lp728
S':'
asbag69
(g90
g71
NtRp729
(dp730
g74
(dp731
sg83
g716
sg76
(lp732
g69
(g70
g71
NtRp733
(dp734
g74
(dp735
g82
I4
ssg83
g729
sg76
(lp736
S"set(['/var/www/conferencia/applications/admin/', '/var/www/conferencia/applications/projeto/'])"
p737
asbasbasbag69
(g85
g71
NtRp738
(dp739
g74
(dp740
sg83
g712
sg76
(lp741
g69
(g90
g71
NtRp742
(dp743
g74
(dp744
g94
g95
ssg83
g738
sg76
(lp745
S'applications_parent'
p746
asbag69
(g90
g71
NtRp747
(dp748
g74
(dp749
g101
g102
ssg83
g738
sg76
(lp750
S':'
asbag69
(g90
g71
NtRp751
(dp752
g74
(dp753
sg83
g738
sg76
(lp754
g69
(g70
g71
NtRp755
(dp756
g74
(dp757
g82
I4
ssg83
g751
sg76
(lp758
S'/var/www/conferencia'
p759
asbasbasbag69
(g85
g71
NtRp760
(dp761
g74
(dp762
sg83
g712
sg76
(lp763
g69
(g90
g71
NtRp764
(dp765
g74
(dp766
g94
g95
ssg83
g760
sg76
(lp767
S'cmd_args'
p768
asbag69
(g90
g71
NtRp769
(dp770
g74
(dp771
g101
g102
ssg83
g760
sg76
(lp772
S':'
asbag69
(g90
g71
NtRp773
(dp774
g74
(dp775
sg83
g760
sg76
(lp776
g69
(g70
g71
NtRp777
(dp778
g74
(dp779
g82
I4
ssg83
g773
sg76
(lp780
g69
(g78
g71
NtRp781
(dp782
g74
(dp783
g82
I3
ssg83
Nsg76
(lp784
sbasbasbasbag69
(g85
g71
NtRp785
(dp786
g74
(dp787
sg83
g712
sg76
(lp788
g69
(g90
g71
NtRp789
(dp790
g74
(dp791
g94
g95
ssg83
g785
sg76
(lp792
S'cmd_options'
p793
asbag69
(g90
g71
NtRp794
(dp795
g74
(dp796
g101
g102
ssg83
g785
sg76
(lp797
S':'
asbag69
(g90
g71
NtRp798
(dp799
g74
(dp800
sg83
g785
sg76
(lp801
g69
(g70
g71
NtRp802
(dp803
g74
(dp804
g82
I4
ssg83
g798
sg76
(lp805
S"<Values at 0x2c3b248: {'verbose': False, 'ip': '127.0.0.1', 'with_scheduler': False, 'ips': [], 'shutdown_timeout': 5, 'taskbar': False, 'port': 8000, 'maxthreads': None, 'softcron': False, 'server_name': 'fernando-workstation', 'bpython': False, 'nogui': False, 'pid_filename': 'httpserver.pid', 'extcron': False, 'runcron': False, 'run_system_tests': False, 'test': None, 'folder': '/var/www/conferencia', 'config': '', 'minthreads': None, 'winservice': '', 'shell': None, 'run': '', 'log_filename': 'httpserver.log', 'debuglevel': 30, 'args': [''], 'socket_timeout': 5, 'ssl_ca_certificate': None, 'scheduler': None, 'profiler_filename': None, 'ssl_private_key': '', 'scheduler_groups': None, 'password': '123456', 'request_queue_size': 5, 'ssl_certificate': '', 'cronjob': False, 'numthreads': None, 'quiet': False, 'interfaces': None, 'import_models': False, 'timeout': 10, 'plain': False, 'nobanner': False}>"
p806
asbasbasbag69
(g85
g71
NtRp807
(dp808
g74
(dp809
sg83
g712
sg76
(lp810
g69
(g90
g71
NtRp811
(dp812
g74
(dp813
g94
g95
ssg83
g807
sg76
(lp814
S'content_length'
p815
asbag69
(g90
g71
NtRp816
(dp817
g74
(dp818
g101
g102
ssg83
g807
sg76
(lp819
S':'
asbag69
(g90
g71
NtRp820
(dp821
g74
(dp822
sg83
g807
sg76
(lp823
g69
(g70
g71
NtRp824
(dp825
g74
(dp826
g82
I4
ssg83
g820
sg76
(lp827
S'1008'
p828
asbasbasbag69
(g85
g71
NtRp829
(dp830
g74
(dp831
sg83
g712
sg76
(lp832
g69
(g90
g71
NtRp833
(dp834
g74
(dp835
g94
g95
ssg83
g829
sg76
(lp836
S'content_type'
p837
asbag69
(g90
g71
NtRp838
(dp839
g74
(dp840
g101
g102
ssg83
g829
sg76
(lp841
S':'
asbag69
(g90
g71
NtRp842
(dp843
g74
(dp844
sg83
g829
sg76
(lp845
g69
(g70
g71
NtRp846
(dp847
g74
(dp848
g82
I4
ssg83
g842
sg76
(lp849
S'multipart/form-data; boundary=----WebKitFormBoundaryUJxsgnnqgBpTX9o4'
p850
asbasbasbag69
(g85
g71
NtRp851
(dp852
g74
(dp853
sg83
g712
sg76
(lp854
g69
(g90
g71
NtRp855
(dp856
g74
(dp857
g94
g95
ssg83
g851
sg76
(lp858
S'db_sessions'
p859
asbag69
(g90
g71
NtRp860
(dp861
g74
(dp862
g101
g102
ssg83
g851
sg76
(lp863
S':'
asbag69
(g90
g71
NtRp864
(dp865
g74
(dp866
sg83
g851
sg76
(lp867
g69
(g70
g71
NtRp868
(dp869
g74
(dp870
g82
I4
ssg83
g864
sg76
(lp871
S'set([])'
p872
asbasbasbag69
(g85
g71
NtRp873
(dp874
g74
(dp875
sg83
g712
sg76
(lp876
g69
(g90
g71
NtRp877
(dp878
g74
(dp879
g94
g95
ssg83
g873
sg76
(lp880
S'debugging'
p881
asbag69
(g90
g71
NtRp882
(dp883
g74
(dp884
g101
g102
ssg83
g873
sg76
(lp885
S':'
asbag69
(g90
g71
NtRp886
(dp887
g74
(dp888
sg83
g873
sg76
(lp889
g69
(g70
g71
NtRp890
(dp891
g74
(dp892
g82
I4
ssg83
g886
sg76
(lp893
g112
asbasbasbag69
(g85
g71
NtRp894
(dp895
g74
(dp896
sg83
g712
sg76
(lp897
g69
(g90
g71
NtRp898
(dp899
g74
(dp900
g94
g95
ssg83
g894
sg76
(lp901
S'gluon_parent'
p902
asbag69
(g90
g71
NtRp903
(dp904
g74
(dp905
g101
g102
ssg83
g894
sg76
(lp906
S':'
asbag69
(g90
g71
NtRp907
(dp908
g74
(dp909
sg83
g894
sg76
(lp910
g69
(g70
g71
NtRp911
(dp912
g74
(dp913
g82
I4
ssg83
g907
sg76
(lp914
S'/var/www/conferencia'
p915
asbasbasbag69
(g85
g71
NtRp916
(dp917
g74
(dp918
sg83
g712
sg76
(lp919
g69
(g90
g71
NtRp920
(dp921
g74
(dp922
g94
g95
ssg83
g916
sg76
(lp923
S'http_accept'
p924
asbag69
(g90
g71
NtRp925
(dp926
g74
(dp927
g101
g102
ssg83
g916
sg76
(lp928
S':'
asbag69
(g90
g71
NtRp929
(dp930
g74
(dp931
sg83
g916
sg76
(lp932
g69
(g70
g71
NtRp933
(dp934
g74
(dp935
g82
I4
ssg83
g929
sg76
(lp936
S'text/html,application/xhtml+xml,application/xml;q=0.9,*/*;q=0.8'
p937
asbasbasbag69
(g85
g71
NtRp938
(dp939
g74
(dp940
sg83
g712
sg76
(lp941
g69
(g90
g71
NtRp942
(dp943
g74
(dp944
g94
g95
ssg83
g938
sg76
(lp945
S'http_accept_charset'
p946
asbag69
(g90
g71
NtRp947
(dp948
g74
(dp949
g101
g102
ssg83
g938
sg76
(lp950
S':'
asbag69
(g90
g71
NtRp951
(dp952
g74
(dp953
sg83
g938
sg76
(lp954
g69
(g70
g71
NtRp955
(dp956
g74
(dp957
g82
I4
ssg83
g951
sg76
(lp958
S'ISO-8859-1,utf-8;q=0.7,*;q=0.3'
p959
asbasbasbag69
(g85
g71
NtRp960
(dp961
g74
(dp962
sg83
g712
sg76
(lp963
g69
(g90
g71
NtRp964
(dp965
g74
(dp966
g94
g95
ssg83
g960
sg76
(lp967
S'http_accept_encoding'
p968
asbag69
(g90
g71
NtRp969
(dp970
g74
(dp971
g101
g102
ssg83
g960
sg76
(lp972
S':'
asbag69
(g90
g71
NtRp973
(dp974
g74
(dp975
sg83
g960
sg76
(lp976
g69
(g70
g71
NtRp977
(dp978
g74
(dp979
g82
I4
ssg83
g973
sg76
(lp980
S'gzip,deflate,sdch'
p981
asbasbasbag69
(g85
g71
NtRp982
(dp983
g74
(dp984
sg83
g712
sg76
(lp985
g69
(g90
g71
NtRp986
(dp987
g74
(dp988
g94
g95
ssg83
g982
sg76
(lp989
S'http_accept_language'
p990
asbag69
(g90
g71
NtRp991
(dp992
g74
(dp993
g101
g102
ssg83
g982
sg76
(lp994
S':'
asbag69
(g90
g71
NtRp995
(dp996
g74
(dp997
sg83
g982
sg76
(lp998
g69
(g70
g71
NtRp999
(dp1000
g74
(dp1001
g82
I4
ssg83
g995
sg76
(lp1002
S'pt-BR,pt;q=0.8,en-US;q=0.6,en;q=0.4'
p1003
asbasbasbag69
(g85
g71
NtRp1004
(dp1005
g74
(dp1006
sg83
g712
sg76
(lp1007
g69
(g90
g71
NtRp1008
(dp1009
g74
(dp1010
g94
g95
ssg83
g1004
sg76
(lp1011
S'http_cache_control'
p1012
asbag69
(g90
g71
NtRp1013
(dp1014
g74
(dp1015
g101
g102
ssg83
g1004
sg76
(lp1016
S':'
asbag69
(g90
g71
NtRp1017
(dp1018
g74
(dp1019
sg83
g1004
sg76
(lp1020
g69
(g70
g71
NtRp1021
(dp1022
g74
(dp1023
g82
I4
ssg83
g1017
sg76
(lp1024
S'max-age=0'
p1025
asbasbasbag69
(g85
g71
NtRp1026
(dp1027
g74
(dp1028
sg83
g712
sg76
(lp1029
g69
(g90
g71
NtRp1030
(dp1031
g74
(dp1032
g94
g95
ssg83
g1026
sg76
(lp1033
S'http_connection'
p1034
asbag69
(g90
g71
NtRp1035
(dp1036
g74
(dp1037
g101
g102
ssg83
g1026
sg76
(lp1038
S':'
asbag69
(g90
g71
NtRp1039
(dp1040
g74
(dp1041
sg83
g1026
sg76
(lp1042
g69
(g70
g71
NtRp1043
(dp1044
g74
(dp1045
g82
I4
ssg83
g1039
sg76
(lp1046
S'keep-alive'
p1047
asbasbasbag69
(g85
g71
NtRp1048
(dp1049
g74
(dp1050
sg83
g712
sg76
(lp1051
g69
(g90
g71
NtRp1052
(dp1053
g74
(dp1054
g94
g95
ssg83
g1048
sg76
(lp1055
S'http_content_length'
p1056
asbag69
(g90
g71
NtRp1057
(dp1058
g74
(dp1059
g101
g102
ssg83
g1048
sg76
(lp1060
S':'
asbag69
(g90
g71
NtRp1061
(dp1062
g74
(dp1063
sg83
g1048
sg76
(lp1064
g69
(g70
g71
NtRp1065
(dp1066
g74
(dp1067
g82
I4
ssg83
g1061
sg76
(lp1068
g828
asbasbasbag69
(g85
g71
NtRp1069
(dp1070
g74
(dp1071
sg83
g712
sg76
(lp1072
g69
(g90
g71
NtRp1073
(dp1074
g74
(dp1075
g94
g95
ssg83
g1069
sg76
(lp1076
S'http_content_type'
p1077
asbag69
(g90
g71
NtRp1078
(dp1079
g74
(dp1080
g101
g102
ssg83
g1069
sg76
(lp1081
S':'
asbag69
(g90
g71
NtRp1082
(dp1083
g74
(dp1084
sg83
g1069
sg76
(lp1085
g69
(g70
g71
NtRp1086
(dp1087
g74
(dp1088
g82
I4
ssg83
g1082
sg76
(lp1089
g850
asbasbasbag69
(g85
g71
NtRp1090
(dp1091
g74
(dp1092
sg83
g712
sg76
(lp1093
g69
(g90
g71
NtRp1094
(dp1095
g74
(dp1096
g94
g95
ssg83
g1090
sg76
(lp1097
S'http_cookie'
p1098
asbag69
(g90
g71
NtRp1099
(dp1100
g74
(dp1101
g101
g102
ssg83
g1090
sg76
(lp1102
S':'
asbag69
(g90
g71
NtRp1103
(dp1104
g74
(dp1105
sg83
g1090
sg76
(lp1106
g69
(g70
g71
NtRp1107
(dp1108
g74
(dp1109
g82
I4
ssg83
g1103
sg76
(lp1110
S'session_id_admin=127.0.0.1-9ca8fc56-3213-4881-b103-95238a337326; session_id_projeto=127.0.0.1-001edd4c-cc9d-40b6-92aa-d3bbbc6019b5'
p1111
asbasbasbag69
(g85
g71
NtRp1112
(dp1113
g74
(dp1114
sg83
g712
sg76
(lp1115
g69
(g90
g71
NtRp1116
(dp1117
g74
(dp1118
g94
g95
ssg83
g1112
sg76
(lp1119
S'http_host'
p1120
asbag69
(g90
g71
NtRp1121
(dp1122
g74
(dp1123
g101
g102
ssg83
g1112
sg76
(lp1124
S':'
asbag69
(g90
g71
NtRp1125
(dp1126
g74
(dp1127
sg83
g1112
sg76
(lp1128
g69
(g70
g71
NtRp1129
(dp1130
g74
(dp1131
g82
I4
ssg83
g1125
sg76
(lp1132
S'127.0.0.1:8000'
p1133
asbasbasbag69
(g85
g71
NtRp1134
(dp1135
g74
(dp1136
sg83
g712
sg76
(lp1137
g69
(g90
g71
NtRp1138
(dp1139
g74
(dp1140
g94
g95
ssg83
g1134
sg76
(lp1141
S'http_origin'
p1142
asbag69
(g90
g71
NtRp1143
(dp1144
g74
(dp1145
g101
g102
ssg83
g1134
sg76
(lp1146
S':'
asbag69
(g90
g71
NtRp1147
(dp1148
g74
(dp1149
sg83
g1134
sg76
(lp1150
g69
(g70
g71
NtRp1151
(dp1152
g74
(dp1153
g82
I4
ssg83
g1147
sg76
(lp1154
S'http://127.0.0.1:8000'
p1155
asbasbasbag69
(g85
g71
NtRp1156
(dp1157
g74
(dp1158
sg83
g712
sg76
(lp1159
g69
(g90
g71
NtRp1160
(dp1161
g74
(dp1162
g94
g95
ssg83
g1156
sg76
(lp1163
S'http_referer'
p1164
asbag69
(g90
g71
NtRp1165
(dp1166
g74
(dp1167
g101
g102
ssg83
g1156
sg76
(lp1168
S':'
asbag69
(g90
g71
NtRp1169
(dp1170
g74
(dp1171
sg83
g1156
sg76
(lp1172
g69
(g70
g71
NtRp1173
(dp1174
g74
(dp1175
g82
I4
ssg83
g1169
sg76
(lp1176
S'http://127.0.0.1:8000/show_servidor/edit/meetme/1014'
p1177
asbasbasbag69
(g85
g71
NtRp1178
(dp1179
g74
(dp1180
sg83
g712
sg76
(lp1181
g69
(g90
g71
NtRp1182
(dp1183
g74
(dp1184
g94
g95
ssg83
g1178
sg76
(lp1185
S'http_user_agent'
p1186
asbag69
(g90
g71
NtRp1187
(dp1188
g74
(dp1189
g101
g102
ssg83
g1178
sg76
(lp1190
S':'
asbag69
(g90
g71
NtRp1191
(dp1192
g74
(dp1193
sg83
g1178
sg76
(lp1194
g69
(g70
g71
NtRp1195
(dp1196
g74
(dp1197
g82
I4
ssg83
g1191
sg76
(lp1198
S'Mozilla/5.0 (X11; Linux x86_64) AppleWebKit/537.4 (KHTML, like Gecko) Ubuntu/12.10 Chromium/22.0.1229.94 Chrome/22.0.1229.94 Safari/537.4'
p1199
asbasbasbag69
(g85
g71
NtRp1200
(dp1201
g74
(dp1202
sg83
g712
sg76
(lp1203
g69
(g90
g71
NtRp1204
(dp1205
g74
(dp1206
g94
g95
ssg83
g1200
sg76
(lp1207
S'is_jython'
p1208
asbag69
(g90
g71
NtRp1209
(dp1210
g74
(dp1211
g101
g102
ssg83
g1200
sg76
(lp1212
S':'
asbag69
(g90
g71
NtRp1213
(dp1214
g74
(dp1215
sg83
g1200
sg76
(lp1216
g69
(g70
g71
NtRp1217
(dp1218
g74
(dp1219
g82
I4
ssg83
g1213
sg76
(lp1220
g112
asbasbasbag69
(g85
g71
NtRp1221
(dp1222
g74
(dp1223
sg83
g712
sg76
(lp1224
g69
(g90
g71
NtRp1225
(dp1226
g74
(dp1227
g94
g95
ssg83
g1221
sg76
(lp1228
S'is_pypy'
p1229
asbag69
(g90
g71
NtRp1230
(dp1231
g74
(dp1232
g101
g102
ssg83
g1221
sg76
(lp1233
S':'
asbag69
(g90
g71
NtRp1234
(dp1235
g74
(dp1236
sg83
g1221
sg76
(lp1237
g69
(g70
g71
NtRp1238
(dp1239
g74
(dp1240
g82
I4
ssg83
g1234
sg76
(lp1241
g112
asbasbasbag69
(g85
g71
NtRp1242
(dp1243
g74
(dp1244
sg83
g712
sg76
(lp1245
g69
(g90
g71
NtRp1246
(dp1247
g74
(dp1248
g94
g95
ssg83
g1242
sg76
(lp1249
S'local_hosts'
p1250
asbag69
(g90
g71
NtRp1251
(dp1252
g74
(dp1253
g101
g102
ssg83
g1242
sg76
(lp1254
S':'
asbag69
(g90
g71
NtRp1255
(dp1256
g74
(dp1257
sg83
g1242
sg76
(lp1258
g69
(g70
g71
NtRp1259
(dp1260
g74
(dp1261
g82
I4
ssg83
g1255
sg76
(lp1262
g69
(g78
g71
NtRp1263
(dp1264
g74
(dp1265
g82
I3
ssg83
Nsg76
(lp1266
g69
(g85
g71
NtRp1267
(dp1268
g74
(dp1269
sg83
g1263
sg76
(lp1270
g69
(g90
g71
NtRp1271
(dp1272
g74
(dp1273
sg83
g1267
sg76
(lp1274
g69
(g70
g71
NtRp1275
(dp1276
g74
(dp1277
g82
I3
ssg83
g1271
sg76
(lp1278
S'::1'
p1279
asbasbasbag69
(g85
g71
NtRp1280
(dp1281
g74
(dp1282
sg83
g1263
sg76
(lp1283
g69
(g90
g71
NtRp1284
(dp1285
g74
(dp1286
sg83
g1280
sg76
(lp1287
g69
(g70
g71
NtRp1288
(dp1289
g74
(dp1290
g82
I3
ssg83
g1284
sg76
(lp1291
S'::ffff:127.0.0.1'
p1292
asbasbasbag69
(g85
g71
NtRp1293
(dp1294
g74
(dp1295
sg83
g1263
sg76
(lp1296
g69
(g90
g71
NtRp1297
(dp1298
g74
(dp1299
sg83
g1293
sg76
(lp1300
g69
(g70
g71
NtRp1301
(dp1302
g74
(dp1303
g82
I3
ssg83
g1297
sg76
(lp1304
S'127.0.0.1'
p1305
asbasbasbag69
(g85
g71
NtRp1306
(dp1307
g74
(dp1308
sg83
g1263
sg76
(lp1309
g69
(g90
g71
NtRp1310
(dp1311
g74
(dp1312
sg83
g1306
sg76
(lp1313
g69
(g70
g71
NtRp1314
(dp1315
g74
(dp1316
g82
I3
ssg83
g1310
sg76
(lp1317
S'fernando-workstation'
p1318
asbasbasbasbasbasbasbag69
(g85
g71
NtRp1319
(dp1320
g74
(dp1321
sg83
g712
sg76
(lp1322
g69
(g90
g71
NtRp1323
(dp1324
g74
(dp1325
g94
g95
ssg83
g1319
sg76
(lp1326
S'path_info'
p1327
asbag69
(g90
g71
NtRp1328
(dp1329
g74
(dp1330
g101
g102
ssg83
g1319
sg76
(lp1331
S':'
asbag69
(g90
g71
NtRp1332
(dp1333
g74
(dp1334
sg83
g1319
sg76
(lp1335
g69
(g70
g71
NtRp1336
(dp1337
g74
(dp1338
g82
I4
ssg83
g1332
sg76
(lp1339
S'/show_servidor/edit/meetme/1014'
p1340
asbasbasbag69
(g85
g71
NtRp1341
(dp1342
g74
(dp1343
sg83
g712
sg76
(lp1344
g69
(g90
g71
NtRp1345
(dp1346
g74
(dp1347
g94
g95
ssg83
g1341
sg76
(lp1348
S'query_string'
p1349
asbag69
(g90
g71
NtRp1350
(dp1351
g74
(dp1352
g101
g102
ssg83
g1341
sg76
(lp1353
S':'
asbag69
(g90
g71
NtRp1354
(dp1355
g74
(dp1356
sg83
g1341
sg76
(lp1357
g69
(g70
g71
NtRp1358
(dp1359
g74
(dp1360
g82
I4
ssg83
g1354
sg76
(lp1361
S''
asbasbasbag69
(g85
g71
NtRp1362
(dp1363
g74
(dp1364
sg83
g712
sg76
(lp1365
g69
(g90
g71
NtRp1366
(dp1367
g74
(dp1368
g94
g95
ssg83
g1362
sg76
(lp1369
S'remote_addr'
p1370
asbag69
(g90
g71
NtRp1371
(dp1372
g74
(dp1373
g101
g102
ssg83
g1362
sg76
(lp1374
S':'
asbag69
(g90
g71
NtRp1375
(dp1376
g74
(dp1377
sg83
g1362
sg76
(lp1378
g69
(g70
g71
NtRp1379
(dp1380
g74
(dp1381
g82
I4
ssg83
g1375
sg76
(lp1382
g263
asbasbasbag69
(g85
g71
NtRp1383
(dp1384
g74
(dp1385
sg83
g712
sg76
(lp1386
g69
(g90
g71
NtRp1387
(dp1388
g74
(dp1389
g94
g95
ssg83
g1383
sg76
(lp1390
S'remote_port'
p1391
asbag69
(g90
g71
NtRp1392
(dp1393
g74
(dp1394
g101
g102
ssg83
g1383
sg76
(lp1395
S':'
asbag69
(g90
g71
NtRp1396
(dp1397
g74
(dp1398
sg83
g1383
sg76
(lp1399
g69
(g70
g71
NtRp1400
(dp1401
g74
(dp1402
g82
I4
ssg83
g1396
sg76
(lp1403
S'38670'
p1404
asbasbasbag69
(g85
g71
NtRp1405
(dp1406
g74
(dp1407
sg83
g712
sg76
(lp1408
g69
(g90
g71
NtRp1409
(dp1410
g74
(dp1411
g94
g95
ssg83
g1405
sg76
(lp1412
S'request_method'
p1413
asbag69
(g90
g71
NtRp1414
(dp1415
g74
(dp1416
g101
g102
ssg83
g1405
sg76
(lp1417
S':'
asbag69
(g90
g71
NtRp1418
(dp1419
g74
(dp1420
sg83
g1405
sg76
(lp1421
g69
(g70
g71
NtRp1422
(dp1423
g74
(dp1424
g82
I4
ssg83
g1418
sg76
(lp1425
S'POST'
p1426
asbasbasbag69
(g85
g71
NtRp1427
(dp1428
g74
(dp1429
sg83
g712
sg76
(lp1430
g69
(g90
g71
NtRp1431
(dp1432
g74
(dp1433
g94
g95
ssg83
g1427
sg76
(lp1434
S'request_uri'
p1435
asbag69
(g90
g71
NtRp1436
(dp1437
g74
(dp1438
g101
g102
ssg83
g1427
sg76
(lp1439
S':'
asbag69
(g90
g71
NtRp1440
(dp1441
g74
(dp1442
sg83
g1427
sg76
(lp1443
g69
(g70
g71
NtRp1444
(dp1445
g74
(dp1446
g82
I4
ssg83
g1440
sg76
(lp1447
S'/projeto/initial/show_servidor/edit/meetme/1014'
p1448
asbasbasbag69
(g85
g71
NtRp1449
(dp1450
g74
(dp1451
sg83
g712
sg76
(lp1452
g69
(g90
g71
NtRp1453
(dp1454
g74
(dp1455
g94
g95
ssg83
g1449
sg76
(lp1456
S'script_name'
p1457
asbag69
(g90
g71
NtRp1458
(dp1459
g74
(dp1460
g101
g102
ssg83
g1449
sg76
(lp1461
S':'
asbag69
(g90
g71
NtRp1462
(dp1463
g74
(dp1464
sg83
g1449
sg76
(lp1465
g69
(g70
g71
NtRp1466
(dp1467
g74
(dp1468
g82
I4
ssg83
g1462
sg76
(lp1469
S''
asbasbasbag69
(g85
g71
NtRp1470
(dp1471
g74
(dp1472
sg83
g712
sg76
(lp1473
g69
(g90
g71
NtRp1474
(dp1475
g74
(dp1476
g94
g95
ssg83
g1470
sg76
(lp1477
S'server_name'
p1478
asbag69
(g90
g71
NtRp1479
(dp1480
g74
(dp1481
g101
g102
ssg83
g1470
sg76
(lp1482
S':'
asbag69
(g90
g71
NtRp1483
(dp1484
g74
(dp1485
sg83
g1470
sg76
(lp1486
g69
(g70
g71
NtRp1487
(dp1488
g74
(dp1489
g82
I4
ssg83
g1483
sg76
(lp1490
S'fernando-workstation'
p1491
asbasbasbag69
(g85
g71
NtRp1492
(dp1493
g74
(dp1494
sg83
g712
sg76
(lp1495
g69
(g90
g71
NtRp1496
(dp1497
g74
(dp1498
g94
g95
ssg83
g1492
sg76
(lp1499
S'server_port'
p1500
asbag69
(g90
g71
NtRp1501
(dp1502
g74
(dp1503
g101
g102
ssg83
g1492
sg76
(lp1504
S':'
asbag69
(g90
g71
NtRp1505
(dp1506
g74
(dp1507
sg83
g1492
sg76
(lp1508
g69
(g70
g71
NtRp1509
(dp1510
g74
(dp1511
g82
I4
ssg83
g1505
sg76
(lp1512
S'8000'
p1513
asbasbasbag69
(g85
g71
NtRp1514
(dp1515
g74
(dp1516
sg83
g712
sg76
(lp1517
g69
(g90
g71
NtRp1518
(dp1519
g74
(dp1520
g94
g95
ssg83
g1514
sg76
(lp1521
S'server_protocol'
p1522
asbag69
(g90
g71
NtRp1523
(dp1524
g74
(dp1525
g101
g102
ssg83
g1514
sg76
(lp1526
S':'
asbag69
(g90
g71
NtRp1527
(dp1528
g74
(dp1529
sg83
g1514
sg76
(lp1530
g69
(g70
g71
NtRp1531
(dp1532
g74
(dp1533
g82
I4
ssg83
g1527
sg76
(lp1534
S'HTTP/1.1'
p1535
asbasbasbag69
(g85
g71
NtRp1536
(dp1537
g74
(dp1538
sg83
g712
sg76
(lp1539
g69
(g90
g71
NtRp1540
(dp1541
g74
(dp1542
g94
g95
ssg83
g1536
sg76
(lp1543
S'server_software'
p1544
asbag69
(g90
g71
NtRp1545
(dp1546
g74
(dp1547
g101
g102
ssg83
g1536
sg76
(lp1548
S':'
asbag69
(g90
g71
NtRp1549
(dp1550
g74
(dp1551
sg83
g1536
sg76
(lp1552
g69
(g70
g71
NtRp1553
(dp1554
g74
(dp1555
g82
I4
ssg83
g1549
sg76
(lp1556
S'Rocket 1.2.6'
p1557
asbasbasbag69
(g85
g71
NtRp1558
(dp1559
g74
(dp1560
sg83
g712
sg76
(lp1561
g69
(g90
g71
NtRp1562
(dp1563
g74
(dp1564
g94
g95
ssg83
g1558
sg76
(lp1565
S'web2py_original_uri'
p1566
asbag69
(g90
g71
NtRp1567
(dp1568
g74
(dp1569
g101
g102
ssg83
g1558
sg76
(lp1570
S':'
asbag69
(g90
g71
NtRp1571
(dp1572
g74
(dp1573
sg83
g1558
sg76
(lp1574
g69
(g70
g71
NtRp1575
(dp1576
g74
(dp1577
g82
I4
ssg83
g1571
sg76
(lp1578
g1340
asbasbasbag69
(g85
g71
NtRp1579
(dp1580
g74
(dp1581
sg83
g712
sg76
(lp1582
g69
(g90
g71
NtRp1583
(dp1584
g74
(dp1585
g94
g95
ssg83
g1579
sg76
(lp1586
S'web2py_path'
p1587
asbag69
(g90
g71
NtRp1588
(dp1589
g74
(dp1590
g101
g102
ssg83
g1579
sg76
(lp1591
S':'
asbag69
(g90
g71
NtRp1592
(dp1593
g74
(dp1594
sg83
g1579
sg76
(lp1595
g69
(g70
g71
NtRp1596
(dp1597
g74
(dp1598
g82
I4
ssg83
g1592
sg76
(lp1599
g759
asbasbasbag69
(g85
g71
NtRp1600
(dp1601
g74
(dp1602
sg83
g712
sg76
(lp1603
g69
(g90
g71
NtRp1604
(dp1605
g74
(dp1606
g94
g95
ssg83
g1600
sg76
(lp1607
S'web2py_version'
p1608
asbag69
(g90
g71
NtRp1609
(dp1610
g74
(dp1611
g101
g102
ssg83
g1600
sg76
(lp1612
S':'
asbag69
(g90
g71
NtRp1613
(dp1614
g74
(dp1615
sg83
g1600
sg76
(lp1616
g69
(g70
g71
NtRp1617
(dp1618
g74
(dp1619
g82
I4
ssg83
g1613
sg76
(lp1620
g69
(g78
g71
NtRp1621
(dp1622
g74
(dp1623
g82
I3
ssg83
Nsg76
(lp1624
g69
(g85
g71
NtRp1625
(dp1626
g74
(dp1627
sg83
g1621
sg76
(lp1628
g69
(g90
g71
NtRp1629
(dp1630
g74
(dp1631
sg83
g1625
sg76
(lp1632
g69
(g70
g71
NtRp1633
(dp1634
g74
(dp1635
g82
I3
ssg83
g1629
sg76
(lp1636
S'2'
asbasbasbag69
(g85
g71
NtRp1637
(dp1638
g74
(dp1639
sg83
g1621
sg76
(lp1640
g69
(g90
g71
NtRp1641
(dp1642
g74
(dp1643
sg83
g1637
sg76
(lp1644
g69
(g70
g71
NtRp1645
(dp1646
g74
(dp1647
g82
I3
ssg83
g1641
sg76
(lp1648
S'3'
asbasbasbag69
(g85
g71
NtRp1649
(dp1650
g74
(dp1651
sg83
g1621
sg76
(lp1652
g69
(g90
g71
NtRp1653
(dp1654
g74
(dp1655
sg83
g1649
sg76
(lp1656
g69
(g70
g71
NtRp1657
(dp1658
g74
(dp1659
g82
I3
ssg83
g1653
sg76
(lp1660
S'2'
asbasbasbag69
(g85
g71
NtRp1661
(dp1662
g74
(dp1663
sg83
g1621
sg76
(lp1664
g69
(g90
g71
NtRp1665
(dp1666
g74
(dp1667
sg83
g1661
sg76
(lp1668
g69
(g70
g71
NtRp1669
(dp1670
g74
(dp1671
g82
I3
ssg83
g1665
sg76
(lp1672
S'datetime.datetime(2012, 12, 17, 15, 3, 30)'
p1673
asbasbasbag69
(g85
g71
NtRp1674
(dp1675
g74
(dp1676
sg83
g1621
sg76
(lp1677
g69
(g90
g71
NtRp1678
(dp1679
g74
(dp1680
sg83
g1674
sg76
(lp1681
g69
(g70
g71
NtRp1682
(dp1683
g74
(dp1684
g82
I3
ssg83
g1678
sg76
(lp1685
S'stable'
p1686
asbasbasbasbasbasbasbag69
(g85
g71
NtRp1687
(dp1688
g74
(dp1689
sg83
g712
sg76
(lp1690
g69
(g90
g71
NtRp1691
(dp1692
g74
(dp1693
g94
g95
ssg83
g1687
sg76
(lp1694
S'wsgi_errors'
p1695
asbag69
(g90
g71
NtRp1696
(dp1697
g74
(dp1698
g101
g102
ssg83
g1687
sg76
(lp1699
S':'
asbag69
(g90
g71
NtRp1700
(dp1701
g74
(dp1702
sg83
g1687
sg76
(lp1703
g69
(g70
g71
NtRp1704
(dp1705
g74
(dp1706
g82
I4
ssg83
g1700
sg76
(lp1707
S"<open file '<stderr>', mode 'w' at 0x7f635a603270>"
p1708
asbasbasbag69
(g85
g71
NtRp1709
(dp1710
g74
(dp1711
sg83
g712
sg76
(lp1712
g69
(g90
g71
NtRp1713
(dp1714
g74
(dp1715
g94
g95
ssg83
g1709
sg76
(lp1716
S'wsgi_file_wrapper'
p1717
asbag69
(g90
g71
NtRp1718
(dp1719
g74
(dp1720
g101
g102
ssg83
g1709
sg76
(lp1721
S':'
asbag69
(g90
g71
NtRp1722
(dp1723
g74
(dp1724
sg83
g1709
sg76
(lp1725
g69
(g70
g71
NtRp1726
(dp1727
g74
(dp1728
g82
I4
ssg83
g1722
sg76
(lp1729
S'<class wsgiref.util.FileWrapper at 0x2bb2598>'
p1730
asbasbasbag69
(g85
g71
NtRp1731
(dp1732
g74
(dp1733
sg83
g712
sg76
(lp1734
g69
(g90
g71
NtRp1735
(dp1736
g74
(dp1737
g94
g95
ssg83
g1731
sg76
(lp1738
S'wsgi_input'
p1739
asbag69
(g90
g71
NtRp1740
(dp1741
g74
(dp1742
g101
g102
ssg83
g1731
sg76
(lp1743
S':'
asbag69
(g90
g71
NtRp1744
(dp1745
g74
(dp1746
sg83
g1731
sg76
(lp1747
g69
(g70
g71
NtRp1748
(dp1749
g74
(dp1750
g82
I4
ssg83
g1744
sg76
(lp1751
S'<socket._fileobject object at 0x7f632835cbd0>'
p1752
asbasbasbag69
(g85
g71
NtRp1753
(dp1754
g74
(dp1755
sg83
g712
sg76
(lp1756
g69
(g90
g71
NtRp1757
(dp1758
g74
(dp1759
g94
g95
ssg83
g1753
sg76
(lp1760
S'wsgi_multiprocess'
p1761
asbag69
(g90
g71
NtRp1762
(dp1763
g74
(dp1764
g101
g102
ssg83
g1753
sg76
(lp1765
S':'
asbag69
(g90
g71
NtRp1766
(dp1767
g74
(dp1768
sg83
g1753
sg76
(lp1769
g69
(g70
g71
NtRp1770
(dp1771
g74
(dp1772
g82
I4
ssg83
g1766
sg76
(lp1773
g112
asbasbasbag69
(g85
g71
NtRp1774
(dp1775
g74
(dp1776
sg83
g712
sg76
(lp1777
g69
(g90
g71
NtRp1778
(dp1779
g74
(dp1780
g94
g95
ssg83
g1774
sg76
(lp1781
S'wsgi_multithread'
p1782
asbag69
(g90
g71
NtRp1783
(dp1784
g74
(dp1785
g101
g102
ssg83
g1774
sg76
(lp1786
S':'
asbag69
(g90
g71
NtRp1787
(dp1788
g74
(dp1789
sg83
g1774
sg76
(lp1790
g69
(g70
g71
NtRp1791
(dp1792
g74
(dp1793
g82
I4
ssg83
g1787
sg76
(lp1794
S'True'
p1795
asbasbasbag69
(g85
g71
NtRp1796
(dp1797
g74
(dp1798
sg83
g712
sg76
(lp1799
g69
(g90
g71
NtRp1800
(dp1801
g74
(dp1802
g94
g95
ssg83
g1796
sg76
(lp1803
S'wsgi_run_once'
p1804
asbag69
(g90
g71
NtRp1805
(dp1806
g74
(dp1807
g101
g102
ssg83
g1796
sg76
(lp1808
S':'
asbag69
(g90
g71
NtRp1809
(dp1810
g74
(dp1811
sg83
g1796
sg76
(lp1812
g69
(g70
g71
NtRp1813
(dp1814
g74
(dp1815
g82
I4
ssg83
g1809
sg76
(lp1816
g112
asbasbasbag69
(g85
g71
NtRp1817
(dp1818
g74
(dp1819
sg83
g712
sg76
(lp1820
g69
(g90
g71
NtRp1821
(dp1822
g74
(dp1823
g94
g95
ssg83
g1817
sg76
(lp1824
S'wsgi_url_scheme'
p1825
asbag69
(g90
g71
NtRp1826
(dp1827
g74
(dp1828
g101
g102
ssg83
g1817
sg76
(lp1829
S':'
asbag69
(g90
g71
NtRp1830
(dp1831
g74
(dp1832
sg83
g1817
sg76
(lp1833
g69
(g70
g71
NtRp1834
(dp1835
g74
(dp1836
g82
I4
ssg83
g1830
sg76
(lp1837
S'http'
p1838
asbasbasbag69
(g85
g71
NtRp1839
(dp1840
g74
(dp1841
sg83
g712
sg76
(lp1842
g69
(g90
g71
NtRp1843
(dp1844
g74
(dp1845
g94
g95
ssg83
g1839
sg76
(lp1846
S'wsgi_version'
p1847
asbag69
(g90
g71
NtRp1848
(dp1849
g74
(dp1850
g101
g102
ssg83
g1839
sg76
(lp1851
S':'
asbag69
(g90
g71
NtRp1852
(dp1853
g74
(dp1854
sg83
g1839
sg76
(lp1855
g69
(g70
g71
NtRp1856
(dp1857
g74
(dp1858
g82
I4
ssg83
g1852
sg76
(lp1859
g69
(g78
g71
NtRp1860
(dp1861
g74
(dp1862
g82
I3
ssg83
Nsg76
(lp1863
g69
(g85
g71
NtRp1864
(dp1865
g74
(dp1866
sg83
g1860
sg76
(lp1867
g69
(g90
g71
NtRp1868
(dp1869
g74
(dp1870
sg83
g1864
sg76
(lp1871
g69
(g70
g71
NtRp1872
(dp1873
g74
(dp1874
g82
I3
ssg83
g1868
sg76
(lp1875
S'1'
asbasbasbag69
(g85
g71
NtRp1876
(dp1877
g74
(dp1878
sg83
g1860
sg76
(lp1879
g69
(g90
g71
NtRp1880
(dp1881
g74
(dp1882
sg83
g1876
sg76
(lp1883
g69
(g70
g71
NtRp1884
(dp1885
g74
(dp1886
g82
I3
ssg83
g1880
sg76
(lp1887
S'0'
asbasbasbasbasbasbasbasbasbasbasbag69
(g85
g71
NtRp1888
(dp1889
g74
(dp1890
sg83
g79
sg76
(lp1891
g69
(g90
g71
NtRp1892
(dp1893
g74
(dp1894
g94
g95
ssg83
g1888
sg76
(lp1895
S'extension'
p1896
asbag69
(g90
g71
NtRp1897
(dp1898
g74
(dp1899
g101
g102
ssg83
g1888
sg76
(lp1900
S':'
asbag69
(g90
g71
NtRp1901
(dp1902
g74
(dp1903
sg83
g1888
sg76
(lp1904
g69
(g70
g71
NtRp1905
(dp1906
g74
(dp1907
g82
I5
ssg83
g1901
sg76
(lp1908
S'html'
p1909
asbasbasbag69
(g85
g71
NtRp1910
(dp1911
g74
(dp1912
sg83
g79
sg76
(lp1913
g69
(g90
g71
NtRp1914
(dp1915
g74
(dp1916
g94
g95
ssg83
g1910
sg76
(lp1917
S'folder'
p1918
asbag69
(g90
g71
NtRp1919
(dp1920
g74
(dp1921
g101
g102
ssg83
g1910
sg76
(lp1922
S':'
asbag69
(g90
g71
NtRp1923
(dp1924
g74
(dp1925
sg83
g1910
sg76
(lp1926
g69
(g70
g71
NtRp1927
(dp1928
g74
(dp1929
g82
I5
ssg83
g1923
sg76
(lp1930
S'/var/www/conferencia/applications/projeto/'
p1931
asbasbasbag69
(g85
g71
NtRp1932
(dp1933
g74
(dp1934
sg83
g79
sg76
(lp1935
g69
(g90
g71
NtRp1936
(dp1937
g74
(dp1938
g94
g95
ssg83
g1932
sg76
(lp1939
S'function'
p1940
asbag69
(g90
g71
NtRp1941
(dp1942
g74
(dp1943
g101
g102
ssg83
g1932
sg76
(lp1944
S':'
asbag69
(g90
g71
NtRp1945
(dp1946
g74
(dp1947
sg83
g1932
sg76
(lp1948
g69
(g70
g71
NtRp1949
(dp1950
g74
(dp1951
g82
I5
ssg83
g1945
sg76
(lp1952
S'show_servidor'
p1953
asbasbasbag69
(g85
g71
NtRp1954
(dp1955
g74
(dp1956
sg83
g79
sg76
(lp1957
g69
(g90
g71
NtRp1958
(dp1959
g74
(dp1960
g94
g95
ssg83
g1954
sg76
(lp1961
S'get_vars'
p1962
asbag69
(g90
g71
NtRp1963
(dp1964
g74
(dp1965
g101
g102
ssg83
g1954
sg76
(lp1966
S':'
asbag69
(g90
g71
NtRp1967
(dp1968
g74
(dp1969
sg83
g1954
sg76
(lp1970
g69
(g70
g71
NtRp1971
(dp1972
g74
(dp1973
g82
I5
ssg83
g1967
sg76
(lp1974
g69
(g78
g71
NtRp1975
(dp1976
g74
(dp1977
g82
I4
ssg83
Nsg76
(lp1978
sbasbasbasbag69
(g85
g71
NtRp1979
(dp1980
g74
(dp1981
sg83
g79
sg76
(lp1982
g69
(g90
g71
NtRp1983
(dp1984
g74
(dp1985
g94
g95
ssg83
g1979
sg76
(lp1986
S'global_settings'
p1987
asbag69
(g90
g71
NtRp1988
(dp1989
g74
(dp1990
g101
g102
ssg83
g1979
sg76
(lp1991
S':'
asbag69
(g90
g71
NtRp1992
(dp1993
g74
(dp1994
sg83
g1979
sg76
(lp1995
g69
(g70
g71
NtRp1996
(dp1997
g74
(dp1998
g82
I5
ssg83
g1992
sg76
(lp1999
g69
(g78
g71
NtRp2000
(dp2001
g74
(dp2002
g82
I4
ssg83
Nsg76
(lp2003
g69
(g85
g71
NtRp2004
(dp2005
g74
(dp2006
sg83
g2000
sg76
(lp2007
g69
(g90
g71
NtRp2008
(dp2009
g74
(dp2010
g94
g95
ssg83
g2004
sg76
(lp2011
g724
asbag69
(g90
g71
NtRp2012
(dp2013
g74
(dp2014
g101
g102
ssg83
g2004
sg76
(lp2015
S':'
asbag69
(g90
g71
NtRp2016
(dp2017
g74
(dp2018
sg83
g2004
sg76
(lp2019
g69
(g70
g71
NtRp2020
(dp2021
g74
(dp2022
g82
I4
ssg83
g2016
sg76
(lp2023
S"set(['/var/www/conferencia/applications/admin/', '/var/www/conferencia/applications/projeto/'])"
p2024
asbasbasbag69
(g85
g71
NtRp2025
(dp2026
g74
(dp2027
sg83
g2000
sg76
(lp2028
g69
(g90
g71
NtRp2029
(dp2030
g74
(dp2031
g94
g95
ssg83
g2025
sg76
(lp2032
g746
asbag69
(g90
g71
NtRp2033
(dp2034
g74
(dp2035
g101
g102
ssg83
g2025
sg76
(lp2036
S':'
asbag69
(g90
g71
NtRp2037
(dp2038
g74
(dp2039
sg83
g2025
sg76
(lp2040
g69
(g70
g71
NtRp2041
(dp2042
g74
(dp2043
g82
I4
ssg83
g2037
sg76
(lp2044
g759
asbasbasbag69
(g85
g71
NtRp2045
(dp2046
g74
(dp2047
sg83
g2000
sg76
(lp2048
g69
(g90
g71
NtRp2049
(dp2050
g74
(dp2051
g94
g95
ssg83
g2045
sg76
(lp2052
g768
asbag69
(g90
g71
NtRp2053
(dp2054
g74
(dp2055
g101
g102
ssg83
g2045
sg76
(lp2056
S':'
asbag69
(g90
g71
NtRp2057
(dp2058
g74
(dp2059
sg83
g2045
sg76
(lp2060
g69
(g70
g71
NtRp2061
(dp2062
g74
(dp2063
g82
I4
ssg83
g2057
sg76
(lp2064
g69
(g78
g71
NtRp2065
(dp2066
g74
(dp2067
g82
I3
ssg83
Nsg76
(lp2068
sbasbasbasbag69
(g85
g71
NtRp2069
(dp2070
g74
(dp2071
sg83
g2000
sg76
(lp2072
g69
(g90
g71
NtRp2073
(dp2074
g74
(dp2075
g94
g95
ssg83
g2069
sg76
(lp2076
g793
asbag69
(g90
g71
NtRp2077
(dp2078
g74
(dp2079
g101
g102
ssg83
g2069
sg76
(lp2080
S':'
asbag69
(g90
g71
NtRp2081
(dp2082
g74
(dp2083
sg83
g2069
sg76
(lp2084
g69
(g70
g71
NtRp2085
(dp2086
g74
(dp2087
g82
I4
ssg83
g2081
sg76
(lp2088
S"<Values at 0x2c3b248: {'verbose': False, 'ip': '127.0.0.1', 'with_scheduler': False, 'ips': [], 'shutdown_timeout': 5, 'taskbar': False, 'port': 8000, 'maxthreads': None, 'softcron': False, 'server_name': 'fernando-workstation', 'bpython': False, 'nogui': False, 'pid_filename': 'httpserver.pid', 'extcron': False, 'runcron': False, 'run_system_tests': False, 'test': None, 'folder': '/var/www/conferencia', 'config': '', 'minthreads': None, 'winservice': '', 'shell': None, 'run': '', 'log_filename': 'httpserver.log', 'debuglevel': 30, 'args': [''], 'socket_timeout': 5, 'ssl_ca_certificate': None, 'scheduler': None, 'profiler_filename': None, 'ssl_private_key': '', 'scheduler_groups': None, 'password': '123456', 'request_queue_size': 5, 'ssl_certificate': '', 'cronjob': False, 'numthreads': None, 'quiet': False, 'interfaces': None, 'import_models': False, 'timeout': 10, 'plain': False, 'nobanner': False}>"
p2089
asbasbasbag69
(g85
g71
NtRp2090
(dp2091
g74
(dp2092
sg83
g2000
sg76
(lp2093
g69
(g90
g71
NtRp2094
(dp2095
g74
(dp2096
g94
g95
ssg83
g2090
sg76
(lp2097
g859
asbag69
(g90
g71
NtRp2098
(dp2099
g74
(dp2100
g101
g102
ssg83
g2090
sg76
(lp2101
S':'
asbag69
(g90
g71
NtRp2102
(dp2103
g74
(dp2104
sg83
g2090
sg76
(lp2105
g69
(g70
g71
NtRp2106
(dp2107
g74
(dp2108
g82
I4
ssg83
g2102
sg76
(lp2109
S'set([])'
p2110
asbasbasbag69
(g85
g71
NtRp2111
(dp2112
g74
(dp2113
sg83
g2000
sg76
(lp2114
g69
(g90
g71
NtRp2115
(dp2116
g74
(dp2117
g94
g95
ssg83
g2111
sg76
(lp2118
g881
asbag69
(g90
g71
NtRp2119
(dp2120
g74
(dp2121
g101
g102
ssg83
g2111
sg76
(lp2122
S':'
asbag69
(g90
g71
NtRp2123
(dp2124
g74
(dp2125
sg83
g2111
sg76
(lp2126
g69
(g70
g71
NtRp2127
(dp2128
g74
(dp2129
g82
I4
ssg83
g2123
sg76
(lp2130
g112
asbasbasbag69
(g85
g71
NtRp2131
(dp2132
g74
(dp2133
sg83
g2000
sg76
(lp2134
g69
(g90
g71
NtRp2135
(dp2136
g74
(dp2137
g94
g95
ssg83
g2131
sg76
(lp2138
g902
asbag69
(g90
g71
NtRp2139
(dp2140
g74
(dp2141
g101
g102
ssg83
g2131
sg76
(lp2142
S':'
asbag69
(g90
g71
NtRp2143
(dp2144
g74
(dp2145
sg83
g2131
sg76
(lp2146
g69
(g70
g71
NtRp2147
(dp2148
g74
(dp2149
g82
I4
ssg83
g2143
sg76
(lp2150
g915
asbasbasbag69
(g85
g71
NtRp2151
(dp2152
g74
(dp2153
sg83
g2000
sg76
(lp2154
g69
(g90
g71
NtRp2155
(dp2156
g74
(dp2157
g94
g95
ssg83
g2151
sg76
(lp2158
g1208
asbag69
(g90
g71
NtRp2159
(dp2160
g74
(dp2161
g101
g102
ssg83
g2151
sg76
(lp2162
S':'
asbag69
(g90
g71
NtRp2163
(dp2164
g74
(dp2165
sg83
g2151
sg76
(lp2166
g69
(g70
g71
NtRp2167
(dp2168
g74
(dp2169
g82
I4
ssg83
g2163
sg76
(lp2170
g112
asbasbasbag69
(g85
g71
NtRp2171
(dp2172
g74
(dp2173
sg83
g2000
sg76
(lp2174
g69
(g90
g71
NtRp2175
(dp2176
g74
(dp2177
g94
g95
ssg83
g2171
sg76
(lp2178
g1229
asbag69
(g90
g71
NtRp2179
(dp2180
g74
(dp2181
g101
g102
ssg83
g2171
sg76
(lp2182
S':'
asbag69
(g90
g71
NtRp2183
(dp2184
g74
(dp2185
sg83
g2171
sg76
(lp2186
g69
(g70
g71
NtRp2187
(dp2188
g74
(dp2189
g82
I4
ssg83
g2183
sg76
(lp2190
g112
asbasbasbag69
(g85
g71
NtRp2191
(dp2192
g74
(dp2193
sg83
g2000
sg76
(lp2194
g69
(g90
g71
NtRp2195
(dp2196
g74
(dp2197
g94
g95
ssg83
g2191
sg76
(lp2198
g1250
asbag69
(g90
g71
NtRp2199
(dp2200
g74
(dp2201
g101
g102
ssg83
g2191
sg76
(lp2202
S':'
asbag69
(g90
g71
NtRp2203
(dp2204
g74
(dp2205
sg83
g2191
sg76
(lp2206
g69
(g70
g71
NtRp2207
(dp2208
g74
(dp2209
g82
I4
ssg83
g2203
sg76
(lp2210
g69
(g78
g71
NtRp2211
(dp2212
g74
(dp2213
g82
I3
ssg83
Nsg76
(lp2214
g69
(g85
g71
NtRp2215
(dp2216
g74
(dp2217
sg83
g2211
sg76
(lp2218
g69
(g90
g71
NtRp2219
(dp2220
g74
(dp2221
sg83
g2215
sg76
(lp2222
g69
(g70
g71
NtRp2223
(dp2224
g74
(dp2225
g82
I3
ssg83
g2219
sg76
(lp2226
g1279
asbasbasbag69
(g85
g71
NtRp2227
(dp2228
g74
(dp2229
sg83
g2211
sg76
(lp2230
g69
(g90
g71
NtRp2231
(dp2232
g74
(dp2233
sg83
g2227
sg76
(lp2234
g69
(g70
g71
NtRp2235
(dp2236
g74
(dp2237
g82
I3
ssg83
g2231
sg76
(lp2238
g1292
asbasbasbag69
(g85
g71
NtRp2239
(dp2240
g74
(dp2241
sg83
g2211
sg76
(lp2242
g69
(g90
g71
NtRp2243
(dp2244
g74
(dp2245
sg83
g2239
sg76
(lp2246
g69
(g70
g71
NtRp2247
(dp2248
g74
(dp2249
g82
I3
ssg83
g2243
sg76
(lp2250
g1305
asbasbasbag69
(g85
g71
NtRp2251
(dp2252
g74
(dp2253
sg83
g2211
sg76
(lp2254
g69
(g90
g71
NtRp2255
(dp2256
g74
(dp2257
sg83
g2251
sg76
(lp2258
g69
(g70
g71
NtRp2259
(dp2260
g74
(dp2261
g82
I3
ssg83
g2255
sg76
(lp2262
g1318
asbasbasbasbasbasbasbag69
(g85
g71
NtRp2263
(dp2264
g74
(dp2265
sg83
g2000
sg76
(lp2266
g69
(g90
g71
NtRp2267
(dp2268
g74
(dp2269
g94
g95
ssg83
g2263
sg76
(lp2270
g1608
asbag69
(g90
g71
NtRp2271
(dp2272
g74
(dp2273
g101
g102
ssg83
g2263
sg76
(lp2274
S':'
asbag69
(g90
g71
NtRp2275
(dp2276
g74
(dp2277
sg83
g2263
sg76
(lp2278
g69
(g70
g71
NtRp2279
(dp2280
g74
(dp2281
g82
I4
ssg83
g2275
sg76
(lp2282
g69
(g78
g71
NtRp2283
(dp2284
g74
(dp2285
g82
I3
ssg83
Nsg76
(lp2286
g69
(g85
g71
NtRp2287
(dp2288
g74
(dp2289
sg83
g2283
sg76
(lp2290
g69
(g90
g71
NtRp2291
(dp2292
g74
(dp2293
sg83
g2287
sg76
(lp2294
g69
(g70
g71
NtRp2295
(dp2296
g74
(dp2297
g82
I3
ssg83
g2291
sg76
(lp2298
S'2'
asbasbasbag69
(g85
g71
NtRp2299
(dp2300
g74
(dp2301
sg83
g2283
sg76
(lp2302
g69
(g90
g71
NtRp2303
(dp2304
g74
(dp2305
sg83
g2299
sg76
(lp2306
g69
(g70
g71
NtRp2307
(dp2308
g74
(dp2309
g82
I3
ssg83
g2303
sg76
(lp2310
S'3'
asbasbasbag69
(g85
g71
NtRp2311
(dp2312
g74
(dp2313
sg83
g2283
sg76
(lp2314
g69
(g90
g71
NtRp2315
(dp2316
g74
(dp2317
sg83
g2311
sg76
(lp2318
g69
(g70
g71
NtRp2319
(dp2320
g74
(dp2321
g82
I3
ssg83
g2315
sg76
(lp2322
S'2'
asbasbasbag69
(g85
g71
NtRp2323
(dp2324
g74
(dp2325
sg83
g2283
sg76
(lp2326
g69
(g90
g71
NtRp2327
(dp2328
g74
(dp2329
sg83
g2323
sg76
(lp2330
g69
(g70
g71
NtRp2331
(dp2332
g74
(dp2333
g82
I3
ssg83
g2327
sg76
(lp2334
S'datetime.datetime(2012, 12, 17, 15, 3, 30)'
p2335
asbasbasbag69
(g85
g71
NtRp2336
(dp2337
g74
(dp2338
sg83
g2283
sg76
(lp2339
g69
(g90
g71
NtRp2340
(dp2341
g74
(dp2342
sg83
g2336
sg76
(lp2343
g69
(g70
g71
NtRp2344
(dp2345
g74
(dp2346
g82
I3
ssg83
g2340
sg76
(lp2347
g1686
asbasbasbasbasbasbasbasbasbasbasbag69
(g85
g71
NtRp2348
(dp2349
g74
(dp2350
sg83
g79
sg76
(lp2351
g69
(g90
g71
NtRp2352
(dp2353
g74
(dp2354
g94
g95
ssg83
g2348
sg76
(lp2355
S'is_https'
p2356
asbag69
(g90
g71
NtRp2357
(dp2358
g74
(dp2359
g101
g102
ssg83
g2348
sg76
(lp2360
S':'
asbag69
(g90
g71
NtRp2361
(dp2362
g74
(dp2363
sg83
g2348
sg76
(lp2364
g69
(g70
g71
NtRp2365
(dp2366
g74
(dp2367
g82
I5
ssg83
g2361
sg76
(lp2368
g112
asbasbasbag69
(g85
g71
NtRp2369
(dp2370
g74
(dp2371
sg83
g79
sg76
(lp2372
g69
(g90
g71
NtRp2373
(dp2374
g74
(dp2375
g94
g95
ssg83
g2369
sg76
(lp2376
S'is_local'
p2377
asbag69
(g90
g71
NtRp2378
(dp2379
g74
(dp2380
g101
g102
ssg83
g2369
sg76
(lp2381
S':'
asbag69
(g90
g71
NtRp2382
(dp2383
g74
(dp2384
sg83
g2369
sg76
(lp2385
g69
(g70
g71
NtRp2386
(dp2387
g74
(dp2388
g82
I5
ssg83
g2382
sg76
(lp2389
g1795
asbasbasbag69
(g85
g71
NtRp2390
(dp2391
g74
(dp2392
sg83
g79
sg76
(lp2393
g69
(g90
g71
NtRp2394
(dp2395
g74
(dp2396
g94
g95
ssg83
g2390
sg76
(lp2397
S'is_restful'
p2398
asbag69
(g90
g71
NtRp2399
(dp2400
g74
(dp2401
g101
g102
ssg83
g2390
sg76
(lp2402
S':'
asbag69
(g90
g71
NtRp2403
(dp2404
g74
(dp2405
sg83
g2390
sg76
(lp2406
g69
(g70
g71
NtRp2407
(dp2408
g74
(dp2409
g82
I5
ssg83
g2403
sg76
(lp2410
g112
asbasbasbag69
(g85
g71
NtRp2411
(dp2412
g74
(dp2413
sg83
g79
sg76
(lp2414
g69
(g90
g71
NtRp2415
(dp2416
g74
(dp2417
g94
g95
ssg83
g2411
sg76
(lp2418
S'now'
p2419
asbag69
(g90
g71
NtRp2420
(dp2421
g74
(dp2422
g101
g102
ssg83
g2411
sg76
(lp2423
S':'
asbag69
(g90
g71
NtRp2424
(dp2425
g74
(dp2426
sg83
g2411
sg76
(lp2427
g69
(g70
g71
NtRp2428
(dp2429
g74
(dp2430
g82
I5
ssg83
g2424
sg76
(lp2431
S'datetime.datetime(2013, 4, 3, 14, 20, 31, 965611)'
p2432
asbasbasbag69
(g85
g71
NtRp2433
(dp2434
g74
(dp2435
sg83
g79
sg76
(lp2436
g69
(g90
g71
NtRp2437
(dp2438
g74
(dp2439
g94
g95
ssg83
g2433
sg76
(lp2440
S'post_vars'
p2441
asbag69
(g90
g71
NtRp2442
(dp2443
g74
(dp2444
g101
g102
ssg83
g2433
sg76
(lp2445
S':'
asbag69
(g90
g71
NtRp2446
(dp2447
g74
(dp2448
sg83
g2433
sg76
(lp2449
g69
(g70
g71
NtRp2450
(dp2451
g74
(dp2452
g82
I5
ssg83
g2446
sg76
(lp2453
g69
(g78
g71
NtRp2454
(dp2455
g74
(dp2456
g82
I4
ssg83
Nsg76
(lp2457
g69
(g85
g71
NtRp2458
(dp2459
g74
(dp2460
sg83
g2454
sg76
(lp2461
g69
(g90
g71
NtRp2462
(dp2463
g74
(dp2464
g94
g95
ssg83
g2458
sg76
(lp2465
S'admin_user'
p2466
asbag69
(g90
g71
NtRp2467
(dp2468
g74
(dp2469
g101
g102
ssg83
g2458
sg76
(lp2470
S':'
asbag69
(g90
g71
NtRp2471
(dp2472
g74
(dp2473
sg83
g2458
sg76
(lp2474
g69
(g70
g71
NtRp2475
(dp2476
g74
(dp2477
g82
I4
ssg83
g2471
sg76
(lp2478
S'4'
asbasbasbag69
(g85
g71
NtRp2479
(dp2480
g74
(dp2481
sg83
g2454
sg76
(lp2482
g69
(g90
g71
NtRp2483
(dp2484
g74
(dp2485
g94
g95
ssg83
g2479
sg76
(lp2486
S'endtime'
p2487
asbag69
(g90
g71
NtRp2488
(dp2489
g74
(dp2490
g101
g102
ssg83
g2479
sg76
(lp2491
S':'
asbag69
(g90
g71
NtRp2492
(dp2493
g74
(dp2494
sg83
g2479
sg76
(lp2495
g69
(g70
g71
NtRp2496
(dp2497
g74
(dp2498
g82
I4
ssg83
g2492
sg76
(lp2499
S'2013-04-11 14:14:05'
p2500
asbasbasbag69
(g85
g71
NtRp2501
(dp2502
g74
(dp2503
sg83
g2454
sg76
(lp2504
g69
(g90
g71
NtRp2505
(dp2506
g74
(dp2507
g94
g95
ssg83
g2501
sg76
(lp2508
S'membros_user'
p2509
asbag69
(g90
g71
NtRp2510
(dp2511
g74
(dp2512
g101
g102
ssg83
g2501
sg76
(lp2513
S':'
asbag69
(g90
g71
NtRp2514
(dp2515
g74
(dp2516
sg83
g2501
sg76
(lp2517
g69
(g70
g71
NtRp2518
(dp2519
g74
(dp2520
g82
I4
ssg83
g2514
sg76
(lp2521
g69
(g78
g71
NtRp2522
(dp2523
g74
(dp2524
g82
I3
ssg83
Nsg76
(lp2525
g69
(g85
g71
NtRp2526
(dp2527
g74
(dp2528
sg83
g2522
sg76
(lp2529
g69
(g90
g71
NtRp2530
(dp2531
g74
(dp2532
sg83
g2526
sg76
(lp2533
g69
(g70
g71
NtRp2534
(dp2535
g74
(dp2536
g82
I3
ssg83
g2530
sg76
(lp2537
S'4'
asbasbasbag69
(g85
g71
NtRp2538
(dp2539
g74
(dp2540
sg83
g2522
sg76
(lp2541
g69
(g90
g71
NtRp2542
(dp2543
g74
(dp2544
sg83
g2538
sg76
(lp2545
g69
(g70
g71
NtRp2546
(dp2547
g74
(dp2548
g82
I3
ssg83
g2542
sg76
(lp2549
S'2'
asbasbasbag69
(g85
g71
NtRp2550
(dp2551
g74
(dp2552
sg83
g2522
sg76
(lp2553
g69
(g90
g71
NtRp2554
(dp2555
g74
(dp2556
sg83
g2550
sg76
(lp2557
g69
(g70
g71
NtRp2558
(dp2559
g74
(dp2560
g82
I3
ssg83
g2554
sg76
(lp2561
S'1'
asbasbasbag69
(g85
g71
NtRp2562
(dp2563
g74
(dp2564
sg83
g2522
sg76
(lp2565
g69
(g90
g71
NtRp2566
(dp2567
g74
(dp2568
sg83
g2562
sg76
(lp2569
g69
(g70
g71
NtRp2570
(dp2571
g74
(dp2572
g82
I3
ssg83
g2566
sg76
(lp2573
S'3'
asbasbasbasbasbasbasbag69
(g85
g71
NtRp2574
(dp2575
g74
(dp2576
sg83
g2454
sg76
(lp2577
g69
(g90
g71
NtRp2578
(dp2579
g74
(dp2580
g94
g95
ssg83
g2574
sg76
(lp2581
S'starttime'
p2582
asbag69
(g90
g71
NtRp2583
(dp2584
g74
(dp2585
g101
g102
ssg83
g2574
sg76
(lp2586
S':'
asbag69
(g90
g71
NtRp2587
(dp2588
g74
(dp2589
sg83
g2574
sg76
(lp2590
g69
(g70
g71
NtRp2591
(dp2592
g74
(dp2593
g82
I4
ssg83
g2587
sg76
(lp2594
S'2013-04-11 14:13:50'
p2595
asbasbasbasbasbasbasbag69
(g85
g71
NtRp2596
(dp2597
g74
(dp2598
sg83
g79
sg76
(lp2599
g69
(g90
g71
NtRp2600
(dp2601
g74
(dp2602
g94
g95
ssg83
g2596
sg76
(lp2603
S'url'
p2604
asbag69
(g90
g71
NtRp2605
(dp2606
g74
(dp2607
g101
g102
ssg83
g2596
sg76
(lp2608
S':'
asbag69
(g90
g71
NtRp2609
(dp2610
g74
(dp2611
sg83
g2596
sg76
(lp2612
g69
(g70
g71
NtRp2613
(dp2614
g74
(dp2615
g82
I5
ssg83
g2609
sg76
(lp2616
g1340
asbasbasbag69
(g85
g71
NtRp2617
(dp2618
g74
(dp2619
sg83
g79
sg76
(lp2620
g69
(g90
g71
NtRp2621
(dp2622
g74
(dp2623
g94
g95
ssg83
g2617
sg76
(lp2624
S'utcnow'
p2625
asbag69
(g90
g71
NtRp2626
(dp2627
g74
(dp2628
g101
g102
ssg83
g2617
sg76
(lp2629
S':'
asbag69
(g90
g71
NtRp2630
(dp2631
g74
(dp2632
sg83
g2617
sg76
(lp2633
g69
(g70
g71
NtRp2634
(dp2635
g74
(dp2636
g82
I5
ssg83
g2630
sg76
(lp2637
S'datetime.datetime(2013, 4, 3, 17, 20, 31, 965676)'
p2638
asbasbasbag69
(g85
g71
NtRp2639
(dp2640
g74
(dp2641
sg83
g79
sg76
(lp2642
g69
(g90
g71
NtRp2643
(dp2644
g74
(dp2645
g94
g95
ssg83
g2639
sg76
(lp2646
S'uuid'
p2647
asbag69
(g90
g71
NtRp2648
(dp2649
g74
(dp2650
g101
g102
ssg83
g2639
sg76
(lp2651
S':'
asbag69
(g90
g71
NtRp2652
(dp2653
g74
(dp2654
sg83
g2639
sg76
(lp2655
g69
(g70
g71
NtRp2656
(dp2657
g74
(dp2658
g82
I5
ssg83
g2652
sg76
(lp2659
S'projeto/127.0.0.1.2013-04-03.14-20-31.8450f8bd-f18c-489c-ac92-4605e00b3815'
p2660
asbasbasbag69
(g85
g71
NtRp2661
(dp2662
g74
(dp2663
sg83
g79
sg76
(lp2664
g69
(g90
g71
NtRp2665
(dp2666
g74
(dp2667
g94
g95
ssg83
g2661
sg76
(lp2668
S'vars'
p2669
asbag69
(g90
g71
NtRp2670
(dp2671
g74
(dp2672
g101
g102
ssg83
g2661
sg76
(lp2673
S':'
asbag69
(g90
g71
NtRp2674
(dp2675
g74
(dp2676
sg83
g2661
sg76
(lp2677
g69
(g70
g71
NtRp2678
(dp2679
g74
(dp2680
g82
I5
ssg83
g2674
sg76
(lp2681
g69
(g78
g71
NtRp2682
(dp2683
g74
(dp2684
g82
I4
ssg83
Nsg76
(lp2685
g69
(g85
g71
NtRp2686
(dp2687
g74
(dp2688
sg83
g2682
sg76
(lp2689
g69
(g90
g71
NtRp2690
(dp2691
g74
(dp2692
g94
g95
ssg83
g2686
sg76
(lp2693
g2466
asbag69
(g90
g71
NtRp2694
(dp2695
g74
(dp2696
g101
g102
ssg83
g2686
sg76
(lp2697
S':'
asbag69
(g90
g71
NtRp2698
(dp2699
g74
(dp2700
sg83
g2686
sg76
(lp2701
g69
(g70
g71
NtRp2702
(dp2703
g74
(dp2704
g82
I4
ssg83
g2698
sg76
(lp2705
S'4'
asbasbasbag69
(g85
g71
NtRp2706
(dp2707
g74
(dp2708
sg83
g2682
sg76
(lp2709
g69
(g90
g71
NtRp2710
(dp2711
g74
(dp2712
g94
g95
ssg83
g2706
sg76
(lp2713
g2487
asbag69
(g90
g71
NtRp2714
(dp2715
g74
(dp2716
g101
g102
ssg83
g2706
sg76
(lp2717
S':'
asbag69
(g90
g71
NtRp2718
(dp2719
g74
(dp2720
sg83
g2706
sg76
(lp2721
g69
(g70
g71
NtRp2722
(dp2723
g74
(dp2724
g82
I4
ssg83
g2718
sg76
(lp2725
g2500
asbasbasbag69
(g85
g71
NtRp2726
(dp2727
g74
(dp2728
sg83
g2682
sg76
(lp2729
g69
(g90
g71
NtRp2730
(dp2731
g74
(dp2732
g94
g95
ssg83
g2726
sg76
(lp2733
g2509
asbag69
(g90
g71
NtRp2734
(dp2735
g74
(dp2736
g101
g102
ssg83
g2726
sg76
(lp2737
S':'
asbag69
(g90
g71
NtRp2738
(dp2739
g74
(dp2740
sg83
g2726
sg76
(lp2741
g69
(g70
g71
NtRp2742
(dp2743
g74
(dp2744
g82
I4
ssg83
g2738
sg76
(lp2745
g69
(g78
g71
NtRp2746
(dp2747
g74
(dp2748
g82
I3
ssg83
Nsg76
(lp2749
g69
(g85
g71
NtRp2750
(dp2751
g74
(dp2752
sg83
g2746
sg76
(lp2753
g69
(g90
g71
NtRp2754
(dp2755
g74
(dp2756
sg83
g2750
sg76
(lp2757
g69
(g70
g71
NtRp2758
(dp2759
g74
(dp2760
g82
I3
ssg83
g2754
sg76
(lp2761
S'4'
asbasbasbag69
(g85
g71
NtRp2762
(dp2763
g74
(dp2764
sg83
g2746
sg76
(lp2765
g69
(g90
g71
NtRp2766
(dp2767
g74
(dp2768
sg83
g2762
sg76
(lp2769
g69
(g70
g71
NtRp2770
(dp2771
g74
(dp2772
g82
I3
ssg83
g2766
sg76
(lp2773
S'2'
asbasbasbag69
(g85
g71
NtRp2774
(dp2775
g74
(dp2776
sg83
g2746
sg76
(lp2777
g69
(g90
g71
NtRp2778
(dp2779
g74
(dp2780
sg83
g2774
sg76
(lp2781
g69
(g70
g71
NtRp2782
(dp2783
g74
(dp2784
g82
I3
ssg83
g2778
sg76
(lp2785
S'1'
asbasbasbag69
(g85
g71
NtRp2786
(dp2787
g74
(dp2788
sg83
g2746
sg76
(lp2789
g69
(g90
g71
NtRp2790
(dp2791
g74
(dp2792
sg83
g2786
sg76
(lp2793
g69
(g70
g71
NtRp2794
(dp2795
g74
(dp2796
g82
I3
ssg83
g2790
sg76
(lp2797
S'3'
asbasbasbasbasbasbasbag69
(g85
g71
NtRp2798
(dp2799
g74
(dp2800
sg83
g2682
sg76
(lp2801
g69
(g90
g71
NtRp2802
(dp2803
g74
(dp2804
g94
g95
ssg83
g2798
sg76
(lp2805
g2582
asbag69
(g90
g71
NtRp2806
(dp2807
g74
(dp2808
g101
g102
ssg83
g2798
sg76
(lp2809
S':'
asbag69
(g90
g71
NtRp2810
(dp2811
g74
(dp2812
sg83
g2798
sg76
(lp2813
g69
(g70
g71
NtRp2814
(dp2815
g74
(dp2816
g82
I4
ssg83
g2810
sg76
(lp2817
g2595
asbasbasbasbasbasbasbag69
(g85
g71
NtRp2818
(dp2819
g74
(dp2820
sg83
g79
sg76
(lp2821
g69
(g90
g71
NtRp2822
(dp2823
g74
(dp2824
g94
g95
ssg83
g2818
sg76
(lp2825
S'wsgi'
p2826
asbag69
(g90
g71
NtRp2827
(dp2828
g74
(dp2829
g101
g102
ssg83
g2818
sg76
(lp2830
S':'
asbag69
(g90
g71
NtRp2831
(dp2832
g74
(dp2833
sg83
g2818
sg76
(lp2834
g69
(g70
g71
NtRp2835
(dp2836
g74
(dp2837
g82
I5
ssg83
g2831
sg76
(lp2838
g69
(g78
g71
NtRp2839
(dp2840
g74
(dp2841
g82
I4
ssg83
Nsg76
(lp2842
g69
(g85
g71
NtRp2843
(dp2844
g74
(dp2845
sg83
g2839
sg76
(lp2846
g69
(g90
g71
NtRp2847
(dp2848
g74
(dp2849
g94
g95
ssg83
g2843
sg76
(lp2850
S'environ'
p2851
asbag69
(g90
g71
NtRp2852
(dp2853
g74
(dp2854
g101
g102
ssg83
g2843
sg76
(lp2855
S':'
asbag69
(g90
g71
NtRp2856
(dp2857
g74
(dp2858
sg83
g2843
sg76
(lp2859
g69
(g70
g71
NtRp2860
(dp2861
g74
(dp2862
g82
I4
ssg83
g2856
sg76
(lp2863
g69
(g78
g71
NtRp2864
(dp2865
g74
(dp2866
g82
I3
ssg83
Nsg76
(lp2867
g69
(g85
g71
NtRp2868
(dp2869
g74
(dp2870
sg83
g2864
sg76
(lp2871
g69
(g90
g71
NtRp2872
(dp2873
g74
(dp2874
g94
g95
ssg83
g2868
sg76
(lp2875
S'CONTENT_LENGTH'
p2876
asbag69
(g90
g71
NtRp2877
(dp2878
g74
(dp2879
g101
g102
ssg83
g2868
sg76
(lp2880
S':'
asbag69
(g90
g71
NtRp2881
(dp2882
g74
(dp2883
sg83
g2868
sg76
(lp2884
g69
(g70
g71
NtRp2885
(dp2886
g74
(dp2887
g82
I3
ssg83
g2881
sg76
(lp2888
g828
asbasbasbag69
(g85
g71
NtRp2889
(dp2890
g74
(dp2891
sg83
g2864
sg76
(lp2892
g69
(g90
g71
NtRp2893
(dp2894
g74
(dp2895
g94
g95
ssg83
g2889
sg76
(lp2896
S'CONTENT_TYPE'
p2897
asbag69
(g90
g71
NtRp2898
(dp2899
g74
(dp2900
g101
g102
ssg83
g2889
sg76
(lp2901
S':'
asbag69
(g90
g71
NtRp2902
(dp2903
g74
(dp2904
sg83
g2889
sg76
(lp2905
g69
(g70
g71
NtRp2906
(dp2907
g74
(dp2908
g82
I3
ssg83
g2902
sg76
(lp2909
g850
asbasbasbag69
(g85
g71
NtRp2910
(dp2911
g74
(dp2912
sg83
g2864
sg76
(lp2913
g69
(g90
g71
NtRp2914
(dp2915
g74
(dp2916
g94
g95
ssg83
g2910
sg76
(lp2917
S'HTTP_ACCEPT'
p2918
asbag69
(g90
g71
NtRp2919
(dp2920
g74
(dp2921
g101
g102
ssg83
g2910
sg76
(lp2922
S':'
asbag69
(g90
g71
NtRp2923
(dp2924
g74
(dp2925
sg83
g2910
sg76
(lp2926
g69
(g70
g71
NtRp2927
(dp2928
g74
(dp2929
g82
I3
ssg83
g2923
sg76
(lp2930
g937
asbasbasbag69
(g85
g71
NtRp2931
(dp2932
g74
(dp2933
sg83
g2864
sg76
(lp2934
g69
(g90
g71
NtRp2935
(dp2936
g74
(dp2937
g94
g95
ssg83
g2931
sg76
(lp2938
S'HTTP_ACCEPT_CHARSET'
p2939
asbag69
(g90
g71
NtRp2940
(dp2941
g74
(dp2942
g101
g102
ssg83
g2931
sg76
(lp2943
S':'
asbag69
(g90
g71
NtRp2944
(dp2945
g74
(dp2946
sg83
g2931
sg76
(lp2947
g69
(g70
g71
NtRp2948
(dp2949
g74
(dp2950
g82
I3
ssg83
g2944
sg76
(lp2951
g959
asbasbasbag69
(g85
g71
NtRp2952
(dp2953
g74
(dp2954
sg83
g2864
sg76
(lp2955
g69
(g90
g71
NtRp2956
(dp2957
g74
(dp2958
g94
g95
ssg83
g2952
sg76
(lp2959
S'HTTP_ACCEPT_ENCODING'
p2960
asbag69
(g90
g71
NtRp2961
(dp2962
g74
(dp2963
g101
g102
ssg83
g2952
sg76
(lp2964
S':'
asbag69
(g90
g71
NtRp2965
(dp2966
g74
(dp2967
sg83
g2952
sg76
(lp2968
g69
(g70
g71
NtRp2969
(dp2970
g74
(dp2971
g82
I3
ssg83
g2965
sg76
(lp2972
g981
asbasbasbag69
(g85
g71
NtRp2973
(dp2974
g74
(dp2975
sg83
g2864
sg76
(lp2976
g69
(g90
g71
NtRp2977
(dp2978
g74
(dp2979
g94
g95
ssg83
g2973
sg76
(lp2980
S'HTTP_ACCEPT_LANGUAGE'
p2981
asbag69
(g90
g71
NtRp2982
(dp2983
g74
(dp2984
g101
g102
ssg83
g2973
sg76
(lp2985
S':'
asbag69
(g90
g71
NtRp2986
(dp2987
g74
(dp2988
sg83
g2973
sg76
(lp2989
g69
(g70
g71
NtRp2990
(dp2991
g74
(dp2992
g82
I3
ssg83
g2986
sg76
(lp2993
g1003
asbasbasbag69
(g85
g71
NtRp2994
(dp2995
g74
(dp2996
sg83
g2864
sg76
(lp2997
g69
(g90
g71
NtRp2998
(dp2999
g74
(dp3000
g94
g95
ssg83
g2994
sg76
(lp3001
S'HTTP_CACHE_CONTROL'
p3002
asbag69
(g90
g71
NtRp3003
(dp3004
g74
(dp3005
g101
g102
ssg83
g2994
sg76
(lp3006
S':'
asbag69
(g90
g71
NtRp3007
(dp3008
g74
(dp3009
sg83
g2994
sg76
(lp3010
g69
(g70
g71
NtRp3011
(dp3012
g74
(dp3013
g82
I3
ssg83
g3007
sg76
(lp3014
g1025
asbasbasbag69
(g85
g71
NtRp3015
(dp3016
g74
(dp3017
sg83
g2864
sg76
(lp3018
g69
(g90
g71
NtRp3019
(dp3020
g74
(dp3021
g94
g95
ssg83
g3015
sg76
(lp3022
S'HTTP_CONNECTION'
p3023
asbag69
(g90
g71
NtRp3024
(dp3025
g74
(dp3026
g101
g102
ssg83
g3015
sg76
(lp3027
S':'
asbag69
(g90
g71
NtRp3028
(dp3029
g74
(dp3030
sg83
g3015
sg76
(lp3031
g69
(g70
g71
NtRp3032
(dp3033
g74
(dp3034
g82
I3
ssg83
g3028
sg76
(lp3035
g1047
asbasbasbag69
(g85
g71
NtRp3036
(dp3037
g74
(dp3038
sg83
g2864
sg76
(lp3039
g69
(g90
g71
NtRp3040
(dp3041
g74
(dp3042
g94
g95
ssg83
g3036
sg76
(lp3043
S'HTTP_CONTENT_LENGTH'
p3044
asbag69
(g90
g71
NtRp3045
(dp3046
g74
(dp3047
g101
g102
ssg83
g3036
sg76
(lp3048
S':'
asbag69
(g90
g71
NtRp3049
(dp3050
g74
(dp3051
sg83
g3036
sg76
(lp3052
g69
(g70
g71
NtRp3053
(dp3054
g74
(dp3055
g82
I3
ssg83
g3049
sg76
(lp3056
g828
asbasbasbag69
(g85
g71
NtRp3057
(dp3058
g74
(dp3059
sg83
g2864
sg76
(lp3060
g69
(g90
g71
NtRp3061
(dp3062
g74
(dp3063
g94
g95
ssg83
g3057
sg76
(lp3064
S'HTTP_CONTENT_TYPE'
p3065
asbag69
(g90
g71
NtRp3066
(dp3067
g74
(dp3068
g101
g102
ssg83
g3057
sg76
(lp3069
S':'
asbag69
(g90
g71
NtRp3070
(dp3071
g74
(dp3072
sg83
g3057
sg76
(lp3073
g69
(g70
g71
NtRp3074
(dp3075
g74
(dp3076
g82
I3
ssg83
g3070
sg76
(lp3077
g850
asbasbasbag69
(g85
g71
NtRp3078
(dp3079
g74
(dp3080
sg83
g2864
sg76
(lp3081
g69
(g90
g71
NtRp3082
(dp3083
g74
(dp3084
g94
g95
ssg83
g3078
sg76
(lp3085
S'HTTP_COOKIE'
p3086
asbag69
(g90
g71
NtRp3087
(dp3088
g74
(dp3089
g101
g102
ssg83
g3078
sg76
(lp3090
S':'
asbag69
(g90
g71
NtRp3091
(dp3092
g74
(dp3093
sg83
g3078
sg76
(lp3094
g69
(g70
g71
NtRp3095
(dp3096
g74
(dp3097
g82
I3
ssg83
g3091
sg76
(lp3098
g1111
asbasbasbag69
(g85
g71
NtRp3099
(dp3100
g74
(dp3101
sg83
g2864
sg76
(lp3102
g69
(g90
g71
NtRp3103
(dp3104
g74
(dp3105
g94
g95
ssg83
g3099
sg76
(lp3106
S'HTTP_HOST'
p3107
asbag69
(g90
g71
NtRp3108
(dp3109
g74
(dp3110
g101
g102
ssg83
g3099
sg76
(lp3111
S':'
asbag69
(g90
g71
NtRp3112
(dp3113
g74
(dp3114
sg83
g3099
sg76
(lp3115
g69
(g70
g71
NtRp3116
(dp3117
g74
(dp3118
g82
I3
ssg83
g3112
sg76
(lp3119
g1133
asbasbasbag69
(g85
g71
NtRp3120
(dp3121
g74
(dp3122
sg83
g2864
sg76
(lp3123
g69
(g90
g71
NtRp3124
(dp3125
g74
(dp3126
g94
g95
ssg83
g3120
sg76
(lp3127
S'HTTP_ORIGIN'
p3128
asbag69
(g90
g71
NtRp3129
(dp3130
g74
(dp3131
g101
g102
ssg83
g3120
sg76
(lp3132
S':'
asbag69
(g90
g71
NtRp3133
(dp3134
g74
(dp3135
sg83
g3120
sg76
(lp3136
g69
(g70
g71
NtRp3137
(dp3138
g74
(dp3139
g82
I3
ssg83
g3133
sg76
(lp3140
g1155
asbasbasbag69
(g85
g71
NtRp3141
(dp3142
g74
(dp3143
sg83
g2864
sg76
(lp3144
g69
(g90
g71
NtRp3145
(dp3146
g74
(dp3147
g94
g95
ssg83
g3141
sg76
(lp3148
S'HTTP_REFERER'
p3149
asbag69
(g90
g71
NtRp3150
(dp3151
g74
(dp3152
g101
g102
ssg83
g3141
sg76
(lp3153
S':'
asbag69
(g90
g71
NtRp3154
(dp3155
g74
(dp3156
sg83
g3141
sg76
(lp3157
g69
(g70
g71
NtRp3158
(dp3159
g74
(dp3160
g82
I3
ssg83
g3154
sg76
(lp3161
g1177
asbasbasbag69
(g85
g71
NtRp3162
(dp3163
g74
(dp3164
sg83
g2864
sg76
(lp3165
g69
(g90
g71
NtRp3166
(dp3167
g74
(dp3168
g94
g95
ssg83
g3162
sg76
(lp3169
S'HTTP_USER_AGENT'
p3170
asbag69
(g90
g71
NtRp3171
(dp3172
g74
(dp3173
g101
g102
ssg83
g3162
sg76
(lp3174
S':'
asbag69
(g90
g71
NtRp3175
(dp3176
g74
(dp3177
sg83
g3162
sg76
(lp3178
g69
(g70
g71
NtRp3179
(dp3180
g74
(dp3181
g82
I3
ssg83
g3175
sg76
(lp3182
g1199
asbasbasbag69
(g85
g71
NtRp3183
(dp3184
g74
(dp3185
sg83
g2864
sg76
(lp3186
g69
(g90
g71
NtRp3187
(dp3188
g74
(dp3189
g94
g95
ssg83
g3183
sg76
(lp3190
S'PATH_INFO'
p3191
asbag69
(g90
g71
NtRp3192
(dp3193
g74
(dp3194
g101
g102
ssg83
g3183
sg76
(lp3195
S':'
asbag69
(g90
g71
NtRp3196
(dp3197
g74
(dp3198
sg83
g3183
sg76
(lp3199
g69
(g70
g71
NtRp3200
(dp3201
g74
(dp3202
g82
I3
ssg83
g3196
sg76
(lp3203
g1340
asbasbasbag69
(g85
g71
NtRp3204
(dp3205
g74
(dp3206
sg83
g2864
sg76
(lp3207
g69
(g90
g71
NtRp3208
(dp3209
g74
(dp3210
g94
g95
ssg83
g3204
sg76
(lp3211
S'QUERY_STRING'
p3212
asbag69
(g90
g71
NtRp3213
(dp3214
g74
(dp3215
g101
g102
ssg83
g3204
sg76
(lp3216
S':'
asbag69
(g90
g71
NtRp3217
(dp3218
g74
(dp3219
sg83
g3204
sg76
(lp3220
g69
(g70
g71
NtRp3221
(dp3222
g74
(dp3223
g82
I3
ssg83
g3217
sg76
(lp3224
S''
asbasbasbag69
(g85
g71
NtRp3225
(dp3226
g74
(dp3227
sg83
g2864
sg76
(lp3228
g69
(g90
g71
NtRp3229
(dp3230
g74
(dp3231
g94
g95
ssg83
g3225
sg76
(lp3232
S'REMOTE_ADDR'
p3233
asbag69
(g90
g71
NtRp3234
(dp3235
g74
(dp3236
g101
g102
ssg83
g3225
sg76
(lp3237
S':'
asbag69
(g90
g71
NtRp3238
(dp3239
g74
(dp3240
sg83
g3225
sg76
(lp3241
g69
(g70
g71
NtRp3242
(dp3243
g74
(dp3244
g82
I3
ssg83
g3238
sg76
(lp3245
g263
asbasbasbag69
(g85
g71
NtRp3246
(dp3247
g74
(dp3248
sg83
g2864
sg76
(lp3249
g69
(g90
g71
NtRp3250
(dp3251
g74
(dp3252
g94
g95
ssg83
g3246
sg76
(lp3253
S'REMOTE_PORT'
p3254
asbag69
(g90
g71
NtRp3255
(dp3256
g74
(dp3257
g101
g102
ssg83
g3246
sg76
(lp3258
S':'
asbag69
(g90
g71
NtRp3259
(dp3260
g74
(dp3261
sg83
g3246
sg76
(lp3262
g69
(g70
g71
NtRp3263
(dp3264
g74
(dp3265
g82
I3
ssg83
g3259
sg76
(lp3266
g1404
asbasbasbag69
(g85
g71
NtRp3267
(dp3268
g74
(dp3269
sg83
g2864
sg76
(lp3270
g69
(g90
g71
NtRp3271
(dp3272
g74
(dp3273
g94
g95
ssg83
g3267
sg76
(lp3274
S'REQUEST_METHOD'
p3275
asbag69
(g90
g71
NtRp3276
(dp3277
g74
(dp3278
g101
g102
ssg83
g3267
sg76
(lp3279
S':'
asbag69
(g90
g71
NtRp3280
(dp3281
g74
(dp3282
sg83
g3267
sg76
(lp3283
g69
(g70
g71
NtRp3284
(dp3285
g74
(dp3286
g82
I3
ssg83
g3280
sg76
(lp3287
g1426
asbasbasbag69
(g85
g71
NtRp3288
(dp3289
g74
(dp3290
sg83
g2864
sg76
(lp3291
g69
(g90
g71
NtRp3292
(dp3293
g74
(dp3294
g94
g95
ssg83
g3288
sg76
(lp3295
S'REQUEST_URI'
p3296
asbag69
(g90
g71
NtRp3297
(dp3298
g74
(dp3299
g101
g102
ssg83
g3288
sg76
(lp3300
S':'
asbag69
(g90
g71
NtRp3301
(dp3302
g74
(dp3303
sg83
g3288
sg76
(lp3304
g69
(g70
g71
NtRp3305
(dp3306
g74
(dp3307
g82
I3
ssg83
g3301
sg76
(lp3308
g1448
asbasbasbag69
(g85
g71
NtRp3309
(dp3310
g74
(dp3311
sg83
g2864
sg76
(lp3312
g69
(g90
g71
NtRp3313
(dp3314
g74
(dp3315
g94
g95
ssg83
g3309
sg76
(lp3316
S'SCRIPT_NAME'
p3317
asbag69
(g90
g71
NtRp3318
(dp3319
g74
(dp3320
g101
g102
ssg83
g3309
sg76
(lp3321
S':'
asbag69
(g90
g71
NtRp3322
(dp3323
g74
(dp3324
sg83
g3309
sg76
(lp3325
g69
(g70
g71
NtRp3326
(dp3327
g74
(dp3328
g82
I3
ssg83
g3322
sg76
(lp3329
S''
asbasbasbag69
(g85
g71
NtRp3330
(dp3331
g74
(dp3332
sg83
g2864
sg76
(lp3333
g69
(g90
g71
NtRp3334
(dp3335
g74
(dp3336
g94
g95
ssg83
g3330
sg76
(lp3337
S'SERVER_NAME'
p3338
asbag69
(g90
g71
NtRp3339
(dp3340
g74
(dp3341
g101
g102
ssg83
g3330
sg76
(lp3342
S':'
asbag69
(g90
g71
NtRp3343
(dp3344
g74
(dp3345
sg83
g3330
sg76
(lp3346
g69
(g70
g71
NtRp3347
(dp3348
g74
(dp3349
g82
I3
ssg83
g3343
sg76
(lp3350
g1491
asbasbasbag69
(g85
g71
NtRp3351
(dp3352
g74
(dp3353
sg83
g2864
sg76
(lp3354
g69
(g90
g71
NtRp3355
(dp3356
g74
(dp3357
g94
g95
ssg83
g3351
sg76
(lp3358
S'SERVER_PORT'
p3359
asbag69
(g90
g71
NtRp3360
(dp3361
g74
(dp3362
g101
g102
ssg83
g3351
sg76
(lp3363
S':'
asbag69
(g90
g71
NtRp3364
(dp3365
g74
(dp3366
sg83
g3351
sg76
(lp3367
g69
(g70
g71
NtRp3368
(dp3369
g74
(dp3370
g82
I3
ssg83
g3364
sg76
(lp3371
g1513
asbasbasbag69
(g85
g71
NtRp3372
(dp3373
g74
(dp3374
sg83
g2864
sg76
(lp3375
g69
(g90
g71
NtRp3376
(dp3377
g74
(dp3378
g94
g95
ssg83
g3372
sg76
(lp3379
S'SERVER_PROTOCOL'
p3380
asbag69
(g90
g71
NtRp3381
(dp3382
g74
(dp3383
g101
g102
ssg83
g3372
sg76
(lp3384
S':'
asbag69
(g90
g71
NtRp3385
(dp3386
g74
(dp3387
sg83
g3372
sg76
(lp3388
g69
(g70
g71
NtRp3389
(dp3390
g74
(dp3391
g82
I3
ssg83
g3385
sg76
(lp3392
g1535
asbasbasbag69
(g85
g71
NtRp3393
(dp3394
g74
(dp3395
sg83
g2864
sg76
(lp3396
g69
(g90
g71
NtRp3397
(dp3398
g74
(dp3399
g94
g95
ssg83
g3393
sg76
(lp3400
S'SERVER_SOFTWARE'
p3401
asbag69
(g90
g71
NtRp3402
(dp3403
g74
(dp3404
g101
g102
ssg83
g3393
sg76
(lp3405
S':'
asbag69
(g90
g71
NtRp3406
(dp3407
g74
(dp3408
sg83
g3393
sg76
(lp3409
g69
(g70
g71
NtRp3410
(dp3411
g74
(dp3412
g82
I3
ssg83
g3406
sg76
(lp3413
g1557
asbasbasbag69
(g85
g71
NtRp3414
(dp3415
g74
(dp3416
sg83
g2864
sg76
(lp3417
g69
(g90
g71
NtRp3418
(dp3419
g74
(dp3420
g94
g95
ssg83
g3414
sg76
(lp3421
S'WEB2PY_ORIGINAL_URI'
p3422
asbag69
(g90
g71
NtRp3423
(dp3424
g74
(dp3425
g101
g102
ssg83
g3414
sg76
(lp3426
S':'
asbag69
(g90
g71
NtRp3427
(dp3428
g74
(dp3429
sg83
g3414
sg76
(lp3430
g69
(g70
g71
NtRp3431
(dp3432
g74
(dp3433
g82
I3
ssg83
g3427
sg76
(lp3434
g1340
asbasbasbag69
(g85
g71
NtRp3435
(dp3436
g74
(dp3437
sg83
g2864
sg76
(lp3438
g69
(g90
g71
NtRp3439
(dp3440
g74
(dp3441
g94
g95
ssg83
g3435
sg76
(lp3442
S'wsgi.errors'
p3443
asbag69
(g90
g71
NtRp3444
(dp3445
g74
(dp3446
g101
g102
ssg83
g3435
sg76
(lp3447
S':'
asbag69
(g90
g71
NtRp3448
(dp3449
g74
(dp3450
sg83
g3435
sg76
(lp3451
g69
(g70
g71
NtRp3452
(dp3453
g74
(dp3454
g82
I3
ssg83
g3448
sg76
(lp3455
S"<open file '<stderr>', mode 'w' at 0x7f635a603270>"
p3456
asbasbasbag69
(g85
g71
NtRp3457
(dp3458
g74
(dp3459
sg83
g2864
sg76
(lp3460
g69
(g90
g71
NtRp3461
(dp3462
g74
(dp3463
g94
g95
ssg83
g3457
sg76
(lp3464
S'wsgi.file_wrapper'
p3465
asbag69
(g90
g71
NtRp3466
(dp3467
g74
(dp3468
g101
g102
ssg83
g3457
sg76
(lp3469
S':'
asbag69
(g90
g71
NtRp3470
(dp3471
g74
(dp3472
sg83
g3457
sg76
(lp3473
g69
(g70
g71
NtRp3474
(dp3475
g74
(dp3476
g82
I3
ssg83
g3470
sg76
(lp3477
S'<class wsgiref.util.FileWrapper at 0x2bb2598>'
p3478
asbasbasbag69
(g85
g71
NtRp3479
(dp3480
g74
(dp3481
sg83
g2864
sg76
(lp3482
g69
(g90
g71
NtRp3483
(dp3484
g74
(dp3485
g94
g95
ssg83
g3479
sg76
(lp3486
S'wsgi.input'
p3487
asbag69
(g90
g71
NtRp3488
(dp3489
g74
(dp3490
g101
g102
ssg83
g3479
sg76
(lp3491
S':'
asbag69
(g90
g71
NtRp3492
(dp3493
g74
(dp3494
sg83
g3479
sg76
(lp3495
g69
(g70
g71
NtRp3496
(dp3497
g74
(dp3498
g82
I3
ssg83
g3492
sg76
(lp3499
S"<open file '<fdopen>', mode 'w+b' at 0x7f63407aa420>"
p3500
asbasbasbag69
(g85
g71
NtRp3501
(dp3502
g74
(dp3503
sg83
g2864
sg76
(lp3504
g69
(g90
g71
NtRp3505
(dp3506
g74
(dp3507
g94
g95
ssg83
g3501
sg76
(lp3508
S'wsgi.multiprocess'
p3509
asbag69
(g90
g71
NtRp3510
(dp3511
g74
(dp3512
g101
g102
ssg83
g3501
sg76
(lp3513
S':'
asbag69
(g90
g71
NtRp3514
(dp3515
g74
(dp3516
sg83
g3501
sg76
(lp3517
g69
(g70
g71
NtRp3518
(dp3519
g74
(dp3520
g82
I3
ssg83
g3514
sg76
(lp3521
g112
asbasbasbag69
(g85
g71
NtRp3522
(dp3523
g74
(dp3524
sg83
g2864
sg76
(lp3525
g69
(g90
g71
NtRp3526
(dp3527
g74
(dp3528
g94
g95
ssg83
g3522
sg76
(lp3529
S'wsgi.multithread'
p3530
asbag69
(g90
g71
NtRp3531
(dp3532
g74
(dp3533
g101
g102
ssg83
g3522
sg76
(lp3534
S':'
asbag69
(g90
g71
NtRp3535
(dp3536
g74
(dp3537
sg83
g3522
sg76
(lp3538
g69
(g70
g71
NtRp3539
(dp3540
g74
(dp3541
g82
I3
ssg83
g3535
sg76
(lp3542
g1795
asbasbasbag69
(g85
g71
NtRp3543
(dp3544
g74
(dp3545
sg83
g2864
sg76
(lp3546
g69
(g90
g71
NtRp3547
(dp3548
g74
(dp3549
g94
g95
ssg83
g3543
sg76
(lp3550
S'wsgi.run_once'
p3551
asbag69
(g90
g71
NtRp3552
(dp3553
g74
(dp3554
g101
g102
ssg83
g3543
sg76
(lp3555
S':'
asbag69
(g90
g71
NtRp3556
(dp3557
g74
(dp3558
sg83
g3543
sg76
(lp3559
g69
(g70
g71
NtRp3560
(dp3561
g74
(dp3562
g82
I3
ssg83
g3556
sg76
(lp3563
g112
asbasbasbag69
(g85
g71
NtRp3564
(dp3565
g74
(dp3566
sg83
g2864
sg76
(lp3567
g69
(g90
g71
NtRp3568
(dp3569
g74
(dp3570
g94
g95
ssg83
g3564
sg76
(lp3571
S'wsgi.url_scheme'
p3572
asbag69
(g90
g71
NtRp3573
(dp3574
g74
(dp3575
g101
g102
ssg83
g3564
sg76
(lp3576
S':'
asbag69
(g90
g71
NtRp3577
(dp3578
g74
(dp3579
sg83
g3564
sg76
(lp3580
g69
(g70
g71
NtRp3581
(dp3582
g74
(dp3583
g82
I3
ssg83
g3577
sg76
(lp3584
g1838
asbasbasbag69
(g85
g71
NtRp3585
(dp3586
g74
(dp3587
sg83
g2864
sg76
(lp3588
g69
(g90
g71
NtRp3589
(dp3590
g74
(dp3591
g94
g95
ssg83
g3585
sg76
(lp3592
S'wsgi.version'
p3593
asbag69
(g90
g71
NtRp3594
(dp3595
g74
(dp3596
g101
g102
ssg83
g3585
sg76
(lp3597
S':'
asbag69
(g90
g71
NtRp3598
(dp3599
g74
(dp3600
sg83
g3585
sg76
(lp3601
g69
(g70
g71
NtRp3602
(dp3603
g74
(dp3604
g82
I3
ssg83
g3598
sg76
(lp3605
S'1'
asbasbasbasbasbasbasbasbasbasbasbasbasbsS'frames'
p3606
(lp3607
(dp3608
S'file'
p3609
S'/var/www/conferencia/gluon/restricted.py'
p3610
sS'dump'
p3611
(dp3612
S'environment'
p3613
S"{'A': <class 'gluon.html.A'>, 'Auth': <class 'gluon.tools.Auth'>, 'B': <class 'gluon.html.B'>, 'BEAUTIFY': <class 'gluon.html.BEAUTIFY'>, 'BODY': <class 'gluon.html.BODY'>, 'BR': <class 'gluon.html.BR'>, 'BUTTON': <class 'gluon.html.BUTTON'>, 'CAT': <class 'gluon.html.CAT'>, 'CENTER': <class 'gluon.html.CENTER'>, 'CLEANUP': <class 'gluon.validators.CLEANUP'>, ...}"
p3614
sS'ccode'
p3615
S'<code object <module> at 0x7f6328379db0, file "/...ications/projeto/controllers/initial.py", line 3>'
p3616
ssS'lnum'
p3617
I212
sS'lines'
p3618
(dp3619
I207
S'    try:'
p3620
sI208
S'        if isinstance(code, types.CodeType):'
p3621
sI209
S'            ccode = code'
p3622
sI210
S'        else:'
p3623
sI211
S'            ccode = compile2(code, layer)'
p3624
sI212
S'        exec ccode in environment'
p3625
sI213
S'    except HTTP:'
p3626
sI214
S'        raise'
p3627
sI215
S'    except RestrictedError:'
p3628
sI216
S'        # do not encapsulate (obfuscate) the original RestrictedError'
p3629
ssS'call'
p3630
S"(code='# coding: utf-8\\n\\ndef show_cliente():\\n\\tresponse.t...\\n\\nresponse._vars=response._caller(show_servidor)\\n', environment={'A': <class 'gluon.html.A'>, 'Auth': <class 'gluon.tools.Auth'>, 'B': <class 'gluon.html.B'>, 'BEAUTIFY': <class 'gluon.html.BEAUTIFY'>, 'BODY': <class 'gluon.html.BODY'>, 'BR': <class 'gluon.html.BR'>, 'BUTTON': <class 'gluon.html.BUTTON'>, 'CAT': <class 'gluon.html.CAT'>, 'CENTER': <class 'gluon.html.CENTER'>, 'CLEANUP': <class 'gluon.validators.CLEANUP'>, ...}, layer='/var/www/conferencia/applications/projeto/controllers/initial.py')"
p3631
sS'func'
p3632
S'restricted'
p3633
sa(dp3634
g3609
S'/var/www/conferencia/applications/projeto/controllers/initial.py'
p3635
sg3611
(dp3636
sg3617
I326
sg3618
(dp3637
I320
S'\t\tmail.send('
p3638
sI321
S'\t\t\tto="fernando@ad2.com.br",'
p3639
sI322
S'\t\t\tsubject="host adicionado",'
p3640
sI323
S'\t\t\tmessage="<html>Um novo host foi adicionado pelo usu\xc3\xa1rio %s <br>nome: %s <br>vpn: %s<br><br>\xc3\x89 preciso fazer a instala\xc3\xa7\xc3\xa3o do client zabbix e bacula</html>" % (auth.user.first_name, host.nome, host.ip_chegada,)'
p3641
sI324
S'\t\t\t)'
p3642
sI315
S'\t\t\tto="fndiaz02@gmail.com",'
p3643
sI316
S'\t\t\tsubject="host adicionado",'
p3644
sI317
S'\t\t\tmessage="<html>Um novo host foi adicionado pelo usu\xc3\xa1rio %s <br>nome: %s <br>vpn: %s<br><br>\xc3\x89 preciso fazer a instala\xc3\xa7\xc3\xa3o do client zabbix e bacula</html>" % (auth.user.first_name, host.nome, host.ip_chegada,)'
p3645
sI318
S'\t\t\t)'
p3646
sI319
S"\telif auth.has_membership('internet'):"
p3647
ssg3630
S'()'
p3648
sg3632
S'<module>'
p3649
sa(dp3650
g3609
S'/var/www/conferencia/gluon/globals.py'
p3651
sg3611
(dp3652
S'self'
p3653
S'undefined'
p3654
sS'f'
S'<function show_servidor>'
p3655
ssg3617
I193
sg3618
(dp3656
I192
S'        self._vars = None'
p3657
sI193
S'        self._caller = lambda f: f()'
p3658
sI194
S'        self._view_environment = None'
p3659
sI195
S'        self._custom_commit = None'
p3660
sI196
S'        self._custom_rollback = None'
p3661
sI197
S''
sI188
S'        self.menu = []             # used by the default view layout'
p3662
sI189
S'        self.files = []            # used by web2py_ajax.html'
p3663
sI190
S'        self.generic_patterns = []  # patterns to allow generic views'
p3664
sI191
S"        self.delimiters = ('{{', '}}')"
p3665
ssg3630
S'(f=<function show_servidor>)'
p3666
sg3632
S'<lambda>'
p3667
sa(dp3668
g3609
S'/var/www/conferencia/applications/projeto/controllers/initial.py'
p3669
sg3611
(dp3670
S'ignore_rw'
p3671
g3654
sS'builtinTrue'
p3672
g1795
sS'maxtextlength'
p3673
g3654
ssg3617
I25
sg3618
(dp3674
I20
S'\tprint query'
p3675
sI21
S''
sI22
S'\tgrid = SQLFORM.grid(query=query, orderby=db.meetme.endtime,'
p3676
sI23
S'\t\tuser_signature=False, searchable=True, csv=False,'
p3677
sI24
S'\t\tpaginate=50, details=False,'
p3678
sI25
S'\t\tignore_rw = True, maxtextlength=36,'
p3679
sI26
S'    \t)'
p3680
sI27
S'\treturn response.render("initial/show_grid.html", grid=grid)'
p3681
sI28
S''
sI29
S''
ssg3630
S'()'
p3682
sg3632
S'show_servidor'
p3683
sa(dp3684
g3609
S'/var/www/conferencia/gluon/sqlhtml.py'
p3685
sg3611
(dp3686
S'builtinnext'
p3687
S'<built-in function next>'
p3688
sS'referrer'
p3689
S"'/show_servidor'"
p3690
ssg3617
I1920
sg3618
(dp3691
I1920
S'                next=referrer)'
p3692
sI1921
S'            res = DIV(buttons(view=details, record=record),'
p3693
sI1922
S'                      update_form, formfooter, _class=_class)'
p3694
sI1923
S'            res.create_form = create_form'
p3695
sI1924
S'            res.update_form = update_form'
p3696
sI1915
S'                **sqlformargs)'
p3697
sI1916
S'            update_form.process('
p3698
sI1917
S'                formname=formname,'
p3699
sI1918
S'                onvalidation=onvalidation,'
p3700
sI1919
S'                onsuccess=onupdate,'
p3701
ssg3630
S"(query=<Query (meetme.endtime > '2013-04-03 09:38:17.902532')>, fields=[<gluon.dal.Field object>, <gluon.dal.Field object>, <gluon.dal.Field object>, <gluon.dal.Field object>, <gluon.dal.Field object>, <gluon.dal.Field object>], field_id=<gluon.dal.Field object>, left=None, headers={}, orderby=<gluon.dal.Field object>, groupby=None, searchable=True, sortable=True, paginate=50, deletable=True, editable=True, details=False, selectable=None, create=True, csv=False, links=None, links_in_grid=True, upload=<function <lambda>>, args=[], user_signature=False, maxtextlengths={}, maxtextlength=36, onvalidation=None, oncreate=None, onupdate=None, ondelete=None, sorter_icons=(<gluon.html.XML object>, <gluon.html.XML object>), ui={'button': 'button btn', 'buttonadd': 'icon plus icon-plus', 'buttonback': 'icon leftarrow icon-arrow-left', 'buttondelete': 'icon trash icon-trash', 'buttonedit': 'icon pen icon-pencil', 'buttonexport': 'icon downarrow icon-download', 'buttontable': 'icon rightarrow icon-arrow-right', 'buttontext': 'buttontext button', 'buttonview': 'icon magnifier icon-zoom-in', 'content': '', ...}, showbuttontext=True, _class='web2py_grid', formname='web2py_grid', search_widget='default', ignore_rw=True, formstyle='table3cols', exportclasses=None, formargs={}, createargs={}, editargs={}, viewargs={}, buttons_placement='right', links_placement='right')"
p3702
sg3632
S'grid'
p3703
sa(dp3704
g3609
S'/var/www/conferencia/gluon/html.py'
p3705
sg3611
(dp3706
S'self'
p3707
S'<gluon.sqlhtml.SQLFORM object>'
p3708
sS'self.validate'
p3709
S'<bound method SQLFORM.validate of <gluon.sqlhtml.SQLFORM object>>'
p3710
sS'kwargs'
p3711
S"{'dbio': True, 'formname': 'web2py_grid', 'next': '/show_servidor', 'onsuccess': None, 'onvalidation': None}"
p3712
ssg3617
I2179
sg3618
(dp3713
I2176
S'        """'
p3714
sI2177
S"        kwargs['dbio'] = kwargs.get('dbio', True)"
p3715
sI2178
S'                                    # necessary for SQLHTML forms'
p3716
sI2179
S'        self.validate(**kwargs)'
p3717
sI2180
S'        return self'
p3718
sI2181
S''
sI2182
S'    REDIRECT_JS = "window.location=\'%s\';return false"'
p3719
sI2183
S''
sI2174
S'        def action():'
p3720
sI2175
S'            return dict(form=SQLFORM(db.table).process(onsuccess=my_callback)'
p3721
ssg3630
S"(self=<gluon.sqlhtml.SQLFORM object>, **kwargs={'dbio': True, 'formname': 'web2py_grid', 'next': '/show_servidor', 'onsuccess': None, 'onvalidation': None})"
p3722
sg3632
S'process'
p3723
sa(dp3724
g3609
S'/var/www/conferencia/gluon/html.py'
p3725
sg3611
(dp3726
S'self'
p3727
S'<gluon.sqlhtml.SQLFORM object>'
p3728
sS'self.accepts'
p3729
S'<bound method SQLFORM.accepts of <gluon.sqlhtml.SQLFORM object>>'
p3730
sS'kwargs'
p3731
S"{'dbio': True, 'formname': 'web2py_grid', 'onvalidation': None, 'request_vars': <Storage {'admin_user': '4', 'starttime': '2013-...013-04-11 14:14:05', '_formname': 'web2py_grid'}>, 'session': <Storage {'_formkey[web2py_grid]': '1dd5c80e-873... {'version': '22.0.1229.94', 'name': 'Chrome'}}}>}"
p3732
ssg3617
I2118
sg3618
(dp3733
I2113
S"        for key in ('message_onsuccess', 'message_onfailure', 'onsuccess',"
p3734
sI2114
S"                    'onfailure', 'next', 'message_onchange', 'onchange'):"
p3735
sI2115
S'            if key in kwargs:'
p3736
sI2116
S'                del kwargs[key]'
p3737
sI2117
S''
sI2118
S'        if self.accepts(**kwargs):'
p3738
sI2119
S"            if onsuccess == 'flash':"
p3739
sI2120
S'                if next:'
p3740
sI2121
S'                    current.session.flash = message_onsuccess'
p3741
sI2122
S'                else:'
p3742
ssg3630
S"(self=<gluon.sqlhtml.SQLFORM object>, **kwargs={'dbio': True, 'formname': 'web2py_grid', 'onvalidation': None, 'request_vars': <Storage {'admin_user': '4', 'starttime': '2013-...013-04-11 14:14:05', '_formname': 'web2py_grid'}>, 'session': <Storage {'_formkey[web2py_grid]': '1dd5c80e-873... {'version': '22.0.1229.94', 'name': 'Chrome'}}}>})"
p3743
sg3632
S'validate'
p3744
sa(dp3745
g3609
S'/var/www/conferencia/gluon/sqlhtml.py'
p3746
sg3611
(dp3747
S'record_id'
p3748
S"{'confno': None}"
p3749
sS'self'
p3750
S'<gluon.sqlhtml.SQLFORM object>'
p3751
sS'self.record_id'
p3752
S"'1014'"
p3753
ssg3617
I1343
sg3618
(dp3754
I1344
S''
sI1345
S'        if record_id and dbio and not keyed:'
p3755
sI1346
S'            self.vars.id = self.record[self.id_field_name]'
p3756
sI1347
S''
sI1338
S'            self.accepted = ret'
p3757
sI1339
S'            return ret'
p3758
sI1340
S''
sI1341
S'        if record_id and str(record_id) != str(self.record_id):'
p3759
sI1342
S"            raise SyntaxError('user is tampering with form\\'s record_id: '"
p3760
sI1343
S"                              '%s != %s' % (record_id, self.record_id))"
p3761
ssg3630
S"(self=<gluon.sqlhtml.SQLFORM object>, request_vars=<Storage {'admin_user': '4', 'starttime': '2013-...013-04-11 14:14:05', '_formname': 'web2py_grid'}>, session=<Storage {'_formkey[web2py_grid]': '1dd5c80e-873... {'version': '22.0.1229.94', 'name': 'Chrome'}}}>, formname='web2py_grid', keepvalues=True, onvalidation=None, dbio=True, hideerror=False, detect_record_change=False, **kwargs={})"
p3762
sg3632
S'accepts'
p3763
sasS'pyver'
p3764
S'Python 2.7.3: /usr/bin/python'
p3765
sS'session'
p3766
g69
(g70
g71
NtRp3767
(dp3768
g74
(dp3769
sg76
(lp3770
g69
(g78
g71
NtRp3771
(dp3772
g74
(dp3773
g82
I5
ssg83
Nsg76
(lp3774
sbasbsS'etype'
p3775
S"<type 'exceptions.SyntaxError'>"
p3776
sS'date'
p3777
S'Wed Apr  3 14:20:32 2013'
p3778
sS'response'
p3779
g69
(g70
g71
NtRp3780
(dp3781
g74
(dp3782
sg76
(lp3783
g69
(g78
g71
NtRp3784
(dp3785
g74
(dp3786
g82
I5
ssg83
Nsg76
(lp3787
g69
(g85
g71
NtRp3788
(dp3789
g74
(dp3790
sg83
g3784
sg76
(lp3791
g69
(g90
g71
NtRp3792
(dp3793
g74
(dp3794
g94
g95
ssg83
g3788
sg76
(lp3795
g206
asbag69
(g90
g71
NtRp3796
(dp3797
g74
(dp3798
g101
g102
ssg83
g3788
sg76
(lp3799
S':'
asbag69
(g90
g71
NtRp3800
(dp3801
g74
(dp3802
sg83
g3788
sg76
(lp3803
g69
(g70
g71
NtRp3804
(dp3805
g74
(dp3806
g82
I5
ssg83
g3800
sg76
(lp3807
S'<cStringIO.StringO object at 0x7f632835bed8>'
p3808
asbasbasbag69
(g85
g71
NtRp3809
(dp3810
g74
(dp3811
sg83
g3784
sg76
(lp3812
g69
(g90
g71
NtRp3813
(dp3814
g74
(dp3815
g94
g95
ssg83
g3809
sg76
(lp3816
g294
asbag69
(g90
g71
NtRp3817
(dp3818
g74
(dp3819
g101
g102
ssg83
g3809
sg76
(lp3820
S':'
asbag69
(g90
g71
NtRp3821
(dp3822
g74
(dp3823
sg83
g3809
sg76
(lp3824
g69
(g70
g71
NtRp3825
(dp3826
g74
(dp3827
g82
I5
ssg83
g3821
sg76
(lp3828
g69
(g78
g71
NtRp3829
(dp3830
g74
(dp3831
g82
I4
ssg83
Nsg76
(lp3832
g69
(g85
g71
NtRp3833
(dp3834
g74
(dp3835
sg83
g3829
sg76
(lp3836
g69
(g90
g71
NtRp3837
(dp3838
g74
(dp3839
g94
g95
ssg83
g3833
sg76
(lp3840
S'session_id_projeto'
p3841
asbag69
(g90
g71
NtRp3842
(dp3843
g74
(dp3844
g101
g102
ssg83
g3833
sg76
(lp3845
S':'
asbag69
(g90
g71
NtRp3846
(dp3847
g74
(dp3848
sg83
g3833
sg76
(lp3849
g69
(g70
g71
NtRp3850
(dp3851
g74
(dp3852
g82
I4
ssg83
g3846
sg76
(lp3853
g526
ag69
(g78
g71
NtRp3854
(dp3855
g74
(dp3856
g82
I3
ssg83
Nsg76
(lp3857
g69
(g85
g71
NtRp3858
(dp3859
g74
(dp3860
sg83
g3854
sg76
(lp3861
g69
(g90
g71
NtRp3862
(dp3863
g74
(dp3864
g94
g95
ssg83
g3858
sg76
(lp3865
g345
asbag69
(g90
g71
NtRp3866
(dp3867
g74
(dp3868
g101
g102
ssg83
g3858
sg76
(lp3869
S':'
asbag69
(g90
g71
NtRp3870
(dp3871
g74
(dp3872
sg83
g3858
sg76
(lp3873
g69
(g70
g71
NtRp3874
(dp3875
g74
(dp3876
g82
I3
ssg83
g3870
sg76
(lp3877
S''
asbasbasbag69
(g85
g71
NtRp3878
(dp3879
g74
(dp3880
sg83
g3854
sg76
(lp3881
g69
(g90
g71
NtRp3882
(dp3883
g74
(dp3884
g94
g95
ssg83
g3878
sg76
(lp3885
g366
asbag69
(g90
g71
NtRp3886
(dp3887
g74
(dp3888
g101
g102
ssg83
g3878
sg76
(lp3889
S':'
asbag69
(g90
g71
NtRp3890
(dp3891
g74
(dp3892
sg83
g3878
sg76
(lp3893
g69
(g70
g71
NtRp3894
(dp3895
g74
(dp3896
g82
I3
ssg83
g3890
sg76
(lp3897
S''
asbasbasbag69
(g85
g71
NtRp3898
(dp3899
g74
(dp3900
sg83
g3854
sg76
(lp3901
g69
(g90
g71
NtRp3902
(dp3903
g74
(dp3904
g94
g95
ssg83
g3898
sg76
(lp3905
g387
asbag69
(g90
g71
NtRp3906
(dp3907
g74
(dp3908
g101
g102
ssg83
g3898
sg76
(lp3909
S':'
asbag69
(g90
g71
NtRp3910
(dp3911
g74
(dp3912
sg83
g3898
sg76
(lp3913
g69
(g70
g71
NtRp3914
(dp3915
g74
(dp3916
g82
I3
ssg83
g3910
sg76
(lp3917
S''
asbasbasbag69
(g85
g71
NtRp3918
(dp3919
g74
(dp3920
sg83
g3854
sg76
(lp3921
g69
(g90
g71
NtRp3922
(dp3923
g74
(dp3924
g94
g95
ssg83
g3918
sg76
(lp3925
g408
asbag69
(g90
g71
NtRp3926
(dp3927
g74
(dp3928
g101
g102
ssg83
g3918
sg76
(lp3929
S':'
asbag69
(g90
g71
NtRp3930
(dp3931
g74
(dp3932
sg83
g3918
sg76
(lp3933
g69
(g70
g71
NtRp3934
(dp3935
g74
(dp3936
g82
I3
ssg83
g3930
sg76
(lp3937
S''
asbasbasbag69
(g85
g71
NtRp3938
(dp3939
g74
(dp3940
sg83
g3854
sg76
(lp3941
g69
(g90
g71
NtRp3942
(dp3943
g74
(dp3944
g94
g95
ssg83
g3938
sg76
(lp3945
g429
asbag69
(g90
g71
NtRp3946
(dp3947
g74
(dp3948
g101
g102
ssg83
g3938
sg76
(lp3949
S':'
asbag69
(g90
g71
NtRp3950
(dp3951
g74
(dp3952
sg83
g3938
sg76
(lp3953
g69
(g70
g71
NtRp3954
(dp3955
g74
(dp3956
g82
I3
ssg83
g3950
sg76
(lp3957
S''
asbasbasbag69
(g85
g71
NtRp3958
(dp3959
g74
(dp3960
sg83
g3854
sg76
(lp3961
g69
(g90
g71
NtRp3962
(dp3963
g74
(dp3964
g94
g95
ssg83
g3958
sg76
(lp3965
g450
asbag69
(g90
g71
NtRp3966
(dp3967
g74
(dp3968
g101
g102
ssg83
g3958
sg76
(lp3969
S':'
asbag69
(g90
g71
NtRp3970
(dp3971
g74
(dp3972
sg83
g3958
sg76
(lp3973
g69
(g70
g71
NtRp3974
(dp3975
g74
(dp3976
g82
I3
ssg83
g3970
sg76
(lp3977
S'/'
asbasbasbag69
(g85
g71
NtRp3978
(dp3979
g74
(dp3980
sg83
g3854
sg76
(lp3981
g69
(g90
g71
NtRp3982
(dp3983
g74
(dp3984
g94
g95
ssg83
g3978
sg76
(lp3985
g471
asbag69
(g90
g71
NtRp3986
(dp3987
g74
(dp3988
g101
g102
ssg83
g3978
sg76
(lp3989
S':'
asbag69
(g90
g71
NtRp3990
(dp3991
g74
(dp3992
sg83
g3978
sg76
(lp3993
g69
(g70
g71
NtRp3994
(dp3995
g74
(dp3996
g82
I3
ssg83
g3990
sg76
(lp3997
S''
asbasbasbag69
(g85
g71
NtRp3998
(dp3999
g74
(dp4000
sg83
g3854
sg76
(lp4001
g69
(g90
g71
NtRp4002
(dp4003
g74
(dp4004
g94
g95
ssg83
g3998
sg76
(lp4005
g492
asbag69
(g90
g71
NtRp4006
(dp4007
g74
(dp4008
g101
g102
ssg83
g3998
sg76
(lp4009
S':'
asbag69
(g90
g71
NtRp4010
(dp4011
g74
(dp4012
sg83
g3998
sg76
(lp4013
g69
(g70
g71
NtRp4014
(dp4015
g74
(dp4016
g82
I3
ssg83
g4010
sg76
(lp4017
S''
asbasbasbasbasbasbasbasbasbasbasbag69
(g85
g71
NtRp4018
(dp4019
g74
(dp4020
sg83
g3784
sg76
(lp4021
g69
(g90
g71
NtRp4022
(dp4023
g74
(dp4024
g94
g95
ssg83
g4018
sg76
(lp4025
S'delimiters'
p4026
asbag69
(g90
g71
NtRp4027
(dp4028
g74
(dp4029
g101
g102
ssg83
g4018
sg76
(lp4030
S':'
asbag69
(g90
g71
NtRp4031
(dp4032
g74
(dp4033
sg83
g4018
sg76
(lp4034
g69
(g70
g71
NtRp4035
(dp4036
g74
(dp4037
g82
I5
ssg83
g4031
sg76
(lp4038
g69
(g78
g71
NtRp4039
(dp4040
g74
(dp4041
g82
I4
ssg83
Nsg76
(lp4042
g69
(g85
g71
NtRp4043
(dp4044
g74
(dp4045
sg83
g4039
sg76
(lp4046
g69
(g90
g71
NtRp4047
(dp4048
g74
(dp4049
sg83
g4043
sg76
(lp4050
g69
(g70
g71
NtRp4051
(dp4052
g74
(dp4053
g82
I4
ssg83
g4047
sg76
(lp4054
S'{{'
p4055
asbasbasbag69
(g85
g71
NtRp4056
(dp4057
g74
(dp4058
sg83
g4039
sg76
(lp4059
g69
(g90
g71
NtRp4060
(dp4061
g74
(dp4062
sg83
g4056
sg76
(lp4063
g69
(g70
g71
NtRp4064
(dp4065
g74
(dp4066
g82
I4
ssg83
g4060
sg76
(lp4067
S'}}'
p4068
asbasbasbasbasbasbasbag69
(g85
g71
NtRp4069
(dp4070
g74
(dp4071
sg83
g3784
sg76
(lp4072
g69
(g90
g71
NtRp4073
(dp4074
g74
(dp4075
g94
g95
ssg83
g4069
sg76
(lp4076
S'files'
p4077
asbag69
(g90
g71
NtRp4078
(dp4079
g74
(dp4080
g101
g102
ssg83
g4069
sg76
(lp4081
S':'
asbag69
(g90
g71
NtRp4082
(dp4083
g74
(dp4084
sg83
g4069
sg76
(lp4085
g69
(g70
g71
NtRp4086
(dp4087
g74
(dp4088
g82
I5
ssg83
g4082
sg76
(lp4089
g69
(g78
g71
NtRp4090
(dp4091
g74
(dp4092
g82
I4
ssg83
Nsg76
(lp4093
sbasbasbasbag69
(g85
g71
NtRp4094
(dp4095
g74
(dp4096
sg83
g3784
sg76
(lp4097
g69
(g90
g71
NtRp4098
(dp4099
g74
(dp4100
g94
g95
ssg83
g4094
sg76
(lp4101
S'flash'
p4102
asbag69
(g90
g71
NtRp4103
(dp4104
g74
(dp4105
g101
g102
ssg83
g4094
sg76
(lp4106
S':'
asbag69
(g90
g71
NtRp4107
(dp4108
g74
(dp4109
sg83
g4094
sg76
(lp4110
g69
(g70
g71
NtRp4111
(dp4112
g74
(dp4113
g82
I5
ssg83
g4107
sg76
(lp4114
S''
asbasbasbag69
(g85
g71
NtRp4115
(dp4116
g74
(dp4117
sg83
g3784
sg76
(lp4118
g69
(g90
g71
NtRp4119
(dp4120
g74
(dp4121
g94
g95
ssg83
g4115
sg76
(lp4122
S'generic_patterns'
p4123
asbag69
(g90
g71
NtRp4124
(dp4125
g74
(dp4126
g101
g102
ssg83
g4115
sg76
(lp4127
S':'
asbag69
(g90
g71
NtRp4128
(dp4129
g74
(dp4130
sg83
g4115
sg76
(lp4131
g69
(g70
g71
NtRp4132
(dp4133
g74
(dp4134
g82
I5
ssg83
g4128
sg76
(lp4135
g69
(g78
g71
NtRp4136
(dp4137
g74
(dp4138
g82
I4
ssg83
Nsg76
(lp4139
g69
(g85
g71
NtRp4140
(dp4141
g74
(dp4142
sg83
g4136
sg76
(lp4143
g69
(g90
g71
NtRp4144
(dp4145
g74
(dp4146
sg83
g4140
sg76
(lp4147
g69
(g70
g71
NtRp4148
(dp4149
g74
(dp4150
g82
I4
ssg83
g4144
sg76
(lp4151
S'*'
asbasbasbasbasbasbasbag69
(g85
g71
NtRp4152
(dp4153
g74
(dp4154
sg83
g3784
sg76
(lp4155
g69
(g90
g71
NtRp4156
(dp4157
g74
(dp4158
g94
g95
ssg83
g4152
sg76
(lp4159
S'google_analytics_id'
p4160
asbag69
(g90
g71
NtRp4161
(dp4162
g74
(dp4163
g101
g102
ssg83
g4152
sg76
(lp4164
S':'
asbag69
(g90
g71
NtRp4165
(dp4166
g74
(dp4167
sg83
g4152
sg76
(lp4168
g69
(g70
g71
NtRp4169
(dp4170
g74
(dp4171
g82
I5
ssg83
g4165
sg76
(lp4172
S'None'
p4173
asbasbasbag69
(g85
g71
NtRp4174
(dp4175
g74
(dp4176
sg83
g3784
sg76
(lp4177
g69
(g90
g71
NtRp4178
(dp4179
g74
(dp4180
g94
g95
ssg83
g4174
sg76
(lp4181
S'headers'
p4182
asbag69
(g90
g71
NtRp4183
(dp4184
g74
(dp4185
g101
g102
ssg83
g4174
sg76
(lp4186
S':'
asbag69
(g90
g71
NtRp4187
(dp4188
g74
(dp4189
sg83
g4174
sg76
(lp4190
g69
(g70
g71
NtRp4191
(dp4192
g74
(dp4193
g82
I5
ssg83
g4187
sg76
(lp4194
g69
(g78
g71
NtRp4195
(dp4196
g74
(dp4197
g82
I4
ssg83
Nsg76
(lp4198
g69
(g85
g71
NtRp4199
(dp4200
g74
(dp4201
sg83
g4195
sg76
(lp4202
g69
(g90
g71
NtRp4203
(dp4204
g74
(dp4205
g94
g95
ssg83
g4199
sg76
(lp4206
S'X-Powered-By'
p4207
asbag69
(g90
g71
NtRp4208
(dp4209
g74
(dp4210
g101
g102
ssg83
g4199
sg76
(lp4211
S':'
asbag69
(g90
g71
NtRp4212
(dp4213
g74
(dp4214
sg83
g4199
sg76
(lp4215
g69
(g70
g71
NtRp4216
(dp4217
g74
(dp4218
g82
I4
ssg83
g4212
sg76
(lp4219
S'web2py'
p4220
asbasbasbasbasbasbasbag69
(g85
g71
NtRp4221
(dp4222
g74
(dp4223
sg83
g3784
sg76
(lp4224
g69
(g90
g71
NtRp4225
(dp4226
g74
(dp4227
g94
g95
ssg83
g4221
sg76
(lp4228
S'logo'
p4229
asbag69
(g90
g71
NtRp4230
(dp4231
g74
(dp4232
g101
g102
ssg83
g4221
sg76
(lp4233
S':'
asbag69
(g90
g71
NtRp4234
(dp4235
g74
(dp4236
sg83
g4221
sg76
(lp4237
g69
(g70
g71
NtRp4238
(dp4239
g74
(dp4240
g82
I5
ssg83
g4234
sg76
(lp4241
g69
(cgluon.html
A
p4242
g71
NtRp4243
(dp4244
g74
(dp4245
S'_class'
p4246
S'brand'
p4247
sS'_href'
p4248
S'principal'
p4249
ssg83
Nsg76
(lp4250
g69
(cgluon.html
B
p4251
g71
NtRp4252
(dp4253
g74
(dp4254
sg83
g4243
sg76
(lp4255
S'hosts'
p4256
ag69
(cgluon.html
SPAN
p4257
g71
NtRp4258
(dp4259
g74
(dp4260
sg83
g4252
sg76
(lp4261
S'3'
asbaS''
asbacgluon.html
XML_unpickle
p4262
(S's\r\x00\x00\x00&trade;&nbsp;'
tRp4263
asbasbasbasbag69
(g85
g71
NtRp4264
(dp4265
g74
(dp4266
sg83
g3784
sg76
(lp4267
g69
(g90
g71
NtRp4268
(dp4269
g74
(dp4270
g94
g95
ssg83
g4264
sg76
(lp4271
S'menu'
p4272
asbag69
(g90
g71
NtRp4273
(dp4274
g74
(dp4275
g101
g102
ssg83
g4264
sg76
(lp4276
S':'
asbag69
(g90
g71
NtRp4277
(dp4278
g74
(dp4279
sg83
g4264
sg76
(lp4280
g69
(g70
g71
NtRp4281
(dp4282
g74
(dp4283
g82
I5
ssg83
g4277
sg76
(lp4284
g69
(g78
g71
NtRp4285
(dp4286
g74
(dp4287
g82
I4
ssg83
Nsg76
(lp4288
g69
(g85
g71
NtRp4289
(dp4290
g74
(dp4291
sg83
g4285
sg76
(lp4292
g69
(g90
g71
NtRp4293
(dp4294
g74
(dp4295
sg83
g4289
sg76
(lp4296
g69
(g70
g71
NtRp4297
(dp4298
g74
(dp4299
g82
I4
ssg83
g4293
sg76
(lp4300
g69
(g78
g71
NtRp4301
(dp4302
g74
(dp4303
g82
I3
ssg83
Nsg76
(lp4304
g69
(g85
g71
NtRp4305
(dp4306
g74
(dp4307
sg83
g4301
sg76
(lp4308
g69
(g90
g71
NtRp4309
(dp4310
g74
(dp4311
sg83
g4305
sg76
(lp4312
g69
(g70
g71
NtRp4313
(dp4314
g74
(dp4315
g82
I3
ssg83
g4309
sg76
(lp4316
cgluon.languages
lazyT_unpickle
p4317
(S't\x08\x00\x00\x00Clientes'
tRp4318
asbasbasbag69
(g85
g71
NtRp4319
(dp4320
g74
(dp4321
sg83
g4301
sg76
(lp4322
g69
(g90
g71
NtRp4323
(dp4324
g74
(dp4325
sg83
g4319
sg76
(lp4326
g69
(g70
g71
NtRp4327
(dp4328
g74
(dp4329
g82
I3
ssg83
g4323
sg76
(lp4330
g112
asbasbasbag69
(g85
g71
NtRp4331
(dp4332
g74
(dp4333
sg83
g4301
sg76
(lp4334
g69
(g90
g71
NtRp4335
(dp4336
g74
(dp4337
sg83
g4331
sg76
(lp4338
g69
(g70
g71
NtRp4339
(dp4340
g74
(dp4341
g82
I3
ssg83
g4335
sg76
(lp4342
S'/show_cliente'
p4343
asbasbasbag69
(g85
g71
NtRp4344
(dp4345
g74
(dp4346
sg83
g4301
sg76
(lp4347
g69
(g90
g71
NtRp4348
(dp4349
g74
(dp4350
sg83
g4344
sg76
(lp4351
g69
(g70
g71
NtRp4352
(dp4353
g74
(dp4354
g82
I3
ssg83
g4348
sg76
(lp4355
g69
(g78
g71
NtRp4356
(dp4357
g74
(dp4358
g82
I2
ssg83
Nsg76
(lp4359
sbasbasbasbasbasbasbasbag69
(g85
g71
NtRp4360
(dp4361
g74
(dp4362
sg83
g4285
sg76
(lp4363
g69
(g90
g71
NtRp4364
(dp4365
g74
(dp4366
sg83
g4360
sg76
(lp4367
g69
(g70
g71
NtRp4368
(dp4369
g74
(dp4370
g82
I4
ssg83
g4364
sg76
(lp4371
g69
(g78
g71
NtRp4372
(dp4373
g74
(dp4374
g82
I3
ssg83
Nsg76
(lp4375
g69
(g85
g71
NtRp4376
(dp4377
g74
(dp4378
sg83
g4372
sg76
(lp4379
g69
(g90
g71
NtRp4380
(dp4381
g74
(dp4382
sg83
g4376
sg76
(lp4383
g69
(g70
g71
NtRp4384
(dp4385
g74
(dp4386
g82
I3
ssg83
g4380
sg76
(lp4387
g4317
(S't\n\x00\x00\x00Servidores'
tRp4388
asbasbasbag69
(g85
g71
NtRp4389
(dp4390
g74
(dp4391
sg83
g4372
sg76
(lp4392
g69
(g90
g71
NtRp4393
(dp4394
g74
(dp4395
sg83
g4389
sg76
(lp4396
g69
(g70
g71
NtRp4397
(dp4398
g74
(dp4399
g82
I3
ssg83
g4393
sg76
(lp4400
g112
asbasbasbag69
(g85
g71
NtRp4401
(dp4402
g74
(dp4403
sg83
g4372
sg76
(lp4404
g69
(g90
g71
NtRp4405
(dp4406
g74
(dp4407
sg83
g4401
sg76
(lp4408
g69
(g70
g71
NtRp4409
(dp4410
g74
(dp4411
g82
I3
ssg83
g4405
sg76
(lp4412
S'/show_servidor'
p4413
asbasbasbag69
(g85
g71
NtRp4414
(dp4415
g74
(dp4416
sg83
g4372
sg76
(lp4417
g69
(g90
g71
NtRp4418
(dp4419
g74
(dp4420
sg83
g4414
sg76
(lp4421
g69
(g70
g71
NtRp4422
(dp4423
g74
(dp4424
g82
I3
ssg83
g4418
sg76
(lp4425
g69
(g78
g71
NtRp4426
(dp4427
g74
(dp4428
g82
I2
ssg83
Nsg76
(lp4429
sbasbasbasbasbasbasbasbag69
(g85
g71
NtRp4430
(dp4431
g74
(dp4432
sg83
g4285
sg76
(lp4433
g69
(g90
g71
NtRp4434
(dp4435
g74
(dp4436
sg83
g4430
sg76
(lp4437
g69
(g70
g71
NtRp4438
(dp4439
g74
(dp4440
g82
I4
ssg83
g4434
sg76
(lp4441
g69
(g78
g71
NtRp4442
(dp4443
g74
(dp4444
g82
I3
ssg83
Nsg76
(lp4445
g69
(g85
g71
NtRp4446
(dp4447
g74
(dp4448
sg83
g4442
sg76
(lp4449
g69
(g90
g71
NtRp4450
(dp4451
g74
(dp4452
sg83
g4446
sg76
(lp4453
g69
(g70
g71
NtRp4454
(dp4455
g74
(dp4456
g82
I3
ssg83
g4450
sg76
(lp4457
g4317
(S't\x07\x00\x00\x00Distros'
tRp4458
asbasbasbag69
(g85
g71
NtRp4459
(dp4460
g74
(dp4461
sg83
g4442
sg76
(lp4462
g69
(g90
g71
NtRp4463
(dp4464
g74
(dp4465
sg83
g4459
sg76
(lp4466
g69
(g70
g71
NtRp4467
(dp4468
g74
(dp4469
g82
I3
ssg83
g4463
sg76
(lp4470
g112
asbasbasbag69
(g85
g71
NtRp4471
(dp4472
g74
(dp4473
sg83
g4442
sg76
(lp4474
g69
(g90
g71
NtRp4475
(dp4476
g74
(dp4477
sg83
g4471
sg76
(lp4478
g69
(g70
g71
NtRp4479
(dp4480
g74
(dp4481
g82
I3
ssg83
g4475
sg76
(lp4482
S'/show_distro'
p4483
asbasbasbag69
(g85
g71
NtRp4484
(dp4485
g74
(dp4486
sg83
g4442
sg76
(lp4487
g69
(g90
g71
NtRp4488
(dp4489
g74
(dp4490
sg83
g4484
sg76
(lp4491
g69
(g70
g71
NtRp4492
(dp4493
g74
(dp4494
g82
I3
ssg83
g4488
sg76
(lp4495
g69
(g78
g71
NtRp4496
(dp4497
g74
(dp4498
g82
I2
ssg83
Nsg76
(lp4499
sbasbasbasbasbasbasbasbag69
(g85
g71
NtRp4500
(dp4501
g74
(dp4502
sg83
g4285
sg76
(lp4503
g69
(g90
g71
NtRp4504
(dp4505
g74
(dp4506
sg83
g4500
sg76
(lp4507
g69
(g70
g71
NtRp4508
(dp4509
g74
(dp4510
g82
I4
ssg83
g4504
sg76
(lp4511
g69
(g78
g71
NtRp4512
(dp4513
g74
(dp4514
g82
I3
ssg83
Nsg76
(lp4515
g69
(g85
g71
NtRp4516
(dp4517
g74
(dp4518
sg83
g4512
sg76
(lp4519
g69
(g90
g71
NtRp4520
(dp4521
g74
(dp4522
sg83
g4516
sg76
(lp4523
g69
(g70
g71
NtRp4524
(dp4525
g74
(dp4526
g82
I3
ssg83
g4520
sg76
(lp4527
g4317
(S's\x05\x00\x00\x00+host'
tRp4528
asbasbasbag69
(g85
g71
NtRp4529
(dp4530
g74
(dp4531
sg83
g4512
sg76
(lp4532
g69
(g90
g71
NtRp4533
(dp4534
g74
(dp4535
sg83
g4529
sg76
(lp4536
g69
(g70
g71
NtRp4537
(dp4538
g74
(dp4539
g82
I3
ssg83
g4533
sg76
(lp4540
g112
asbasbasbag69
(g85
g71
NtRp4541
(dp4542
g74
(dp4543
sg83
g4512
sg76
(lp4544
g69
(g90
g71
NtRp4545
(dp4546
g74
(dp4547
sg83
g4541
sg76
(lp4548
g69
(g70
g71
NtRp4549
(dp4550
g74
(dp4551
g82
I3
ssg83
g4545
sg76
(lp4552
S'/interface'
p4553
asbasbasbag69
(g85
g71
NtRp4554
(dp4555
g74
(dp4556
sg83
g4512
sg76
(lp4557
g69
(g90
g71
NtRp4558
(dp4559
g74
(dp4560
sg83
g4554
sg76
(lp4561
g69
(g70
g71
NtRp4562
(dp4563
g74
(dp4564
g82
I3
ssg83
g4558
sg76
(lp4565
g69
(g78
g71
NtRp4566
(dp4567
g74
(dp4568
g82
I2
ssg83
Nsg76
(lp4569
sbasbasbasbasbasbasbasbasbasbasbasbag69
(g85
g71
NtRp4570
(dp4571
g74
(dp4572
sg83
g3784
sg76
(lp4573
g69
(g90
g71
NtRp4574
(dp4575
g74
(dp4576
g94
g95
ssg83
g4570
sg76
(lp4577
S'menu2'
p4578
asbag69
(g90
g71
NtRp4579
(dp4580
g74
(dp4581
g101
g102
ssg83
g4570
sg76
(lp4582
S':'
asbag69
(g90
g71
NtRp4583
(dp4584
g74
(dp4585
sg83
g4570
sg76
(lp4586
g69
(g70
g71
NtRp4587
(dp4588
g74
(dp4589
g82
I5
ssg83
g4583
sg76
(lp4590
g69
(g78
g71
NtRp4591
(dp4592
g74
(dp4593
g82
I4
ssg83
Nsg76
(lp4594
g69
(g85
g71
NtRp4595
(dp4596
g74
(dp4597
sg83
g4591
sg76
(lp4598
g69
(g90
g71
NtRp4599
(dp4600
g74
(dp4601
sg83
g4595
sg76
(lp4602
g69
(g70
g71
NtRp4603
(dp4604
g74
(dp4605
g82
I4
ssg83
g4599
sg76
(lp4606
g69
(g78
g71
NtRp4607
(dp4608
g74
(dp4609
g82
I3
ssg83
Nsg76
(lp4610
g69
(g85
g71
NtRp4611
(dp4612
g74
(dp4613
sg83
g4607
sg76
(lp4614
g69
(g90
g71
NtRp4615
(dp4616
g74
(dp4617
sg83
g4611
sg76
(lp4618
g69
(g70
g71
NtRp4619
(dp4620
g74
(dp4621
g82
I3
ssg83
g4615
sg76
(lp4622
g69
(g4257
g71
NtRp4623
(dp4624
g74
(dp4625
g4246
S'dropdown-toggle'
p4626
ssg83
Nsg76
(lp4627
S'Admin'
p4628
asbasbasbasbag69
(g85
g71
NtRp4629
(dp4630
g74
(dp4631
sg83
g4607
sg76
(lp4632
g69
(g90
g71
NtRp4633
(dp4634
g74
(dp4635
sg83
g4629
sg76
(lp4636
g69
(g70
g71
NtRp4637
(dp4638
g74
(dp4639
g82
I3
ssg83
g4633
sg76
(lp4640
g112
asbasbasbag69
(g85
g71
NtRp4641
(dp4642
g74
(dp4643
sg83
g4607
sg76
(lp4644
g69
(g90
g71
NtRp4645
(dp4646
g74
(dp4647
sg83
g4641
sg76
(lp4648
g69
(g70
g71
NtRp4649
(dp4650
g74
(dp4651
g82
I3
ssg83
g4645
sg76
(lp4652
S'#'
asbasbasbag69
(g85
g71
NtRp4653
(dp4654
g74
(dp4655
sg83
g4607
sg76
(lp4656
g69
(g90
g71
NtRp4657
(dp4658
g74
(dp4659
sg83
g4653
sg76
(lp4660
g69
(g70
g71
NtRp4661
(dp4662
g74
(dp4663
g82
I3
ssg83
g4657
sg76
(lp4664
g69
(g78
g71
NtRp4665
(dp4666
g74
(dp4667
g82
I2
ssg83
Nsg76
(lp4668
g69
(g85
g71
NtRp4669
(dp4670
g74
(dp4671
sg83
g4665
sg76
(lp4672
g69
(g90
g71
NtRp4673
(dp4674
g74
(dp4675
sg83
g4669
sg76
(lp4676
g69
(g70
g71
NtRp4677
(dp4678
g74
(dp4679
g82
I2
ssg83
g4673
sg76
(lp4680
g69
(g78
g71
NtRp4681
(dp4682
g74
(dp4683
g82
I1
ssg83
Nsg76
(lp4684
g69
(g85
g71
NtRp4685
(dp4686
g74
(dp4687
sg83
g4681
sg76
(lp4688
g69
(g90
g71
NtRp4689
(dp4690
g74
(dp4691
sg83
g4685
sg76
(lp4692
g69
(g70
g71
NtRp4693
(dp4694
g74
(dp4695
g82
I1
ssg83
g4689
sg76
(lp4696
g4317
(S's\t\x00\x00\x00Usu\xc3\xa1rios'
tRp4697
asbasbasbag69
(g85
g71
NtRp4698
(dp4699
g74
(dp4700
sg83
g4681
sg76
(lp4701
g69
(g90
g71
NtRp4702
(dp4703
g74
(dp4704
sg83
g4698
sg76
(lp4705
g69
(g70
g71
NtRp4706
(dp4707
g74
(dp4708
g82
I1
ssg83
g4702
sg76
(lp4709
I00
asbasbasbag69
(g85
g71
NtRp4710
(dp4711
g74
(dp4712
sg83
g4681
sg76
(lp4713
g69
(g90
g71
NtRp4714
(dp4715
g74
(dp4716
sg83
g4710
sg76
(lp4717
g69
(g70
g71
NtRp4718
(dp4719
g74
(dp4720
g82
I1
ssg83
g4714
sg76
(lp4721
S'/manager/users'
p4722
asbasbasbasbasbasbasbag69
(g85
g71
NtRp4723
(dp4724
g74
(dp4725
sg83
g4665
sg76
(lp4726
g69
(g90
g71
NtRp4727
(dp4728
g74
(dp4729
sg83
g4723
sg76
(lp4730
g69
(g70
g71
NtRp4731
(dp4732
g74
(dp4733
g82
I2
ssg83
g4727
sg76
(lp4734
g69
(g78
g71
NtRp4735
(dp4736
g74
(dp4737
g82
I1
ssg83
Nsg76
(lp4738
g69
(g85
g71
NtRp4739
(dp4740
g74
(dp4741
sg83
g4735
sg76
(lp4742
g69
(g90
g71
NtRp4743
(dp4744
g74
(dp4745
sg83
g4739
sg76
(lp4746
g69
(g70
g71
NtRp4747
(dp4748
g74
(dp4749
g82
I1
ssg83
g4743
sg76
(lp4750
g4317
(S't\x06\x00\x00\x00Grupos'
tRp4751
asbasbasbag69
(g85
g71
NtRp4752
(dp4753
g74
(dp4754
sg83
g4735
sg76
(lp4755
g69
(g90
g71
NtRp4756
(dp4757
g74
(dp4758
sg83
g4752
sg76
(lp4759
g69
(g70
g71
NtRp4760
(dp4761
g74
(dp4762
g82
I1
ssg83
g4756
sg76
(lp4763
I00
asbasbasbag69
(g85
g71
NtRp4764
(dp4765
g74
(dp4766
sg83
g4735
sg76
(lp4767
g69
(g90
g71
NtRp4768
(dp4769
g74
(dp4770
sg83
g4764
sg76
(lp4771
g69
(g70
g71
NtRp4772
(dp4773
g74
(dp4774
g82
I1
ssg83
g4768
sg76
(lp4775
S'/manager/groups'
p4776
asbasbasbasbasbasbasbag69
(g85
g71
NtRp4777
(dp4778
g74
(dp4779
sg83
g4665
sg76
(lp4780
g69
(g90
g71
NtRp4781
(dp4782
g74
(dp4783
sg83
g4777
sg76
(lp4784
g69
(g70
g71
NtRp4785
(dp4786
g74
(dp4787
g82
I2
ssg83
g4781
sg76
(lp4788
g69
(g78
g71
NtRp4789
(dp4790
g74
(dp4791
g82
I1
ssg83
Nsg76
(lp4792
g69
(g85
g71
NtRp4793
(dp4794
g74
(dp4795
sg83
g4789
sg76
(lp4796
g69
(g90
g71
NtRp4797
(dp4798
g74
(dp4799
sg83
g4793
sg76
(lp4800
g69
(g70
g71
NtRp4801
(dp4802
g74
(dp4803
g82
I1
ssg83
g4797
sg76
(lp4804
g4317
(S't\x07\x00\x00\x00Membros'
tRp4805
asbasbasbag69
(g85
g71
NtRp4806
(dp4807
g74
(dp4808
sg83
g4789
sg76
(lp4809
g69
(g90
g71
NtRp4810
(dp4811
g74
(dp4812
sg83
g4806
sg76
(lp4813
g69
(g70
g71
NtRp4814
(dp4815
g74
(dp4816
g82
I1
ssg83
g4810
sg76
(lp4817
I00
asbasbasbag69
(g85
g71
NtRp4818
(dp4819
g74
(dp4820
sg83
g4789
sg76
(lp4821
g69
(g90
g71
NtRp4822
(dp4823
g74
(dp4824
sg83
g4818
sg76
(lp4825
g69
(g70
g71
NtRp4826
(dp4827
g74
(dp4828
g82
I1
ssg83
g4822
sg76
(lp4829
S'/manager/membership'
p4830
asbasbasbasbasbasbasbasbasbasbasbasbasbasbasbag69
(g85
g71
NtRp4831
(dp4832
g74
(dp4833
sg83
g4591
sg76
(lp4834
g69
(g90
g71
NtRp4835
(dp4836
g74
(dp4837
sg83
g4831
sg76
(lp4838
g69
(g70
g71
NtRp4839
(dp4840
g74
(dp4841
g82
I4
ssg83
g4835
sg76
(lp4842
g69
(g78
g71
NtRp4843
(dp4844
g74
(dp4845
g82
I3
ssg83
Nsg76
(lp4846
g69
(g85
g71
NtRp4847
(dp4848
g74
(dp4849
sg83
g4843
sg76
(lp4850
g69
(g90
g71
NtRp4851
(dp4852
g74
(dp4853
sg83
g4847
sg76
(lp4854
g69
(g70
g71
NtRp4855
(dp4856
g74
(dp4857
g82
I3
ssg83
g4851
sg76
(lp4858
g69
(g4257
g71
NtRp4859
(dp4860
g74
(dp4861
g4246
g4626
ssg83
Nsg76
(lp4862
S'Login'
p4863
asbasbasbasbag69
(g85
g71
NtRp4864
(dp4865
g74
(dp4866
sg83
g4843
sg76
(lp4867
g69
(g90
g71
NtRp4868
(dp4869
g74
(dp4870
sg83
g4864
sg76
(lp4871
g69
(g70
g71
NtRp4872
(dp4873
g74
(dp4874
g82
I3
ssg83
g4868
sg76
(lp4875
g112
asbasbasbag69
(g85
g71
NtRp4876
(dp4877
g74
(dp4878
sg83
g4843
sg76
(lp4879
g69
(g90
g71
NtRp4880
(dp4881
g74
(dp4882
sg83
g4876
sg76
(lp4883
g69
(g70
g71
NtRp4884
(dp4885
g74
(dp4886
g82
I3
ssg83
g4880
sg76
(lp4887
S'#'
asbasbasbag69
(g85
g71
NtRp4888
(dp4889
g74
(dp4890
sg83
g4843
sg76
(lp4891
g69
(g90
g71
NtRp4892
(dp4893
g74
(dp4894
sg83
g4888
sg76
(lp4895
g69
(g70
g71
NtRp4896
(dp4897
g74
(dp4898
g82
I3
ssg83
g4892
sg76
(lp4899
g69
(g78
g71
NtRp4900
(dp4901
g74
(dp4902
g82
I2
ssg83
Nsg76
(lp4903
g69
(g85
g71
NtRp4904
(dp4905
g74
(dp4906
sg83
g4900
sg76
(lp4907
g69
(g90
g71
NtRp4908
(dp4909
g74
(dp4910
sg83
g4904
sg76
(lp4911
g69
(g70
g71
NtRp4912
(dp4913
g74
(dp4914
g82
I2
ssg83
g4908
sg76
(lp4915
g69
(g78
g71
NtRp4916
(dp4917
g74
(dp4918
g82
I1
ssg83
Nsg76
(lp4919
g69
(g85
g71
NtRp4920
(dp4921
g74
(dp4922
sg83
g4916
sg76
(lp4923
g69
(g90
g71
NtRp4924
(dp4925
g74
(dp4926
sg83
g4920
sg76
(lp4927
g69
(g70
g71
NtRp4928
(dp4929
g74
(dp4930
g82
I1
ssg83
g4924
sg76
(lp4931
g4317
(S't\x06\x00\x00\x00Logout'
tRp4932
asbasbasbag69
(g85
g71
NtRp4933
(dp4934
g74
(dp4935
sg83
g4916
sg76
(lp4936
g69
(g90
g71
NtRp4937
(dp4938
g74
(dp4939
sg83
g4933
sg76
(lp4940
g69
(g70
g71
NtRp4941
(dp4942
g74
(dp4943
g82
I1
ssg83
g4937
sg76
(lp4944
I00
asbasbasbag69
(g85
g71
NtRp4945
(dp4946
g74
(dp4947
sg83
g4916
sg76
(lp4948
g69
(g90
g71
NtRp4949
(dp4950
g74
(dp4951
sg83
g4945
sg76
(lp4952
g69
(g70
g71
NtRp4953
(dp4954
g74
(dp4955
g82
I1
ssg83
g4949
sg76
(lp4956
S'/initial/user/logout'
p4957
asbasbasbasbasbasbasbasbasbasbasbasbasbasbasbasbasbasbasbag69
(g85
g71
NtRp4958
(dp4959
g74
(dp4960
sg83
g3784
sg76
(lp4961
g69
(g90
g71
NtRp4962
(dp4963
g74
(dp4964
g94
g95
ssg83
g4958
sg76
(lp4965
S'meta'
p4966
asbag69
(g90
g71
NtRp4967
(dp4968
g74
(dp4969
g101
g102
ssg83
g4958
sg76
(lp4970
S':'
asbag69
(g90
g71
NtRp4971
(dp4972
g74
(dp4973
sg83
g4958
sg76
(lp4974
g69
(g70
g71
NtRp4975
(dp4976
g74
(dp4977
g82
I5
ssg83
g4971
sg76
(lp4978
g69
(g78
g71
NtRp4979
(dp4980
g74
(dp4981
g82
I4
ssg83
Nsg76
(lp4982
g69
(g85
g71
NtRp4983
(dp4984
g74
(dp4985
sg83
g4979
sg76
(lp4986
g69
(g90
g71
NtRp4987
(dp4988
g74
(dp4989
g94
g95
ssg83
g4983
sg76
(lp4990
S'author'
p4991
asbag69
(g90
g71
NtRp4992
(dp4993
g74
(dp4994
g101
g102
ssg83
g4983
sg76
(lp4995
S':'
asbag69
(g90
g71
NtRp4996
(dp4997
g74
(dp4998
sg83
g4983
sg76
(lp4999
g69
(g70
g71
NtRp5000
(dp5001
g74
(dp5002
g82
I4
ssg83
g4996
sg76
(lp5003
S'Your Name <you@example.com>'
p5004
asbasbasbag69
(g85
g71
NtRp5005
(dp5006
g74
(dp5007
sg83
g4979
sg76
(lp5008
g69
(g90
g71
NtRp5009
(dp5010
g74
(dp5011
g94
g95
ssg83
g5005
sg76
(lp5012
S'description'
p5013
asbag69
(g90
g71
NtRp5014
(dp5015
g74
(dp5016
g101
g102
ssg83
g5005
sg76
(lp5017
S':'
asbag69
(g90
g71
NtRp5018
(dp5019
g74
(dp5020
sg83
g5005
sg76
(lp5021
g69
(g70
g71
NtRp5022
(dp5023
g74
(dp5024
g82
I4
ssg83
g5018
sg76
(lp5025
S'a cool new app'
p5026
asbasbasbag69
(g85
g71
NtRp5027
(dp5028
g74
(dp5029
sg83
g4979
sg76
(lp5030
g69
(g90
g71
NtRp5031
(dp5032
g74
(dp5033
g94
g95
ssg83
g5027
sg76
(lp5034
S'generator'
p5035
asbag69
(g90
g71
NtRp5036
(dp5037
g74
(dp5038
g101
g102
ssg83
g5027
sg76
(lp5039
S':'
asbag69
(g90
g71
NtRp5040
(dp5041
g74
(dp5042
sg83
g5027
sg76
(lp5043
g69
(g70
g71
NtRp5044
(dp5045
g74
(dp5046
g82
I4
ssg83
g5040
sg76
(lp5047
S'Web2py Web Framework'
p5048
asbasbasbag69
(g85
g71
NtRp5049
(dp5050
g74
(dp5051
sg83
g4979
sg76
(lp5052
g69
(g90
g71
NtRp5053
(dp5054
g74
(dp5055
g94
g95
ssg83
g5049
sg76
(lp5056
S'keywords'
p5057
asbag69
(g90
g71
NtRp5058
(dp5059
g74
(dp5060
g101
g102
ssg83
g5049
sg76
(lp5061
S':'
asbag69
(g90
g71
NtRp5062
(dp5063
g74
(dp5064
sg83
g5049
sg76
(lp5065
g69
(g70
g71
NtRp5066
(dp5067
g74
(dp5068
g82
I4
ssg83
g5062
sg76
(lp5069
S'web2py, python, framework'
p5070
asbasbasbasbasbasbasbag69
(g85
g71
NtRp5071
(dp5072
g74
(dp5073
sg83
g3784
sg76
(lp5074
g69
(g90
g71
NtRp5075
(dp5076
g74
(dp5077
g94
g95
ssg83
g5071
sg76
(lp5078
S'models_to_run'
p5079
asbag69
(g90
g71
NtRp5080
(dp5081
g74
(dp5082
g101
g102
ssg83
g5071
sg76
(lp5083
S':'
asbag69
(g90
g71
NtRp5084
(dp5085
g74
(dp5086
sg83
g5071
sg76
(lp5087
g69
(g70
g71
NtRp5088
(dp5089
g74
(dp5090
g82
I5
ssg83
g5084
sg76
(lp5091
g69
(g78
g71
NtRp5092
(dp5093
g74
(dp5094
g82
I4
ssg83
Nsg76
(lp5095
g69
(g85
g71
NtRp5096
(dp5097
g74
(dp5098
sg83
g5092
sg76
(lp5099
g69
(g90
g71
NtRp5100
(dp5101
g74
(dp5102
sg83
g5096
sg76
(lp5103
g69
(g70
g71
NtRp5104
(dp5105
g74
(dp5106
g82
I4
ssg83
g5100
sg76
(lp5107
S'^\\w+\\.py$'
p5108
asbasbasbag69
(g85
g71
NtRp5109
(dp5110
g74
(dp5111
sg83
g5092
sg76
(lp5112
g69
(g90
g71
NtRp5113
(dp5114
g74
(dp5115
sg83
g5109
sg76
(lp5116
g69
(g70
g71
NtRp5117
(dp5118
g74
(dp5119
g82
I4
ssg83
g5113
sg76
(lp5120
S'^initial/\\w+\\.py$'
p5121
asbasbasbag69
(g85
g71
NtRp5122
(dp5123
g74
(dp5124
sg83
g5092
sg76
(lp5125
g69
(g90
g71
NtRp5126
(dp5127
g74
(dp5128
sg83
g5122
sg76
(lp5129
g69
(g70
g71
NtRp5130
(dp5131
g74
(dp5132
g82
I4
ssg83
g5126
sg76
(lp5133
S'^initial/show_servidor/\\w+\\.py$'
p5134
asbasbasbasbasbasbasbag69
(g85
g71
NtRp5135
(dp5136
g74
(dp5137
sg83
g3784
sg76
(lp5138
g69
(g90
g71
NtRp5139
(dp5140
g74
(dp5141
g94
g95
ssg83
g5135
sg76
(lp5142
S'postprocessing'
p5143
asbag69
(g90
g71
NtRp5144
(dp5145
g74
(dp5146
g101
g102
ssg83
g5135
sg76
(lp5147
S':'
asbag69
(g90
g71
NtRp5148
(dp5149
g74
(dp5150
sg83
g5135
sg76
(lp5151
g69
(g70
g71
NtRp5152
(dp5153
g74
(dp5154
g82
I5
ssg83
g5148
sg76
(lp5155
g69
(g78
g71
NtRp5156
(dp5157
g74
(dp5158
g82
I4
ssg83
Nsg76
(lp5159
sbasbasbasbag69
(g85
g71
NtRp5160
(dp5161
g74
(dp5162
sg83
g3784
sg76
(lp5163
g69
(g90
g71
NtRp5164
(dp5165
g74
(dp5166
g94
g95
ssg83
g5160
sg76
(lp5167
S'session_cookie_expires'
p5168
asbag69
(g90
g71
NtRp5169
(dp5170
g74
(dp5171
g101
g102
ssg83
g5160
sg76
(lp5172
S':'
asbag69
(g90
g71
NtRp5173
(dp5174
g74
(dp5175
sg83
g5160
sg76
(lp5176
g69
(g70
g71
NtRp5177
(dp5178
g74
(dp5179
g82
I5
ssg83
g5173
sg76
(lp5180
S'None'
p5181
asbasbasbag69
(g85
g71
NtRp5182
(dp5183
g74
(dp5184
sg83
g3784
sg76
(lp5185
g69
(g90
g71
NtRp5186
(dp5187
g74
(dp5188
g94
g95
ssg83
g5182
sg76
(lp5189
S'session_data_name'
p5190
asbag69
(g90
g71
NtRp5191
(dp5192
g74
(dp5193
g101
g102
ssg83
g5182
sg76
(lp5194
S':'
asbag69
(g90
g71
NtRp5195
(dp5196
g74
(dp5197
sg83
g5182
sg76
(lp5198
g69
(g70
g71
NtRp5199
(dp5200
g74
(dp5201
g82
I5
ssg83
g5195
sg76
(lp5202
S'session_data_projeto'
p5203
asbasbasbag69
(g85
g71
NtRp5204
(dp5205
g74
(dp5206
sg83
g3784
sg76
(lp5207
g69
(g90
g71
NtRp5208
(dp5209
g74
(dp5210
g94
g95
ssg83
g5204
sg76
(lp5211
S'session_file'
p5212
asbag69
(g90
g71
NtRp5213
(dp5214
g74
(dp5215
g101
g102
ssg83
g5204
sg76
(lp5216
S':'
asbag69
(g90
g71
NtRp5217
(dp5218
g74
(dp5219
sg83
g5204
sg76
(lp5220
g69
(g70
g71
NtRp5221
(dp5222
g74
(dp5223
g82
I5
ssg83
g5217
sg76
(lp5224
S"<open file '/var/www/conferencia/applications/projeto/sessions/127.0.0.1-001edd4c-cc9d-40b6-92aa-d3bbbc6019b5', mode 'rb+' at 0x7f634c86e1e0>"
p5225
asbasbasbag69
(g85
g71
NtRp5226
(dp5227
g74
(dp5228
sg83
g3784
sg76
(lp5229
g69
(g90
g71
NtRp5230
(dp5231
g74
(dp5232
g94
g95
ssg83
g5226
sg76
(lp5233
S'session_filename'
p5234
asbag69
(g90
g71
NtRp5235
(dp5236
g74
(dp5237
g101
g102
ssg83
g5226
sg76
(lp5238
S':'
asbag69
(g90
g71
NtRp5239
(dp5240
g74
(dp5241
sg83
g5226
sg76
(lp5242
g69
(g70
g71
NtRp5243
(dp5244
g74
(dp5245
g82
I5
ssg83
g5239
sg76
(lp5246
S'/var/www/conferencia/applications/projeto/sessions/127.0.0.1-001edd4c-cc9d-40b6-92aa-d3bbbc6019b5'
p5247
asbasbasbag69
(g85
g71
NtRp5248
(dp5249
g74
(dp5250
sg83
g3784
sg76
(lp5251
g69
(g90
g71
NtRp5252
(dp5253
g74
(dp5254
g94
g95
ssg83
g5248
sg76
(lp5255
S'session_id'
p5256
asbag69
(g90
g71
NtRp5257
(dp5258
g74
(dp5259
g101
g102
ssg83
g5248
sg76
(lp5260
S':'
asbag69
(g90
g71
NtRp5261
(dp5262
g74
(dp5263
sg83
g5248
sg76
(lp5264
g69
(g70
g71
NtRp5265
(dp5266
g74
(dp5267
g82
I5
ssg83
g5261
sg76
(lp5268
g526
asbasbasbag69
(g85
g71
NtRp5269
(dp5270
g74
(dp5271
sg83
g3784
sg76
(lp5272
g69
(g90
g71
NtRp5273
(dp5274
g74
(dp5275
g94
g95
ssg83
g5269
sg76
(lp5276
S'session_id_name'
p5277
asbag69
(g90
g71
NtRp5278
(dp5279
g74
(dp5280
g101
g102
ssg83
g5269
sg76
(lp5281
S':'
asbag69
(g90
g71
NtRp5282
(dp5283
g74
(dp5284
sg83
g5269
sg76
(lp5285
g69
(g70
g71
NtRp5286
(dp5287
g74
(dp5288
g82
I5
ssg83
g5282
sg76
(lp5289
g3841
asbasbasbag69
(g85
g71
NtRp5290
(dp5291
g74
(dp5292
sg83
g3784
sg76
(lp5293
g69
(g90
g71
NtRp5294
(dp5295
g74
(dp5296
g94
g95
ssg83
g5290
sg76
(lp5297
S'session_locked'
p5298
asbag69
(g90
g71
NtRp5299
(dp5300
g74
(dp5301
g101
g102
ssg83
g5290
sg76
(lp5302
S':'
asbag69
(g90
g71
NtRp5303
(dp5304
g74
(dp5305
sg83
g5290
sg76
(lp5306
g69
(g70
g71
NtRp5307
(dp5308
g74
(dp5309
g82
I5
ssg83
g5303
sg76
(lp5310
g1795
asbasbasbag69
(g85
g71
NtRp5311
(dp5312
g74
(dp5313
sg83
g3784
sg76
(lp5314
g69
(g90
g71
NtRp5315
(dp5316
g74
(dp5317
g94
g95
ssg83
g5311
sg76
(lp5318
S'session_new'
p5319
asbag69
(g90
g71
NtRp5320
(dp5321
g74
(dp5322
g101
g102
ssg83
g5311
sg76
(lp5323
S':'
asbag69
(g90
g71
NtRp5324
(dp5325
g74
(dp5326
sg83
g5311
sg76
(lp5327
g69
(g70
g71
NtRp5328
(dp5329
g74
(dp5330
g82
I5
ssg83
g5324
sg76
(lp5331
g112
asbasbasbag69
(g85
g71
NtRp5332
(dp5333
g74
(dp5334
sg83
g3784
sg76
(lp5335
g69
(g90
g71
NtRp5336
(dp5337
g74
(dp5338
g94
g95
ssg83
g5332
sg76
(lp5339
S'session_storage_type'
p5340
asbag69
(g90
g71
NtRp5341
(dp5342
g74
(dp5343
g101
g102
ssg83
g5332
sg76
(lp5344
S':'
asbag69
(g90
g71
NtRp5345
(dp5346
g74
(dp5347
sg83
g5332
sg76
(lp5348
g69
(g70
g71
NtRp5349
(dp5350
g74
(dp5351
g82
I5
ssg83
g5345
sg76
(lp5352
g3609
asbasbasbag69
(g85
g71
NtRp5353
(dp5354
g74
(dp5355
sg83
g3784
sg76
(lp5356
g69
(g90
g71
NtRp5357
(dp5358
g74
(dp5359
g94
g95
ssg83
g5353
sg76
(lp5360
S'status'
p5361
asbag69
(g90
g71
NtRp5362
(dp5363
g74
(dp5364
g101
g102
ssg83
g5353
sg76
(lp5365
S':'
asbag69
(g90
g71
NtRp5366
(dp5367
g74
(dp5368
sg83
g5353
sg76
(lp5369
g69
(g70
g71
NtRp5370
(dp5371
g74
(dp5372
g82
I5
ssg83
g5366
sg76
(lp5373
S'200'
p5374
asbasbasbag69
(g85
g71
NtRp5375
(dp5376
g74
(dp5377
sg83
g3784
sg76
(lp5378
g69
(g90
g71
NtRp5379
(dp5380
g74
(dp5381
g94
g95
ssg83
g5375
sg76
(lp5382
S'subtitle'
p5383
asbag69
(g90
g71
NtRp5384
(dp5385
g74
(dp5386
g101
g102
ssg83
g5375
sg76
(lp5387
S':'
asbag69
(g90
g71
NtRp5388
(dp5389
g74
(dp5390
sg83
g5375
sg76
(lp5391
g69
(g70
g71
NtRp5392
(dp5393
g74
(dp5394
g82
I5
ssg83
g5388
sg76
(lp5395
g4317
(S's\r\x00\x00\x00customize me!'
tRp5396
asbasbasbag69
(g85
g71
NtRp5397
(dp5398
g74
(dp5399
sg83
g3784
sg76
(lp5400
g69
(g90
g71
NtRp5401
(dp5402
g74
(dp5403
g94
g95
ssg83
g5397
sg76
(lp5404
S'title'
p5405
asbag69
(g90
g71
NtRp5406
(dp5407
g74
(dp5408
g101
g102
ssg83
g5397
sg76
(lp5409
S':'
asbag69
(g90
g71
NtRp5410
(dp5411
g74
(dp5412
sg83
g5397
sg76
(lp5413
g69
(g70
g71
NtRp5414
(dp5415
g74
(dp5416
g82
I5
ssg83
g5410
sg76
(lp5417
S'Eventos'
p5418
asbasbasbag69
(g85
g71
NtRp5419
(dp5420
g74
(dp5421
sg83
g3784
sg76
(lp5422
g69
(g90
g71
NtRp5423
(dp5424
g74
(dp5425
g94
g95
ssg83
g5419
sg76
(lp5426
S'view'
p5427
asbag69
(g90
g71
NtRp5428
(dp5429
g74
(dp5430
g101
g102
ssg83
g5419
sg76
(lp5431
S':'
asbag69
(g90
g71
NtRp5432
(dp5433
g74
(dp5434
sg83
g5419
sg76
(lp5435
g69
(g70
g71
NtRp5436
(dp5437
g74
(dp5438
g82
I5
ssg83
g5432
sg76
(lp5439
S'initial/show_servidor.html'
p5440
asbasbasbasbasbsS'locals'
p5441
(dp5442
S'dbio'
p5443
g1795
sS'keyed'
p5444
g1795
sS'field'
p5445
S'<gluon.dal.Field object>'
p5446
sS'request_vars'
p5447
S"<Storage {'admin_user': '4', 'starttime': '2013-...013-04-11 14:14:05', '_formname': 'web2py_grid'}>"
p5448
sS'fields'
p5449
g21
sS'detect_record_change'
p5450
g112
sS'kwargs'
p5451
g21
sS'ret'
p5452
g1795
sS'auch'
p5453
S'<Storage {}>'
p5454
sS'item'
p5455
S'<gluon.validators.IS_IN_DB object>'
p5456
sg3766
S"<Storage {'_formkey[web2py_grid]': '1dd5c80e-873... {'version': '22.0.1229.94', 'name': 'Chrome'}}}>"
p5457
sS'fieldname'
p5458
S"'gravacao'"
p5459
sS'onvalidation'
p5460
S'None'
p5461
sS'keepvalues'
p5462
g1795
sS'record_id'
p5463
S"{'confno': None}"
p5464
sS'formname_id'
p5465
S"'1014'"
p5466
sS'hideerror'
p5467
g112
sS'requires'
p5468
S'[]'
p5469
sS'self'
p5470
S'<gluon.sqlhtml.SQLFORM object>'
p5471
sS'formname'
p5472
S"'web2py_grid'"
p5473
sssS'traceback'
p5474
S'Traceback (most recent call last):\n  File "/var/www/conferencia/gluon/restricted.py", line 212, in restricted\n    exec ccode in environment\n  File "/var/www/conferencia/applications/projeto/controllers/initial.py", line 326, in <module>\n  File "/var/www/conferencia/gluon/globals.py", line 193, in <lambda>\n    self._caller = lambda f: f()\n  File "/var/www/conferencia/applications/projeto/controllers/initial.py", line 25, in show_servidor\n    ignore_rw = True, maxtextlength=36,\n  File "/var/www/conferencia/gluon/sqlhtml.py", line 1920, in grid\n    next=referrer)\n  File "/var/www/conferencia/gluon/html.py", line 2179, in process\n    self.validate(**kwargs)\n  File "/var/www/conferencia/gluon/html.py", line 2118, in validate\n    if self.accepts(**kwargs):\n  File "/var/www/conferencia/gluon/sqlhtml.py", line 1343, in accepts\n    \'%s != %s\' % (record_id, self.record_id))\nSyntaxError: user is tampering with form\'s record_id: {\'confno\': None} != 1014\n'
p5475
s.