(dp1
S'output'
p2
S"<type 'exceptions.SyntaxError'> user is tampering with form's record_id: {'confno': None} != 1013"
p3
sS'layer'
p4
S'/var/www/conferencia/applications/projeto/controllers/initial.py'
p5
sS'code'
p6
S'# coding: utf-8\n\ndef show_cliente():\n\tresponse.title="Eventos"\n\tprint request.now\n\n\tgrid = SQLFORM.grid(db.meetme, orderby=db.meetme.endtime,\n\t\tuser_signature=False, searchable=True, csv=False, \n\t\tpaginate=50, details=False,  \n\t\tignore_rw = True, maxtextlength=36, \n    \t)\n\treturn response.render("initial/show_grid.html", grid=grid)\n\ndef show_servidor():\n\tresponse.title="Eventos"\n\tdata = request.now\n\n\tquery=(db.meetme.endtime > \'2013-04-03 09:38:17.902532\') \n\tquery2=(\'SELECT * from meetme order by id desc LIMIT 4;\')\n\tprint query\n\n\tgrid = SQLFORM.grid(query=query, orderby=db.meetme.endtime,\n\t\tuser_signature=False, searchable=True, csv=False, \n\t\tpaginate=50, details=False,  \n\t\tignore_rw = True, maxtextlength=36, \n    \t)\n\treturn response.render("initial/show_grid.html", grid=grid)\n\n\n@auth.requires_login()\ndef show_distro():\n\tresponse.title="Distribui\xc3\xa7\xc3\xb5es"\n\n\tdb.args=Distro.id.readable=False\n\tdb.args=Distro.img.readable=False\n\tgrid = SQLFORM.grid(Distro,\n\t\tuser_signature=True, searchable=True, csv=False,\n\t\tpaginate=50, details=False, ignore_rw = True, \n\t\tmaxtextlength=26, links_placement=\'left\',\n\t\tcreate=auth.has_membership("admin"),\n\t\teditable=auth.has_membership("admin"),\n\t\tdeletable=auth.has_membership("admin"),  \n    \tlinks = [lambda row: A(\'hosts\', \n    \t\t_class=\'btn\', \n    \t\t_title=\'ver servidores\', \n    \t\t_href=URL("initial", "/distro_host", \n    \t\tvars=dict(f=row.id, n1=\'Distros\', p1=\'show_distro\'))), \n    \tdict(header=\'\',body=lambda row: A( IMG(_src=URL("static", "images", args=(row.img) ))))]\n\t\t)\n\treturn response.render("initial/show_grid.html", grid=grid)\n\n\n@auth.requires_login()\ndef cliente_host():\n\tfiltro = request.vars[\'f\']\n\tqueryset = db(db.cliente.id == filtro)\n\trows = queryset.select()\n\tcliente = rows[0]\n\tresponse.title = cliente.nome\n\tprint cliente\n\n\tnome_ant1 = request.vars[\'n1\']\n\tfuncao_ant1 = request.vars[\'p1\']\n\tnome_atual = cliente.nome\n\n\tquery = ((db.hosts.id_cliente == filtro) & (db.distro.id == db.hosts.id_distro))\n\tlinks = [dict(header=\'\',body=lambda row: A( IMG(_src=URL("static", "images", args=(row.distro.img)) ))), \n\t lambda row: A(\'Detalhes\', \n    \t\t      _class=\'btn\', \n    \t\t      _title=\'Detalhes\', \n    \t\t      _href=URL("initial", "/detalhes_nav", \n    \t\t      vars=dict(f=row.hosts.id, c=filtro, n=cliente.nome, \n    \t\t      \t\t\tn1=\'Clientes\', p1=\'show_cliente\', p=\'cliente_host\'))),\n\t lambda row: A(\'Editar\', \n    \t\t      _class=\'btn\', \n    \t\t      _title=\'Editar\', \n    \t\t      _href=URL("initial", "/edit_host", \n    \t\t      vars=dict(f=row.hosts.id, c=filtro, n=cliente.nome, \n    \t\t      \t\tn1=\'Clientes\', p1=\'show_cliente\', p=\'cliente_host\')))]\n\tdb.hosts.id.readable=False\n\tdb.distro.img.readable=False\n\t\n\tfields = (db.hosts.id, db.hosts.id_servidor, db.hosts.id_distro, db.distro.img, \n\t\t\t  db.hosts.ip_chegada, db.hosts.porta_ssh, db.hosts.gateway)\n\theaders = {\'hosts.id\':   \'ID\',\n\t\t\t   \'hosts.id_cliente\': \'Cliente\',\n               \'hosts.id_servidor\': \'Servidor\',\n               \'hosts.id_distro\': \'Distro\',\n               \'hosts.nome\': \'Nome\',\n\t           \'hosts.servicos\': \'Servicos\'}\n\tgrid = SQLFORM.grid(query=query, fields=fields, headers=headers, csv=False,\n\t\t\t\t\t\tdetails=False, searchable=False, maxtextlength=23, links=links, \n\t\t\t\t\t\tlinks_placement=\'left\', editable=False, create=False)\n\n\treturn response.render("initial/show_grid2.html", grid=grid, nome_ant1=nome_ant1, \n\t\t\t\t\t\tfuncao_ant1=funcao_ant1, nome_atual=nome_atual)\n\n@auth.requires_login()\ndef servidor_host():\n\tfiltro = request.vars[\'f\']\n\tqueryset = db(db.servidor.id == filtro)\n\trows = queryset.select()\n\tservidor = rows[0]\n\tresponse.title = servidor.nome\n\n\tnome_ant1 = request.vars[\'n1\']\n\tfuncao_ant1 = request.vars[\'p1\']\n\tnome_atual = servidor.nome\t\n\n\tdb.distro.img.readable=False\n\tdb.hosts.id.readable=False\n\tquery = ((db.hosts.id_servidor == filtro) & (db.distro.id == db.hosts.id_distro))\n\n\tlinks = [dict(header=\'\',body=lambda row: A( IMG(_src=URL("static", "images", args=(row.distro.img)) ))), \n\t lambda row: A(\'Detalhes\', \n    \t\t      _class=\'btn\', \n    \t\t      _title=\'Detalhes\', \n    \t\t      _href=URL("initial", "/detalhes_nav", \n    \t\t      vars=dict(f=row.hosts.id, c=filtro, n=servidor.nome, \n    \t\t      \t\tn1=\'Servidores\', p1=\'show_servidor\', p=\'servidor_host\'))),\n\t lambda row: A(\'Editar\', \n    \t\t      _class=\'btn\', \n    \t\t      _title=\'Editar\', \n    \t\t      _href=URL("initial", "/edit_host", \n    \t\t      vars=dict(f=row.hosts.id, c=filtro, n=servidor.nome, \n    \t\t      \t\tn1=\'Servidores\', p1=\'show_servidor\', p=\'servidor_host\')))]\n\n\tfields = (db.hosts.id, db.hosts.id_cliente, db.hosts.id_distro, db.distro.img, \n\t\t\t\tdb.hosts.ip_chegada, db.hosts.porta_ssh, db.hosts.gateway)\n\theaders = {\'hosts.id\':   \'ID\',\n\t\t\t   \'hosts.id_cliente\': \'Cliente\',\n               \'hosts.id_servidor\': \'Servidor\',\n               \'hosts.id_distro\': \'Distro\',\n               \'hosts.nome\': \'Nome\',\n\t           \'hosts.servicos\': \'Servicos\'}\n\tgrid = SQLFORM.grid(query=query, fields=fields, headers=headers, csv=False,\n\t\t\t\t\t\tdetails=False, searchable=False, maxtextlength=23, links=links, \n\t\t\t\t\t\tlinks_placement=\'left\', editable=False, create=False)\n\n\treturn response.render("initial/show_grid2.html", grid=grid, nome_ant1=nome_ant1, \n\t\t\t\t\t\tfuncao_ant1=funcao_ant1, nome_atual=nome_atual)\n\n@auth.requires_login()\ndef distro_host():\n\tfiltro = request.vars[\'f\']\n\tqueryset = db(db.distro.id == filtro)\n\trows = queryset.select()\n\tdistro = rows[0]\n\tresponse.title = distro.nome\n\n\tnome_ant1 = request.vars[\'n1\']\n\tfuncao_ant1 = request.vars[\'p1\']\n\tnome_atual = distro.nome\t\n\t\n\tdb.hosts.id.readable=False\n\tdb.distro.img.readable=False\n\tquery = ((db.hosts.id_distro == filtro) & (db.distro.id == db.hosts.id_distro))\n\tlinks = [dict(header=\'\',body=lambda row: A( IMG(_src=URL("static", "images", args=(row.distro.img)) ))), \n\t lambda row: A(\'Detalhes\', \n    \t\t      _class=\'btn\', \n    \t\t      _title=\'Detalhes\', \n    \t\t      _href=URL("initial", "/detalhes_nav", \n    \t\t      vars=dict(f=row.hosts.id, c=filtro, n=distro.nome, \n    \t\t      \t\tn1=\'Distros\', p1=\'show_distro\', p=\'distro_host\'))),\n\t lambda row: A(\'Editar\', \n    \t\t      _class=\'btn\', \n    \t\t      _title=\'Editar\', \n    \t\t      _href=URL("initial", "/edit_host", \n    \t\t      vars=dict(f=row.hosts.id, c=filtro, n=distro.nome, \n    \t\t      \t\tn1=\'Distros\', p1=\'show_distro\', p=\'distro_host\')))]\n\n\tfields = (db.hosts.id, db.hosts.id_cliente, db.hosts.id_servidor, db.distro.img, \n\t\t\t  db.hosts.ip_chegada, db.hosts.porta_ssh, db.hosts.gateway)\n\theaders = {\'hosts.id\':   \'ID\',\n\t\t\t\t\'hosts.id_cliente\': \'Cliente\',\n               \'hosts.id_servidor\': \'Servidor\',\n               \'hosts.id_distro\': \'Distro\',\n               \'hosts.nome\': \'Nome\',\n\t           \'hosts.servicos\': \'Servicos\'}\n\tgrid = SQLFORM.grid(query=query, fields=fields, headers=headers, csv=False,\n\t\t\t\t\t\tdetails=False, searchable=False, maxtextlength=23, links=links, \n\t\t\t\t\t\tlinks_placement=\'left\', editable=False, create=False)\n\n\treturn response.render("initial/show_grid2.html", grid=grid, nome_ant1=nome_ant1, \n\t\t\t\t\t\tfuncao_ant1=funcao_ant1, nome_atual=nome_atual)\n\ndef detalhes_nav():\n\t#detalhes\n\tfiltro = request.vars[\'f\'] #id_host\n\tid_cliente = request.vars[\'c\'] #id_cliente\n\tnome_ant = request.vars[\'n\'] #nome (asterisk ou agronelli ou debian)\n\tnome_ant1 = request.vars[\'n1\'] #nome (servidores ou clientes ou distros)\n\tfuncao_ant = request.vars[\'p\'] #funcao(host_servidores)\n\tfuncao_ant1 = request.vars[\'p1\'] #funcao(show_servidores)\n\t\n\n\tquery = ((db.hosts.id == filtro) & (db.hosts.id_cliente == db.cliente.id)\n\t \t    & (db.hosts.id_servidor == db.servidor.id) \n\t \t    & (db.hosts.id_distro == db.distro.id)) \n\tdetalhes = db.hosts(query)\n\t\n\t\n\treturn response.render("initial/detalhes_host.html", detalhes=detalhes, \n\t\t\t\tid_cliente=id_cliente, funcao_ant=funcao_ant, funcao_ant1=funcao_ant1, \n\t\t\t\tnome_ant=nome_ant, nome_ant1=nome_ant1, filtro=filtro)\n\n\ndef edit_host():\n    form = SQLFORM(db.hosts, request.vars[\'f\'], submit_button=\'Editar\', fields = [\'id_cliente\', \'id_servidor\', \'id_distro\', \'servicos\',\n\t\t\t\t\'if1\', \'ip1\', \'masc1\', \'obs1\', \'if2\', \'ip2\', \'masc2\', \'obs2\',\n\t\t\t\t\'if3\', \'ip3\', \'masc3\', \'obs3\', \'if4\', \'ip4\', \'masc4\', \'obs4\',\n\t\t\t\t\'nome\', \'ip_chegada\', \'porta_ssh\', \'gateway\', \'rotas\', \'obs_gerais\'],\n\t\t\t\tlabels = {\'id_cliente\':\'Cliente\', \'id_servidor\':\'Servidor\', \'id_distro\':\'Distro\',\n\t\t\t\t\'if1\':\'Interface 1\', \'ip1\':\'IP\', \'masc1\':\'M\xc3\xa1scara\', \'obs1\':\'Obs\',\n\t\t\t\t\'if2\':\'Interface 2\', \'ip2\':\'IP\', \'masc2\':\'M\xc3\xa1scara\', \'obs2\':\'Obs\',\n\t\t\t\t\'if3\':\'Interface 3\', \'ip3\':\'IP\', \'masc3\':\'M\xc3\xa1scara\', \'obs3\':\'Obs\',\n\t\t\t\t\'if4\':\'Interface 4\', \'ip4\':\'IP\', \'masc4\':\'M\xc3\xa1scara\', \'obs4\':\'Obs\'})\n\n    if form.process().accepted:\n       response.flash = \'Editado com sucesso\'\n    elif form.errors:\n       response.flash = \'Ops, algo n\xc3\xa3o est\xc3\xa1 correto\'\n    else:\n       response.flash = \'Edite os dados do host\'\n\n    return response.render("initial/show_form.html", form=form, id_cliente = request.vars[\'c\'], \n    \t\t\t\tnome_ant = request.vars[\'n\'], nome_ant1 = request.vars[\'n1\'], \n    \t\t\t\tfuncao_ant = request.vars[\'p\'], funcao_ant1 = request.vars[\'p1\'])\n\n\n@auth.requires_login()\ndef interface():\n\t#adicionar\n    form = SQLFORM(db.hosts, submit_button=\'Adicionar\', \n    \t\t\tfields = [\'id_cliente\', \'id_servidor\', \'id_distro\', \'servicos\',\n\t\t\t\t\'if1\', \'ip1\', \'masc1\', \'obs1\', \'if2\', \'ip2\', \'masc2\', \'obs2\',\n\t\t\t\t\'if3\', \'ip3\', \'masc3\', \'obs3\', \'if4\', \'ip4\', \'masc4\', \'obs4\',\n\t\t\t\t\'nome\', \'ip_chegada\', \'porta_ssh\', \'gateway\', \'rotas\', \'obs_gerais\'], \n\t\t\t\tlabels = {\'id_cliente\':\'Cliente\', \'id_servidor\':\'Servidor\', \'id_distro\':\'Distro\',\n\t\t\t\t\'if1\':\'Interface 1\', \'ip1\':\'IP\', \'masc1\':\'M\xc3\xa1scara\', \'obs1\':\'Obs\',\n\t\t\t\t\'if2\':\'Interface 2\', \'ip2\':\'IP\', \'masc2\':\'M\xc3\xa1scara\', \'obs2\':\'Obs\',\n\t\t\t\t\'if3\':\'Interface 3\', \'ip3\':\'IP\', \'masc3\':\'M\xc3\xa1scara\', \'obs3\':\'Obs\',\n\t\t\t\t\'if4\':\'Interface 4\', \'ip4\':\'IP\', \'masc4\':\'M\xc3\xa1scara\', \'obs4\':\'Obs\'})\n   \n    if form.process().accepted:\n    \thost = request.vars\n    \temail(host)\n    \tresponse.flash = \'Inserido com sucesso\'\t\t\n    elif form.errors:\n       response.flash = \'Ops, algo n\xc3\xa3o est\xc3\xa1 correto\'\n    else:\n       response.flash = \'Insira os dados do novo host\'\n    return response.render("initial/show_form2.html", form=form)\n\ndef about():\n\tfiltro = request.vars[\'f\']\n\tquery = ((db.hosts.id_servidor == filtro) & (db.distro.id == db.hosts.id_distro))\n\tfields = (db.hosts.id, db.hosts.id_cliente, db.hosts.id_distro, db.distro.img, \n\t\t\t\tdb.hosts.ip_chegada, db.hosts.porta_ssh, db.hosts.gateway)\n\theaders = {\'host.id\':   \'ID\',\n               \'host.id_servidor\': \'Servidor\',\n               \'host.id_distro\': \'Distro\',\n               \'host.nome\': \'Nome\',\n\t           \'host.servicos\': \'Servicos\'}\n\tgrid = SQLFORM.grid(query=query, fields=fields, headers=headers, csv=False,\n\t\t\t\t\t\tdetails=False, maxtextlength=23, searchable=True, editable=False, create=False)\n\n\treturn response.render("initial/teste.html", grid=grid,)\n\ndef user():\n\t#if request.args(0) == \'register\':\n    #    \tdb.auth_user.bio.writable = db.auth_user.bio.readable = False\n\treturn response.render("initial/user.html", user=auth())\n\ndef register():\n\treturn auth.register()\n\ndef login():\n        return auth.login()\n\ndef account():\n    return dict(register=auth.register(),\n                login=auth.login())\n\t\ndef download():\n\treturn response.download(request, db)\n\n\ndef principal():\n\tresponse.title="Usu\xc3\xa1rios"\n\n\tgrid = SQLFORM.grid(db.usuario,\n\t\tuser_signature=False, searchable=True, csv=False, \n\t\tpaginate=50, details=False,  \n\t\tignore_rw = True, maxtextlength=36, \n    \t)\n\treturn response.render("initial/show_grid.html", grid=grid)\n\n\t\ndef detalhes_clean():\n\tfiltro = request.vars[\'f\'] #id_host\n\t\t\n\n\tquery = ((db.hosts.id == filtro) & (db.hosts.id_cliente == db.cliente.id)\n\t \t    & (db.hosts.id_servidor == db.servidor.id) \n\t \t    & (db.hosts.id_distro == db.distro.id)) \n\tdetalhes = db.hosts(query)\n\n\t\n\treturn response.render("initial/detalhes_host_clean.html", detalhes=detalhes)\n\ndef email(host):\n\tif auth.has_membership(\'voip\'):\n\t\tmail.send(\n\t\t\tto="fndiaz02@gmail.com",\n\t\t\tsubject="host adicionado",\n\t\t\tmessage="<html>Um novo host foi adicionado pelo usu\xc3\xa1rio %s <br>nome: %s <br>vpn: %s<br><br>\xc3\x89 preciso fazer a instala\xc3\xa7\xc3\xa3o do client zabbix e bacula</html>" % (auth.user.first_name, host.nome, host.ip_chegada,)\n\t\t\t)\n\telif auth.has_membership(\'internet\'):\n\t\tmail.send(\n\t\t\tto="fernando@ad2.com.br",\n\t\t\tsubject="host adicionado",\n\t\t\tmessage="<html>Um novo host foi adicionado pelo usu\xc3\xa1rio %s <br>nome: %s <br>vpn: %s<br><br>\xc3\x89 preciso fazer a instala\xc3\xa7\xc3\xa3o do client zabbix e bacula</html>" % (auth.user.first_name, host.nome, host.ip_chegada,)\n\t\t\t)\n\nresponse._vars=response._caller(show_cliente)\n'
p7
sS'snapshot'
p8
(dp9
S'exception'
p10
(dp11
S'__getslice__'
p12
S"<method-wrapper '__getslice__' of exceptions.SyntaxError object>"
p13
sS'text'
p14
S'None'
p15
sS'__str__'
p16
S"<method-wrapper '__str__' of exceptions.SyntaxError object>"
p17
sS'__reduce__'
p18
S'<built-in method __reduce__ of exceptions.SyntaxError object>'
p19
sS'__dict__'
p20
S'{}'
p21
sS'__sizeof__'
p22
S'<built-in method __sizeof__ of exceptions.SyntaxError object>'
p23
sS'__init__'
p24
S"<method-wrapper '__init__' of exceptions.SyntaxError object>"
p25
sS'__setattr__'
p26
S"<method-wrapper '__setattr__' of exceptions.SyntaxError object>"
p27
sS'__reduce_ex__'
p28
S'<built-in method __reduce_ex__ of exceptions.SyntaxError object>'
p29
sS'__new__'
p30
S'<built-in method __new__ of type object>'
p31
sS'__format__'
p32
S'<built-in method __format__ of exceptions.SyntaxError object>'
p33
sS'__class__'
p34
S"<type 'exceptions.SyntaxError'>"
p35
sS'filename'
p36
S'None'
p37
sS'lineno'
p38
S'None'
p39
sS'msg'
p40
S'"user is tampering with form\'s record_id: {\'confno\': None} != 1013"'
p41
sS'__doc__'
p42
S"'Invalid syntax.'"
p43
sS'__getitem__'
p44
S"<method-wrapper '__getitem__' of exceptions.SyntaxError object>"
p45
sS'__setstate__'
p46
S'<built-in method __setstate__ of exceptions.SyntaxError object>'
p47
sS'__getattribute__'
p48
S"<method-wrapper '__getattribute__' of exceptions.SyntaxError object>"
p49
sS'print_file_and_line'
p50
S'None'
p51
sS'args'
p52
S'("user is tampering with form\'s record_id: {\'confno\': None} != 1013",)'
p53
sS'__subclasshook__'
p54
S'<built-in method __subclasshook__ of type object>'
p55
sS'offset'
p56
S'None'
p57
sS'__unicode__'
p58
S'<built-in method __unicode__ of exceptions.SyntaxError object>'
p59
sS'__delattr__'
p60
S"<method-wrapper '__delattr__' of exceptions.SyntaxError object>"
p61
sS'__repr__'
p62
S"<method-wrapper '__repr__' of exceptions.SyntaxError object>"
p63
sS'__hash__'
p64
S"<method-wrapper '__hash__' of exceptions.SyntaxError object>"
p65
ssS'evalue'
p66
S"user is tampering with form's record_id: {'confno': None} != 1013"
p67
sS'request'
p68
ccopy_reg
_reconstructor
p69
(cgluon.html
BEAUTIFY
p70
c__builtin__
object
p71
NtRp72
(dp73
S'attributes'
p74
(dp75
sS'components'
p76
(lp77
g69
(cgluon.html
TABLE
p78
g71
NtRp79
(dp80
g74
(dp81
S'level'
p82
I5
ssS'parent'
p83
Nsg76
(lp84
g69
(cgluon.html
TR
p85
g71
NtRp86
(dp87
g74
(dp88
sg83
g79
sg76
(lp89
g69
(cgluon.html
TD
p90
g71
NtRp91
(dp92
g74
(dp93
S'_style'
p94
S'font-weight:bold;vertical-align:top'
p95
ssg83
g86
sg76
(lp96
S'ajax'
p97
asbag69
(g90
g71
NtRp98
(dp99
g74
(dp100
S'_valign'
p101
S'top'
p102
ssg83
g86
sg76
(lp103
S':'
asbag69
(g90
g71
NtRp104
(dp105
g74
(dp106
sg83
g86
sg76
(lp107
g69
(g70
g71
NtRp108
(dp109
g74
(dp110
g82
I5
ssg83
g104
sg76
(lp111
S'False'
p112
asbasbasbag69
(g85
g71
NtRp113
(dp114
g74
(dp115
sg83
g79
sg76
(lp116
g69
(g90
g71
NtRp117
(dp118
g74
(dp119
g94
g95
ssg83
g113
sg76
(lp120
S'application'
p121
asbag69
(g90
g71
NtRp122
(dp123
g74
(dp124
g101
g102
ssg83
g113
sg76
(lp125
S':'
asbag69
(g90
g71
NtRp126
(dp127
g74
(dp128
sg83
g113
sg76
(lp129
g69
(g70
g71
NtRp130
(dp131
g74
(dp132
g82
I5
ssg83
g126
sg76
(lp133
S'projeto'
p134
asbasbasbag69
(g85
g71
NtRp135
(dp136
g74
(dp137
sg83
g79
sg76
(lp138
g69
(g90
g71
NtRp139
(dp140
g74
(dp141
g94
g95
ssg83
g135
sg76
(lp142
g52
asbag69
(g90
g71
NtRp143
(dp144
g74
(dp145
g101
g102
ssg83
g135
sg76
(lp146
S':'
asbag69
(g90
g71
NtRp147
(dp148
g74
(dp149
sg83
g135
sg76
(lp150
g69
(g70
g71
NtRp151
(dp152
g74
(dp153
g82
I5
ssg83
g147
sg76
(lp154
g69
(g78
g71
NtRp155
(dp156
g74
(dp157
g82
I4
ssg83
Nsg76
(lp158
g69
(g85
g71
NtRp159
(dp160
g74
(dp161
sg83
g155
sg76
(lp162
g69
(g90
g71
NtRp163
(dp164
g74
(dp165
sg83
g159
sg76
(lp166
g69
(g70
g71
NtRp167
(dp168
g74
(dp169
g82
I4
ssg83
g163
sg76
(lp170
S'edit'
p171
asbasbasbag69
(g85
g71
NtRp172
(dp173
g74
(dp174
sg83
g155
sg76
(lp175
g69
(g90
g71
NtRp176
(dp177
g74
(dp178
sg83
g172
sg76
(lp179
g69
(g70
g71
NtRp180
(dp181
g74
(dp182
g82
I4
ssg83
g176
sg76
(lp183
S'meetme'
p184
asbasbasbag69
(g85
g71
NtRp185
(dp186
g74
(dp187
sg83
g155
sg76
(lp188
g69
(g90
g71
NtRp189
(dp190
g74
(dp191
sg83
g185
sg76
(lp192
g69
(g70
g71
NtRp193
(dp194
g74
(dp195
g82
I4
ssg83
g189
sg76
(lp196
S'1013'
p197
asbasbasbasbasbasbasbag69
(g85
g71
NtRp198
(dp199
g74
(dp200
sg83
g79
sg76
(lp201
g69
(g90
g71
NtRp202
(dp203
g74
(dp204
g94
g95
ssg83
g198
sg76
(lp205
S'body'
p206
asbag69
(g90
g71
NtRp207
(dp208
g74
(dp209
g101
g102
ssg83
g198
sg76
(lp210
S':'
asbag69
(g90
g71
NtRp211
(dp212
g74
(dp213
sg83
g198
sg76
(lp214
g69
(g70
g71
NtRp215
(dp216
g74
(dp217
g82
I5
ssg83
g211
sg76
(lp218
S"<open file '<fdopen>', mode 'w+b' at 0x7f634c26f390>"
p219
asbasbasbag69
(g85
g71
NtRp220
(dp221
g74
(dp222
sg83
g79
sg76
(lp223
g69
(g90
g71
NtRp224
(dp225
g74
(dp226
g94
g95
ssg83
g220
sg76
(lp227
S'cid'
p228
asbag69
(g90
g71
NtRp229
(dp230
g74
(dp231
g101
g102
ssg83
g220
sg76
(lp232
S':'
asbag69
(g90
g71
NtRp233
(dp234
g74
(dp235
sg83
g220
sg76
(lp236
g69
(g70
g71
NtRp237
(dp238
g74
(dp239
g82
I5
ssg83
g233
sg76
(lp240
S'None'
p241
asbasbasbag69
(g85
g71
NtRp242
(dp243
g74
(dp244
sg83
g79
sg76
(lp245
g69
(g90
g71
NtRp246
(dp247
g74
(dp248
g94
g95
ssg83
g242
sg76
(lp249
S'client'
p250
asbag69
(g90
g71
NtRp251
(dp252
g74
(dp253
g101
g102
ssg83
g242
sg76
(lp254
S':'
asbag69
(g90
g71
NtRp255
(dp256
g74
(dp257
sg83
g242
sg76
(lp258
g69
(g70
g71
NtRp259
(dp260
g74
(dp261
g82
I5
ssg83
g255
sg76
(lp262
S'127.0.0.1'
p263
asbasbasbag69
(g85
g71
NtRp264
(dp265
g74
(dp266
sg83
g79
sg76
(lp267
g69
(g90
g71
NtRp268
(dp269
g74
(dp270
g94
g95
ssg83
g264
sg76
(lp271
S'controller'
p272
asbag69
(g90
g71
NtRp273
(dp274
g74
(dp275
g101
g102
ssg83
g264
sg76
(lp276
S':'
asbag69
(g90
g71
NtRp277
(dp278
g74
(dp279
sg83
g264
sg76
(lp280
g69
(g70
g71
NtRp281
(dp282
g74
(dp283
g82
I5
ssg83
g277
sg76
(lp284
S'initial'
p285
asbasbasbag69
(g85
g71
NtRp286
(dp287
g74
(dp288
sg83
g79
sg76
(lp289
g69
(g90
g71
NtRp290
(dp291
g74
(dp292
g94
g95
ssg83
g286
sg76
(lp293
S'cookies'
p294
asbag69
(g90
g71
NtRp295
(dp296
g74
(dp297
g101
g102
ssg83
g286
sg76
(lp298
S':'
asbag69
(g90
g71
NtRp299
(dp300
g74
(dp301
sg83
g286
sg76
(lp302
g69
(g70
g71
NtRp303
(dp304
g74
(dp305
g82
I5
ssg83
g299
sg76
(lp306
g69
(g78
g71
NtRp307
(dp308
g74
(dp309
g82
I4
ssg83
Nsg76
(lp310
g69
(g85
g71
NtRp311
(dp312
g74
(dp313
sg83
g307
sg76
(lp314
g69
(g90
g71
NtRp315
(dp316
g74
(dp317
g94
g95
ssg83
g311
sg76
(lp318
S'session_id_admin'
p319
asbag69
(g90
g71
NtRp320
(dp321
g74
(dp322
g101
g102
ssg83
g311
sg76
(lp323
S':'
asbag69
(g90
g71
NtRp324
(dp325
g74
(dp326
sg83
g311
sg76
(lp327
g69
(g70
g71
NtRp328
(dp329
g74
(dp330
g82
I4
ssg83
g324
sg76
(lp331
S'127.0.0.1-9ca8fc56-3213-4881-b103-95238a337326'
p332
ag69
(g78
g71
NtRp333
(dp334
g74
(dp335
g82
I3
ssg83
Nsg76
(lp336
g69
(g85
g71
NtRp337
(dp338
g74
(dp339
sg83
g333
sg76
(lp340
g69
(g90
g71
NtRp341
(dp342
g74
(dp343
g94
g95
ssg83
g337
sg76
(lp344
S'comment'
p345
asbag69
(g90
g71
NtRp346
(dp347
g74
(dp348
g101
g102
ssg83
g337
sg76
(lp349
S':'
asbag69
(g90
g71
NtRp350
(dp351
g74
(dp352
sg83
g337
sg76
(lp353
g69
(g70
g71
NtRp354
(dp355
g74
(dp356
g82
I3
ssg83
g350
sg76
(lp357
S''
asbasbasbag69
(g85
g71
NtRp358
(dp359
g74
(dp360
sg83
g333
sg76
(lp361
g69
(g90
g71
NtRp362
(dp363
g74
(dp364
g94
g95
ssg83
g358
sg76
(lp365
S'domain'
p366
asbag69
(g90
g71
NtRp367
(dp368
g74
(dp369
g101
g102
ssg83
g358
sg76
(lp370
S':'
asbag69
(g90
g71
NtRp371
(dp372
g74
(dp373
sg83
g358
sg76
(lp374
g69
(g70
g71
NtRp375
(dp376
g74
(dp377
g82
I3
ssg83
g371
sg76
(lp378
S''
asbasbasbag69
(g85
g71
NtRp379
(dp380
g74
(dp381
sg83
g333
sg76
(lp382
g69
(g90
g71
NtRp383
(dp384
g74
(dp385
g94
g95
ssg83
g379
sg76
(lp386
S'expires'
p387
asbag69
(g90
g71
NtRp388
(dp389
g74
(dp390
g101
g102
ssg83
g379
sg76
(lp391
S':'
asbag69
(g90
g71
NtRp392
(dp393
g74
(dp394
sg83
g379
sg76
(lp395
g69
(g70
g71
NtRp396
(dp397
g74
(dp398
g82
I3
ssg83
g392
sg76
(lp399
S''
asbasbasbag69
(g85
g71
NtRp400
(dp401
g74
(dp402
sg83
g333
sg76
(lp403
g69
(g90
g71
NtRp404
(dp405
g74
(dp406
g94
g95
ssg83
g400
sg76
(lp407
S'httponly'
p408
asbag69
(g90
g71
NtRp409
(dp410
g74
(dp411
g101
g102
ssg83
g400
sg76
(lp412
S':'
asbag69
(g90
g71
NtRp413
(dp414
g74
(dp415
sg83
g400
sg76
(lp416
g69
(g70
g71
NtRp417
(dp418
g74
(dp419
g82
I3
ssg83
g413
sg76
(lp420
S''
asbasbasbag69
(g85
g71
NtRp421
(dp422
g74
(dp423
sg83
g333
sg76
(lp424
g69
(g90
g71
NtRp425
(dp426
g74
(dp427
g94
g95
ssg83
g421
sg76
(lp428
S'max-age'
p429
asbag69
(g90
g71
NtRp430
(dp431
g74
(dp432
g101
g102
ssg83
g421
sg76
(lp433
S':'
asbag69
(g90
g71
NtRp434
(dp435
g74
(dp436
sg83
g421
sg76
(lp437
g69
(g70
g71
NtRp438
(dp439
g74
(dp440
g82
I3
ssg83
g434
sg76
(lp441
S''
asbasbasbag69
(g85
g71
NtRp442
(dp443
g74
(dp444
sg83
g333
sg76
(lp445
g69
(g90
g71
NtRp446
(dp447
g74
(dp448
g94
g95
ssg83
g442
sg76
(lp449
S'path'
p450
asbag69
(g90
g71
NtRp451
(dp452
g74
(dp453
g101
g102
ssg83
g442
sg76
(lp454
S':'
asbag69
(g90
g71
NtRp455
(dp456
g74
(dp457
sg83
g442
sg76
(lp458
g69
(g70
g71
NtRp459
(dp460
g74
(dp461
g82
I3
ssg83
g455
sg76
(lp462
S''
asbasbasbag69
(g85
g71
NtRp463
(dp464
g74
(dp465
sg83
g333
sg76
(lp466
g69
(g90
g71
NtRp467
(dp468
g74
(dp469
g94
g95
ssg83
g463
sg76
(lp470
S'secure'
p471
asbag69
(g90
g71
NtRp472
(dp473
g74
(dp474
g101
g102
ssg83
g463
sg76
(lp475
S':'
asbag69
(g90
g71
NtRp476
(dp477
g74
(dp478
sg83
g463
sg76
(lp479
g69
(g70
g71
NtRp480
(dp481
g74
(dp482
g82
I3
ssg83
g476
sg76
(lp483
S''
asbasbasbag69
(g85
g71
NtRp484
(dp485
g74
(dp486
sg83
g333
sg76
(lp487
g69
(g90
g71
NtRp488
(dp489
g74
(dp490
g94
g95
ssg83
g484
sg76
(lp491
S'version'
p492
asbag69
(g90
g71
NtRp493
(dp494
g74
(dp495
g101
g102
ssg83
g484
sg76
(lp496
S':'
asbag69
(g90
g71
NtRp497
(dp498
g74
(dp499
sg83
g484
sg76
(lp500
g69
(g70
g71
NtRp501
(dp502
g74
(dp503
g82
I3
ssg83
g497
sg76
(lp504
S''
asbasbasbasbasbasbasbag69
(g85
g71
NtRp505
(dp506
g74
(dp507
sg83
g307
sg76
(lp508
g69
(g90
g71
NtRp509
(dp510
g74
(dp511
g94
g95
ssg83
g505
sg76
(lp512
S'session_id_projeto'
p513
asbag69
(g90
g71
NtRp514
(dp515
g74
(dp516
g101
g102
ssg83
g505
sg76
(lp517
S':'
asbag69
(g90
g71
NtRp518
(dp519
g74
(dp520
sg83
g505
sg76
(lp521
g69
(g70
g71
NtRp522
(dp523
g74
(dp524
g82
I4
ssg83
g518
sg76
(lp525
S'127.0.0.1-001edd4c-cc9d-40b6-92aa-d3bbbc6019b5'
p526
ag69
(g78
g71
NtRp527
(dp528
g74
(dp529
g82
I3
ssg83
Nsg76
(lp530
g69
(g85
g71
NtRp531
(dp532
g74
(dp533
sg83
g527
sg76
(lp534
g69
(g90
g71
NtRp535
(dp536
g74
(dp537
g94
g95
ssg83
g531
sg76
(lp538
g345
asbag69
(g90
g71
NtRp539
(dp540
g74
(dp541
g101
g102
ssg83
g531
sg76
(lp542
S':'
asbag69
(g90
g71
NtRp543
(dp544
g74
(dp545
sg83
g531
sg76
(lp546
g69
(g70
g71
NtRp547
(dp548
g74
(dp549
g82
I3
ssg83
g543
sg76
(lp550
S''
asbasbasbag69
(g85
g71
NtRp551
(dp552
g74
(dp553
sg83
g527
sg76
(lp554
g69
(g90
g71
NtRp555
(dp556
g74
(dp557
g94
g95
ssg83
g551
sg76
(lp558
g366
asbag69
(g90
g71
NtRp559
(dp560
g74
(dp561
g101
g102
ssg83
g551
sg76
(lp562
S':'
asbag69
(g90
g71
NtRp563
(dp564
g74
(dp565
sg83
g551
sg76
(lp566
g69
(g70
g71
NtRp567
(dp568
g74
(dp569
g82
I3
ssg83
g563
sg76
(lp570
S''
asbasbasbag69
(g85
g71
NtRp571
(dp572
g74
(dp573
sg83
g527
sg76
(lp574
g69
(g90
g71
NtRp575
(dp576
g74
(dp577
g94
g95
ssg83
g571
sg76
(lp578
g387
asbag69
(g90
g71
NtRp579
(dp580
g74
(dp581
g101
g102
ssg83
g571
sg76
(lp582
S':'
asbag69
(g90
g71
NtRp583
(dp584
g74
(dp585
sg83
g571
sg76
(lp586
g69
(g70
g71
NtRp587
(dp588
g74
(dp589
g82
I3
ssg83
g583
sg76
(lp590
S''
asbasbasbag69
(g85
g71
NtRp591
(dp592
g74
(dp593
sg83
g527
sg76
(lp594
g69
(g90
g71
NtRp595
(dp596
g74
(dp597
g94
g95
ssg83
g591
sg76
(lp598
g408
asbag69
(g90
g71
NtRp599
(dp600
g74
(dp601
g101
g102
ssg83
g591
sg76
(lp602
S':'
asbag69
(g90
g71
NtRp603
(dp604
g74
(dp605
sg83
g591
sg76
(lp606
g69
(g70
g71
NtRp607
(dp608
g74
(dp609
g82
I3
ssg83
g603
sg76
(lp610
S''
asbasbasbag69
(g85
g71
NtRp611
(dp612
g74
(dp613
sg83
g527
sg76
(lp614
g69
(g90
g71
NtRp615
(dp616
g74
(dp617
g94
g95
ssg83
g611
sg76
(lp618
g429
asbag69
(g90
g71
NtRp619
(dp620
g74
(dp621
g101
g102
ssg83
g611
sg76
(lp622
S':'
asbag69
(g90
g71
NtRp623
(dp624
g74
(dp625
sg83
g611
sg76
(lp626
g69
(g70
g71
NtRp627
(dp628
g74
(dp629
g82
I3
ssg83
g623
sg76
(lp630
S''
asbasbasbag69
(g85
g71
NtRp631
(dp632
g74
(dp633
sg83
g527
sg76
(lp634
g69
(g90
g71
NtRp635
(dp636
g74
(dp637
g94
g95
ssg83
g631
sg76
(lp638
g450
asbag69
(g90
g71
NtRp639
(dp640
g74
(dp641
g101
g102
ssg83
g631
sg76
(lp642
S':'
asbag69
(g90
g71
NtRp643
(dp644
g74
(dp645
sg83
g631
sg76
(lp646
g69
(g70
g71
NtRp647
(dp648
g74
(dp649
g82
I3
ssg83
g643
sg76
(lp650
S''
asbasbasbag69
(g85
g71
NtRp651
(dp652
g74
(dp653
sg83
g527
sg76
(lp654
g69
(g90
g71
NtRp655
(dp656
g74
(dp657
g94
g95
ssg83
g651
sg76
(lp658
g471
asbag69
(g90
g71
NtRp659
(dp660
g74
(dp661
g101
g102
ssg83
g651
sg76
(lp662
S':'
asbag69
(g90
g71
NtRp663
(dp664
g74
(dp665
sg83
g651
sg76
(lp666
g69
(g70
g71
NtRp667
(dp668
g74
(dp669
g82
I3
ssg83
g663
sg76
(lp670
S''
asbasbasbag69
(g85
g71
NtRp671
(dp672
g74
(dp673
sg83
g527
sg76
(lp674
g69
(g90
g71
NtRp675
(dp676
g74
(dp677
g94
g95
ssg83
g671
sg76
(lp678
g492
asbag69
(g90
g71
NtRp679
(dp680
g74
(dp681
g101
g102
ssg83
g671
sg76
(lp682
S':'
asbag69
(g90
g71
NtRp683
(dp684
g74
(dp685
sg83
g671
sg76
(lp686
g69
(g70
g71
NtRp687
(dp688
g74
(dp689
g82
I3
ssg83
g683
sg76
(lp690
S''
asbasbasbasbasbasbasbasbasbasbasbag69
(g85
g71
NtRp691
(dp692
g74
(dp693
sg83
g79
sg76
(lp694
g69
(g90
g71
NtRp695
(dp696
g74
(dp697
g94
g95
ssg83
g691
sg76
(lp698
S'env'
p699
asbag69
(g90
g71
NtRp700
(dp701
g74
(dp702
g101
g102
ssg83
g691
sg76
(lp703
S':'
asbag69
(g90
g71
NtRp704
(dp705
g74
(dp706
sg83
g691
sg76
(lp707
g69
(g70
g71
NtRp708
(dp709
g74
(dp710
g82
I5
ssg83
g704
sg76
(lp711
g69
(g78
g71
NtRp712
(dp713
g74
(dp714
g82
I4
ssg83
Nsg76
(lp715
g69
(g85
g71
NtRp716
(dp717
g74
(dp718
sg83
g712
sg76
(lp719
g69
(g90
g71
NtRp720
(dp721
g74
(dp722
g94
g95
ssg83
g716
sg76
(lp723
S'app_folders'
p724
asbag69
(g90
g71
NtRp725
(dp726
g74
(dp727
g101
g102
ssg83
g716
sg76
(lp728
S':'
asbag69
(g90
g71
NtRp729
(dp730
g74
(dp731
sg83
g716
sg76
(lp732
g69
(g70
g71
NtRp733
(dp734
g74
(dp735
g82
I4
ssg83
g729
sg76
(lp736
S"set(['/var/www/conferencia/applications/projeto/'])"
p737
asbasbasbag69
(g85
g71
NtRp738
(dp739
g74
(dp740
sg83
g712
sg76
(lp741
g69
(g90
g71
NtRp742
(dp743
g74
(dp744
g94
g95
ssg83
g738
sg76
(lp745
S'applications_parent'
p746
asbag69
(g90
g71
NtRp747
(dp748
g74
(dp749
g101
g102
ssg83
g738
sg76
(lp750
S':'
asbag69
(g90
g71
NtRp751
(dp752
g74
(dp753
sg83
g738
sg76
(lp754
g69
(g70
g71
NtRp755
(dp756
g74
(dp757
g82
I4
ssg83
g751
sg76
(lp758
S'/var/www/conferencia'
p759
asbasbasbag69
(g85
g71
NtRp760
(dp761
g74
(dp762
sg83
g712
sg76
(lp763
g69
(g90
g71
NtRp764
(dp765
g74
(dp766
g94
g95
ssg83
g760
sg76
(lp767
S'cmd_args'
p768
asbag69
(g90
g71
NtRp769
(dp770
g74
(dp771
g101
g102
ssg83
g760
sg76
(lp772
S':'
asbag69
(g90
g71
NtRp773
(dp774
g74
(dp775
sg83
g760
sg76
(lp776
g69
(g70
g71
NtRp777
(dp778
g74
(dp779
g82
I4
ssg83
g773
sg76
(lp780
g69
(g78
g71
NtRp781
(dp782
g74
(dp783
g82
I3
ssg83
Nsg76
(lp784
sbasbasbasbag69
(g85
g71
NtRp785
(dp786
g74
(dp787
sg83
g712
sg76
(lp788
g69
(g90
g71
NtRp789
(dp790
g74
(dp791
g94
g95
ssg83
g785
sg76
(lp792
S'cmd_options'
p793
asbag69
(g90
g71
NtRp794
(dp795
g74
(dp796
g101
g102
ssg83
g785
sg76
(lp797
S':'
asbag69
(g90
g71
NtRp798
(dp799
g74
(dp800
sg83
g785
sg76
(lp801
g69
(g70
g71
NtRp802
(dp803
g74
(dp804
g82
I4
ssg83
g798
sg76
(lp805
S"<Values at 0x2c3b248: {'verbose': False, 'ip': '127.0.0.1', 'with_scheduler': False, 'ips': [], 'shutdown_timeout': 5, 'taskbar': False, 'port': 8000, 'maxthreads': None, 'softcron': False, 'server_name': 'fernando-workstation', 'bpython': False, 'nogui': False, 'pid_filename': 'httpserver.pid', 'extcron': False, 'runcron': False, 'run_system_tests': False, 'test': None, 'folder': '/var/www/conferencia', 'config': '', 'minthreads': None, 'winservice': '', 'shell': None, 'run': '', 'log_filename': 'httpserver.log', 'debuglevel': 30, 'args': [''], 'socket_timeout': 5, 'ssl_ca_certificate': None, 'scheduler': None, 'profiler_filename': None, 'ssl_private_key': '', 'scheduler_groups': None, 'password': '123456', 'request_queue_size': 5, 'ssl_certificate': '', 'cronjob': False, 'numthreads': None, 'quiet': False, 'interfaces': None, 'import_models': False, 'timeout': 10, 'plain': False, 'nobanner': False}>"
p806
asbasbasbag69
(g85
g71
NtRp807
(dp808
g74
(dp809
sg83
g712
sg76
(lp810
g69
(g90
g71
NtRp811
(dp812
g74
(dp813
g94
g95
ssg83
g807
sg76
(lp814
S'content_length'
p815
asbag69
(g90
g71
NtRp816
(dp817
g74
(dp818
g101
g102
ssg83
g807
sg76
(lp819
S':'
asbag69
(g90
g71
NtRp820
(dp821
g74
(dp822
sg83
g807
sg76
(lp823
g69
(g70
g71
NtRp824
(dp825
g74
(dp826
g82
I4
ssg83
g820
sg76
(lp827
S'808'
p828
asbasbasbag69
(g85
g71
NtRp829
(dp830
g74
(dp831
sg83
g712
sg76
(lp832
g69
(g90
g71
NtRp833
(dp834
g74
(dp835
g94
g95
ssg83
g829
sg76
(lp836
S'content_type'
p837
asbag69
(g90
g71
NtRp838
(dp839
g74
(dp840
g101
g102
ssg83
g829
sg76
(lp841
S':'
asbag69
(g90
g71
NtRp842
(dp843
g74
(dp844
sg83
g829
sg76
(lp845
g69
(g70
g71
NtRp846
(dp847
g74
(dp848
g82
I4
ssg83
g842
sg76
(lp849
S'multipart/form-data; boundary=----WebKitFormBoundaryAOmmscFmThB7n6w8'
p850
asbasbasbag69
(g85
g71
NtRp851
(dp852
g74
(dp853
sg83
g712
sg76
(lp854
g69
(g90
g71
NtRp855
(dp856
g74
(dp857
g94
g95
ssg83
g851
sg76
(lp858
S'db_sessions'
p859
asbag69
(g90
g71
NtRp860
(dp861
g74
(dp862
g101
g102
ssg83
g851
sg76
(lp863
S':'
asbag69
(g90
g71
NtRp864
(dp865
g74
(dp866
sg83
g851
sg76
(lp867
g69
(g70
g71
NtRp868
(dp869
g74
(dp870
g82
I4
ssg83
g864
sg76
(lp871
S'set([])'
p872
asbasbasbag69
(g85
g71
NtRp873
(dp874
g74
(dp875
sg83
g712
sg76
(lp876
g69
(g90
g71
NtRp877
(dp878
g74
(dp879
g94
g95
ssg83
g873
sg76
(lp880
S'debugging'
p881
asbag69
(g90
g71
NtRp882
(dp883
g74
(dp884
g101
g102
ssg83
g873
sg76
(lp885
S':'
asbag69
(g90
g71
NtRp886
(dp887
g74
(dp888
sg83
g873
sg76
(lp889
g69
(g70
g71
NtRp890
(dp891
g74
(dp892
g82
I4
ssg83
g886
sg76
(lp893
g112
asbasbasbag69
(g85
g71
NtRp894
(dp895
g74
(dp896
sg83
g712
sg76
(lp897
g69
(g90
g71
NtRp898
(dp899
g74
(dp900
g94
g95
ssg83
g894
sg76
(lp901
S'gluon_parent'
p902
asbag69
(g90
g71
NtRp903
(dp904
g74
(dp905
g101
g102
ssg83
g894
sg76
(lp906
S':'
asbag69
(g90
g71
NtRp907
(dp908
g74
(dp909
sg83
g894
sg76
(lp910
g69
(g70
g71
NtRp911
(dp912
g74
(dp913
g82
I4
ssg83
g907
sg76
(lp914
S'/var/www/conferencia'
p915
asbasbasbag69
(g85
g71
NtRp916
(dp917
g74
(dp918
sg83
g712
sg76
(lp919
g69
(g90
g71
NtRp920
(dp921
g74
(dp922
g94
g95
ssg83
g916
sg76
(lp923
S'http_accept'
p924
asbag69
(g90
g71
NtRp925
(dp926
g74
(dp927
g101
g102
ssg83
g916
sg76
(lp928
S':'
asbag69
(g90
g71
NtRp929
(dp930
g74
(dp931
sg83
g916
sg76
(lp932
g69
(g70
g71
NtRp933
(dp934
g74
(dp935
g82
I4
ssg83
g929
sg76
(lp936
S'text/html,application/xhtml+xml,application/xml;q=0.9,*/*;q=0.8'
p937
asbasbasbag69
(g85
g71
NtRp938
(dp939
g74
(dp940
sg83
g712
sg76
(lp941
g69
(g90
g71
NtRp942
(dp943
g74
(dp944
g94
g95
ssg83
g938
sg76
(lp945
S'http_accept_charset'
p946
asbag69
(g90
g71
NtRp947
(dp948
g74
(dp949
g101
g102
ssg83
g938
sg76
(lp950
S':'
asbag69
(g90
g71
NtRp951
(dp952
g74
(dp953
sg83
g938
sg76
(lp954
g69
(g70
g71
NtRp955
(dp956
g74
(dp957
g82
I4
ssg83
g951
sg76
(lp958
S'ISO-8859-1,utf-8;q=0.7,*;q=0.3'
p959
asbasbasbag69
(g85
g71
NtRp960
(dp961
g74
(dp962
sg83
g712
sg76
(lp963
g69
(g90
g71
NtRp964
(dp965
g74
(dp966
g94
g95
ssg83
g960
sg76
(lp967
S'http_accept_encoding'
p968
asbag69
(g90
g71
NtRp969
(dp970
g74
(dp971
g101
g102
ssg83
g960
sg76
(lp972
S':'
asbag69
(g90
g71
NtRp973
(dp974
g74
(dp975
sg83
g960
sg76
(lp976
g69
(g70
g71
NtRp977
(dp978
g74
(dp979
g82
I4
ssg83
g973
sg76
(lp980
S'gzip,deflate,sdch'
p981
asbasbasbag69
(g85
g71
NtRp982
(dp983
g74
(dp984
sg83
g712
sg76
(lp985
g69
(g90
g71
NtRp986
(dp987
g74
(dp988
g94
g95
ssg83
g982
sg76
(lp989
S'http_accept_language'
p990
asbag69
(g90
g71
NtRp991
(dp992
g74
(dp993
g101
g102
ssg83
g982
sg76
(lp994
S':'
asbag69
(g90
g71
NtRp995
(dp996
g74
(dp997
sg83
g982
sg76
(lp998
g69
(g70
g71
NtRp999
(dp1000
g74
(dp1001
g82
I4
ssg83
g995
sg76
(lp1002
S'pt-BR,pt;q=0.8,en-US;q=0.6,en;q=0.4'
p1003
asbasbasbag69
(g85
g71
NtRp1004
(dp1005
g74
(dp1006
sg83
g712
sg76
(lp1007
g69
(g90
g71
NtRp1008
(dp1009
g74
(dp1010
g94
g95
ssg83
g1004
sg76
(lp1011
S'http_cache_control'
p1012
asbag69
(g90
g71
NtRp1013
(dp1014
g74
(dp1015
g101
g102
ssg83
g1004
sg76
(lp1016
S':'
asbag69
(g90
g71
NtRp1017
(dp1018
g74
(dp1019
sg83
g1004
sg76
(lp1020
g69
(g70
g71
NtRp1021
(dp1022
g74
(dp1023
g82
I4
ssg83
g1017
sg76
(lp1024
S'max-age=0'
p1025
asbasbasbag69
(g85
g71
NtRp1026
(dp1027
g74
(dp1028
sg83
g712
sg76
(lp1029
g69
(g90
g71
NtRp1030
(dp1031
g74
(dp1032
g94
g95
ssg83
g1026
sg76
(lp1033
S'http_connection'
p1034
asbag69
(g90
g71
NtRp1035
(dp1036
g74
(dp1037
g101
g102
ssg83
g1026
sg76
(lp1038
S':'
asbag69
(g90
g71
NtRp1039
(dp1040
g74
(dp1041
sg83
g1026
sg76
(lp1042
g69
(g70
g71
NtRp1043
(dp1044
g74
(dp1045
g82
I4
ssg83
g1039
sg76
(lp1046
S'keep-alive'
p1047
asbasbasbag69
(g85
g71
NtRp1048
(dp1049
g74
(dp1050
sg83
g712
sg76
(lp1051
g69
(g90
g71
NtRp1052
(dp1053
g74
(dp1054
g94
g95
ssg83
g1048
sg76
(lp1055
S'http_content_length'
p1056
asbag69
(g90
g71
NtRp1057
(dp1058
g74
(dp1059
g101
g102
ssg83
g1048
sg76
(lp1060
S':'
asbag69
(g90
g71
NtRp1061
(dp1062
g74
(dp1063
sg83
g1048
sg76
(lp1064
g69
(g70
g71
NtRp1065
(dp1066
g74
(dp1067
g82
I4
ssg83
g1061
sg76
(lp1068
g828
asbasbasbag69
(g85
g71
NtRp1069
(dp1070
g74
(dp1071
sg83
g712
sg76
(lp1072
g69
(g90
g71
NtRp1073
(dp1074
g74
(dp1075
g94
g95
ssg83
g1069
sg76
(lp1076
S'http_content_type'
p1077
asbag69
(g90
g71
NtRp1078
(dp1079
g74
(dp1080
g101
g102
ssg83
g1069
sg76
(lp1081
S':'
asbag69
(g90
g71
NtRp1082
(dp1083
g74
(dp1084
sg83
g1069
sg76
(lp1085
g69
(g70
g71
NtRp1086
(dp1087
g74
(dp1088
g82
I4
ssg83
g1082
sg76
(lp1089
g850
asbasbasbag69
(g85
g71
NtRp1090
(dp1091
g74
(dp1092
sg83
g712
sg76
(lp1093
g69
(g90
g71
NtRp1094
(dp1095
g74
(dp1096
g94
g95
ssg83
g1090
sg76
(lp1097
S'http_cookie'
p1098
asbag69
(g90
g71
NtRp1099
(dp1100
g74
(dp1101
g101
g102
ssg83
g1090
sg76
(lp1102
S':'
asbag69
(g90
g71
NtRp1103
(dp1104
g74
(dp1105
sg83
g1090
sg76
(lp1106
g69
(g70
g71
NtRp1107
(dp1108
g74
(dp1109
g82
I4
ssg83
g1103
sg76
(lp1110
S'session_id_admin=127.0.0.1-9ca8fc56-3213-4881-b103-95238a337326; session_id_projeto=127.0.0.1-001edd4c-cc9d-40b6-92aa-d3bbbc6019b5'
p1111
asbasbasbag69
(g85
g71
NtRp1112
(dp1113
g74
(dp1114
sg83
g712
sg76
(lp1115
g69
(g90
g71
NtRp1116
(dp1117
g74
(dp1118
g94
g95
ssg83
g1112
sg76
(lp1119
S'http_host'
p1120
asbag69
(g90
g71
NtRp1121
(dp1122
g74
(dp1123
g101
g102
ssg83
g1112
sg76
(lp1124
S':'
asbag69
(g90
g71
NtRp1125
(dp1126
g74
(dp1127
sg83
g1112
sg76
(lp1128
g69
(g70
g71
NtRp1129
(dp1130
g74
(dp1131
g82
I4
ssg83
g1125
sg76
(lp1132
S'127.0.0.1:8000'
p1133
asbasbasbag69
(g85
g71
NtRp1134
(dp1135
g74
(dp1136
sg83
g712
sg76
(lp1137
g69
(g90
g71
NtRp1138
(dp1139
g74
(dp1140
g94
g95
ssg83
g1134
sg76
(lp1141
S'http_origin'
p1142
asbag69
(g90
g71
NtRp1143
(dp1144
g74
(dp1145
g101
g102
ssg83
g1134
sg76
(lp1146
S':'
asbag69
(g90
g71
NtRp1147
(dp1148
g74
(dp1149
sg83
g1134
sg76
(lp1150
g69
(g70
g71
NtRp1151
(dp1152
g74
(dp1153
g82
I4
ssg83
g1147
sg76
(lp1154
S'http://127.0.0.1:8000'
p1155
asbasbasbag69
(g85
g71
NtRp1156
(dp1157
g74
(dp1158
sg83
g712
sg76
(lp1159
g69
(g90
g71
NtRp1160
(dp1161
g74
(dp1162
g94
g95
ssg83
g1156
sg76
(lp1163
S'http_referer'
p1164
asbag69
(g90
g71
NtRp1165
(dp1166
g74
(dp1167
g101
g102
ssg83
g1156
sg76
(lp1168
S':'
asbag69
(g90
g71
NtRp1169
(dp1170
g74
(dp1171
sg83
g1156
sg76
(lp1172
g69
(g70
g71
NtRp1173
(dp1174
g74
(dp1175
g82
I4
ssg83
g1169
sg76
(lp1176
S'http://127.0.0.1:8000/show_cliente/edit/meetme/1013'
p1177
asbasbasbag69
(g85
g71
NtRp1178
(dp1179
g74
(dp1180
sg83
g712
sg76
(lp1181
g69
(g90
g71
NtRp1182
(dp1183
g74
(dp1184
g94
g95
ssg83
g1178
sg76
(lp1185
S'http_user_agent'
p1186
asbag69
(g90
g71
NtRp1187
(dp1188
g74
(dp1189
g101
g102
ssg83
g1178
sg76
(lp1190
S':'
asbag69
(g90
g71
NtRp1191
(dp1192
g74
(dp1193
sg83
g1178
sg76
(lp1194
g69
(g70
g71
NtRp1195
(dp1196
g74
(dp1197
g82
I4
ssg83
g1191
sg76
(lp1198
S'Mozilla/5.0 (X11; Linux x86_64) AppleWebKit/537.4 (KHTML, like Gecko) Ubuntu/12.10 Chromium/22.0.1229.94 Chrome/22.0.1229.94 Safari/537.4'
p1199
asbasbasbag69
(g85
g71
NtRp1200
(dp1201
g74
(dp1202
sg83
g712
sg76
(lp1203
g69
(g90
g71
NtRp1204
(dp1205
g74
(dp1206
g94
g95
ssg83
g1200
sg76
(lp1207
S'is_jython'
p1208
asbag69
(g90
g71
NtRp1209
(dp1210
g74
(dp1211
g101
g102
ssg83
g1200
sg76
(lp1212
S':'
asbag69
(g90
g71
NtRp1213
(dp1214
g74
(dp1215
sg83
g1200
sg76
(lp1216
g69
(g70
g71
NtRp1217
(dp1218
g74
(dp1219
g82
I4
ssg83
g1213
sg76
(lp1220
g112
asbasbasbag69
(g85
g71
NtRp1221
(dp1222
g74
(dp1223
sg83
g712
sg76
(lp1224
g69
(g90
g71
NtRp1225
(dp1226
g74
(dp1227
g94
g95
ssg83
g1221
sg76
(lp1228
S'is_pypy'
p1229
asbag69
(g90
g71
NtRp1230
(dp1231
g74
(dp1232
g101
g102
ssg83
g1221
sg76
(lp1233
S':'
asbag69
(g90
g71
NtRp1234
(dp1235
g74
(dp1236
sg83
g1221
sg76
(lp1237
g69
(g70
g71
NtRp1238
(dp1239
g74
(dp1240
g82
I4
ssg83
g1234
sg76
(lp1241
g112
asbasbasbag69
(g85
g71
NtRp1242
(dp1243
g74
(dp1244
sg83
g712
sg76
(lp1245
g69
(g90
g71
NtRp1246
(dp1247
g74
(dp1248
g94
g95
ssg83
g1242
sg76
(lp1249
S'local_hosts'
p1250
asbag69
(g90
g71
NtRp1251
(dp1252
g74
(dp1253
g101
g102
ssg83
g1242
sg76
(lp1254
S':'
asbag69
(g90
g71
NtRp1255
(dp1256
g74
(dp1257
sg83
g1242
sg76
(lp1258
g69
(g70
g71
NtRp1259
(dp1260
g74
(dp1261
g82
I4
ssg83
g1255
sg76
(lp1262
g69
(g78
g71
NtRp1263
(dp1264
g74
(dp1265
g82
I3
ssg83
Nsg76
(lp1266
g69
(g85
g71
NtRp1267
(dp1268
g74
(dp1269
sg83
g1263
sg76
(lp1270
g69
(g90
g71
NtRp1271
(dp1272
g74
(dp1273
sg83
g1267
sg76
(lp1274
g69
(g70
g71
NtRp1275
(dp1276
g74
(dp1277
g82
I3
ssg83
g1271
sg76
(lp1278
S'::1'
p1279
asbasbasbag69
(g85
g71
NtRp1280
(dp1281
g74
(dp1282
sg83
g1263
sg76
(lp1283
g69
(g90
g71
NtRp1284
(dp1285
g74
(dp1286
sg83
g1280
sg76
(lp1287
g69
(g70
g71
NtRp1288
(dp1289
g74
(dp1290
g82
I3
ssg83
g1284
sg76
(lp1291
S'::ffff:127.0.0.1'
p1292
asbasbasbag69
(g85
g71
NtRp1293
(dp1294
g74
(dp1295
sg83
g1263
sg76
(lp1296
g69
(g90
g71
NtRp1297
(dp1298
g74
(dp1299
sg83
g1293
sg76
(lp1300
g69
(g70
g71
NtRp1301
(dp1302
g74
(dp1303
g82
I3
ssg83
g1297
sg76
(lp1304
S'127.0.0.1'
p1305
asbasbasbag69
(g85
g71
NtRp1306
(dp1307
g74
(dp1308
sg83
g1263
sg76
(lp1309
g69
(g90
g71
NtRp1310
(dp1311
g74
(dp1312
sg83
g1306
sg76
(lp1313
g69
(g70
g71
NtRp1314
(dp1315
g74
(dp1316
g82
I3
ssg83
g1310
sg76
(lp1317
S'fernando-workstation'
p1318
asbasbasbasbasbasbasbag69
(g85
g71
NtRp1319
(dp1320
g74
(dp1321
sg83
g712
sg76
(lp1322
g69
(g90
g71
NtRp1323
(dp1324
g74
(dp1325
g94
g95
ssg83
g1319
sg76
(lp1326
S'path_info'
p1327
asbag69
(g90
g71
NtRp1328
(dp1329
g74
(dp1330
g101
g102
ssg83
g1319
sg76
(lp1331
S':'
asbag69
(g90
g71
NtRp1332
(dp1333
g74
(dp1334
sg83
g1319
sg76
(lp1335
g69
(g70
g71
NtRp1336
(dp1337
g74
(dp1338
g82
I4
ssg83
g1332
sg76
(lp1339
S'/show_cliente/edit/meetme/1013'
p1340
asbasbasbag69
(g85
g71
NtRp1341
(dp1342
g74
(dp1343
sg83
g712
sg76
(lp1344
g69
(g90
g71
NtRp1345
(dp1346
g74
(dp1347
g94
g95
ssg83
g1341
sg76
(lp1348
S'query_string'
p1349
asbag69
(g90
g71
NtRp1350
(dp1351
g74
(dp1352
g101
g102
ssg83
g1341
sg76
(lp1353
S':'
asbag69
(g90
g71
NtRp1354
(dp1355
g74
(dp1356
sg83
g1341
sg76
(lp1357
g69
(g70
g71
NtRp1358
(dp1359
g74
(dp1360
g82
I4
ssg83
g1354
sg76
(lp1361
S''
asbasbasbag69
(g85
g71
NtRp1362
(dp1363
g74
(dp1364
sg83
g712
sg76
(lp1365
g69
(g90
g71
NtRp1366
(dp1367
g74
(dp1368
g94
g95
ssg83
g1362
sg76
(lp1369
S'remote_addr'
p1370
asbag69
(g90
g71
NtRp1371
(dp1372
g74
(dp1373
g101
g102
ssg83
g1362
sg76
(lp1374
S':'
asbag69
(g90
g71
NtRp1375
(dp1376
g74
(dp1377
sg83
g1362
sg76
(lp1378
g69
(g70
g71
NtRp1379
(dp1380
g74
(dp1381
g82
I4
ssg83
g1375
sg76
(lp1382
g263
asbasbasbag69
(g85
g71
NtRp1383
(dp1384
g74
(dp1385
sg83
g712
sg76
(lp1386
g69
(g90
g71
NtRp1387
(dp1388
g74
(dp1389
g94
g95
ssg83
g1383
sg76
(lp1390
S'remote_port'
p1391
asbag69
(g90
g71
NtRp1392
(dp1393
g74
(dp1394
g101
g102
ssg83
g1383
sg76
(lp1395
S':'
asbag69
(g90
g71
NtRp1396
(dp1397
g74
(dp1398
sg83
g1383
sg76
(lp1399
g69
(g70
g71
NtRp1400
(dp1401
g74
(dp1402
g82
I4
ssg83
g1396
sg76
(lp1403
S'38649'
p1404
asbasbasbag69
(g85
g71
NtRp1405
(dp1406
g74
(dp1407
sg83
g712
sg76
(lp1408
g69
(g90
g71
NtRp1409
(dp1410
g74
(dp1411
g94
g95
ssg83
g1405
sg76
(lp1412
S'request_method'
p1413
asbag69
(g90
g71
NtRp1414
(dp1415
g74
(dp1416
g101
g102
ssg83
g1405
sg76
(lp1417
S':'
asbag69
(g90
g71
NtRp1418
(dp1419
g74
(dp1420
sg83
g1405
sg76
(lp1421
g69
(g70
g71
NtRp1422
(dp1423
g74
(dp1424
g82
I4
ssg83
g1418
sg76
(lp1425
S'POST'
p1426
asbasbasbag69
(g85
g71
NtRp1427
(dp1428
g74
(dp1429
sg83
g712
sg76
(lp1430
g69
(g90
g71
NtRp1431
(dp1432
g74
(dp1433
g94
g95
ssg83
g1427
sg76
(lp1434
S'request_uri'
p1435
asbag69
(g90
g71
NtRp1436
(dp1437
g74
(dp1438
g101
g102
ssg83
g1427
sg76
(lp1439
S':'
asbag69
(g90
g71
NtRp1440
(dp1441
g74
(dp1442
sg83
g1427
sg76
(lp1443
g69
(g70
g71
NtRp1444
(dp1445
g74
(dp1446
g82
I4
ssg83
g1440
sg76
(lp1447
S'/projeto/initial/show_cliente/edit/meetme/1013'
p1448
asbasbasbag69
(g85
g71
NtRp1449
(dp1450
g74
(dp1451
sg83
g712
sg76
(lp1452
g69
(g90
g71
NtRp1453
(dp1454
g74
(dp1455
g94
g95
ssg83
g1449
sg76
(lp1456
S'script_name'
p1457
asbag69
(g90
g71
NtRp1458
(dp1459
g74
(dp1460
g101
g102
ssg83
g1449
sg76
(lp1461
S':'
asbag69
(g90
g71
NtRp1462
(dp1463
g74
(dp1464
sg83
g1449
sg76
(lp1465
g69
(g70
g71
NtRp1466
(dp1467
g74
(dp1468
g82
I4
ssg83
g1462
sg76
(lp1469
S''
asbasbasbag69
(g85
g71
NtRp1470
(dp1471
g74
(dp1472
sg83
g712
sg76
(lp1473
g69
(g90
g71
NtRp1474
(dp1475
g74
(dp1476
g94
g95
ssg83
g1470
sg76
(lp1477
S'server_name'
p1478
asbag69
(g90
g71
NtRp1479
(dp1480
g74
(dp1481
g101
g102
ssg83
g1470
sg76
(lp1482
S':'
asbag69
(g90
g71
NtRp1483
(dp1484
g74
(dp1485
sg83
g1470
sg76
(lp1486
g69
(g70
g71
NtRp1487
(dp1488
g74
(dp1489
g82
I4
ssg83
g1483
sg76
(lp1490
S'fernando-workstation'
p1491
asbasbasbag69
(g85
g71
NtRp1492
(dp1493
g74
(dp1494
sg83
g712
sg76
(lp1495
g69
(g90
g71
NtRp1496
(dp1497
g74
(dp1498
g94
g95
ssg83
g1492
sg76
(lp1499
S'server_port'
p1500
asbag69
(g90
g71
NtRp1501
(dp1502
g74
(dp1503
g101
g102
ssg83
g1492
sg76
(lp1504
S':'
asbag69
(g90
g71
NtRp1505
(dp1506
g74
(dp1507
sg83
g1492
sg76
(lp1508
g69
(g70
g71
NtRp1509
(dp1510
g74
(dp1511
g82
I4
ssg83
g1505
sg76
(lp1512
S'8000'
p1513
asbasbasbag69
(g85
g71
NtRp1514
(dp1515
g74
(dp1516
sg83
g712
sg76
(lp1517
g69
(g90
g71
NtRp1518
(dp1519
g74
(dp1520
g94
g95
ssg83
g1514
sg76
(lp1521
S'server_protocol'
p1522
asbag69
(g90
g71
NtRp1523
(dp1524
g74
(dp1525
g101
g102
ssg83
g1514
sg76
(lp1526
S':'
asbag69
(g90
g71
NtRp1527
(dp1528
g74
(dp1529
sg83
g1514
sg76
(lp1530
g69
(g70
g71
NtRp1531
(dp1532
g74
(dp1533
g82
I4
ssg83
g1527
sg76
(lp1534
S'HTTP/1.1'
p1535
asbasbasbag69
(g85
g71
NtRp1536
(dp1537
g74
(dp1538
sg83
g712
sg76
(lp1539
g69
(g90
g71
NtRp1540
(dp1541
g74
(dp1542
g94
g95
ssg83
g1536
sg76
(lp1543
S'server_software'
p1544
asbag69
(g90
g71
NtRp1545
(dp1546
g74
(dp1547
g101
g102
ssg83
g1536
sg76
(lp1548
S':'
asbag69
(g90
g71
NtRp1549
(dp1550
g74
(dp1551
sg83
g1536
sg76
(lp1552
g69
(g70
g71
NtRp1553
(dp1554
g74
(dp1555
g82
I4
ssg83
g1549
sg76
(lp1556
S'Rocket 1.2.6'
p1557
asbasbasbag69
(g85
g71
NtRp1558
(dp1559
g74
(dp1560
sg83
g712
sg76
(lp1561
g69
(g90
g71
NtRp1562
(dp1563
g74
(dp1564
g94
g95
ssg83
g1558
sg76
(lp1565
S'web2py_original_uri'
p1566
asbag69
(g90
g71
NtRp1567
(dp1568
g74
(dp1569
g101
g102
ssg83
g1558
sg76
(lp1570
S':'
asbag69
(g90
g71
NtRp1571
(dp1572
g74
(dp1573
sg83
g1558
sg76
(lp1574
g69
(g70
g71
NtRp1575
(dp1576
g74
(dp1577
g82
I4
ssg83
g1571
sg76
(lp1578
g1340
asbasbasbag69
(g85
g71
NtRp1579
(dp1580
g74
(dp1581
sg83
g712
sg76
(lp1582
g69
(g90
g71
NtRp1583
(dp1584
g74
(dp1585
g94
g95
ssg83
g1579
sg76
(lp1586
S'web2py_path'
p1587
asbag69
(g90
g71
NtRp1588
(dp1589
g74
(dp1590
g101
g102
ssg83
g1579
sg76
(lp1591
S':'
asbag69
(g90
g71
NtRp1592
(dp1593
g74
(dp1594
sg83
g1579
sg76
(lp1595
g69
(g70
g71
NtRp1596
(dp1597
g74
(dp1598
g82
I4
ssg83
g1592
sg76
(lp1599
g759
asbasbasbag69
(g85
g71
NtRp1600
(dp1601
g74
(dp1602
sg83
g712
sg76
(lp1603
g69
(g90
g71
NtRp1604
(dp1605
g74
(dp1606
g94
g95
ssg83
g1600
sg76
(lp1607
S'web2py_version'
p1608
asbag69
(g90
g71
NtRp1609
(dp1610
g74
(dp1611
g101
g102
ssg83
g1600
sg76
(lp1612
S':'
asbag69
(g90
g71
NtRp1613
(dp1614
g74
(dp1615
sg83
g1600
sg76
(lp1616
g69
(g70
g71
NtRp1617
(dp1618
g74
(dp1619
g82
I4
ssg83
g1613
sg76
(lp1620
g69
(g78
g71
NtRp1621
(dp1622
g74
(dp1623
g82
I3
ssg83
Nsg76
(lp1624
g69
(g85
g71
NtRp1625
(dp1626
g74
(dp1627
sg83
g1621
sg76
(lp1628
g69
(g90
g71
NtRp1629
(dp1630
g74
(dp1631
sg83
g1625
sg76
(lp1632
g69
(g70
g71
NtRp1633
(dp1634
g74
(dp1635
g82
I3
ssg83
g1629
sg76
(lp1636
S'2'
asbasbasbag69
(g85
g71
NtRp1637
(dp1638
g74
(dp1639
sg83
g1621
sg76
(lp1640
g69
(g90
g71
NtRp1641
(dp1642
g74
(dp1643
sg83
g1637
sg76
(lp1644
g69
(g70
g71
NtRp1645
(dp1646
g74
(dp1647
g82
I3
ssg83
g1641
sg76
(lp1648
S'3'
asbasbasbag69
(g85
g71
NtRp1649
(dp1650
g74
(dp1651
sg83
g1621
sg76
(lp1652
g69
(g90
g71
NtRp1653
(dp1654
g74
(dp1655
sg83
g1649
sg76
(lp1656
g69
(g70
g71
NtRp1657
(dp1658
g74
(dp1659
g82
I3
ssg83
g1653
sg76
(lp1660
S'2'
asbasbasbag69
(g85
g71
NtRp1661
(dp1662
g74
(dp1663
sg83
g1621
sg76
(lp1664
g69
(g90
g71
NtRp1665
(dp1666
g74
(dp1667
sg83
g1661
sg76
(lp1668
g69
(g70
g71
NtRp1669
(dp1670
g74
(dp1671
g82
I3
ssg83
g1665
sg76
(lp1672
S'datetime.datetime(2012, 12, 17, 15, 3, 30)'
p1673
asbasbasbag69
(g85
g71
NtRp1674
(dp1675
g74
(dp1676
sg83
g1621
sg76
(lp1677
g69
(g90
g71
NtRp1678
(dp1679
g74
(dp1680
sg83
g1674
sg76
(lp1681
g69
(g70
g71
NtRp1682
(dp1683
g74
(dp1684
g82
I3
ssg83
g1678
sg76
(lp1685
S'stable'
p1686
asbasbasbasbasbasbasbag69
(g85
g71
NtRp1687
(dp1688
g74
(dp1689
sg83
g712
sg76
(lp1690
g69
(g90
g71
NtRp1691
(dp1692
g74
(dp1693
g94
g95
ssg83
g1687
sg76
(lp1694
S'wsgi_errors'
p1695
asbag69
(g90
g71
NtRp1696
(dp1697
g74
(dp1698
g101
g102
ssg83
g1687
sg76
(lp1699
S':'
asbag69
(g90
g71
NtRp1700
(dp1701
g74
(dp1702
sg83
g1687
sg76
(lp1703
g69
(g70
g71
NtRp1704
(dp1705
g74
(dp1706
g82
I4
ssg83
g1700
sg76
(lp1707
S"<open file '<stderr>', mode 'w' at 0x7f635a603270>"
p1708
asbasbasbag69
(g85
g71
NtRp1709
(dp1710
g74
(dp1711
sg83
g712
sg76
(lp1712
g69
(g90
g71
NtRp1713
(dp1714
g74
(dp1715
g94
g95
ssg83
g1709
sg76
(lp1716
S'wsgi_file_wrapper'
p1717
asbag69
(g90
g71
NtRp1718
(dp1719
g74
(dp1720
g101
g102
ssg83
g1709
sg76
(lp1721
S':'
asbag69
(g90
g71
NtRp1722
(dp1723
g74
(dp1724
sg83
g1709
sg76
(lp1725
g69
(g70
g71
NtRp1726
(dp1727
g74
(dp1728
g82
I4
ssg83
g1722
sg76
(lp1729
S'<class wsgiref.util.FileWrapper at 0x2bb2598>'
p1730
asbasbasbag69
(g85
g71
NtRp1731
(dp1732
g74
(dp1733
sg83
g712
sg76
(lp1734
g69
(g90
g71
NtRp1735
(dp1736
g74
(dp1737
g94
g95
ssg83
g1731
sg76
(lp1738
S'wsgi_input'
p1739
asbag69
(g90
g71
NtRp1740
(dp1741
g74
(dp1742
g101
g102
ssg83
g1731
sg76
(lp1743
S':'
asbag69
(g90
g71
NtRp1744
(dp1745
g74
(dp1746
sg83
g1731
sg76
(lp1747
g69
(g70
g71
NtRp1748
(dp1749
g74
(dp1750
g82
I4
ssg83
g1744
sg76
(lp1751
S'<socket._fileobject object at 0x7f634c149dd0>'
p1752
asbasbasbag69
(g85
g71
NtRp1753
(dp1754
g74
(dp1755
sg83
g712
sg76
(lp1756
g69
(g90
g71
NtRp1757
(dp1758
g74
(dp1759
g94
g95
ssg83
g1753
sg76
(lp1760
S'wsgi_multiprocess'
p1761
asbag69
(g90
g71
NtRp1762
(dp1763
g74
(dp1764
g101
g102
ssg83
g1753
sg76
(lp1765
S':'
asbag69
(g90
g71
NtRp1766
(dp1767
g74
(dp1768
sg83
g1753
sg76
(lp1769
g69
(g70
g71
NtRp1770
(dp1771
g74
(dp1772
g82
I4
ssg83
g1766
sg76
(lp1773
g112
asbasbasbag69
(g85
g71
NtRp1774
(dp1775
g74
(dp1776
sg83
g712
sg76
(lp1777
g69
(g90
g71
NtRp1778
(dp1779
g74
(dp1780
g94
g95
ssg83
g1774
sg76
(lp1781
S'wsgi_multithread'
p1782
asbag69
(g90
g71
NtRp1783
(dp1784
g74
(dp1785
g101
g102
ssg83
g1774
sg76
(lp1786
S':'
asbag69
(g90
g71
NtRp1787
(dp1788
g74
(dp1789
sg83
g1774
sg76
(lp1790
g69
(g70
g71
NtRp1791
(dp1792
g74
(dp1793
g82
I4
ssg83
g1787
sg76
(lp1794
S'True'
p1795
asbasbasbag69
(g85
g71
NtRp1796
(dp1797
g74
(dp1798
sg83
g712
sg76
(lp1799
g69
(g90
g71
NtRp1800
(dp1801
g74
(dp1802
g94
g95
ssg83
g1796
sg76
(lp1803
S'wsgi_run_once'
p1804
asbag69
(g90
g71
NtRp1805
(dp1806
g74
(dp1807
g101
g102
ssg83
g1796
sg76
(lp1808
S':'
asbag69
(g90
g71
NtRp1809
(dp1810
g74
(dp1811
sg83
g1796
sg76
(lp1812
g69
(g70
g71
NtRp1813
(dp1814
g74
(dp1815
g82
I4
ssg83
g1809
sg76
(lp1816
g112
asbasbasbag69
(g85
g71
NtRp1817
(dp1818
g74
(dp1819
sg83
g712
sg76
(lp1820
g69
(g90
g71
NtRp1821
(dp1822
g74
(dp1823
g94
g95
ssg83
g1817
sg76
(lp1824
S'wsgi_url_scheme'
p1825
asbag69
(g90
g71
NtRp1826
(dp1827
g74
(dp1828
g101
g102
ssg83
g1817
sg76
(lp1829
S':'
asbag69
(g90
g71
NtRp1830
(dp1831
g74
(dp1832
sg83
g1817
sg76
(lp1833
g69
(g70
g71
NtRp1834
(dp1835
g74
(dp1836
g82
I4
ssg83
g1830
sg76
(lp1837
S'http'
p1838
asbasbasbag69
(g85
g71
NtRp1839
(dp1840
g74
(dp1841
sg83
g712
sg76
(lp1842
g69
(g90
g71
NtRp1843
(dp1844
g74
(dp1845
g94
g95
ssg83
g1839
sg76
(lp1846
S'wsgi_version'
p1847
asbag69
(g90
g71
NtRp1848
(dp1849
g74
(dp1850
g101
g102
ssg83
g1839
sg76
(lp1851
S':'
asbag69
(g90
g71
NtRp1852
(dp1853
g74
(dp1854
sg83
g1839
sg76
(lp1855
g69
(g70
g71
NtRp1856
(dp1857
g74
(dp1858
g82
I4
ssg83
g1852
sg76
(lp1859
g69
(g78
g71
NtRp1860
(dp1861
g74
(dp1862
g82
I3
ssg83
Nsg76
(lp1863
g69
(g85
g71
NtRp1864
(dp1865
g74
(dp1866
sg83
g1860
sg76
(lp1867
g69
(g90
g71
NtRp1868
(dp1869
g74
(dp1870
sg83
g1864
sg76
(lp1871
g69
(g70
g71
NtRp1872
(dp1873
g74
(dp1874
g82
I3
ssg83
g1868
sg76
(lp1875
S'1'
asbasbasbag69
(g85
g71
NtRp1876
(dp1877
g74
(dp1878
sg83
g1860
sg76
(lp1879
g69
(g90
g71
NtRp1880
(dp1881
g74
(dp1882
sg83
g1876
sg76
(lp1883
g69
(g70
g71
NtRp1884
(dp1885
g74
(dp1886
g82
I3
ssg83
g1880
sg76
(lp1887
S'0'
asbasbasbasbasbasbasbasbasbasbasbag69
(g85
g71
NtRp1888
(dp1889
g74
(dp1890
sg83
g79
sg76
(lp1891
g69
(g90
g71
NtRp1892
(dp1893
g74
(dp1894
g94
g95
ssg83
g1888
sg76
(lp1895
S'extension'
p1896
asbag69
(g90
g71
NtRp1897
(dp1898
g74
(dp1899
g101
g102
ssg83
g1888
sg76
(lp1900
S':'
asbag69
(g90
g71
NtRp1901
(dp1902
g74
(dp1903
sg83
g1888
sg76
(lp1904
g69
(g70
g71
NtRp1905
(dp1906
g74
(dp1907
g82
I5
ssg83
g1901
sg76
(lp1908
S'html'
p1909
asbasbasbag69
(g85
g71
NtRp1910
(dp1911
g74
(dp1912
sg83
g79
sg76
(lp1913
g69
(g90
g71
NtRp1914
(dp1915
g74
(dp1916
g94
g95
ssg83
g1910
sg76
(lp1917
S'folder'
p1918
asbag69
(g90
g71
NtRp1919
(dp1920
g74
(dp1921
g101
g102
ssg83
g1910
sg76
(lp1922
S':'
asbag69
(g90
g71
NtRp1923
(dp1924
g74
(dp1925
sg83
g1910
sg76
(lp1926
g69
(g70
g71
NtRp1927
(dp1928
g74
(dp1929
g82
I5
ssg83
g1923
sg76
(lp1930
S'/var/www/conferencia/applications/projeto/'
p1931
asbasbasbag69
(g85
g71
NtRp1932
(dp1933
g74
(dp1934
sg83
g79
sg76
(lp1935
g69
(g90
g71
NtRp1936
(dp1937
g74
(dp1938
g94
g95
ssg83
g1932
sg76
(lp1939
S'function'
p1940
asbag69
(g90
g71
NtRp1941
(dp1942
g74
(dp1943
g101
g102
ssg83
g1932
sg76
(lp1944
S':'
asbag69
(g90
g71
NtRp1945
(dp1946
g74
(dp1947
sg83
g1932
sg76
(lp1948
g69
(g70
g71
NtRp1949
(dp1950
g74
(dp1951
g82
I5
ssg83
g1945
sg76
(lp1952
S'show_cliente'
p1953
asbasbasbag69
(g85
g71
NtRp1954
(dp1955
g74
(dp1956
sg83
g79
sg76
(lp1957
g69
(g90
g71
NtRp1958
(dp1959
g74
(dp1960
g94
g95
ssg83
g1954
sg76
(lp1961
S'get_vars'
p1962
asbag69
(g90
g71
NtRp1963
(dp1964
g74
(dp1965
g101
g102
ssg83
g1954
sg76
(lp1966
S':'
asbag69
(g90
g71
NtRp1967
(dp1968
g74
(dp1969
sg83
g1954
sg76
(lp1970
g69
(g70
g71
NtRp1971
(dp1972
g74
(dp1973
g82
I5
ssg83
g1967
sg76
(lp1974
g69
(g78
g71
NtRp1975
(dp1976
g74
(dp1977
g82
I4
ssg83
Nsg76
(lp1978
sbasbasbasbag69
(g85
g71
NtRp1979
(dp1980
g74
(dp1981
sg83
g79
sg76
(lp1982
g69
(g90
g71
NtRp1983
(dp1984
g74
(dp1985
g94
g95
ssg83
g1979
sg76
(lp1986
S'global_settings'
p1987
asbag69
(g90
g71
NtRp1988
(dp1989
g74
(dp1990
g101
g102
ssg83
g1979
sg76
(lp1991
S':'
asbag69
(g90
g71
NtRp1992
(dp1993
g74
(dp1994
sg83
g1979
sg76
(lp1995
g69
(g70
g71
NtRp1996
(dp1997
g74
(dp1998
g82
I5
ssg83
g1992
sg76
(lp1999
g69
(g78
g71
NtRp2000
(dp2001
g74
(dp2002
g82
I4
ssg83
Nsg76
(lp2003
g69
(g85
g71
NtRp2004
(dp2005
g74
(dp2006
sg83
g2000
sg76
(lp2007
g69
(g90
g71
NtRp2008
(dp2009
g74
(dp2010
g94
g95
ssg83
g2004
sg76
(lp2011
g724
asbag69
(g90
g71
NtRp2012
(dp2013
g74
(dp2014
g101
g102
ssg83
g2004
sg76
(lp2015
S':'
asbag69
(g90
g71
NtRp2016
(dp2017
g74
(dp2018
sg83
g2004
sg76
(lp2019
g69
(g70
g71
NtRp2020
(dp2021
g74
(dp2022
g82
I4
ssg83
g2016
sg76
(lp2023
S"set(['/var/www/conferencia/applications/projeto/'])"
p2024
asbasbasbag69
(g85
g71
NtRp2025
(dp2026
g74
(dp2027
sg83
g2000
sg76
(lp2028
g69
(g90
g71
NtRp2029
(dp2030
g74
(dp2031
g94
g95
ssg83
g2025
sg76
(lp2032
g746
asbag69
(g90
g71
NtRp2033
(dp2034
g74
(dp2035
g101
g102
ssg83
g2025
sg76
(lp2036
S':'
asbag69
(g90
g71
NtRp2037
(dp2038
g74
(dp2039
sg83
g2025
sg76
(lp2040
g69
(g70
g71
NtRp2041
(dp2042
g74
(dp2043
g82
I4
ssg83
g2037
sg76
(lp2044
g759
asbasbasbag69
(g85
g71
NtRp2045
(dp2046
g74
(dp2047
sg83
g2000
sg76
(lp2048
g69
(g90
g71
NtRp2049
(dp2050
g74
(dp2051
g94
g95
ssg83
g2045
sg76
(lp2052
g768
asbag69
(g90
g71
NtRp2053
(dp2054
g74
(dp2055
g101
g102
ssg83
g2045
sg76
(lp2056
S':'
asbag69
(g90
g71
NtRp2057
(dp2058
g74
(dp2059
sg83
g2045
sg76
(lp2060
g69
(g70
g71
NtRp2061
(dp2062
g74
(dp2063
g82
I4
ssg83
g2057
sg76
(lp2064
g69
(g78
g71
NtRp2065
(dp2066
g74
(dp2067
g82
I3
ssg83
Nsg76
(lp2068
sbasbasbasbag69
(g85
g71
NtRp2069
(dp2070
g74
(dp2071
sg83
g2000
sg76
(lp2072
g69
(g90
g71
NtRp2073
(dp2074
g74
(dp2075
g94
g95
ssg83
g2069
sg76
(lp2076
g793
asbag69
(g90
g71
NtRp2077
(dp2078
g74
(dp2079
g101
g102
ssg83
g2069
sg76
(lp2080
S':'
asbag69
(g90
g71
NtRp2081
(dp2082
g74
(dp2083
sg83
g2069
sg76
(lp2084
g69
(g70
g71
NtRp2085
(dp2086
g74
(dp2087
g82
I4
ssg83
g2081
sg76
(lp2088
S"<Values at 0x2c3b248: {'verbose': False, 'ip': '127.0.0.1', 'with_scheduler': False, 'ips': [], 'shutdown_timeout': 5, 'taskbar': False, 'port': 8000, 'maxthreads': None, 'softcron': False, 'server_name': 'fernando-workstation', 'bpython': False, 'nogui': False, 'pid_filename': 'httpserver.pid', 'extcron': False, 'runcron': False, 'run_system_tests': False, 'test': None, 'folder': '/var/www/conferencia', 'config': '', 'minthreads': None, 'winservice': '', 'shell': None, 'run': '', 'log_filename': 'httpserver.log', 'debuglevel': 30, 'args': [''], 'socket_timeout': 5, 'ssl_ca_certificate': None, 'scheduler': None, 'profiler_filename': None, 'ssl_private_key': '', 'scheduler_groups': None, 'password': '123456', 'request_queue_size': 5, 'ssl_certificate': '', 'cronjob': False, 'numthreads': None, 'quiet': False, 'interfaces': None, 'import_models': False, 'timeout': 10, 'plain': False, 'nobanner': False}>"
p2089
asbasbasbag69
(g85
g71
NtRp2090
(dp2091
g74
(dp2092
sg83
g2000
sg76
(lp2093
g69
(g90
g71
NtRp2094
(dp2095
g74
(dp2096
g94
g95
ssg83
g2090
sg76
(lp2097
g859
asbag69
(g90
g71
NtRp2098
(dp2099
g74
(dp2100
g101
g102
ssg83
g2090
sg76
(lp2101
S':'
asbag69
(g90
g71
NtRp2102
(dp2103
g74
(dp2104
sg83
g2090
sg76
(lp2105
g69
(g70
g71
NtRp2106
(dp2107
g74
(dp2108
g82
I4
ssg83
g2102
sg76
(lp2109
S'set([])'
p2110
asbasbasbag69
(g85
g71
NtRp2111
(dp2112
g74
(dp2113
sg83
g2000
sg76
(lp2114
g69
(g90
g71
NtRp2115
(dp2116
g74
(dp2117
g94
g95
ssg83
g2111
sg76
(lp2118
g881
asbag69
(g90
g71
NtRp2119
(dp2120
g74
(dp2121
g101
g102
ssg83
g2111
sg76
(lp2122
S':'
asbag69
(g90
g71
NtRp2123
(dp2124
g74
(dp2125
sg83
g2111
sg76
(lp2126
g69
(g70
g71
NtRp2127
(dp2128
g74
(dp2129
g82
I4
ssg83
g2123
sg76
(lp2130
g112
asbasbasbag69
(g85
g71
NtRp2131
(dp2132
g74
(dp2133
sg83
g2000
sg76
(lp2134
g69
(g90
g71
NtRp2135
(dp2136
g74
(dp2137
g94
g95
ssg83
g2131
sg76
(lp2138
g902
asbag69
(g90
g71
NtRp2139
(dp2140
g74
(dp2141
g101
g102
ssg83
g2131
sg76
(lp2142
S':'
asbag69
(g90
g71
NtRp2143
(dp2144
g74
(dp2145
sg83
g2131
sg76
(lp2146
g69
(g70
g71
NtRp2147
(dp2148
g74
(dp2149
g82
I4
ssg83
g2143
sg76
(lp2150
g915
asbasbasbag69
(g85
g71
NtRp2151
(dp2152
g74
(dp2153
sg83
g2000
sg76
(lp2154
g69
(g90
g71
NtRp2155
(dp2156
g74
(dp2157
g94
g95
ssg83
g2151
sg76
(lp2158
g1208
asbag69
(g90
g71
NtRp2159
(dp2160
g74
(dp2161
g101
g102
ssg83
g2151
sg76
(lp2162
S':'
asbag69
(g90
g71
NtRp2163
(dp2164
g74
(dp2165
sg83
g2151
sg76
(lp2166
g69
(g70
g71
NtRp2167
(dp2168
g74
(dp2169
g82
I4
ssg83
g2163
sg76
(lp2170
g112
asbasbasbag69
(g85
g71
NtRp2171
(dp2172
g74
(dp2173
sg83
g2000
sg76
(lp2174
g69
(g90
g71
NtRp2175
(dp2176
g74
(dp2177
g94
g95
ssg83
g2171
sg76
(lp2178
g1229
asbag69
(g90
g71
NtRp2179
(dp2180
g74
(dp2181
g101
g102
ssg83
g2171
sg76
(lp2182
S':'
asbag69
(g90
g71
NtRp2183
(dp2184
g74
(dp2185
sg83
g2171
sg76
(lp2186
g69
(g70
g71
NtRp2187
(dp2188
g74
(dp2189
g82
I4
ssg83
g2183
sg76
(lp2190
g112
asbasbasbag69
(g85
g71
NtRp2191
(dp2192
g74
(dp2193
sg83
g2000
sg76
(lp2194
g69
(g90
g71
NtRp2195
(dp2196
g74
(dp2197
g94
g95
ssg83
g2191
sg76
(lp2198
g1250
asbag69
(g90
g71
NtRp2199
(dp2200
g74
(dp2201
g101
g102
ssg83
g2191
sg76
(lp2202
S':'
asbag69
(g90
g71
NtRp2203
(dp2204
g74
(dp2205
sg83
g2191
sg76
(lp2206
g69
(g70
g71
NtRp2207
(dp2208
g74
(dp2209
g82
I4
ssg83
g2203
sg76
(lp2210
g69
(g78
g71
NtRp2211
(dp2212
g74
(dp2213
g82
I3
ssg83
Nsg76
(lp2214
g69
(g85
g71
NtRp2215
(dp2216
g74
(dp2217
sg83
g2211
sg76
(lp2218
g69
(g90
g71
NtRp2219
(dp2220
g74
(dp2221
sg83
g2215
sg76
(lp2222
g69
(g70
g71
NtRp2223
(dp2224
g74
(dp2225
g82
I3
ssg83
g2219
sg76
(lp2226
g1279
asbasbasbag69
(g85
g71
NtRp2227
(dp2228
g74
(dp2229
sg83
g2211
sg76
(lp2230
g69
(g90
g71
NtRp2231
(dp2232
g74
(dp2233
sg83
g2227
sg76
(lp2234
g69
(g70
g71
NtRp2235
(dp2236
g74
(dp2237
g82
I3
ssg83
g2231
sg76
(lp2238
g1292
asbasbasbag69
(g85
g71
NtRp2239
(dp2240
g74
(dp2241
sg83
g2211
sg76
(lp2242
g69
(g90
g71
NtRp2243
(dp2244
g74
(dp2245
sg83
g2239
sg76
(lp2246
g69
(g70
g71
NtRp2247
(dp2248
g74
(dp2249
g82
I3
ssg83
g2243
sg76
(lp2250
g1305
asbasbasbag69
(g85
g71
NtRp2251
(dp2252
g74
(dp2253
sg83
g2211
sg76
(lp2254
g69
(g90
g71
NtRp2255
(dp2256
g74
(dp2257
sg83
g2251
sg76
(lp2258
g69
(g70
g71
NtRp2259
(dp2260
g74
(dp2261
g82
I3
ssg83
g2255
sg76
(lp2262
g1318
asbasbasbasbasbasbasbag69
(g85
g71
NtRp2263
(dp2264
g74
(dp2265
sg83
g2000
sg76
(lp2266
g69
(g90
g71
NtRp2267
(dp2268
g74
(dp2269
g94
g95
ssg83
g2263
sg76
(lp2270
g1608
asbag69
(g90
g71
NtRp2271
(dp2272
g74
(dp2273
g101
g102
ssg83
g2263
sg76
(lp2274
S':'
asbag69
(g90
g71
NtRp2275
(dp2276
g74
(dp2277
sg83
g2263
sg76
(lp2278
g69
(g70
g71
NtRp2279
(dp2280
g74
(dp2281
g82
I4
ssg83
g2275
sg76
(lp2282
g69
(g78
g71
NtRp2283
(dp2284
g74
(dp2285
g82
I3
ssg83
Nsg76
(lp2286
g69
(g85
g71
NtRp2287
(dp2288
g74
(dp2289
sg83
g2283
sg76
(lp2290
g69
(g90
g71
NtRp2291
(dp2292
g74
(dp2293
sg83
g2287
sg76
(lp2294
g69
(g70
g71
NtRp2295
(dp2296
g74
(dp2297
g82
I3
ssg83
g2291
sg76
(lp2298
S'2'
asbasbasbag69
(g85
g71
NtRp2299
(dp2300
g74
(dp2301
sg83
g2283
sg76
(lp2302
g69
(g90
g71
NtRp2303
(dp2304
g74
(dp2305
sg83
g2299
sg76
(lp2306
g69
(g70
g71
NtRp2307
(dp2308
g74
(dp2309
g82
I3
ssg83
g2303
sg76
(lp2310
S'3'
asbasbasbag69
(g85
g71
NtRp2311
(dp2312
g74
(dp2313
sg83
g2283
sg76
(lp2314
g69
(g90
g71
NtRp2315
(dp2316
g74
(dp2317
sg83
g2311
sg76
(lp2318
g69
(g70
g71
NtRp2319
(dp2320
g74
(dp2321
g82
I3
ssg83
g2315
sg76
(lp2322
S'2'
asbasbasbag69
(g85
g71
NtRp2323
(dp2324
g74
(dp2325
sg83
g2283
sg76
(lp2326
g69
(g90
g71
NtRp2327
(dp2328
g74
(dp2329
sg83
g2323
sg76
(lp2330
g69
(g70
g71
NtRp2331
(dp2332
g74
(dp2333
g82
I3
ssg83
g2327
sg76
(lp2334
S'datetime.datetime(2012, 12, 17, 15, 3, 30)'
p2335
asbasbasbag69
(g85
g71
NtRp2336
(dp2337
g74
(dp2338
sg83
g2283
sg76
(lp2339
g69
(g90
g71
NtRp2340
(dp2341
g74
(dp2342
sg83
g2336
sg76
(lp2343
g69
(g70
g71
NtRp2344
(dp2345
g74
(dp2346
g82
I3
ssg83
g2340
sg76
(lp2347
g1686
asbasbasbasbasbasbasbasbasbasbasbag69
(g85
g71
NtRp2348
(dp2349
g74
(dp2350
sg83
g79
sg76
(lp2351
g69
(g90
g71
NtRp2352
(dp2353
g74
(dp2354
g94
g95
ssg83
g2348
sg76
(lp2355
S'is_https'
p2356
asbag69
(g90
g71
NtRp2357
(dp2358
g74
(dp2359
g101
g102
ssg83
g2348
sg76
(lp2360
S':'
asbag69
(g90
g71
NtRp2361
(dp2362
g74
(dp2363
sg83
g2348
sg76
(lp2364
g69
(g70
g71
NtRp2365
(dp2366
g74
(dp2367
g82
I5
ssg83
g2361
sg76
(lp2368
g112
asbasbasbag69
(g85
g71
NtRp2369
(dp2370
g74
(dp2371
sg83
g79
sg76
(lp2372
g69
(g90
g71
NtRp2373
(dp2374
g74
(dp2375
g94
g95
ssg83
g2369
sg76
(lp2376
S'is_local'
p2377
asbag69
(g90
g71
NtRp2378
(dp2379
g74
(dp2380
g101
g102
ssg83
g2369
sg76
(lp2381
S':'
asbag69
(g90
g71
NtRp2382
(dp2383
g74
(dp2384
sg83
g2369
sg76
(lp2385
g69
(g70
g71
NtRp2386
(dp2387
g74
(dp2388
g82
I5
ssg83
g2382
sg76
(lp2389
g1795
asbasbasbag69
(g85
g71
NtRp2390
(dp2391
g74
(dp2392
sg83
g79
sg76
(lp2393
g69
(g90
g71
NtRp2394
(dp2395
g74
(dp2396
g94
g95
ssg83
g2390
sg76
(lp2397
S'is_restful'
p2398
asbag69
(g90
g71
NtRp2399
(dp2400
g74
(dp2401
g101
g102
ssg83
g2390
sg76
(lp2402
S':'
asbag69
(g90
g71
NtRp2403
(dp2404
g74
(dp2405
sg83
g2390
sg76
(lp2406
g69
(g70
g71
NtRp2407
(dp2408
g74
(dp2409
g82
I5
ssg83
g2403
sg76
(lp2410
g112
asbasbasbag69
(g85
g71
NtRp2411
(dp2412
g74
(dp2413
sg83
g79
sg76
(lp2414
g69
(g90
g71
NtRp2415
(dp2416
g74
(dp2417
g94
g95
ssg83
g2411
sg76
(lp2418
S'now'
p2419
asbag69
(g90
g71
NtRp2420
(dp2421
g74
(dp2422
g101
g102
ssg83
g2411
sg76
(lp2423
S':'
asbag69
(g90
g71
NtRp2424
(dp2425
g74
(dp2426
sg83
g2411
sg76
(lp2427
g69
(g70
g71
NtRp2428
(dp2429
g74
(dp2430
g82
I5
ssg83
g2424
sg76
(lp2431
S'datetime.datetime(2013, 4, 3, 14, 14, 56, 897202)'
p2432
asbasbasbag69
(g85
g71
NtRp2433
(dp2434
g74
(dp2435
sg83
g79
sg76
(lp2436
g69
(g90
g71
NtRp2437
(dp2438
g74
(dp2439
g94
g95
ssg83
g2433
sg76
(lp2440
S'post_vars'
p2441
asbag69
(g90
g71
NtRp2442
(dp2443
g74
(dp2444
g101
g102
ssg83
g2433
sg76
(lp2445
S':'
asbag69
(g90
g71
NtRp2446
(dp2447
g74
(dp2448
sg83
g2433
sg76
(lp2449
g69
(g70
g71
NtRp2450
(dp2451
g74
(dp2452
g82
I5
ssg83
g2446
sg76
(lp2453
g69
(g78
g71
NtRp2454
(dp2455
g74
(dp2456
g82
I4
ssg83
Nsg76
(lp2457
g69
(g85
g71
NtRp2458
(dp2459
g74
(dp2460
sg83
g2454
sg76
(lp2461
g69
(g90
g71
NtRp2462
(dp2463
g74
(dp2464
g94
g95
ssg83
g2458
sg76
(lp2465
S'admin_user'
p2466
asbag69
(g90
g71
NtRp2467
(dp2468
g74
(dp2469
g101
g102
ssg83
g2458
sg76
(lp2470
S':'
asbag69
(g90
g71
NtRp2471
(dp2472
g74
(dp2473
sg83
g2458
sg76
(lp2474
g69
(g70
g71
NtRp2475
(dp2476
g74
(dp2477
g82
I4
ssg83
g2471
sg76
(lp2478
S'2'
asbasbasbag69
(g85
g71
NtRp2479
(dp2480
g74
(dp2481
sg83
g2454
sg76
(lp2482
g69
(g90
g71
NtRp2483
(dp2484
g74
(dp2485
g94
g95
ssg83
g2479
sg76
(lp2486
S'endtime'
p2487
asbag69
(g90
g71
NtRp2488
(dp2489
g74
(dp2490
g101
g102
ssg83
g2479
sg76
(lp2491
S':'
asbag69
(g90
g71
NtRp2492
(dp2493
g74
(dp2494
sg83
g2479
sg76
(lp2495
g69
(g70
g71
NtRp2496
(dp2497
g74
(dp2498
g82
I4
ssg83
g2492
sg76
(lp2499
S'2013-04-11 12:26:40'
p2500
asbasbasbag69
(g85
g71
NtRp2501
(dp2502
g74
(dp2503
sg83
g2454
sg76
(lp2504
g69
(g90
g71
NtRp2505
(dp2506
g74
(dp2507
g94
g95
ssg83
g2501
sg76
(lp2508
S'membros_user'
p2509
asbag69
(g90
g71
NtRp2510
(dp2511
g74
(dp2512
g101
g102
ssg83
g2501
sg76
(lp2513
S':'
asbag69
(g90
g71
NtRp2514
(dp2515
g74
(dp2516
sg83
g2501
sg76
(lp2517
g69
(g70
g71
NtRp2518
(dp2519
g74
(dp2520
g82
I4
ssg83
g2514
sg76
(lp2521
g69
(g78
g71
NtRp2522
(dp2523
g74
(dp2524
g82
I3
ssg83
Nsg76
(lp2525
g69
(g85
g71
NtRp2526
(dp2527
g74
(dp2528
sg83
g2522
sg76
(lp2529
g69
(g90
g71
NtRp2530
(dp2531
g74
(dp2532
sg83
g2526
sg76
(lp2533
g69
(g70
g71
NtRp2534
(dp2535
g74
(dp2536
g82
I3
ssg83
g2530
sg76
(lp2537
S'4'
asbasbasbag69
(g85
g71
NtRp2538
(dp2539
g74
(dp2540
sg83
g2522
sg76
(lp2541
g69
(g90
g71
NtRp2542
(dp2543
g74
(dp2544
sg83
g2538
sg76
(lp2545
g69
(g70
g71
NtRp2546
(dp2547
g74
(dp2548
g82
I3
ssg83
g2542
sg76
(lp2549
S'2'
asbasbasbasbasbasbasbag69
(g85
g71
NtRp2550
(dp2551
g74
(dp2552
sg83
g2454
sg76
(lp2553
g69
(g90
g71
NtRp2554
(dp2555
g74
(dp2556
g94
g95
ssg83
g2550
sg76
(lp2557
S'starttime'
p2558
asbag69
(g90
g71
NtRp2559
(dp2560
g74
(dp2561
g101
g102
ssg83
g2550
sg76
(lp2562
S':'
asbag69
(g90
g71
NtRp2563
(dp2564
g74
(dp2565
sg83
g2550
sg76
(lp2566
g69
(g70
g71
NtRp2567
(dp2568
g74
(dp2569
g82
I4
ssg83
g2563
sg76
(lp2570
S'2013-04-05 12:26:38'
p2571
asbasbasbasbasbasbasbag69
(g85
g71
NtRp2572
(dp2573
g74
(dp2574
sg83
g79
sg76
(lp2575
g69
(g90
g71
NtRp2576
(dp2577
g74
(dp2578
g94
g95
ssg83
g2572
sg76
(lp2579
S'url'
p2580
asbag69
(g90
g71
NtRp2581
(dp2582
g74
(dp2583
g101
g102
ssg83
g2572
sg76
(lp2584
S':'
asbag69
(g90
g71
NtRp2585
(dp2586
g74
(dp2587
sg83
g2572
sg76
(lp2588
g69
(g70
g71
NtRp2589
(dp2590
g74
(dp2591
g82
I5
ssg83
g2585
sg76
(lp2592
g1340
asbasbasbag69
(g85
g71
NtRp2593
(dp2594
g74
(dp2595
sg83
g79
sg76
(lp2596
g69
(g90
g71
NtRp2597
(dp2598
g74
(dp2599
g94
g95
ssg83
g2593
sg76
(lp2600
S'utcnow'
p2601
asbag69
(g90
g71
NtRp2602
(dp2603
g74
(dp2604
g101
g102
ssg83
g2593
sg76
(lp2605
S':'
asbag69
(g90
g71
NtRp2606
(dp2607
g74
(dp2608
sg83
g2593
sg76
(lp2609
g69
(g70
g71
NtRp2610
(dp2611
g74
(dp2612
g82
I5
ssg83
g2606
sg76
(lp2613
S'datetime.datetime(2013, 4, 3, 17, 14, 56, 897249)'
p2614
asbasbasbag69
(g85
g71
NtRp2615
(dp2616
g74
(dp2617
sg83
g79
sg76
(lp2618
g69
(g90
g71
NtRp2619
(dp2620
g74
(dp2621
g94
g95
ssg83
g2615
sg76
(lp2622
S'uuid'
p2623
asbag69
(g90
g71
NtRp2624
(dp2625
g74
(dp2626
g101
g102
ssg83
g2615
sg76
(lp2627
S':'
asbag69
(g90
g71
NtRp2628
(dp2629
g74
(dp2630
sg83
g2615
sg76
(lp2631
g69
(g70
g71
NtRp2632
(dp2633
g74
(dp2634
g82
I5
ssg83
g2628
sg76
(lp2635
S'projeto/127.0.0.1.2013-04-03.14-14-56.bc8e5225-053d-4805-85bb-2cc62c907592'
p2636
asbasbasbag69
(g85
g71
NtRp2637
(dp2638
g74
(dp2639
sg83
g79
sg76
(lp2640
g69
(g90
g71
NtRp2641
(dp2642
g74
(dp2643
g94
g95
ssg83
g2637
sg76
(lp2644
S'vars'
p2645
asbag69
(g90
g71
NtRp2646
(dp2647
g74
(dp2648
g101
g102
ssg83
g2637
sg76
(lp2649
S':'
asbag69
(g90
g71
NtRp2650
(dp2651
g74
(dp2652
sg83
g2637
sg76
(lp2653
g69
(g70
g71
NtRp2654
(dp2655
g74
(dp2656
g82
I5
ssg83
g2650
sg76
(lp2657
g69
(g78
g71
NtRp2658
(dp2659
g74
(dp2660
g82
I4
ssg83
Nsg76
(lp2661
g69
(g85
g71
NtRp2662
(dp2663
g74
(dp2664
sg83
g2658
sg76
(lp2665
g69
(g90
g71
NtRp2666
(dp2667
g74
(dp2668
g94
g95
ssg83
g2662
sg76
(lp2669
g2466
asbag69
(g90
g71
NtRp2670
(dp2671
g74
(dp2672
g101
g102
ssg83
g2662
sg76
(lp2673
S':'
asbag69
(g90
g71
NtRp2674
(dp2675
g74
(dp2676
sg83
g2662
sg76
(lp2677
g69
(g70
g71
NtRp2678
(dp2679
g74
(dp2680
g82
I4
ssg83
g2674
sg76
(lp2681
S'2'
asbasbasbag69
(g85
g71
NtRp2682
(dp2683
g74
(dp2684
sg83
g2658
sg76
(lp2685
g69
(g90
g71
NtRp2686
(dp2687
g74
(dp2688
g94
g95
ssg83
g2682
sg76
(lp2689
g2487
asbag69
(g90
g71
NtRp2690
(dp2691
g74
(dp2692
g101
g102
ssg83
g2682
sg76
(lp2693
S':'
asbag69
(g90
g71
NtRp2694
(dp2695
g74
(dp2696
sg83
g2682
sg76
(lp2697
g69
(g70
g71
NtRp2698
(dp2699
g74
(dp2700
g82
I4
ssg83
g2694
sg76
(lp2701
g2500
asbasbasbag69
(g85
g71
NtRp2702
(dp2703
g74
(dp2704
sg83
g2658
sg76
(lp2705
g69
(g90
g71
NtRp2706
(dp2707
g74
(dp2708
g94
g95
ssg83
g2702
sg76
(lp2709
g2509
asbag69
(g90
g71
NtRp2710
(dp2711
g74
(dp2712
g101
g102
ssg83
g2702
sg76
(lp2713
S':'
asbag69
(g90
g71
NtRp2714
(dp2715
g74
(dp2716
sg83
g2702
sg76
(lp2717
g69
(g70
g71
NtRp2718
(dp2719
g74
(dp2720
g82
I4
ssg83
g2714
sg76
(lp2721
g69
(g78
g71
NtRp2722
(dp2723
g74
(dp2724
g82
I3
ssg83
Nsg76
(lp2725
g69
(g85
g71
NtRp2726
(dp2727
g74
(dp2728
sg83
g2722
sg76
(lp2729
g69
(g90
g71
NtRp2730
(dp2731
g74
(dp2732
sg83
g2726
sg76
(lp2733
g69
(g70
g71
NtRp2734
(dp2735
g74
(dp2736
g82
I3
ssg83
g2730
sg76
(lp2737
S'4'
asbasbasbag69
(g85
g71
NtRp2738
(dp2739
g74
(dp2740
sg83
g2722
sg76
(lp2741
g69
(g90
g71
NtRp2742
(dp2743
g74
(dp2744
sg83
g2738
sg76
(lp2745
g69
(g70
g71
NtRp2746
(dp2747
g74
(dp2748
g82
I3
ssg83
g2742
sg76
(lp2749
S'2'
asbasbasbasbasbasbasbag69
(g85
g71
NtRp2750
(dp2751
g74
(dp2752
sg83
g2658
sg76
(lp2753
g69
(g90
g71
NtRp2754
(dp2755
g74
(dp2756
g94
g95
ssg83
g2750
sg76
(lp2757
g2558
asbag69
(g90
g71
NtRp2758
(dp2759
g74
(dp2760
g101
g102
ssg83
g2750
sg76
(lp2761
S':'
asbag69
(g90
g71
NtRp2762
(dp2763
g74
(dp2764
sg83
g2750
sg76
(lp2765
g69
(g70
g71
NtRp2766
(dp2767
g74
(dp2768
g82
I4
ssg83
g2762
sg76
(lp2769
g2571
asbasbasbasbasbasbasbag69
(g85
g71
NtRp2770
(dp2771
g74
(dp2772
sg83
g79
sg76
(lp2773
g69
(g90
g71
NtRp2774
(dp2775
g74
(dp2776
g94
g95
ssg83
g2770
sg76
(lp2777
S'wsgi'
p2778
asbag69
(g90
g71
NtRp2779
(dp2780
g74
(dp2781
g101
g102
ssg83
g2770
sg76
(lp2782
S':'
asbag69
(g90
g71
NtRp2783
(dp2784
g74
(dp2785
sg83
g2770
sg76
(lp2786
g69
(g70
g71
NtRp2787
(dp2788
g74
(dp2789
g82
I5
ssg83
g2783
sg76
(lp2790
g69
(g78
g71
NtRp2791
(dp2792
g74
(dp2793
g82
I4
ssg83
Nsg76
(lp2794
g69
(g85
g71
NtRp2795
(dp2796
g74
(dp2797
sg83
g2791
sg76
(lp2798
g69
(g90
g71
NtRp2799
(dp2800
g74
(dp2801
g94
g95
ssg83
g2795
sg76
(lp2802
S'environ'
p2803
asbag69
(g90
g71
NtRp2804
(dp2805
g74
(dp2806
g101
g102
ssg83
g2795
sg76
(lp2807
S':'
asbag69
(g90
g71
NtRp2808
(dp2809
g74
(dp2810
sg83
g2795
sg76
(lp2811
g69
(g70
g71
NtRp2812
(dp2813
g74
(dp2814
g82
I4
ssg83
g2808
sg76
(lp2815
g69
(g78
g71
NtRp2816
(dp2817
g74
(dp2818
g82
I3
ssg83
Nsg76
(lp2819
g69
(g85
g71
NtRp2820
(dp2821
g74
(dp2822
sg83
g2816
sg76
(lp2823
g69
(g90
g71
NtRp2824
(dp2825
g74
(dp2826
g94
g95
ssg83
g2820
sg76
(lp2827
S'CONTENT_LENGTH'
p2828
asbag69
(g90
g71
NtRp2829
(dp2830
g74
(dp2831
g101
g102
ssg83
g2820
sg76
(lp2832
S':'
asbag69
(g90
g71
NtRp2833
(dp2834
g74
(dp2835
sg83
g2820
sg76
(lp2836
g69
(g70
g71
NtRp2837
(dp2838
g74
(dp2839
g82
I3
ssg83
g2833
sg76
(lp2840
g828
asbasbasbag69
(g85
g71
NtRp2841
(dp2842
g74
(dp2843
sg83
g2816
sg76
(lp2844
g69
(g90
g71
NtRp2845
(dp2846
g74
(dp2847
g94
g95
ssg83
g2841
sg76
(lp2848
S'CONTENT_TYPE'
p2849
asbag69
(g90
g71
NtRp2850
(dp2851
g74
(dp2852
g101
g102
ssg83
g2841
sg76
(lp2853
S':'
asbag69
(g90
g71
NtRp2854
(dp2855
g74
(dp2856
sg83
g2841
sg76
(lp2857
g69
(g70
g71
NtRp2858
(dp2859
g74
(dp2860
g82
I3
ssg83
g2854
sg76
(lp2861
g850
asbasbasbag69
(g85
g71
NtRp2862
(dp2863
g74
(dp2864
sg83
g2816
sg76
(lp2865
g69
(g90
g71
NtRp2866
(dp2867
g74
(dp2868
g94
g95
ssg83
g2862
sg76
(lp2869
S'HTTP_ACCEPT'
p2870
asbag69
(g90
g71
NtRp2871
(dp2872
g74
(dp2873
g101
g102
ssg83
g2862
sg76
(lp2874
S':'
asbag69
(g90
g71
NtRp2875
(dp2876
g74
(dp2877
sg83
g2862
sg76
(lp2878
g69
(g70
g71
NtRp2879
(dp2880
g74
(dp2881
g82
I3
ssg83
g2875
sg76
(lp2882
g937
asbasbasbag69
(g85
g71
NtRp2883
(dp2884
g74
(dp2885
sg83
g2816
sg76
(lp2886
g69
(g90
g71
NtRp2887
(dp2888
g74
(dp2889
g94
g95
ssg83
g2883
sg76
(lp2890
S'HTTP_ACCEPT_CHARSET'
p2891
asbag69
(g90
g71
NtRp2892
(dp2893
g74
(dp2894
g101
g102
ssg83
g2883
sg76
(lp2895
S':'
asbag69
(g90
g71
NtRp2896
(dp2897
g74
(dp2898
sg83
g2883
sg76
(lp2899
g69
(g70
g71
NtRp2900
(dp2901
g74
(dp2902
g82
I3
ssg83
g2896
sg76
(lp2903
g959
asbasbasbag69
(g85
g71
NtRp2904
(dp2905
g74
(dp2906
sg83
g2816
sg76
(lp2907
g69
(g90
g71
NtRp2908
(dp2909
g74
(dp2910
g94
g95
ssg83
g2904
sg76
(lp2911
S'HTTP_ACCEPT_ENCODING'
p2912
asbag69
(g90
g71
NtRp2913
(dp2914
g74
(dp2915
g101
g102
ssg83
g2904
sg76
(lp2916
S':'
asbag69
(g90
g71
NtRp2917
(dp2918
g74
(dp2919
sg83
g2904
sg76
(lp2920
g69
(g70
g71
NtRp2921
(dp2922
g74
(dp2923
g82
I3
ssg83
g2917
sg76
(lp2924
g981
asbasbasbag69
(g85
g71
NtRp2925
(dp2926
g74
(dp2927
sg83
g2816
sg76
(lp2928
g69
(g90
g71
NtRp2929
(dp2930
g74
(dp2931
g94
g95
ssg83
g2925
sg76
(lp2932
S'HTTP_ACCEPT_LANGUAGE'
p2933
asbag69
(g90
g71
NtRp2934
(dp2935
g74
(dp2936
g101
g102
ssg83
g2925
sg76
(lp2937
S':'
asbag69
(g90
g71
NtRp2938
(dp2939
g74
(dp2940
sg83
g2925
sg76
(lp2941
g69
(g70
g71
NtRp2942
(dp2943
g74
(dp2944
g82
I3
ssg83
g2938
sg76
(lp2945
g1003
asbasbasbag69
(g85
g71
NtRp2946
(dp2947
g74
(dp2948
sg83
g2816
sg76
(lp2949
g69
(g90
g71
NtRp2950
(dp2951
g74
(dp2952
g94
g95
ssg83
g2946
sg76
(lp2953
S'HTTP_CACHE_CONTROL'
p2954
asbag69
(g90
g71
NtRp2955
(dp2956
g74
(dp2957
g101
g102
ssg83
g2946
sg76
(lp2958
S':'
asbag69
(g90
g71
NtRp2959
(dp2960
g74
(dp2961
sg83
g2946
sg76
(lp2962
g69
(g70
g71
NtRp2963
(dp2964
g74
(dp2965
g82
I3
ssg83
g2959
sg76
(lp2966
g1025
asbasbasbag69
(g85
g71
NtRp2967
(dp2968
g74
(dp2969
sg83
g2816
sg76
(lp2970
g69
(g90
g71
NtRp2971
(dp2972
g74
(dp2973
g94
g95
ssg83
g2967
sg76
(lp2974
S'HTTP_CONNECTION'
p2975
asbag69
(g90
g71
NtRp2976
(dp2977
g74
(dp2978
g101
g102
ssg83
g2967
sg76
(lp2979
S':'
asbag69
(g90
g71
NtRp2980
(dp2981
g74
(dp2982
sg83
g2967
sg76
(lp2983
g69
(g70
g71
NtRp2984
(dp2985
g74
(dp2986
g82
I3
ssg83
g2980
sg76
(lp2987
g1047
asbasbasbag69
(g85
g71
NtRp2988
(dp2989
g74
(dp2990
sg83
g2816
sg76
(lp2991
g69
(g90
g71
NtRp2992
(dp2993
g74
(dp2994
g94
g95
ssg83
g2988
sg76
(lp2995
S'HTTP_CONTENT_LENGTH'
p2996
asbag69
(g90
g71
NtRp2997
(dp2998
g74
(dp2999
g101
g102
ssg83
g2988
sg76
(lp3000
S':'
asbag69
(g90
g71
NtRp3001
(dp3002
g74
(dp3003
sg83
g2988
sg76
(lp3004
g69
(g70
g71
NtRp3005
(dp3006
g74
(dp3007
g82
I3
ssg83
g3001
sg76
(lp3008
g828
asbasbasbag69
(g85
g71
NtRp3009
(dp3010
g74
(dp3011
sg83
g2816
sg76
(lp3012
g69
(g90
g71
NtRp3013
(dp3014
g74
(dp3015
g94
g95
ssg83
g3009
sg76
(lp3016
S'HTTP_CONTENT_TYPE'
p3017
asbag69
(g90
g71
NtRp3018
(dp3019
g74
(dp3020
g101
g102
ssg83
g3009
sg76
(lp3021
S':'
asbag69
(g90
g71
NtRp3022
(dp3023
g74
(dp3024
sg83
g3009
sg76
(lp3025
g69
(g70
g71
NtRp3026
(dp3027
g74
(dp3028
g82
I3
ssg83
g3022
sg76
(lp3029
g850
asbasbasbag69
(g85
g71
NtRp3030
(dp3031
g74
(dp3032
sg83
g2816
sg76
(lp3033
g69
(g90
g71
NtRp3034
(dp3035
g74
(dp3036
g94
g95
ssg83
g3030
sg76
(lp3037
S'HTTP_COOKIE'
p3038
asbag69
(g90
g71
NtRp3039
(dp3040
g74
(dp3041
g101
g102
ssg83
g3030
sg76
(lp3042
S':'
asbag69
(g90
g71
NtRp3043
(dp3044
g74
(dp3045
sg83
g3030
sg76
(lp3046
g69
(g70
g71
NtRp3047
(dp3048
g74
(dp3049
g82
I3
ssg83
g3043
sg76
(lp3050
g1111
asbasbasbag69
(g85
g71
NtRp3051
(dp3052
g74
(dp3053
sg83
g2816
sg76
(lp3054
g69
(g90
g71
NtRp3055
(dp3056
g74
(dp3057
g94
g95
ssg83
g3051
sg76
(lp3058
S'HTTP_HOST'
p3059
asbag69
(g90
g71
NtRp3060
(dp3061
g74
(dp3062
g101
g102
ssg83
g3051
sg76
(lp3063
S':'
asbag69
(g90
g71
NtRp3064
(dp3065
g74
(dp3066
sg83
g3051
sg76
(lp3067
g69
(g70
g71
NtRp3068
(dp3069
g74
(dp3070
g82
I3
ssg83
g3064
sg76
(lp3071
g1133
asbasbasbag69
(g85
g71
NtRp3072
(dp3073
g74
(dp3074
sg83
g2816
sg76
(lp3075
g69
(g90
g71
NtRp3076
(dp3077
g74
(dp3078
g94
g95
ssg83
g3072
sg76
(lp3079
S'HTTP_ORIGIN'
p3080
asbag69
(g90
g71
NtRp3081
(dp3082
g74
(dp3083
g101
g102
ssg83
g3072
sg76
(lp3084
S':'
asbag69
(g90
g71
NtRp3085
(dp3086
g74
(dp3087
sg83
g3072
sg76
(lp3088
g69
(g70
g71
NtRp3089
(dp3090
g74
(dp3091
g82
I3
ssg83
g3085
sg76
(lp3092
g1155
asbasbasbag69
(g85
g71
NtRp3093
(dp3094
g74
(dp3095
sg83
g2816
sg76
(lp3096
g69
(g90
g71
NtRp3097
(dp3098
g74
(dp3099
g94
g95
ssg83
g3093
sg76
(lp3100
S'HTTP_REFERER'
p3101
asbag69
(g90
g71
NtRp3102
(dp3103
g74
(dp3104
g101
g102
ssg83
g3093
sg76
(lp3105
S':'
asbag69
(g90
g71
NtRp3106
(dp3107
g74
(dp3108
sg83
g3093
sg76
(lp3109
g69
(g70
g71
NtRp3110
(dp3111
g74
(dp3112
g82
I3
ssg83
g3106
sg76
(lp3113
g1177
asbasbasbag69
(g85
g71
NtRp3114
(dp3115
g74
(dp3116
sg83
g2816
sg76
(lp3117
g69
(g90
g71
NtRp3118
(dp3119
g74
(dp3120
g94
g95
ssg83
g3114
sg76
(lp3121
S'HTTP_USER_AGENT'
p3122
asbag69
(g90
g71
NtRp3123
(dp3124
g74
(dp3125
g101
g102
ssg83
g3114
sg76
(lp3126
S':'
asbag69
(g90
g71
NtRp3127
(dp3128
g74
(dp3129
sg83
g3114
sg76
(lp3130
g69
(g70
g71
NtRp3131
(dp3132
g74
(dp3133
g82
I3
ssg83
g3127
sg76
(lp3134
g1199
asbasbasbag69
(g85
g71
NtRp3135
(dp3136
g74
(dp3137
sg83
g2816
sg76
(lp3138
g69
(g90
g71
NtRp3139
(dp3140
g74
(dp3141
g94
g95
ssg83
g3135
sg76
(lp3142
S'PATH_INFO'
p3143
asbag69
(g90
g71
NtRp3144
(dp3145
g74
(dp3146
g101
g102
ssg83
g3135
sg76
(lp3147
S':'
asbag69
(g90
g71
NtRp3148
(dp3149
g74
(dp3150
sg83
g3135
sg76
(lp3151
g69
(g70
g71
NtRp3152
(dp3153
g74
(dp3154
g82
I3
ssg83
g3148
sg76
(lp3155
g1340
asbasbasbag69
(g85
g71
NtRp3156
(dp3157
g74
(dp3158
sg83
g2816
sg76
(lp3159
g69
(g90
g71
NtRp3160
(dp3161
g74
(dp3162
g94
g95
ssg83
g3156
sg76
(lp3163
S'QUERY_STRING'
p3164
asbag69
(g90
g71
NtRp3165
(dp3166
g74
(dp3167
g101
g102
ssg83
g3156
sg76
(lp3168
S':'
asbag69
(g90
g71
NtRp3169
(dp3170
g74
(dp3171
sg83
g3156
sg76
(lp3172
g69
(g70
g71
NtRp3173
(dp3174
g74
(dp3175
g82
I3
ssg83
g3169
sg76
(lp3176
S''
asbasbasbag69
(g85
g71
NtRp3177
(dp3178
g74
(dp3179
sg83
g2816
sg76
(lp3180
g69
(g90
g71
NtRp3181
(dp3182
g74
(dp3183
g94
g95
ssg83
g3177
sg76
(lp3184
S'REMOTE_ADDR'
p3185
asbag69
(g90
g71
NtRp3186
(dp3187
g74
(dp3188
g101
g102
ssg83
g3177
sg76
(lp3189
S':'
asbag69
(g90
g71
NtRp3190
(dp3191
g74
(dp3192
sg83
g3177
sg76
(lp3193
g69
(g70
g71
NtRp3194
(dp3195
g74
(dp3196
g82
I3
ssg83
g3190
sg76
(lp3197
g263
asbasbasbag69
(g85
g71
NtRp3198
(dp3199
g74
(dp3200
sg83
g2816
sg76
(lp3201
g69
(g90
g71
NtRp3202
(dp3203
g74
(dp3204
g94
g95
ssg83
g3198
sg76
(lp3205
S'REMOTE_PORT'
p3206
asbag69
(g90
g71
NtRp3207
(dp3208
g74
(dp3209
g101
g102
ssg83
g3198
sg76
(lp3210
S':'
asbag69
(g90
g71
NtRp3211
(dp3212
g74
(dp3213
sg83
g3198
sg76
(lp3214
g69
(g70
g71
NtRp3215
(dp3216
g74
(dp3217
g82
I3
ssg83
g3211
sg76
(lp3218
g1404
asbasbasbag69
(g85
g71
NtRp3219
(dp3220
g74
(dp3221
sg83
g2816
sg76
(lp3222
g69
(g90
g71
NtRp3223
(dp3224
g74
(dp3225
g94
g95
ssg83
g3219
sg76
(lp3226
S'REQUEST_METHOD'
p3227
asbag69
(g90
g71
NtRp3228
(dp3229
g74
(dp3230
g101
g102
ssg83
g3219
sg76
(lp3231
S':'
asbag69
(g90
g71
NtRp3232
(dp3233
g74
(dp3234
sg83
g3219
sg76
(lp3235
g69
(g70
g71
NtRp3236
(dp3237
g74
(dp3238
g82
I3
ssg83
g3232
sg76
(lp3239
g1426
asbasbasbag69
(g85
g71
NtRp3240
(dp3241
g74
(dp3242
sg83
g2816
sg76
(lp3243
g69
(g90
g71
NtRp3244
(dp3245
g74
(dp3246
g94
g95
ssg83
g3240
sg76
(lp3247
S'REQUEST_URI'
p3248
asbag69
(g90
g71
NtRp3249
(dp3250
g74
(dp3251
g101
g102
ssg83
g3240
sg76
(lp3252
S':'
asbag69
(g90
g71
NtRp3253
(dp3254
g74
(dp3255
sg83
g3240
sg76
(lp3256
g69
(g70
g71
NtRp3257
(dp3258
g74
(dp3259
g82
I3
ssg83
g3253
sg76
(lp3260
g1448
asbasbasbag69
(g85
g71
NtRp3261
(dp3262
g74
(dp3263
sg83
g2816
sg76
(lp3264
g69
(g90
g71
NtRp3265
(dp3266
g74
(dp3267
g94
g95
ssg83
g3261
sg76
(lp3268
S'SCRIPT_NAME'
p3269
asbag69
(g90
g71
NtRp3270
(dp3271
g74
(dp3272
g101
g102
ssg83
g3261
sg76
(lp3273
S':'
asbag69
(g90
g71
NtRp3274
(dp3275
g74
(dp3276
sg83
g3261
sg76
(lp3277
g69
(g70
g71
NtRp3278
(dp3279
g74
(dp3280
g82
I3
ssg83
g3274
sg76
(lp3281
S''
asbasbasbag69
(g85
g71
NtRp3282
(dp3283
g74
(dp3284
sg83
g2816
sg76
(lp3285
g69
(g90
g71
NtRp3286
(dp3287
g74
(dp3288
g94
g95
ssg83
g3282
sg76
(lp3289
S'SERVER_NAME'
p3290
asbag69
(g90
g71
NtRp3291
(dp3292
g74
(dp3293
g101
g102
ssg83
g3282
sg76
(lp3294
S':'
asbag69
(g90
g71
NtRp3295
(dp3296
g74
(dp3297
sg83
g3282
sg76
(lp3298
g69
(g70
g71
NtRp3299
(dp3300
g74
(dp3301
g82
I3
ssg83
g3295
sg76
(lp3302
g1491
asbasbasbag69
(g85
g71
NtRp3303
(dp3304
g74
(dp3305
sg83
g2816
sg76
(lp3306
g69
(g90
g71
NtRp3307
(dp3308
g74
(dp3309
g94
g95
ssg83
g3303
sg76
(lp3310
S'SERVER_PORT'
p3311
asbag69
(g90
g71
NtRp3312
(dp3313
g74
(dp3314
g101
g102
ssg83
g3303
sg76
(lp3315
S':'
asbag69
(g90
g71
NtRp3316
(dp3317
g74
(dp3318
sg83
g3303
sg76
(lp3319
g69
(g70
g71
NtRp3320
(dp3321
g74
(dp3322
g82
I3
ssg83
g3316
sg76
(lp3323
g1513
asbasbasbag69
(g85
g71
NtRp3324
(dp3325
g74
(dp3326
sg83
g2816
sg76
(lp3327
g69
(g90
g71
NtRp3328
(dp3329
g74
(dp3330
g94
g95
ssg83
g3324
sg76
(lp3331
S'SERVER_PROTOCOL'
p3332
asbag69
(g90
g71
NtRp3333
(dp3334
g74
(dp3335
g101
g102
ssg83
g3324
sg76
(lp3336
S':'
asbag69
(g90
g71
NtRp3337
(dp3338
g74
(dp3339
sg83
g3324
sg76
(lp3340
g69
(g70
g71
NtRp3341
(dp3342
g74
(dp3343
g82
I3
ssg83
g3337
sg76
(lp3344
g1535
asbasbasbag69
(g85
g71
NtRp3345
(dp3346
g74
(dp3347
sg83
g2816
sg76
(lp3348
g69
(g90
g71
NtRp3349
(dp3350
g74
(dp3351
g94
g95
ssg83
g3345
sg76
(lp3352
S'SERVER_SOFTWARE'
p3353
asbag69
(g90
g71
NtRp3354
(dp3355
g74
(dp3356
g101
g102
ssg83
g3345
sg76
(lp3357
S':'
asbag69
(g90
g71
NtRp3358
(dp3359
g74
(dp3360
sg83
g3345
sg76
(lp3361
g69
(g70
g71
NtRp3362
(dp3363
g74
(dp3364
g82
I3
ssg83
g3358
sg76
(lp3365
g1557
asbasbasbag69
(g85
g71
NtRp3366
(dp3367
g74
(dp3368
sg83
g2816
sg76
(lp3369
g69
(g90
g71
NtRp3370
(dp3371
g74
(dp3372
g94
g95
ssg83
g3366
sg76
(lp3373
S'WEB2PY_ORIGINAL_URI'
p3374
asbag69
(g90
g71
NtRp3375
(dp3376
g74
(dp3377
g101
g102
ssg83
g3366
sg76
(lp3378
S':'
asbag69
(g90
g71
NtRp3379
(dp3380
g74
(dp3381
sg83
g3366
sg76
(lp3382
g69
(g70
g71
NtRp3383
(dp3384
g74
(dp3385
g82
I3
ssg83
g3379
sg76
(lp3386
g1340
asbasbasbag69
(g85
g71
NtRp3387
(dp3388
g74
(dp3389
sg83
g2816
sg76
(lp3390
g69
(g90
g71
NtRp3391
(dp3392
g74
(dp3393
g94
g95
ssg83
g3387
sg76
(lp3394
S'wsgi.errors'
p3395
asbag69
(g90
g71
NtRp3396
(dp3397
g74
(dp3398
g101
g102
ssg83
g3387
sg76
(lp3399
S':'
asbag69
(g90
g71
NtRp3400
(dp3401
g74
(dp3402
sg83
g3387
sg76
(lp3403
g69
(g70
g71
NtRp3404
(dp3405
g74
(dp3406
g82
I3
ssg83
g3400
sg76
(lp3407
S"<open file '<stderr>', mode 'w' at 0x7f635a603270>"
p3408
asbasbasbag69
(g85
g71
NtRp3409
(dp3410
g74
(dp3411
sg83
g2816
sg76
(lp3412
g69
(g90
g71
NtRp3413
(dp3414
g74
(dp3415
g94
g95
ssg83
g3409
sg76
(lp3416
S'wsgi.file_wrapper'
p3417
asbag69
(g90
g71
NtRp3418
(dp3419
g74
(dp3420
g101
g102
ssg83
g3409
sg76
(lp3421
S':'
asbag69
(g90
g71
NtRp3422
(dp3423
g74
(dp3424
sg83
g3409
sg76
(lp3425
g69
(g70
g71
NtRp3426
(dp3427
g74
(dp3428
g82
I3
ssg83
g3422
sg76
(lp3429
S'<class wsgiref.util.FileWrapper at 0x2bb2598>'
p3430
asbasbasbag69
(g85
g71
NtRp3431
(dp3432
g74
(dp3433
sg83
g2816
sg76
(lp3434
g69
(g90
g71
NtRp3435
(dp3436
g74
(dp3437
g94
g95
ssg83
g3431
sg76
(lp3438
S'wsgi.input'
p3439
asbag69
(g90
g71
NtRp3440
(dp3441
g74
(dp3442
g101
g102
ssg83
g3431
sg76
(lp3443
S':'
asbag69
(g90
g71
NtRp3444
(dp3445
g74
(dp3446
sg83
g3431
sg76
(lp3447
g69
(g70
g71
NtRp3448
(dp3449
g74
(dp3450
g82
I3
ssg83
g3444
sg76
(lp3451
S"<open file '<fdopen>', mode 'w+b' at 0x7f634c26f390>"
p3452
asbasbasbag69
(g85
g71
NtRp3453
(dp3454
g74
(dp3455
sg83
g2816
sg76
(lp3456
g69
(g90
g71
NtRp3457
(dp3458
g74
(dp3459
g94
g95
ssg83
g3453
sg76
(lp3460
S'wsgi.multiprocess'
p3461
asbag69
(g90
g71
NtRp3462
(dp3463
g74
(dp3464
g101
g102
ssg83
g3453
sg76
(lp3465
S':'
asbag69
(g90
g71
NtRp3466
(dp3467
g74
(dp3468
sg83
g3453
sg76
(lp3469
g69
(g70
g71
NtRp3470
(dp3471
g74
(dp3472
g82
I3
ssg83
g3466
sg76
(lp3473
g112
asbasbasbag69
(g85
g71
NtRp3474
(dp3475
g74
(dp3476
sg83
g2816
sg76
(lp3477
g69
(g90
g71
NtRp3478
(dp3479
g74
(dp3480
g94
g95
ssg83
g3474
sg76
(lp3481
S'wsgi.multithread'
p3482
asbag69
(g90
g71
NtRp3483
(dp3484
g74
(dp3485
g101
g102
ssg83
g3474
sg76
(lp3486
S':'
asbag69
(g90
g71
NtRp3487
(dp3488
g74
(dp3489
sg83
g3474
sg76
(lp3490
g69
(g70
g71
NtRp3491
(dp3492
g74
(dp3493
g82
I3
ssg83
g3487
sg76
(lp3494
g1795
asbasbasbag69
(g85
g71
NtRp3495
(dp3496
g74
(dp3497
sg83
g2816
sg76
(lp3498
g69
(g90
g71
NtRp3499
(dp3500
g74
(dp3501
g94
g95
ssg83
g3495
sg76
(lp3502
S'wsgi.run_once'
p3503
asbag69
(g90
g71
NtRp3504
(dp3505
g74
(dp3506
g101
g102
ssg83
g3495
sg76
(lp3507
S':'
asbag69
(g90
g71
NtRp3508
(dp3509
g74
(dp3510
sg83
g3495
sg76
(lp3511
g69
(g70
g71
NtRp3512
(dp3513
g74
(dp3514
g82
I3
ssg83
g3508
sg76
(lp3515
g112
asbasbasbag69
(g85
g71
NtRp3516
(dp3517
g74
(dp3518
sg83
g2816
sg76
(lp3519
g69
(g90
g71
NtRp3520
(dp3521
g74
(dp3522
g94
g95
ssg83
g3516
sg76
(lp3523
S'wsgi.url_scheme'
p3524
asbag69
(g90
g71
NtRp3525
(dp3526
g74
(dp3527
g101
g102
ssg83
g3516
sg76
(lp3528
S':'
asbag69
(g90
g71
NtRp3529
(dp3530
g74
(dp3531
sg83
g3516
sg76
(lp3532
g69
(g70
g71
NtRp3533
(dp3534
g74
(dp3535
g82
I3
ssg83
g3529
sg76
(lp3536
g1838
asbasbasbag69
(g85
g71
NtRp3537
(dp3538
g74
(dp3539
sg83
g2816
sg76
(lp3540
g69
(g90
g71
NtRp3541
(dp3542
g74
(dp3543
g94
g95
ssg83
g3537
sg76
(lp3544
S'wsgi.version'
p3545
asbag69
(g90
g71
NtRp3546
(dp3547
g74
(dp3548
g101
g102
ssg83
g3537
sg76
(lp3549
S':'
asbag69
(g90
g71
NtRp3550
(dp3551
g74
(dp3552
sg83
g3537
sg76
(lp3553
g69
(g70
g71
NtRp3554
(dp3555
g74
(dp3556
g82
I3
ssg83
g3550
sg76
(lp3557
S'1'
asbasbasbasbasbasbasbasbasbasbasbasbasbsS'frames'
p3558
(lp3559
(dp3560
S'file'
p3561
S'/var/www/conferencia/gluon/restricted.py'
p3562
sS'dump'
p3563
(dp3564
S'environment'
p3565
S"{'A': <class 'gluon.html.A'>, 'Auth': <class 'gluon.tools.Auth'>, 'B': <class 'gluon.html.B'>, 'BEAUTIFY': <class 'gluon.html.BEAUTIFY'>, 'BODY': <class 'gluon.html.BODY'>, 'BR': <class 'gluon.html.BR'>, 'BUTTON': <class 'gluon.html.BUTTON'>, 'CAT': <class 'gluon.html.CAT'>, 'CENTER': <class 'gluon.html.CENTER'>, 'CLEANUP': <class 'gluon.validators.CLEANUP'>, ...}"
p3566
sS'ccode'
p3567
S'<code object <module> at 0x7f6340146c30, file "/...ications/projeto/controllers/initial.py", line 3>'
p3568
ssS'lnum'
p3569
I212
sS'lines'
p3570
(dp3571
I207
S'    try:'
p3572
sI208
S'        if isinstance(code, types.CodeType):'
p3573
sI209
S'            ccode = code'
p3574
sI210
S'        else:'
p3575
sI211
S'            ccode = compile2(code, layer)'
p3576
sI212
S'        exec ccode in environment'
p3577
sI213
S'    except HTTP:'
p3578
sI214
S'        raise'
p3579
sI215
S'    except RestrictedError:'
p3580
sI216
S'        # do not encapsulate (obfuscate) the original RestrictedError'
p3581
ssS'call'
p3582
S"(code='# coding: utf-8\\n\\ndef show_cliente():\\n\\tresponse.t...)\\n\\nresponse._vars=response._caller(show_cliente)\\n', environment={'A': <class 'gluon.html.A'>, 'Auth': <class 'gluon.tools.Auth'>, 'B': <class 'gluon.html.B'>, 'BEAUTIFY': <class 'gluon.html.BEAUTIFY'>, 'BODY': <class 'gluon.html.BODY'>, 'BR': <class 'gluon.html.BR'>, 'BUTTON': <class 'gluon.html.BUTTON'>, 'CAT': <class 'gluon.html.CAT'>, 'CENTER': <class 'gluon.html.CENTER'>, 'CLEANUP': <class 'gluon.validators.CLEANUP'>, ...}, layer='/var/www/conferencia/applications/projeto/controllers/initial.py')"
p3583
sS'func'
p3584
S'restricted'
p3585
sa(dp3586
g3561
S'/var/www/conferencia/applications/projeto/controllers/initial.py'
p3587
sg3563
(dp3588
sg3569
I326
sg3570
(dp3589
I320
S'\t\tmail.send('
p3590
sI321
S'\t\t\tto="fernando@ad2.com.br",'
p3591
sI322
S'\t\t\tsubject="host adicionado",'
p3592
sI323
S'\t\t\tmessage="<html>Um novo host foi adicionado pelo usu\xc3\xa1rio %s <br>nome: %s <br>vpn: %s<br><br>\xc3\x89 preciso fazer a instala\xc3\xa7\xc3\xa3o do client zabbix e bacula</html>" % (auth.user.first_name, host.nome, host.ip_chegada,)'
p3593
sI324
S'\t\t\t)'
p3594
sI315
S'\t\t\tto="fndiaz02@gmail.com",'
p3595
sI316
S'\t\t\tsubject="host adicionado",'
p3596
sI317
S'\t\t\tmessage="<html>Um novo host foi adicionado pelo usu\xc3\xa1rio %s <br>nome: %s <br>vpn: %s<br><br>\xc3\x89 preciso fazer a instala\xc3\xa7\xc3\xa3o do client zabbix e bacula</html>" % (auth.user.first_name, host.nome, host.ip_chegada,)'
p3597
sI318
S'\t\t\t)'
p3598
sI319
S"\telif auth.has_membership('internet'):"
p3599
ssg3582
S'()'
p3600
sg3584
S'<module>'
p3601
sa(dp3602
g3561
S'/var/www/conferencia/gluon/globals.py'
p3603
sg3563
(dp3604
S'self'
p3605
S'undefined'
p3606
sS'f'
S'<function show_cliente>'
p3607
ssg3569
I193
sg3570
(dp3608
I192
S'        self._vars = None'
p3609
sI193
S'        self._caller = lambda f: f()'
p3610
sI194
S'        self._view_environment = None'
p3611
sI195
S'        self._custom_commit = None'
p3612
sI196
S'        self._custom_rollback = None'
p3613
sI197
S''
sI188
S'        self.menu = []             # used by the default view layout'
p3614
sI189
S'        self.files = []            # used by web2py_ajax.html'
p3615
sI190
S'        self.generic_patterns = []  # patterns to allow generic views'
p3616
sI191
S"        self.delimiters = ('{{', '}}')"
p3617
ssg3582
S'(f=<function show_cliente>)'
p3618
sg3584
S'<lambda>'
p3619
sa(dp3620
g3561
S'/var/www/conferencia/applications/projeto/controllers/initial.py'
p3621
sg3563
(dp3622
S'ignore_rw'
p3623
g3606
sS'builtinTrue'
p3624
g1795
sS'maxtextlength'
p3625
g3606
ssg3569
I10
sg3570
(dp3626
I5
S'\tprint request.now'
p3627
sI6
S''
sI7
S'\tgrid = SQLFORM.grid(db.meetme, orderby=db.meetme.endtime,'
p3628
sI8
S'\t\tuser_signature=False, searchable=True, csv=False,'
p3629
sI9
S'\t\tpaginate=50, details=False,'
p3630
sI10
S'\t\tignore_rw = True, maxtextlength=36,'
p3631
sI11
S'    \t)'
p3632
sI12
S'\treturn response.render("initial/show_grid.html", grid=grid)'
p3633
sI13
S''
sI14
S'def show_servidor():'
p3634
ssg3582
S'()'
p3635
sg3584
S'show_cliente'
p3636
sa(dp3637
g3561
S'/var/www/conferencia/gluon/sqlhtml.py'
p3638
sg3563
(dp3639
S'builtinnext'
p3640
S'<built-in function next>'
p3641
sS'referrer'
p3642
S"'/show_cliente'"
p3643
ssg3569
I1920
sg3570
(dp3644
I1920
S'                next=referrer)'
p3645
sI1921
S'            res = DIV(buttons(view=details, record=record),'
p3646
sI1922
S'                      update_form, formfooter, _class=_class)'
p3647
sI1923
S'            res.create_form = create_form'
p3648
sI1924
S'            res.update_form = update_form'
p3649
sI1915
S'                **sqlformargs)'
p3650
sI1916
S'            update_form.process('
p3651
sI1917
S'                formname=formname,'
p3652
sI1918
S'                onvalidation=onvalidation,'
p3653
sI1919
S'                onsuccess=onupdate,'
p3654
ssg3582
S"(query=<Table meetme (confno,starttime,endtime,membros_user,admin_user,gravacao)>, fields=[<gluon.dal.Field object>, <gluon.dal.Field object>, <gluon.dal.Field object>, <gluon.dal.Field object>, <gluon.dal.Field object>, <gluon.dal.Field object>], field_id=<gluon.dal.Field object>, left=None, headers={}, orderby=<gluon.dal.Field object>, groupby=None, searchable=True, sortable=True, paginate=50, deletable=True, editable=True, details=False, selectable=None, create=True, csv=False, links=None, links_in_grid=True, upload=<function <lambda>>, args=[], user_signature=False, maxtextlengths={}, maxtextlength=36, onvalidation=None, oncreate=None, onupdate=None, ondelete=None, sorter_icons=(<gluon.html.XML object>, <gluon.html.XML object>), ui={'button': 'button btn', 'buttonadd': 'icon plus icon-plus', 'buttonback': 'icon leftarrow icon-arrow-left', 'buttondelete': 'icon trash icon-trash', 'buttonedit': 'icon pen icon-pencil', 'buttonexport': 'icon downarrow icon-download', 'buttontable': 'icon rightarrow icon-arrow-right', 'buttontext': 'buttontext button', 'buttonview': 'icon magnifier icon-zoom-in', 'content': '', ...}, showbuttontext=True, _class='web2py_grid', formname='web2py_grid', search_widget='default', ignore_rw=True, formstyle='table3cols', exportclasses=None, formargs={}, createargs={}, editargs={}, viewargs={}, buttons_placement='right', links_placement='right')"
p3655
sg3584
S'grid'
p3656
sa(dp3657
g3561
S'/var/www/conferencia/gluon/html.py'
p3658
sg3563
(dp3659
S'self'
p3660
S'<gluon.sqlhtml.SQLFORM object>'
p3661
sS'self.validate'
p3662
S'<bound method SQLFORM.validate of <gluon.sqlhtml.SQLFORM object>>'
p3663
sS'kwargs'
p3664
S"{'dbio': True, 'formname': 'web2py_grid', 'next': '/show_cliente', 'onsuccess': None, 'onvalidation': None}"
p3665
ssg3569
I2179
sg3570
(dp3666
I2176
S'        """'
p3667
sI2177
S"        kwargs['dbio'] = kwargs.get('dbio', True)"
p3668
sI2178
S'                                    # necessary for SQLHTML forms'
p3669
sI2179
S'        self.validate(**kwargs)'
p3670
sI2180
S'        return self'
p3671
sI2181
S''
sI2182
S'    REDIRECT_JS = "window.location=\'%s\';return false"'
p3672
sI2183
S''
sI2174
S'        def action():'
p3673
sI2175
S'            return dict(form=SQLFORM(db.table).process(onsuccess=my_callback)'
p3674
ssg3582
S"(self=<gluon.sqlhtml.SQLFORM object>, **kwargs={'dbio': True, 'formname': 'web2py_grid', 'next': '/show_cliente', 'onsuccess': None, 'onvalidation': None})"
p3675
sg3584
S'process'
p3676
sa(dp3677
g3561
S'/var/www/conferencia/gluon/html.py'
p3678
sg3563
(dp3679
S'self'
p3680
S'<gluon.sqlhtml.SQLFORM object>'
p3681
sS'self.accepts'
p3682
S'<bound method SQLFORM.accepts of <gluon.sqlhtml.SQLFORM object>>'
p3683
sS'kwargs'
p3684
S"{'dbio': True, 'formname': 'web2py_grid', 'onvalidation': None, 'request_vars': <Storage {'admin_user': '2', 'starttime': '2013-...013-04-11 12:26:40', '_formname': 'web2py_grid'}>, 'session': <Storage {'_formkey[web2py_grid]': 'e67d696c-bab... {'version': '22.0.1229.94', 'name': 'Chrome'}}}>}"
p3685
ssg3569
I2118
sg3570
(dp3686
I2113
S"        for key in ('message_onsuccess', 'message_onfailure', 'onsuccess',"
p3687
sI2114
S"                    'onfailure', 'next', 'message_onchange', 'onchange'):"
p3688
sI2115
S'            if key in kwargs:'
p3689
sI2116
S'                del kwargs[key]'
p3690
sI2117
S''
sI2118
S'        if self.accepts(**kwargs):'
p3691
sI2119
S"            if onsuccess == 'flash':"
p3692
sI2120
S'                if next:'
p3693
sI2121
S'                    current.session.flash = message_onsuccess'
p3694
sI2122
S'                else:'
p3695
ssg3582
S"(self=<gluon.sqlhtml.SQLFORM object>, **kwargs={'dbio': True, 'formname': 'web2py_grid', 'onvalidation': None, 'request_vars': <Storage {'admin_user': '2', 'starttime': '2013-...013-04-11 12:26:40', '_formname': 'web2py_grid'}>, 'session': <Storage {'_formkey[web2py_grid]': 'e67d696c-bab... {'version': '22.0.1229.94', 'name': 'Chrome'}}}>})"
p3696
sg3584
S'validate'
p3697
sa(dp3698
g3561
S'/var/www/conferencia/gluon/sqlhtml.py'
p3699
sg3563
(dp3700
S'record_id'
p3701
S"{'confno': None}"
p3702
sS'self'
p3703
S'<gluon.sqlhtml.SQLFORM object>'
p3704
sS'self.record_id'
p3705
S"'1013'"
p3706
ssg3569
I1343
sg3570
(dp3707
I1344
S''
sI1345
S'        if record_id and dbio and not keyed:'
p3708
sI1346
S'            self.vars.id = self.record[self.id_field_name]'
p3709
sI1347
S''
sI1338
S'            self.accepted = ret'
p3710
sI1339
S'            return ret'
p3711
sI1340
S''
sI1341
S'        if record_id and str(record_id) != str(self.record_id):'
p3712
sI1342
S"            raise SyntaxError('user is tampering with form\\'s record_id: '"
p3713
sI1343
S"                              '%s != %s' % (record_id, self.record_id))"
p3714
ssg3582
S"(self=<gluon.sqlhtml.SQLFORM object>, request_vars=<Storage {'admin_user': '2', 'starttime': '2013-...013-04-11 12:26:40', '_formname': 'web2py_grid'}>, session=<Storage {'_formkey[web2py_grid]': 'e67d696c-bab... {'version': '22.0.1229.94', 'name': 'Chrome'}}}>, formname='web2py_grid', keepvalues=True, onvalidation=None, dbio=True, hideerror=False, detect_record_change=False, **kwargs={})"
p3715
sg3584
S'accepts'
p3716
sasS'pyver'
p3717
S'Python 2.7.3: /usr/bin/python'
p3718
sS'session'
p3719
g69
(g70
g71
NtRp3720
(dp3721
g74
(dp3722
sg76
(lp3723
g69
(g78
g71
NtRp3724
(dp3725
g74
(dp3726
g82
I5
ssg83
Nsg76
(lp3727
sbasbsS'etype'
p3728
S"<type 'exceptions.SyntaxError'>"
p3729
sS'date'
p3730
S'Wed Apr  3 14:14:57 2013'
p3731
sS'response'
p3732
g69
(g70
g71
NtRp3733
(dp3734
g74
(dp3735
sg76
(lp3736
g69
(g78
g71
NtRp3737
(dp3738
g74
(dp3739
g82
I5
ssg83
Nsg76
(lp3740
g69
(g85
g71
NtRp3741
(dp3742
g74
(dp3743
sg83
g3737
sg76
(lp3744
g69
(g90
g71
NtRp3745
(dp3746
g74
(dp3747
g94
g95
ssg83
g3741
sg76
(lp3748
g206
asbag69
(g90
g71
NtRp3749
(dp3750
g74
(dp3751
g101
g102
ssg83
g3741
sg76
(lp3752
S':'
asbag69
(g90
g71
NtRp3753
(dp3754
g74
(dp3755
sg83
g3741
sg76
(lp3756
g69
(g70
g71
NtRp3757
(dp3758
g74
(dp3759
g82
I5
ssg83
g3753
sg76
(lp3760
S'<cStringIO.StringO object at 0x7f634c269f48>'
p3761
asbasbasbag69
(g85
g71
NtRp3762
(dp3763
g74
(dp3764
sg83
g3737
sg76
(lp3765
g69
(g90
g71
NtRp3766
(dp3767
g74
(dp3768
g94
g95
ssg83
g3762
sg76
(lp3769
g294
asbag69
(g90
g71
NtRp3770
(dp3771
g74
(dp3772
g101
g102
ssg83
g3762
sg76
(lp3773
S':'
asbag69
(g90
g71
NtRp3774
(dp3775
g74
(dp3776
sg83
g3762
sg76
(lp3777
g69
(g70
g71
NtRp3778
(dp3779
g74
(dp3780
g82
I5
ssg83
g3774
sg76
(lp3781
g69
(g78
g71
NtRp3782
(dp3783
g74
(dp3784
g82
I4
ssg83
Nsg76
(lp3785
g69
(g85
g71
NtRp3786
(dp3787
g74
(dp3788
sg83
g3782
sg76
(lp3789
g69
(g90
g71
NtRp3790
(dp3791
g74
(dp3792
g94
g95
ssg83
g3786
sg76
(lp3793
S'session_id_projeto'
p3794
asbag69
(g90
g71
NtRp3795
(dp3796
g74
(dp3797
g101
g102
ssg83
g3786
sg76
(lp3798
S':'
asbag69
(g90
g71
NtRp3799
(dp3800
g74
(dp3801
sg83
g3786
sg76
(lp3802
g69
(g70
g71
NtRp3803
(dp3804
g74
(dp3805
g82
I4
ssg83
g3799
sg76
(lp3806
g526
ag69
(g78
g71
NtRp3807
(dp3808
g74
(dp3809
g82
I3
ssg83
Nsg76
(lp3810
g69
(g85
g71
NtRp3811
(dp3812
g74
(dp3813
sg83
g3807
sg76
(lp3814
g69
(g90
g71
NtRp3815
(dp3816
g74
(dp3817
g94
g95
ssg83
g3811
sg76
(lp3818
g345
asbag69
(g90
g71
NtRp3819
(dp3820
g74
(dp3821
g101
g102
ssg83
g3811
sg76
(lp3822
S':'
asbag69
(g90
g71
NtRp3823
(dp3824
g74
(dp3825
sg83
g3811
sg76
(lp3826
g69
(g70
g71
NtRp3827
(dp3828
g74
(dp3829
g82
I3
ssg83
g3823
sg76
(lp3830
S''
asbasbasbag69
(g85
g71
NtRp3831
(dp3832
g74
(dp3833
sg83
g3807
sg76
(lp3834
g69
(g90
g71
NtRp3835
(dp3836
g74
(dp3837
g94
g95
ssg83
g3831
sg76
(lp3838
g366
asbag69
(g90
g71
NtRp3839
(dp3840
g74
(dp3841
g101
g102
ssg83
g3831
sg76
(lp3842
S':'
asbag69
(g90
g71
NtRp3843
(dp3844
g74
(dp3845
sg83
g3831
sg76
(lp3846
g69
(g70
g71
NtRp3847
(dp3848
g74
(dp3849
g82
I3
ssg83
g3843
sg76
(lp3850
S''
asbasbasbag69
(g85
g71
NtRp3851
(dp3852
g74
(dp3853
sg83
g3807
sg76
(lp3854
g69
(g90
g71
NtRp3855
(dp3856
g74
(dp3857
g94
g95
ssg83
g3851
sg76
(lp3858
g387
asbag69
(g90
g71
NtRp3859
(dp3860
g74
(dp3861
g101
g102
ssg83
g3851
sg76
(lp3862
S':'
asbag69
(g90
g71
NtRp3863
(dp3864
g74
(dp3865
sg83
g3851
sg76
(lp3866
g69
(g70
g71
NtRp3867
(dp3868
g74
(dp3869
g82
I3
ssg83
g3863
sg76
(lp3870
S''
asbasbasbag69
(g85
g71
NtRp3871
(dp3872
g74
(dp3873
sg83
g3807
sg76
(lp3874
g69
(g90
g71
NtRp3875
(dp3876
g74
(dp3877
g94
g95
ssg83
g3871
sg76
(lp3878
g408
asbag69
(g90
g71
NtRp3879
(dp3880
g74
(dp3881
g101
g102
ssg83
g3871
sg76
(lp3882
S':'
asbag69
(g90
g71
NtRp3883
(dp3884
g74
(dp3885
sg83
g3871
sg76
(lp3886
g69
(g70
g71
NtRp3887
(dp3888
g74
(dp3889
g82
I3
ssg83
g3883
sg76
(lp3890
S''
asbasbasbag69
(g85
g71
NtRp3891
(dp3892
g74
(dp3893
sg83
g3807
sg76
(lp3894
g69
(g90
g71
NtRp3895
(dp3896
g74
(dp3897
g94
g95
ssg83
g3891
sg76
(lp3898
g429
asbag69
(g90
g71
NtRp3899
(dp3900
g74
(dp3901
g101
g102
ssg83
g3891
sg76
(lp3902
S':'
asbag69
(g90
g71
NtRp3903
(dp3904
g74
(dp3905
sg83
g3891
sg76
(lp3906
g69
(g70
g71
NtRp3907
(dp3908
g74
(dp3909
g82
I3
ssg83
g3903
sg76
(lp3910
S''
asbasbasbag69
(g85
g71
NtRp3911
(dp3912
g74
(dp3913
sg83
g3807
sg76
(lp3914
g69
(g90
g71
NtRp3915
(dp3916
g74
(dp3917
g94
g95
ssg83
g3911
sg76
(lp3918
g450
asbag69
(g90
g71
NtRp3919
(dp3920
g74
(dp3921
g101
g102
ssg83
g3911
sg76
(lp3922
S':'
asbag69
(g90
g71
NtRp3923
(dp3924
g74
(dp3925
sg83
g3911
sg76
(lp3926
g69
(g70
g71
NtRp3927
(dp3928
g74
(dp3929
g82
I3
ssg83
g3923
sg76
(lp3930
S'/'
asbasbasbag69
(g85
g71
NtRp3931
(dp3932
g74
(dp3933
sg83
g3807
sg76
(lp3934
g69
(g90
g71
NtRp3935
(dp3936
g74
(dp3937
g94
g95
ssg83
g3931
sg76
(lp3938
g471
asbag69
(g90
g71
NtRp3939
(dp3940
g74
(dp3941
g101
g102
ssg83
g3931
sg76
(lp3942
S':'
asbag69
(g90
g71
NtRp3943
(dp3944
g74
(dp3945
sg83
g3931
sg76
(lp3946
g69
(g70
g71
NtRp3947
(dp3948
g74
(dp3949
g82
I3
ssg83
g3943
sg76
(lp3950
S''
asbasbasbag69
(g85
g71
NtRp3951
(dp3952
g74
(dp3953
sg83
g3807
sg76
(lp3954
g69
(g90
g71
NtRp3955
(dp3956
g74
(dp3957
g94
g95
ssg83
g3951
sg76
(lp3958
g492
asbag69
(g90
g71
NtRp3959
(dp3960
g74
(dp3961
g101
g102
ssg83
g3951
sg76
(lp3962
S':'
asbag69
(g90
g71
NtRp3963
(dp3964
g74
(dp3965
sg83
g3951
sg76
(lp3966
g69
(g70
g71
NtRp3967
(dp3968
g74
(dp3969
g82
I3
ssg83
g3963
sg76
(lp3970
S''
asbasbasbasbasbasbasbasbasbasbasbag69
(g85
g71
NtRp3971
(dp3972
g74
(dp3973
sg83
g3737
sg76
(lp3974
g69
(g90
g71
NtRp3975
(dp3976
g74
(dp3977
g94
g95
ssg83
g3971
sg76
(lp3978
S'delimiters'
p3979
asbag69
(g90
g71
NtRp3980
(dp3981
g74
(dp3982
g101
g102
ssg83
g3971
sg76
(lp3983
S':'
asbag69
(g90
g71
NtRp3984
(dp3985
g74
(dp3986
sg83
g3971
sg76
(lp3987
g69
(g70
g71
NtRp3988
(dp3989
g74
(dp3990
g82
I5
ssg83
g3984
sg76
(lp3991
g69
(g78
g71
NtRp3992
(dp3993
g74
(dp3994
g82
I4
ssg83
Nsg76
(lp3995
g69
(g85
g71
NtRp3996
(dp3997
g74
(dp3998
sg83
g3992
sg76
(lp3999
g69
(g90
g71
NtRp4000
(dp4001
g74
(dp4002
sg83
g3996
sg76
(lp4003
g69
(g70
g71
NtRp4004
(dp4005
g74
(dp4006
g82
I4
ssg83
g4000
sg76
(lp4007
S'{{'
p4008
asbasbasbag69
(g85
g71
NtRp4009
(dp4010
g74
(dp4011
sg83
g3992
sg76
(lp4012
g69
(g90
g71
NtRp4013
(dp4014
g74
(dp4015
sg83
g4009
sg76
(lp4016
g69
(g70
g71
NtRp4017
(dp4018
g74
(dp4019
g82
I4
ssg83
g4013
sg76
(lp4020
S'}}'
p4021
asbasbasbasbasbasbasbag69
(g85
g71
NtRp4022
(dp4023
g74
(dp4024
sg83
g3737
sg76
(lp4025
g69
(g90
g71
NtRp4026
(dp4027
g74
(dp4028
g94
g95
ssg83
g4022
sg76
(lp4029
S'files'
p4030
asbag69
(g90
g71
NtRp4031
(dp4032
g74
(dp4033
g101
g102
ssg83
g4022
sg76
(lp4034
S':'
asbag69
(g90
g71
NtRp4035
(dp4036
g74
(dp4037
sg83
g4022
sg76
(lp4038
g69
(g70
g71
NtRp4039
(dp4040
g74
(dp4041
g82
I5
ssg83
g4035
sg76
(lp4042
g69
(g78
g71
NtRp4043
(dp4044
g74
(dp4045
g82
I4
ssg83
Nsg76
(lp4046
sbasbasbasbag69
(g85
g71
NtRp4047
(dp4048
g74
(dp4049
sg83
g3737
sg76
(lp4050
g69
(g90
g71
NtRp4051
(dp4052
g74
(dp4053
g94
g95
ssg83
g4047
sg76
(lp4054
S'flash'
p4055
asbag69
(g90
g71
NtRp4056
(dp4057
g74
(dp4058
g101
g102
ssg83
g4047
sg76
(lp4059
S':'
asbag69
(g90
g71
NtRp4060
(dp4061
g74
(dp4062
sg83
g4047
sg76
(lp4063
g69
(g70
g71
NtRp4064
(dp4065
g74
(dp4066
g82
I5
ssg83
g4060
sg76
(lp4067
S''
asbasbasbag69
(g85
g71
NtRp4068
(dp4069
g74
(dp4070
sg83
g3737
sg76
(lp4071
g69
(g90
g71
NtRp4072
(dp4073
g74
(dp4074
g94
g95
ssg83
g4068
sg76
(lp4075
S'generic_patterns'
p4076
asbag69
(g90
g71
NtRp4077
(dp4078
g74
(dp4079
g101
g102
ssg83
g4068
sg76
(lp4080
S':'
asbag69
(g90
g71
NtRp4081
(dp4082
g74
(dp4083
sg83
g4068
sg76
(lp4084
g69
(g70
g71
NtRp4085
(dp4086
g74
(dp4087
g82
I5
ssg83
g4081
sg76
(lp4088
g69
(g78
g71
NtRp4089
(dp4090
g74
(dp4091
g82
I4
ssg83
Nsg76
(lp4092
g69
(g85
g71
NtRp4093
(dp4094
g74
(dp4095
sg83
g4089
sg76
(lp4096
g69
(g90
g71
NtRp4097
(dp4098
g74
(dp4099
sg83
g4093
sg76
(lp4100
g69
(g70
g71
NtRp4101
(dp4102
g74
(dp4103
g82
I4
ssg83
g4097
sg76
(lp4104
S'*'
asbasbasbasbasbasbasbag69
(g85
g71
NtRp4105
(dp4106
g74
(dp4107
sg83
g3737
sg76
(lp4108
g69
(g90
g71
NtRp4109
(dp4110
g74
(dp4111
g94
g95
ssg83
g4105
sg76
(lp4112
S'google_analytics_id'
p4113
asbag69
(g90
g71
NtRp4114
(dp4115
g74
(dp4116
g101
g102
ssg83
g4105
sg76
(lp4117
S':'
asbag69
(g90
g71
NtRp4118
(dp4119
g74
(dp4120
sg83
g4105
sg76
(lp4121
g69
(g70
g71
NtRp4122
(dp4123
g74
(dp4124
g82
I5
ssg83
g4118
sg76
(lp4125
S'None'
p4126
asbasbasbag69
(g85
g71
NtRp4127
(dp4128
g74
(dp4129
sg83
g3737
sg76
(lp4130
g69
(g90
g71
NtRp4131
(dp4132
g74
(dp4133
g94
g95
ssg83
g4127
sg76
(lp4134
S'headers'
p4135
asbag69
(g90
g71
NtRp4136
(dp4137
g74
(dp4138
g101
g102
ssg83
g4127
sg76
(lp4139
S':'
asbag69
(g90
g71
NtRp4140
(dp4141
g74
(dp4142
sg83
g4127
sg76
(lp4143
g69
(g70
g71
NtRp4144
(dp4145
g74
(dp4146
g82
I5
ssg83
g4140
sg76
(lp4147
g69
(g78
g71
NtRp4148
(dp4149
g74
(dp4150
g82
I4
ssg83
Nsg76
(lp4151
g69
(g85
g71
NtRp4152
(dp4153
g74
(dp4154
sg83
g4148
sg76
(lp4155
g69
(g90
g71
NtRp4156
(dp4157
g74
(dp4158
g94
g95
ssg83
g4152
sg76
(lp4159
S'X-Powered-By'
p4160
asbag69
(g90
g71
NtRp4161
(dp4162
g74
(dp4163
g101
g102
ssg83
g4152
sg76
(lp4164
S':'
asbag69
(g90
g71
NtRp4165
(dp4166
g74
(dp4167
sg83
g4152
sg76
(lp4168
g69
(g70
g71
NtRp4169
(dp4170
g74
(dp4171
g82
I4
ssg83
g4165
sg76
(lp4172
S'web2py'
p4173
asbasbasbasbasbasbasbag69
(g85
g71
NtRp4174
(dp4175
g74
(dp4176
sg83
g3737
sg76
(lp4177
g69
(g90
g71
NtRp4178
(dp4179
g74
(dp4180
g94
g95
ssg83
g4174
sg76
(lp4181
S'logo'
p4182
asbag69
(g90
g71
NtRp4183
(dp4184
g74
(dp4185
g101
g102
ssg83
g4174
sg76
(lp4186
S':'
asbag69
(g90
g71
NtRp4187
(dp4188
g74
(dp4189
sg83
g4174
sg76
(lp4190
g69
(g70
g71
NtRp4191
(dp4192
g74
(dp4193
g82
I5
ssg83
g4187
sg76
(lp4194
g69
(cgluon.html
A
p4195
g71
NtRp4196
(dp4197
g74
(dp4198
S'_class'
p4199
S'brand'
p4200
sS'_href'
p4201
S'principal'
p4202
ssg83
Nsg76
(lp4203
g69
(cgluon.html
B
p4204
g71
NtRp4205
(dp4206
g74
(dp4207
sg83
g4196
sg76
(lp4208
S'hosts'
p4209
ag69
(cgluon.html
SPAN
p4210
g71
NtRp4211
(dp4212
g74
(dp4213
sg83
g4205
sg76
(lp4214
S'3'
asbaS''
asbacgluon.html
XML_unpickle
p4215
(S's\r\x00\x00\x00&trade;&nbsp;'
tRp4216
asbasbasbasbag69
(g85
g71
NtRp4217
(dp4218
g74
(dp4219
sg83
g3737
sg76
(lp4220
g69
(g90
g71
NtRp4221
(dp4222
g74
(dp4223
g94
g95
ssg83
g4217
sg76
(lp4224
S'menu'
p4225
asbag69
(g90
g71
NtRp4226
(dp4227
g74
(dp4228
g101
g102
ssg83
g4217
sg76
(lp4229
S':'
asbag69
(g90
g71
NtRp4230
(dp4231
g74
(dp4232
sg83
g4217
sg76
(lp4233
g69
(g70
g71
NtRp4234
(dp4235
g74
(dp4236
g82
I5
ssg83
g4230
sg76
(lp4237
g69
(g78
g71
NtRp4238
(dp4239
g74
(dp4240
g82
I4
ssg83
Nsg76
(lp4241
g69
(g85
g71
NtRp4242
(dp4243
g74
(dp4244
sg83
g4238
sg76
(lp4245
g69
(g90
g71
NtRp4246
(dp4247
g74
(dp4248
sg83
g4242
sg76
(lp4249
g69
(g70
g71
NtRp4250
(dp4251
g74
(dp4252
g82
I4
ssg83
g4246
sg76
(lp4253
g69
(g78
g71
NtRp4254
(dp4255
g74
(dp4256
g82
I3
ssg83
Nsg76
(lp4257
g69
(g85
g71
NtRp4258
(dp4259
g74
(dp4260
sg83
g4254
sg76
(lp4261
g69
(g90
g71
NtRp4262
(dp4263
g74
(dp4264
sg83
g4258
sg76
(lp4265
g69
(g70
g71
NtRp4266
(dp4267
g74
(dp4268
g82
I3
ssg83
g4262
sg76
(lp4269
cgluon.languages
lazyT_unpickle
p4270
(S't\x08\x00\x00\x00Clientes'
tRp4271
asbasbasbag69
(g85
g71
NtRp4272
(dp4273
g74
(dp4274
sg83
g4254
sg76
(lp4275
g69
(g90
g71
NtRp4276
(dp4277
g74
(dp4278
sg83
g4272
sg76
(lp4279
g69
(g70
g71
NtRp4280
(dp4281
g74
(dp4282
g82
I3
ssg83
g4276
sg76
(lp4283
g112
asbasbasbag69
(g85
g71
NtRp4284
(dp4285
g74
(dp4286
sg83
g4254
sg76
(lp4287
g69
(g90
g71
NtRp4288
(dp4289
g74
(dp4290
sg83
g4284
sg76
(lp4291
g69
(g70
g71
NtRp4292
(dp4293
g74
(dp4294
g82
I3
ssg83
g4288
sg76
(lp4295
S'/show_cliente'
p4296
asbasbasbag69
(g85
g71
NtRp4297
(dp4298
g74
(dp4299
sg83
g4254
sg76
(lp4300
g69
(g90
g71
NtRp4301
(dp4302
g74
(dp4303
sg83
g4297
sg76
(lp4304
g69
(g70
g71
NtRp4305
(dp4306
g74
(dp4307
g82
I3
ssg83
g4301
sg76
(lp4308
g69
(g78
g71
NtRp4309
(dp4310
g74
(dp4311
g82
I2
ssg83
Nsg76
(lp4312
sbasbasbasbasbasbasbasbag69
(g85
g71
NtRp4313
(dp4314
g74
(dp4315
sg83
g4238
sg76
(lp4316
g69
(g90
g71
NtRp4317
(dp4318
g74
(dp4319
sg83
g4313
sg76
(lp4320
g69
(g70
g71
NtRp4321
(dp4322
g74
(dp4323
g82
I4
ssg83
g4317
sg76
(lp4324
g69
(g78
g71
NtRp4325
(dp4326
g74
(dp4327
g82
I3
ssg83
Nsg76
(lp4328
g69
(g85
g71
NtRp4329
(dp4330
g74
(dp4331
sg83
g4325
sg76
(lp4332
g69
(g90
g71
NtRp4333
(dp4334
g74
(dp4335
sg83
g4329
sg76
(lp4336
g69
(g70
g71
NtRp4337
(dp4338
g74
(dp4339
g82
I3
ssg83
g4333
sg76
(lp4340
g4270
(S't\n\x00\x00\x00Servidores'
tRp4341
asbasbasbag69
(g85
g71
NtRp4342
(dp4343
g74
(dp4344
sg83
g4325
sg76
(lp4345
g69
(g90
g71
NtRp4346
(dp4347
g74
(dp4348
sg83
g4342
sg76
(lp4349
g69
(g70
g71
NtRp4350
(dp4351
g74
(dp4352
g82
I3
ssg83
g4346
sg76
(lp4353
g112
asbasbasbag69
(g85
g71
NtRp4354
(dp4355
g74
(dp4356
sg83
g4325
sg76
(lp4357
g69
(g90
g71
NtRp4358
(dp4359
g74
(dp4360
sg83
g4354
sg76
(lp4361
g69
(g70
g71
NtRp4362
(dp4363
g74
(dp4364
g82
I3
ssg83
g4358
sg76
(lp4365
S'/show_servidor'
p4366
asbasbasbag69
(g85
g71
NtRp4367
(dp4368
g74
(dp4369
sg83
g4325
sg76
(lp4370
g69
(g90
g71
NtRp4371
(dp4372
g74
(dp4373
sg83
g4367
sg76
(lp4374
g69
(g70
g71
NtRp4375
(dp4376
g74
(dp4377
g82
I3
ssg83
g4371
sg76
(lp4378
g69
(g78
g71
NtRp4379
(dp4380
g74
(dp4381
g82
I2
ssg83
Nsg76
(lp4382
sbasbasbasbasbasbasbasbag69
(g85
g71
NtRp4383
(dp4384
g74
(dp4385
sg83
g4238
sg76
(lp4386
g69
(g90
g71
NtRp4387
(dp4388
g74
(dp4389
sg83
g4383
sg76
(lp4390
g69
(g70
g71
NtRp4391
(dp4392
g74
(dp4393
g82
I4
ssg83
g4387
sg76
(lp4394
g69
(g78
g71
NtRp4395
(dp4396
g74
(dp4397
g82
I3
ssg83
Nsg76
(lp4398
g69
(g85
g71
NtRp4399
(dp4400
g74
(dp4401
sg83
g4395
sg76
(lp4402
g69
(g90
g71
NtRp4403
(dp4404
g74
(dp4405
sg83
g4399
sg76
(lp4406
g69
(g70
g71
NtRp4407
(dp4408
g74
(dp4409
g82
I3
ssg83
g4403
sg76
(lp4410
g4270
(S't\x07\x00\x00\x00Distros'
tRp4411
asbasbasbag69
(g85
g71
NtRp4412
(dp4413
g74
(dp4414
sg83
g4395
sg76
(lp4415
g69
(g90
g71
NtRp4416
(dp4417
g74
(dp4418
sg83
g4412
sg76
(lp4419
g69
(g70
g71
NtRp4420
(dp4421
g74
(dp4422
g82
I3
ssg83
g4416
sg76
(lp4423
g112
asbasbasbag69
(g85
g71
NtRp4424
(dp4425
g74
(dp4426
sg83
g4395
sg76
(lp4427
g69
(g90
g71
NtRp4428
(dp4429
g74
(dp4430
sg83
g4424
sg76
(lp4431
g69
(g70
g71
NtRp4432
(dp4433
g74
(dp4434
g82
I3
ssg83
g4428
sg76
(lp4435
S'/show_distro'
p4436
asbasbasbag69
(g85
g71
NtRp4437
(dp4438
g74
(dp4439
sg83
g4395
sg76
(lp4440
g69
(g90
g71
NtRp4441
(dp4442
g74
(dp4443
sg83
g4437
sg76
(lp4444
g69
(g70
g71
NtRp4445
(dp4446
g74
(dp4447
g82
I3
ssg83
g4441
sg76
(lp4448
g69
(g78
g71
NtRp4449
(dp4450
g74
(dp4451
g82
I2
ssg83
Nsg76
(lp4452
sbasbasbasbasbasbasbasbag69
(g85
g71
NtRp4453
(dp4454
g74
(dp4455
sg83
g4238
sg76
(lp4456
g69
(g90
g71
NtRp4457
(dp4458
g74
(dp4459
sg83
g4453
sg76
(lp4460
g69
(g70
g71
NtRp4461
(dp4462
g74
(dp4463
g82
I4
ssg83
g4457
sg76
(lp4464
g69
(g78
g71
NtRp4465
(dp4466
g74
(dp4467
g82
I3
ssg83
Nsg76
(lp4468
g69
(g85
g71
NtRp4469
(dp4470
g74
(dp4471
sg83
g4465
sg76
(lp4472
g69
(g90
g71
NtRp4473
(dp4474
g74
(dp4475
sg83
g4469
sg76
(lp4476
g69
(g70
g71
NtRp4477
(dp4478
g74
(dp4479
g82
I3
ssg83
g4473
sg76
(lp4480
g4270
(S's\x05\x00\x00\x00+host'
tRp4481
asbasbasbag69
(g85
g71
NtRp4482
(dp4483
g74
(dp4484
sg83
g4465
sg76
(lp4485
g69
(g90
g71
NtRp4486
(dp4487
g74
(dp4488
sg83
g4482
sg76
(lp4489
g69
(g70
g71
NtRp4490
(dp4491
g74
(dp4492
g82
I3
ssg83
g4486
sg76
(lp4493
g112
asbasbasbag69
(g85
g71
NtRp4494
(dp4495
g74
(dp4496
sg83
g4465
sg76
(lp4497
g69
(g90
g71
NtRp4498
(dp4499
g74
(dp4500
sg83
g4494
sg76
(lp4501
g69
(g70
g71
NtRp4502
(dp4503
g74
(dp4504
g82
I3
ssg83
g4498
sg76
(lp4505
S'/interface'
p4506
asbasbasbag69
(g85
g71
NtRp4507
(dp4508
g74
(dp4509
sg83
g4465
sg76
(lp4510
g69
(g90
g71
NtRp4511
(dp4512
g74
(dp4513
sg83
g4507
sg76
(lp4514
g69
(g70
g71
NtRp4515
(dp4516
g74
(dp4517
g82
I3
ssg83
g4511
sg76
(lp4518
g69
(g78
g71
NtRp4519
(dp4520
g74
(dp4521
g82
I2
ssg83
Nsg76
(lp4522
sbasbasbasbasbasbasbasbasbasbasbasbag69
(g85
g71
NtRp4523
(dp4524
g74
(dp4525
sg83
g3737
sg76
(lp4526
g69
(g90
g71
NtRp4527
(dp4528
g74
(dp4529
g94
g95
ssg83
g4523
sg76
(lp4530
S'menu2'
p4531
asbag69
(g90
g71
NtRp4532
(dp4533
g74
(dp4534
g101
g102
ssg83
g4523
sg76
(lp4535
S':'
asbag69
(g90
g71
NtRp4536
(dp4537
g74
(dp4538
sg83
g4523
sg76
(lp4539
g69
(g70
g71
NtRp4540
(dp4541
g74
(dp4542
g82
I5
ssg83
g4536
sg76
(lp4543
g69
(g78
g71
NtRp4544
(dp4545
g74
(dp4546
g82
I4
ssg83
Nsg76
(lp4547
g69
(g85
g71
NtRp4548
(dp4549
g74
(dp4550
sg83
g4544
sg76
(lp4551
g69
(g90
g71
NtRp4552
(dp4553
g74
(dp4554
sg83
g4548
sg76
(lp4555
g69
(g70
g71
NtRp4556
(dp4557
g74
(dp4558
g82
I4
ssg83
g4552
sg76
(lp4559
g69
(g78
g71
NtRp4560
(dp4561
g74
(dp4562
g82
I3
ssg83
Nsg76
(lp4563
g69
(g85
g71
NtRp4564
(dp4565
g74
(dp4566
sg83
g4560
sg76
(lp4567
g69
(g90
g71
NtRp4568
(dp4569
g74
(dp4570
sg83
g4564
sg76
(lp4571
g69
(g70
g71
NtRp4572
(dp4573
g74
(dp4574
g82
I3
ssg83
g4568
sg76
(lp4575
g69
(g4210
g71
NtRp4576
(dp4577
g74
(dp4578
g4199
S'dropdown-toggle'
p4579
ssg83
Nsg76
(lp4580
S'Admin'
p4581
asbasbasbasbag69
(g85
g71
NtRp4582
(dp4583
g74
(dp4584
sg83
g4560
sg76
(lp4585
g69
(g90
g71
NtRp4586
(dp4587
g74
(dp4588
sg83
g4582
sg76
(lp4589
g69
(g70
g71
NtRp4590
(dp4591
g74
(dp4592
g82
I3
ssg83
g4586
sg76
(lp4593
g112
asbasbasbag69
(g85
g71
NtRp4594
(dp4595
g74
(dp4596
sg83
g4560
sg76
(lp4597
g69
(g90
g71
NtRp4598
(dp4599
g74
(dp4600
sg83
g4594
sg76
(lp4601
g69
(g70
g71
NtRp4602
(dp4603
g74
(dp4604
g82
I3
ssg83
g4598
sg76
(lp4605
S'#'
asbasbasbag69
(g85
g71
NtRp4606
(dp4607
g74
(dp4608
sg83
g4560
sg76
(lp4609
g69
(g90
g71
NtRp4610
(dp4611
g74
(dp4612
sg83
g4606
sg76
(lp4613
g69
(g70
g71
NtRp4614
(dp4615
g74
(dp4616
g82
I3
ssg83
g4610
sg76
(lp4617
g69
(g78
g71
NtRp4618
(dp4619
g74
(dp4620
g82
I2
ssg83
Nsg76
(lp4621
g69
(g85
g71
NtRp4622
(dp4623
g74
(dp4624
sg83
g4618
sg76
(lp4625
g69
(g90
g71
NtRp4626
(dp4627
g74
(dp4628
sg83
g4622
sg76
(lp4629
g69
(g70
g71
NtRp4630
(dp4631
g74
(dp4632
g82
I2
ssg83
g4626
sg76
(lp4633
g69
(g78
g71
NtRp4634
(dp4635
g74
(dp4636
g82
I1
ssg83
Nsg76
(lp4637
g69
(g85
g71
NtRp4638
(dp4639
g74
(dp4640
sg83
g4634
sg76
(lp4641
g69
(g90
g71
NtRp4642
(dp4643
g74
(dp4644
sg83
g4638
sg76
(lp4645
g69
(g70
g71
NtRp4646
(dp4647
g74
(dp4648
g82
I1
ssg83
g4642
sg76
(lp4649
g4270
(S's\t\x00\x00\x00Usu\xc3\xa1rios'
tRp4650
asbasbasbag69
(g85
g71
NtRp4651
(dp4652
g74
(dp4653
sg83
g4634
sg76
(lp4654
g69
(g90
g71
NtRp4655
(dp4656
g74
(dp4657
sg83
g4651
sg76
(lp4658
g69
(g70
g71
NtRp4659
(dp4660
g74
(dp4661
g82
I1
ssg83
g4655
sg76
(lp4662
I00
asbasbasbag69
(g85
g71
NtRp4663
(dp4664
g74
(dp4665
sg83
g4634
sg76
(lp4666
g69
(g90
g71
NtRp4667
(dp4668
g74
(dp4669
sg83
g4663
sg76
(lp4670
g69
(g70
g71
NtRp4671
(dp4672
g74
(dp4673
g82
I1
ssg83
g4667
sg76
(lp4674
S'/manager/users'
p4675
asbasbasbasbasbasbasbag69
(g85
g71
NtRp4676
(dp4677
g74
(dp4678
sg83
g4618
sg76
(lp4679
g69
(g90
g71
NtRp4680
(dp4681
g74
(dp4682
sg83
g4676
sg76
(lp4683
g69
(g70
g71
NtRp4684
(dp4685
g74
(dp4686
g82
I2
ssg83
g4680
sg76
(lp4687
g69
(g78
g71
NtRp4688
(dp4689
g74
(dp4690
g82
I1
ssg83
Nsg76
(lp4691
g69
(g85
g71
NtRp4692
(dp4693
g74
(dp4694
sg83
g4688
sg76
(lp4695
g69
(g90
g71
NtRp4696
(dp4697
g74
(dp4698
sg83
g4692
sg76
(lp4699
g69
(g70
g71
NtRp4700
(dp4701
g74
(dp4702
g82
I1
ssg83
g4696
sg76
(lp4703
g4270
(S't\x06\x00\x00\x00Grupos'
tRp4704
asbasbasbag69
(g85
g71
NtRp4705
(dp4706
g74
(dp4707
sg83
g4688
sg76
(lp4708
g69
(g90
g71
NtRp4709
(dp4710
g74
(dp4711
sg83
g4705
sg76
(lp4712
g69
(g70
g71
NtRp4713
(dp4714
g74
(dp4715
g82
I1
ssg83
g4709
sg76
(lp4716
I00
asbasbasbag69
(g85
g71
NtRp4717
(dp4718
g74
(dp4719
sg83
g4688
sg76
(lp4720
g69
(g90
g71
NtRp4721
(dp4722
g74
(dp4723
sg83
g4717
sg76
(lp4724
g69
(g70
g71
NtRp4725
(dp4726
g74
(dp4727
g82
I1
ssg83
g4721
sg76
(lp4728
S'/manager/groups'
p4729
asbasbasbasbasbasbasbag69
(g85
g71
NtRp4730
(dp4731
g74
(dp4732
sg83
g4618
sg76
(lp4733
g69
(g90
g71
NtRp4734
(dp4735
g74
(dp4736
sg83
g4730
sg76
(lp4737
g69
(g70
g71
NtRp4738
(dp4739
g74
(dp4740
g82
I2
ssg83
g4734
sg76
(lp4741
g69
(g78
g71
NtRp4742
(dp4743
g74
(dp4744
g82
I1
ssg83
Nsg76
(lp4745
g69
(g85
g71
NtRp4746
(dp4747
g74
(dp4748
sg83
g4742
sg76
(lp4749
g69
(g90
g71
NtRp4750
(dp4751
g74
(dp4752
sg83
g4746
sg76
(lp4753
g69
(g70
g71
NtRp4754
(dp4755
g74
(dp4756
g82
I1
ssg83
g4750
sg76
(lp4757
g4270
(S't\x07\x00\x00\x00Membros'
tRp4758
asbasbasbag69
(g85
g71
NtRp4759
(dp4760
g74
(dp4761
sg83
g4742
sg76
(lp4762
g69
(g90
g71
NtRp4763
(dp4764
g74
(dp4765
sg83
g4759
sg76
(lp4766
g69
(g70
g71
NtRp4767
(dp4768
g74
(dp4769
g82
I1
ssg83
g4763
sg76
(lp4770
I00
asbasbasbag69
(g85
g71
NtRp4771
(dp4772
g74
(dp4773
sg83
g4742
sg76
(lp4774
g69
(g90
g71
NtRp4775
(dp4776
g74
(dp4777
sg83
g4771
sg76
(lp4778
g69
(g70
g71
NtRp4779
(dp4780
g74
(dp4781
g82
I1
ssg83
g4775
sg76
(lp4782
S'/manager/membership'
p4783
asbasbasbasbasbasbasbasbasbasbasbasbasbasbasbag69
(g85
g71
NtRp4784
(dp4785
g74
(dp4786
sg83
g4544
sg76
(lp4787
g69
(g90
g71
NtRp4788
(dp4789
g74
(dp4790
sg83
g4784
sg76
(lp4791
g69
(g70
g71
NtRp4792
(dp4793
g74
(dp4794
g82
I4
ssg83
g4788
sg76
(lp4795
g69
(g78
g71
NtRp4796
(dp4797
g74
(dp4798
g82
I3
ssg83
Nsg76
(lp4799
g69
(g85
g71
NtRp4800
(dp4801
g74
(dp4802
sg83
g4796
sg76
(lp4803
g69
(g90
g71
NtRp4804
(dp4805
g74
(dp4806
sg83
g4800
sg76
(lp4807
g69
(g70
g71
NtRp4808
(dp4809
g74
(dp4810
g82
I3
ssg83
g4804
sg76
(lp4811
g69
(g4210
g71
NtRp4812
(dp4813
g74
(dp4814
g4199
g4579
ssg83
Nsg76
(lp4815
S'Login'
p4816
asbasbasbasbag69
(g85
g71
NtRp4817
(dp4818
g74
(dp4819
sg83
g4796
sg76
(lp4820
g69
(g90
g71
NtRp4821
(dp4822
g74
(dp4823
sg83
g4817
sg76
(lp4824
g69
(g70
g71
NtRp4825
(dp4826
g74
(dp4827
g82
I3
ssg83
g4821
sg76
(lp4828
g112
asbasbasbag69
(g85
g71
NtRp4829
(dp4830
g74
(dp4831
sg83
g4796
sg76
(lp4832
g69
(g90
g71
NtRp4833
(dp4834
g74
(dp4835
sg83
g4829
sg76
(lp4836
g69
(g70
g71
NtRp4837
(dp4838
g74
(dp4839
g82
I3
ssg83
g4833
sg76
(lp4840
S'#'
asbasbasbag69
(g85
g71
NtRp4841
(dp4842
g74
(dp4843
sg83
g4796
sg76
(lp4844
g69
(g90
g71
NtRp4845
(dp4846
g74
(dp4847
sg83
g4841
sg76
(lp4848
g69
(g70
g71
NtRp4849
(dp4850
g74
(dp4851
g82
I3
ssg83
g4845
sg76
(lp4852
g69
(g78
g71
NtRp4853
(dp4854
g74
(dp4855
g82
I2
ssg83
Nsg76
(lp4856
g69
(g85
g71
NtRp4857
(dp4858
g74
(dp4859
sg83
g4853
sg76
(lp4860
g69
(g90
g71
NtRp4861
(dp4862
g74
(dp4863
sg83
g4857
sg76
(lp4864
g69
(g70
g71
NtRp4865
(dp4866
g74
(dp4867
g82
I2
ssg83
g4861
sg76
(lp4868
g69
(g78
g71
NtRp4869
(dp4870
g74
(dp4871
g82
I1
ssg83
Nsg76
(lp4872
g69
(g85
g71
NtRp4873
(dp4874
g74
(dp4875
sg83
g4869
sg76
(lp4876
g69
(g90
g71
NtRp4877
(dp4878
g74
(dp4879
sg83
g4873
sg76
(lp4880
g69
(g70
g71
NtRp4881
(dp4882
g74
(dp4883
g82
I1
ssg83
g4877
sg76
(lp4884
g4270
(S't\x06\x00\x00\x00Logout'
tRp4885
asbasbasbag69
(g85
g71
NtRp4886
(dp4887
g74
(dp4888
sg83
g4869
sg76
(lp4889
g69
(g90
g71
NtRp4890
(dp4891
g74
(dp4892
sg83
g4886
sg76
(lp4893
g69
(g70
g71
NtRp4894
(dp4895
g74
(dp4896
g82
I1
ssg83
g4890
sg76
(lp4897
I00
asbasbasbag69
(g85
g71
NtRp4898
(dp4899
g74
(dp4900
sg83
g4869
sg76
(lp4901
g69
(g90
g71
NtRp4902
(dp4903
g74
(dp4904
sg83
g4898
sg76
(lp4905
g69
(g70
g71
NtRp4906
(dp4907
g74
(dp4908
g82
I1
ssg83
g4902
sg76
(lp4909
S'/initial/user/logout'
p4910
asbasbasbasbasbasbasbasbasbasbasbasbasbasbasbasbasbasbasbag69
(g85
g71
NtRp4911
(dp4912
g74
(dp4913
sg83
g3737
sg76
(lp4914
g69
(g90
g71
NtRp4915
(dp4916
g74
(dp4917
g94
g95
ssg83
g4911
sg76
(lp4918
S'meta'
p4919
asbag69
(g90
g71
NtRp4920
(dp4921
g74
(dp4922
g101
g102
ssg83
g4911
sg76
(lp4923
S':'
asbag69
(g90
g71
NtRp4924
(dp4925
g74
(dp4926
sg83
g4911
sg76
(lp4927
g69
(g70
g71
NtRp4928
(dp4929
g74
(dp4930
g82
I5
ssg83
g4924
sg76
(lp4931
g69
(g78
g71
NtRp4932
(dp4933
g74
(dp4934
g82
I4
ssg83
Nsg76
(lp4935
g69
(g85
g71
NtRp4936
(dp4937
g74
(dp4938
sg83
g4932
sg76
(lp4939
g69
(g90
g71
NtRp4940
(dp4941
g74
(dp4942
g94
g95
ssg83
g4936
sg76
(lp4943
S'author'
p4944
asbag69
(g90
g71
NtRp4945
(dp4946
g74
(dp4947
g101
g102
ssg83
g4936
sg76
(lp4948
S':'
asbag69
(g90
g71
NtRp4949
(dp4950
g74
(dp4951
sg83
g4936
sg76
(lp4952
g69
(g70
g71
NtRp4953
(dp4954
g74
(dp4955
g82
I4
ssg83
g4949
sg76
(lp4956
S'Your Name <you@example.com>'
p4957
asbasbasbag69
(g85
g71
NtRp4958
(dp4959
g74
(dp4960
sg83
g4932
sg76
(lp4961
g69
(g90
g71
NtRp4962
(dp4963
g74
(dp4964
g94
g95
ssg83
g4958
sg76
(lp4965
S'description'
p4966
asbag69
(g90
g71
NtRp4967
(dp4968
g74
(dp4969
g101
g102
ssg83
g4958
sg76
(lp4970
S':'
asbag69
(g90
g71
NtRp4971
(dp4972
g74
(dp4973
sg83
g4958
sg76
(lp4974
g69
(g70
g71
NtRp4975
(dp4976
g74
(dp4977
g82
I4
ssg83
g4971
sg76
(lp4978
S'a cool new app'
p4979
asbasbasbag69
(g85
g71
NtRp4980
(dp4981
g74
(dp4982
sg83
g4932
sg76
(lp4983
g69
(g90
g71
NtRp4984
(dp4985
g74
(dp4986
g94
g95
ssg83
g4980
sg76
(lp4987
S'generator'
p4988
asbag69
(g90
g71
NtRp4989
(dp4990
g74
(dp4991
g101
g102
ssg83
g4980
sg76
(lp4992
S':'
asbag69
(g90
g71
NtRp4993
(dp4994
g74
(dp4995
sg83
g4980
sg76
(lp4996
g69
(g70
g71
NtRp4997
(dp4998
g74
(dp4999
g82
I4
ssg83
g4993
sg76
(lp5000
S'Web2py Web Framework'
p5001
asbasbasbag69
(g85
g71
NtRp5002
(dp5003
g74
(dp5004
sg83
g4932
sg76
(lp5005
g69
(g90
g71
NtRp5006
(dp5007
g74
(dp5008
g94
g95
ssg83
g5002
sg76
(lp5009
S'keywords'
p5010
asbag69
(g90
g71
NtRp5011
(dp5012
g74
(dp5013
g101
g102
ssg83
g5002
sg76
(lp5014
S':'
asbag69
(g90
g71
NtRp5015
(dp5016
g74
(dp5017
sg83
g5002
sg76
(lp5018
g69
(g70
g71
NtRp5019
(dp5020
g74
(dp5021
g82
I4
ssg83
g5015
sg76
(lp5022
S'web2py, python, framework'
p5023
asbasbasbasbasbasbasbag69
(g85
g71
NtRp5024
(dp5025
g74
(dp5026
sg83
g3737
sg76
(lp5027
g69
(g90
g71
NtRp5028
(dp5029
g74
(dp5030
g94
g95
ssg83
g5024
sg76
(lp5031
S'models_to_run'
p5032
asbag69
(g90
g71
NtRp5033
(dp5034
g74
(dp5035
g101
g102
ssg83
g5024
sg76
(lp5036
S':'
asbag69
(g90
g71
NtRp5037
(dp5038
g74
(dp5039
sg83
g5024
sg76
(lp5040
g69
(g70
g71
NtRp5041
(dp5042
g74
(dp5043
g82
I5
ssg83
g5037
sg76
(lp5044
g69
(g78
g71
NtRp5045
(dp5046
g74
(dp5047
g82
I4
ssg83
Nsg76
(lp5048
g69
(g85
g71
NtRp5049
(dp5050
g74
(dp5051
sg83
g5045
sg76
(lp5052
g69
(g90
g71
NtRp5053
(dp5054
g74
(dp5055
sg83
g5049
sg76
(lp5056
g69
(g70
g71
NtRp5057
(dp5058
g74
(dp5059
g82
I4
ssg83
g5053
sg76
(lp5060
S'^\\w+\\.py$'
p5061
asbasbasbag69
(g85
g71
NtRp5062
(dp5063
g74
(dp5064
sg83
g5045
sg76
(lp5065
g69
(g90
g71
NtRp5066
(dp5067
g74
(dp5068
sg83
g5062
sg76
(lp5069
g69
(g70
g71
NtRp5070
(dp5071
g74
(dp5072
g82
I4
ssg83
g5066
sg76
(lp5073
S'^initial/\\w+\\.py$'
p5074
asbasbasbag69
(g85
g71
NtRp5075
(dp5076
g74
(dp5077
sg83
g5045
sg76
(lp5078
g69
(g90
g71
NtRp5079
(dp5080
g74
(dp5081
sg83
g5075
sg76
(lp5082
g69
(g70
g71
NtRp5083
(dp5084
g74
(dp5085
g82
I4
ssg83
g5079
sg76
(lp5086
S'^initial/show_cliente/\\w+\\.py$'
p5087
asbasbasbasbasbasbasbag69
(g85
g71
NtRp5088
(dp5089
g74
(dp5090
sg83
g3737
sg76
(lp5091
g69
(g90
g71
NtRp5092
(dp5093
g74
(dp5094
g94
g95
ssg83
g5088
sg76
(lp5095
S'postprocessing'
p5096
asbag69
(g90
g71
NtRp5097
(dp5098
g74
(dp5099
g101
g102
ssg83
g5088
sg76
(lp5100
S':'
asbag69
(g90
g71
NtRp5101
(dp5102
g74
(dp5103
sg83
g5088
sg76
(lp5104
g69
(g70
g71
NtRp5105
(dp5106
g74
(dp5107
g82
I5
ssg83
g5101
sg76
(lp5108
g69
(g78
g71
NtRp5109
(dp5110
g74
(dp5111
g82
I4
ssg83
Nsg76
(lp5112
sbasbasbasbag69
(g85
g71
NtRp5113
(dp5114
g74
(dp5115
sg83
g3737
sg76
(lp5116
g69
(g90
g71
NtRp5117
(dp5118
g74
(dp5119
g94
g95
ssg83
g5113
sg76
(lp5120
S'session_cookie_expires'
p5121
asbag69
(g90
g71
NtRp5122
(dp5123
g74
(dp5124
g101
g102
ssg83
g5113
sg76
(lp5125
S':'
asbag69
(g90
g71
NtRp5126
(dp5127
g74
(dp5128
sg83
g5113
sg76
(lp5129
g69
(g70
g71
NtRp5130
(dp5131
g74
(dp5132
g82
I5
ssg83
g5126
sg76
(lp5133
S'None'
p5134
asbasbasbag69
(g85
g71
NtRp5135
(dp5136
g74
(dp5137
sg83
g3737
sg76
(lp5138
g69
(g90
g71
NtRp5139
(dp5140
g74
(dp5141
g94
g95
ssg83
g5135
sg76
(lp5142
S'session_data_name'
p5143
asbag69
(g90
g71
NtRp5144
(dp5145
g74
(dp5146
g101
g102
ssg83
g5135
sg76
(lp5147
S':'
asbag69
(g90
g71
NtRp5148
(dp5149
g74
(dp5150
sg83
g5135
sg76
(lp5151
g69
(g70
g71
NtRp5152
(dp5153
g74
(dp5154
g82
I5
ssg83
g5148
sg76
(lp5155
S'session_data_projeto'
p5156
asbasbasbag69
(g85
g71
NtRp5157
(dp5158
g74
(dp5159
sg83
g3737
sg76
(lp5160
g69
(g90
g71
NtRp5161
(dp5162
g74
(dp5163
g94
g95
ssg83
g5157
sg76
(lp5164
S'session_file'
p5165
asbag69
(g90
g71
NtRp5166
(dp5167
g74
(dp5168
g101
g102
ssg83
g5157
sg76
(lp5169
S':'
asbag69
(g90
g71
NtRp5170
(dp5171
g74
(dp5172
sg83
g5157
sg76
(lp5173
g69
(g70
g71
NtRp5174
(dp5175
g74
(dp5176
g82
I5
ssg83
g5170
sg76
(lp5177
S"<open file '/var/www/conferencia/applications/projeto/sessions/127.0.0.1-001edd4c-cc9d-40b6-92aa-d3bbbc6019b5', mode 'rb+' at 0x7f634c26f150>"
p5178
asbasbasbag69
(g85
g71
NtRp5179
(dp5180
g74
(dp5181
sg83
g3737
sg76
(lp5182
g69
(g90
g71
NtRp5183
(dp5184
g74
(dp5185
g94
g95
ssg83
g5179
sg76
(lp5186
S'session_filename'
p5187
asbag69
(g90
g71
NtRp5188
(dp5189
g74
(dp5190
g101
g102
ssg83
g5179
sg76
(lp5191
S':'
asbag69
(g90
g71
NtRp5192
(dp5193
g74
(dp5194
sg83
g5179
sg76
(lp5195
g69
(g70
g71
NtRp5196
(dp5197
g74
(dp5198
g82
I5
ssg83
g5192
sg76
(lp5199
S'/var/www/conferencia/applications/projeto/sessions/127.0.0.1-001edd4c-cc9d-40b6-92aa-d3bbbc6019b5'
p5200
asbasbasbag69
(g85
g71
NtRp5201
(dp5202
g74
(dp5203
sg83
g3737
sg76
(lp5204
g69
(g90
g71
NtRp5205
(dp5206
g74
(dp5207
g94
g95
ssg83
g5201
sg76
(lp5208
S'session_id'
p5209
asbag69
(g90
g71
NtRp5210
(dp5211
g74
(dp5212
g101
g102
ssg83
g5201
sg76
(lp5213
S':'
asbag69
(g90
g71
NtRp5214
(dp5215
g74
(dp5216
sg83
g5201
sg76
(lp5217
g69
(g70
g71
NtRp5218
(dp5219
g74
(dp5220
g82
I5
ssg83
g5214
sg76
(lp5221
g526
asbasbasbag69
(g85
g71
NtRp5222
(dp5223
g74
(dp5224
sg83
g3737
sg76
(lp5225
g69
(g90
g71
NtRp5226
(dp5227
g74
(dp5228
g94
g95
ssg83
g5222
sg76
(lp5229
S'session_id_name'
p5230
asbag69
(g90
g71
NtRp5231
(dp5232
g74
(dp5233
g101
g102
ssg83
g5222
sg76
(lp5234
S':'
asbag69
(g90
g71
NtRp5235
(dp5236
g74
(dp5237
sg83
g5222
sg76
(lp5238
g69
(g70
g71
NtRp5239
(dp5240
g74
(dp5241
g82
I5
ssg83
g5235
sg76
(lp5242
g3794
asbasbasbag69
(g85
g71
NtRp5243
(dp5244
g74
(dp5245
sg83
g3737
sg76
(lp5246
g69
(g90
g71
NtRp5247
(dp5248
g74
(dp5249
g94
g95
ssg83
g5243
sg76
(lp5250
S'session_locked'
p5251
asbag69
(g90
g71
NtRp5252
(dp5253
g74
(dp5254
g101
g102
ssg83
g5243
sg76
(lp5255
S':'
asbag69
(g90
g71
NtRp5256
(dp5257
g74
(dp5258
sg83
g5243
sg76
(lp5259
g69
(g70
g71
NtRp5260
(dp5261
g74
(dp5262
g82
I5
ssg83
g5256
sg76
(lp5263
g1795
asbasbasbag69
(g85
g71
NtRp5264
(dp5265
g74
(dp5266
sg83
g3737
sg76
(lp5267
g69
(g90
g71
NtRp5268
(dp5269
g74
(dp5270
g94
g95
ssg83
g5264
sg76
(lp5271
S'session_new'
p5272
asbag69
(g90
g71
NtRp5273
(dp5274
g74
(dp5275
g101
g102
ssg83
g5264
sg76
(lp5276
S':'
asbag69
(g90
g71
NtRp5277
(dp5278
g74
(dp5279
sg83
g5264
sg76
(lp5280
g69
(g70
g71
NtRp5281
(dp5282
g74
(dp5283
g82
I5
ssg83
g5277
sg76
(lp5284
g112
asbasbasbag69
(g85
g71
NtRp5285
(dp5286
g74
(dp5287
sg83
g3737
sg76
(lp5288
g69
(g90
g71
NtRp5289
(dp5290
g74
(dp5291
g94
g95
ssg83
g5285
sg76
(lp5292
S'session_storage_type'
p5293
asbag69
(g90
g71
NtRp5294
(dp5295
g74
(dp5296
g101
g102
ssg83
g5285
sg76
(lp5297
S':'
asbag69
(g90
g71
NtRp5298
(dp5299
g74
(dp5300
sg83
g5285
sg76
(lp5301
g69
(g70
g71
NtRp5302
(dp5303
g74
(dp5304
g82
I5
ssg83
g5298
sg76
(lp5305
g3561
asbasbasbag69
(g85
g71
NtRp5306
(dp5307
g74
(dp5308
sg83
g3737
sg76
(lp5309
g69
(g90
g71
NtRp5310
(dp5311
g74
(dp5312
g94
g95
ssg83
g5306
sg76
(lp5313
S'status'
p5314
asbag69
(g90
g71
NtRp5315
(dp5316
g74
(dp5317
g101
g102
ssg83
g5306
sg76
(lp5318
S':'
asbag69
(g90
g71
NtRp5319
(dp5320
g74
(dp5321
sg83
g5306
sg76
(lp5322
g69
(g70
g71
NtRp5323
(dp5324
g74
(dp5325
g82
I5
ssg83
g5319
sg76
(lp5326
S'200'
p5327
asbasbasbag69
(g85
g71
NtRp5328
(dp5329
g74
(dp5330
sg83
g3737
sg76
(lp5331
g69
(g90
g71
NtRp5332
(dp5333
g74
(dp5334
g94
g95
ssg83
g5328
sg76
(lp5335
S'subtitle'
p5336
asbag69
(g90
g71
NtRp5337
(dp5338
g74
(dp5339
g101
g102
ssg83
g5328
sg76
(lp5340
S':'
asbag69
(g90
g71
NtRp5341
(dp5342
g74
(dp5343
sg83
g5328
sg76
(lp5344
g69
(g70
g71
NtRp5345
(dp5346
g74
(dp5347
g82
I5
ssg83
g5341
sg76
(lp5348
g4270
(S's\r\x00\x00\x00customize me!'
tRp5349
asbasbasbag69
(g85
g71
NtRp5350
(dp5351
g74
(dp5352
sg83
g3737
sg76
(lp5353
g69
(g90
g71
NtRp5354
(dp5355
g74
(dp5356
g94
g95
ssg83
g5350
sg76
(lp5357
S'title'
p5358
asbag69
(g90
g71
NtRp5359
(dp5360
g74
(dp5361
g101
g102
ssg83
g5350
sg76
(lp5362
S':'
asbag69
(g90
g71
NtRp5363
(dp5364
g74
(dp5365
sg83
g5350
sg76
(lp5366
g69
(g70
g71
NtRp5367
(dp5368
g74
(dp5369
g82
I5
ssg83
g5363
sg76
(lp5370
S'Eventos'
p5371
asbasbasbag69
(g85
g71
NtRp5372
(dp5373
g74
(dp5374
sg83
g3737
sg76
(lp5375
g69
(g90
g71
NtRp5376
(dp5377
g74
(dp5378
g94
g95
ssg83
g5372
sg76
(lp5379
S'view'
p5380
asbag69
(g90
g71
NtRp5381
(dp5382
g74
(dp5383
g101
g102
ssg83
g5372
sg76
(lp5384
S':'
asbag69
(g90
g71
NtRp5385
(dp5386
g74
(dp5387
sg83
g5372
sg76
(lp5388
g69
(g70
g71
NtRp5389
(dp5390
g74
(dp5391
g82
I5
ssg83
g5385
sg76
(lp5392
S'initial/show_cliente.html'
p5393
asbasbasbasbasbsS'locals'
p5394
(dp5395
S'dbio'
p5396
g1795
sS'keyed'
p5397
g1795
sS'field'
p5398
S'<gluon.dal.Field object>'
p5399
sS'request_vars'
p5400
S"<Storage {'admin_user': '2', 'starttime': '2013-...013-04-11 12:26:40', '_formname': 'web2py_grid'}>"
p5401
sS'fields'
p5402
g21
sS'detect_record_change'
p5403
g112
sS'kwargs'
p5404
g21
sS'ret'
p5405
g1795
sS'auch'
p5406
S'<Storage {}>'
p5407
sS'item'
p5408
S'<gluon.validators.IS_IN_DB object>'
p5409
sg3719
S"<Storage {'_formkey[web2py_grid]': 'e67d696c-bab... {'version': '22.0.1229.94', 'name': 'Chrome'}}}>"
p5410
sS'fieldname'
p5411
S"'gravacao'"
p5412
sS'onvalidation'
p5413
S'None'
p5414
sS'keepvalues'
p5415
g1795
sS'record_id'
p5416
S"{'confno': None}"
p5417
sS'formname_id'
p5418
S"'1013'"
p5419
sS'hideerror'
p5420
g112
sS'requires'
p5421
S'[]'
p5422
sS'self'
p5423
S'<gluon.sqlhtml.SQLFORM object>'
p5424
sS'formname'
p5425
S"'web2py_grid'"
p5426
sssS'traceback'
p5427
S'Traceback (most recent call last):\n  File "/var/www/conferencia/gluon/restricted.py", line 212, in restricted\n    exec ccode in environment\n  File "/var/www/conferencia/applications/projeto/controllers/initial.py", line 326, in <module>\n  File "/var/www/conferencia/gluon/globals.py", line 193, in <lambda>\n    self._caller = lambda f: f()\n  File "/var/www/conferencia/applications/projeto/controllers/initial.py", line 10, in show_cliente\n    ignore_rw = True, maxtextlength=36,\n  File "/var/www/conferencia/gluon/sqlhtml.py", line 1920, in grid\n    next=referrer)\n  File "/var/www/conferencia/gluon/html.py", line 2179, in process\n    self.validate(**kwargs)\n  File "/var/www/conferencia/gluon/html.py", line 2118, in validate\n    if self.accepts(**kwargs):\n  File "/var/www/conferencia/gluon/sqlhtml.py", line 1343, in accepts\n    \'%s != %s\' % (record_id, self.record_id))\nSyntaxError: user is tampering with form\'s record_id: {\'confno\': None} != 1013\n'
p5428
s.