(dp1
S'output'
p2
S'<class \'gluon.contrib.pg8000.errors.ProgrammingError\'> (\'ERROR\', \'42P01\', \'relation "usuario" does not exist\')'
p3
sS'layer'
p4
S'/var/www/conferencia/applications/projeto/controllers/initial.py'
p5
sS'code'
p6
S'# coding: utf-8\n\ndef show_cliente():\n\tresponse.title="Eventos"\n\n\tgrid = SQLFORM.grid(db.meetme,\n\t\tuser_signature=False, searchable=True, csv=False, \n\t\tpaginate=50, details=False,  \n\t\tignore_rw = True, maxtextlength=36, \n    \t)\n\treturn response.render("initial/show_grid.html", grid=grid)\n\n@auth.requires_login()\ndef show_servidor():\n\tresponse.title="Servidores"\n\n\tdb.args=Servidor.id.readable=False\n\tgrid = SQLFORM.grid(Servidor,\n\t\tuser_signature=True, searchable=True, csv=False,\n\t\tpaginate=50, details=False, \n\t\tignore_rw = True, maxtextlength=26,\n\t\tcreate=auth.has_membership("admin"),\n\t\teditable=auth.has_membership("admin"),\n\t\tdeletable=auth.has_membership("admin"),  \n    \tlinks = [lambda row: A(\'hosts\', _class=\'btn\', \n    \t\t_title=\'ver servidores\', \n    \t\t_href=URL("initial", "/servidor_host", \n    \t\tvars=dict(f=row.id, n1=\'Servidores\', p1=\'show_servidor\')))]\n\t\t)\n\treturn response.render("initial/show_grid.html", grid=grid)\n\n@auth.requires_login()\ndef show_distro():\n\tresponse.title="Distribui\xc3\xa7\xc3\xb5es"\n\n\tdb.args=Distro.id.readable=False\n\tdb.args=Distro.img.readable=False\n\tgrid = SQLFORM.grid(Distro,\n\t\tuser_signature=True, searchable=True, csv=False,\n\t\tpaginate=50, details=False, ignore_rw = True, \n\t\tmaxtextlength=26, links_placement=\'left\',\n\t\tcreate=auth.has_membership("admin"),\n\t\teditable=auth.has_membership("admin"),\n\t\tdeletable=auth.has_membership("admin"),  \n    \tlinks = [lambda row: A(\'hosts\', \n    \t\t_class=\'btn\', \n    \t\t_title=\'ver servidores\', \n    \t\t_href=URL("initial", "/distro_host", \n    \t\tvars=dict(f=row.id, n1=\'Distros\', p1=\'show_distro\'))), \n    \tdict(header=\'\',body=lambda row: A( IMG(_src=URL("static", "images", args=(row.img) ))))]\n\t\t)\n\treturn response.render("initial/show_grid.html", grid=grid)\n\n\n@auth.requires_login()\ndef cliente_host():\n\tfiltro = request.vars[\'f\']\n\tqueryset = db(db.cliente.id == filtro)\n\trows = queryset.select()\n\tcliente = rows[0]\n\tresponse.title = cliente.nome\n\tprint cliente\n\n\tnome_ant1 = request.vars[\'n1\']\n\tfuncao_ant1 = request.vars[\'p1\']\n\tnome_atual = cliente.nome\n\n\tquery = ((db.hosts.id_cliente == filtro) & (db.distro.id == db.hosts.id_distro))\n\tlinks = [dict(header=\'\',body=lambda row: A( IMG(_src=URL("static", "images", args=(row.distro.img)) ))), \n\t lambda row: A(\'Detalhes\', \n    \t\t      _class=\'btn\', \n    \t\t      _title=\'Detalhes\', \n    \t\t      _href=URL("initial", "/detalhes_nav", \n    \t\t      vars=dict(f=row.hosts.id, c=filtro, n=cliente.nome, \n    \t\t      \t\t\tn1=\'Clientes\', p1=\'show_cliente\', p=\'cliente_host\'))),\n\t lambda row: A(\'Editar\', \n    \t\t      _class=\'btn\', \n    \t\t      _title=\'Editar\', \n    \t\t      _href=URL("initial", "/edit_host", \n    \t\t      vars=dict(f=row.hosts.id, c=filtro, n=cliente.nome, \n    \t\t      \t\tn1=\'Clientes\', p1=\'show_cliente\', p=\'cliente_host\')))]\n\tdb.hosts.id.readable=False\n\tdb.distro.img.readable=False\n\t\n\tfields = (db.hosts.id, db.hosts.id_servidor, db.hosts.id_distro, db.distro.img, \n\t\t\t  db.hosts.ip_chegada, db.hosts.porta_ssh, db.hosts.gateway)\n\theaders = {\'hosts.id\':   \'ID\',\n\t\t\t   \'hosts.id_cliente\': \'Cliente\',\n               \'hosts.id_servidor\': \'Servidor\',\n               \'hosts.id_distro\': \'Distro\',\n               \'hosts.nome\': \'Nome\',\n\t           \'hosts.servicos\': \'Servicos\'}\n\tgrid = SQLFORM.grid(query=query, fields=fields, headers=headers, csv=False,\n\t\t\t\t\t\tdetails=False, searchable=False, maxtextlength=23, links=links, \n\t\t\t\t\t\tlinks_placement=\'left\', editable=False, create=False)\n\n\treturn response.render("initial/show_grid2.html", grid=grid, nome_ant1=nome_ant1, \n\t\t\t\t\t\tfuncao_ant1=funcao_ant1, nome_atual=nome_atual)\n\n@auth.requires_login()\ndef servidor_host():\n\tfiltro = request.vars[\'f\']\n\tqueryset = db(db.servidor.id == filtro)\n\trows = queryset.select()\n\tservidor = rows[0]\n\tresponse.title = servidor.nome\n\n\tnome_ant1 = request.vars[\'n1\']\n\tfuncao_ant1 = request.vars[\'p1\']\n\tnome_atual = servidor.nome\t\n\n\tdb.distro.img.readable=False\n\tdb.hosts.id.readable=False\n\tquery = ((db.hosts.id_servidor == filtro) & (db.distro.id == db.hosts.id_distro))\n\n\tlinks = [dict(header=\'\',body=lambda row: A( IMG(_src=URL("static", "images", args=(row.distro.img)) ))), \n\t lambda row: A(\'Detalhes\', \n    \t\t      _class=\'btn\', \n    \t\t      _title=\'Detalhes\', \n    \t\t      _href=URL("initial", "/detalhes_nav", \n    \t\t      vars=dict(f=row.hosts.id, c=filtro, n=servidor.nome, \n    \t\t      \t\tn1=\'Servidores\', p1=\'show_servidor\', p=\'servidor_host\'))),\n\t lambda row: A(\'Editar\', \n    \t\t      _class=\'btn\', \n    \t\t      _title=\'Editar\', \n    \t\t      _href=URL("initial", "/edit_host", \n    \t\t      vars=dict(f=row.hosts.id, c=filtro, n=servidor.nome, \n    \t\t      \t\tn1=\'Servidores\', p1=\'show_servidor\', p=\'servidor_host\')))]\n\n\tfields = (db.hosts.id, db.hosts.id_cliente, db.hosts.id_distro, db.distro.img, \n\t\t\t\tdb.hosts.ip_chegada, db.hosts.porta_ssh, db.hosts.gateway)\n\theaders = {\'hosts.id\':   \'ID\',\n\t\t\t   \'hosts.id_cliente\': \'Cliente\',\n               \'hosts.id_servidor\': \'Servidor\',\n               \'hosts.id_distro\': \'Distro\',\n               \'hosts.nome\': \'Nome\',\n\t           \'hosts.servicos\': \'Servicos\'}\n\tgrid = SQLFORM.grid(query=query, fields=fields, headers=headers, csv=False,\n\t\t\t\t\t\tdetails=False, searchable=False, maxtextlength=23, links=links, \n\t\t\t\t\t\tlinks_placement=\'left\', editable=False, create=False)\n\n\treturn response.render("initial/show_grid2.html", grid=grid, nome_ant1=nome_ant1, \n\t\t\t\t\t\tfuncao_ant1=funcao_ant1, nome_atual=nome_atual)\n\n@auth.requires_login()\ndef distro_host():\n\tfiltro = request.vars[\'f\']\n\tqueryset = db(db.distro.id == filtro)\n\trows = queryset.select()\n\tdistro = rows[0]\n\tresponse.title = distro.nome\n\n\tnome_ant1 = request.vars[\'n1\']\n\tfuncao_ant1 = request.vars[\'p1\']\n\tnome_atual = distro.nome\t\n\t\n\tdb.hosts.id.readable=False\n\tdb.distro.img.readable=False\n\tquery = ((db.hosts.id_distro == filtro) & (db.distro.id == db.hosts.id_distro))\n\tlinks = [dict(header=\'\',body=lambda row: A( IMG(_src=URL("static", "images", args=(row.distro.img)) ))), \n\t lambda row: A(\'Detalhes\', \n    \t\t      _class=\'btn\', \n    \t\t      _title=\'Detalhes\', \n    \t\t      _href=URL("initial", "/detalhes_nav", \n    \t\t      vars=dict(f=row.hosts.id, c=filtro, n=distro.nome, \n    \t\t      \t\tn1=\'Distros\', p1=\'show_distro\', p=\'distro_host\'))),\n\t lambda row: A(\'Editar\', \n    \t\t      _class=\'btn\', \n    \t\t      _title=\'Editar\', \n    \t\t      _href=URL("initial", "/edit_host", \n    \t\t      vars=dict(f=row.hosts.id, c=filtro, n=distro.nome, \n    \t\t      \t\tn1=\'Distros\', p1=\'show_distro\', p=\'distro_host\')))]\n\n\tfields = (db.hosts.id, db.hosts.id_cliente, db.hosts.id_servidor, db.distro.img, \n\t\t\t  db.hosts.ip_chegada, db.hosts.porta_ssh, db.hosts.gateway)\n\theaders = {\'hosts.id\':   \'ID\',\n\t\t\t\t\'hosts.id_cliente\': \'Cliente\',\n               \'hosts.id_servidor\': \'Servidor\',\n               \'hosts.id_distro\': \'Distro\',\n               \'hosts.nome\': \'Nome\',\n\t           \'hosts.servicos\': \'Servicos\'}\n\tgrid = SQLFORM.grid(query=query, fields=fields, headers=headers, csv=False,\n\t\t\t\t\t\tdetails=False, searchable=False, maxtextlength=23, links=links, \n\t\t\t\t\t\tlinks_placement=\'left\', editable=False, create=False)\n\n\treturn response.render("initial/show_grid2.html", grid=grid, nome_ant1=nome_ant1, \n\t\t\t\t\t\tfuncao_ant1=funcao_ant1, nome_atual=nome_atual)\n\ndef detalhes_nav():\n\t#detalhes\n\tfiltro = request.vars[\'f\'] #id_host\n\tid_cliente = request.vars[\'c\'] #id_cliente\n\tnome_ant = request.vars[\'n\'] #nome (asterisk ou agronelli ou debian)\n\tnome_ant1 = request.vars[\'n1\'] #nome (servidores ou clientes ou distros)\n\tfuncao_ant = request.vars[\'p\'] #funcao(host_servidores)\n\tfuncao_ant1 = request.vars[\'p1\'] #funcao(show_servidores)\n\t\n\n\tquery = ((db.hosts.id == filtro) & (db.hosts.id_cliente == db.cliente.id)\n\t \t    & (db.hosts.id_servidor == db.servidor.id) \n\t \t    & (db.hosts.id_distro == db.distro.id)) \n\tdetalhes = db.hosts(query)\n\t\n\t\n\treturn response.render("initial/detalhes_host.html", detalhes=detalhes, \n\t\t\t\tid_cliente=id_cliente, funcao_ant=funcao_ant, funcao_ant1=funcao_ant1, \n\t\t\t\tnome_ant=nome_ant, nome_ant1=nome_ant1, filtro=filtro)\n\n\ndef edit_host():\n    form = SQLFORM(db.hosts, request.vars[\'f\'], submit_button=\'Editar\', fields = [\'id_cliente\', \'id_servidor\', \'id_distro\', \'servicos\',\n\t\t\t\t\'if1\', \'ip1\', \'masc1\', \'obs1\', \'if2\', \'ip2\', \'masc2\', \'obs2\',\n\t\t\t\t\'if3\', \'ip3\', \'masc3\', \'obs3\', \'if4\', \'ip4\', \'masc4\', \'obs4\',\n\t\t\t\t\'nome\', \'ip_chegada\', \'porta_ssh\', \'gateway\', \'rotas\', \'obs_gerais\'],\n\t\t\t\tlabels = {\'id_cliente\':\'Cliente\', \'id_servidor\':\'Servidor\', \'id_distro\':\'Distro\',\n\t\t\t\t\'if1\':\'Interface 1\', \'ip1\':\'IP\', \'masc1\':\'M\xc3\xa1scara\', \'obs1\':\'Obs\',\n\t\t\t\t\'if2\':\'Interface 2\', \'ip2\':\'IP\', \'masc2\':\'M\xc3\xa1scara\', \'obs2\':\'Obs\',\n\t\t\t\t\'if3\':\'Interface 3\', \'ip3\':\'IP\', \'masc3\':\'M\xc3\xa1scara\', \'obs3\':\'Obs\',\n\t\t\t\t\'if4\':\'Interface 4\', \'ip4\':\'IP\', \'masc4\':\'M\xc3\xa1scara\', \'obs4\':\'Obs\'})\n\n    if form.process().accepted:\n       response.flash = \'Editado com sucesso\'\n    elif form.errors:\n       response.flash = \'Ops, algo n\xc3\xa3o est\xc3\xa1 correto\'\n    else:\n       response.flash = \'Edite os dados do host\'\n\n    return response.render("initial/show_form.html", form=form, id_cliente = request.vars[\'c\'], \n    \t\t\t\tnome_ant = request.vars[\'n\'], nome_ant1 = request.vars[\'n1\'], \n    \t\t\t\tfuncao_ant = request.vars[\'p\'], funcao_ant1 = request.vars[\'p1\'])\n\n\n@auth.requires_login()\ndef interface():\n\t#adicionar\n    form = SQLFORM(db.hosts, submit_button=\'Adicionar\', \n    \t\t\tfields = [\'id_cliente\', \'id_servidor\', \'id_distro\', \'servicos\',\n\t\t\t\t\'if1\', \'ip1\', \'masc1\', \'obs1\', \'if2\', \'ip2\', \'masc2\', \'obs2\',\n\t\t\t\t\'if3\', \'ip3\', \'masc3\', \'obs3\', \'if4\', \'ip4\', \'masc4\', \'obs4\',\n\t\t\t\t\'nome\', \'ip_chegada\', \'porta_ssh\', \'gateway\', \'rotas\', \'obs_gerais\'], \n\t\t\t\tlabels = {\'id_cliente\':\'Cliente\', \'id_servidor\':\'Servidor\', \'id_distro\':\'Distro\',\n\t\t\t\t\'if1\':\'Interface 1\', \'ip1\':\'IP\', \'masc1\':\'M\xc3\xa1scara\', \'obs1\':\'Obs\',\n\t\t\t\t\'if2\':\'Interface 2\', \'ip2\':\'IP\', \'masc2\':\'M\xc3\xa1scara\', \'obs2\':\'Obs\',\n\t\t\t\t\'if3\':\'Interface 3\', \'ip3\':\'IP\', \'masc3\':\'M\xc3\xa1scara\', \'obs3\':\'Obs\',\n\t\t\t\t\'if4\':\'Interface 4\', \'ip4\':\'IP\', \'masc4\':\'M\xc3\xa1scara\', \'obs4\':\'Obs\'})\n   \n    if form.process().accepted:\n    \thost = request.vars\n    \temail(host)\n    \tresponse.flash = \'Inserido com sucesso\'\t\t\n    elif form.errors:\n       response.flash = \'Ops, algo n\xc3\xa3o est\xc3\xa1 correto\'\n    else:\n       response.flash = \'Insira os dados do novo host\'\n    return response.render("initial/show_form2.html", form=form)\n\ndef about():\n\tfiltro = request.vars[\'f\']\n\tquery = ((db.hosts.id_servidor == filtro) & (db.distro.id == db.hosts.id_distro))\n\tfields = (db.hosts.id, db.hosts.id_cliente, db.hosts.id_distro, db.distro.img, \n\t\t\t\tdb.hosts.ip_chegada, db.hosts.porta_ssh, db.hosts.gateway)\n\theaders = {\'host.id\':   \'ID\',\n               \'host.id_servidor\': \'Servidor\',\n               \'host.id_distro\': \'Distro\',\n               \'host.nome\': \'Nome\',\n\t           \'host.servicos\': \'Servicos\'}\n\tgrid = SQLFORM.grid(query=query, fields=fields, headers=headers, csv=False,\n\t\t\t\t\t\tdetails=False, maxtextlength=23, searchable=True, editable=False, create=False)\n\n\treturn response.render("initial/teste.html", grid=grid,)\n\ndef user():\n\t#if request.args(0) == \'register\':\n    #    \tdb.auth_user.bio.writable = db.auth_user.bio.readable = False\n\treturn response.render("initial/user.html", user=auth())\n\ndef register():\n\treturn auth.register()\n\ndef login():\n        return auth.login()\n\ndef account():\n    return dict(register=auth.register(),\n                login=auth.login())\n\t\ndef download():\n\treturn response.download(request, db)\n\n\ndef principal():\n\tresponse.title="Usu\xc3\xa1rios"\n\n\tgrid = SQLFORM.grid(db.usuario,\n\t\tuser_signature=False, searchable=True, csv=False, \n\t\tpaginate=50, details=False,  \n\t\tignore_rw = True, maxtextlength=36, \n    \t)\n\treturn response.render("initial/show_grid.html", grid=grid)\n\n\t\ndef detalhes_clean():\n\tfiltro = request.vars[\'f\'] #id_host\n\t\t\n\n\tquery = ((db.hosts.id == filtro) & (db.hosts.id_cliente == db.cliente.id)\n\t \t    & (db.hosts.id_servidor == db.servidor.id) \n\t \t    & (db.hosts.id_distro == db.distro.id)) \n\tdetalhes = db.hosts(query)\n\n\t\n\treturn response.render("initial/detalhes_host_clean.html", detalhes=detalhes)\n\ndef email(host):\n\tif auth.has_membership(\'voip\'):\n\t\tmail.send(\n\t\t\tto="fndiaz02@gmail.com",\n\t\t\tsubject="host adicionado",\n\t\t\tmessage="<html>Um novo host foi adicionado pelo usu\xc3\xa1rio %s <br>nome: %s <br>vpn: %s<br><br>\xc3\x89 preciso fazer a instala\xc3\xa7\xc3\xa3o do client zabbix e bacula</html>" % (auth.user.first_name, host.nome, host.ip_chegada,)\n\t\t\t)\n\telif auth.has_membership(\'internet\'):\n\t\tmail.send(\n\t\t\tto="fernando@ad2.com.br",\n\t\t\tsubject="host adicionado",\n\t\t\tmessage="<html>Um novo host foi adicionado pelo usu\xc3\xa1rio %s <br>nome: %s <br>vpn: %s<br><br>\xc3\x89 preciso fazer a instala\xc3\xa7\xc3\xa3o do client zabbix e bacula</html>" % (auth.user.first_name, host.nome, host.ip_chegada,)\n\t\t\t)\n\nresponse._vars=response._caller(show_cliente)\n'
p7
sS'snapshot'
p8
(dp9
S'exception'
p10
(dp11
S'__module__'
p12
S"'gluon.contrib.pg8000.errors'"
p13
sS'__getslice__'
p14
S"<method-wrapper '__getslice__' of ProgrammingError object>"
p15
sS'__str__'
p16
S"<method-wrapper '__str__' of ProgrammingError object>"
p17
sS'__reduce__'
p18
S'<built-in method __reduce__ of ProgrammingError object>'
p19
sS'__dict__'
p20
S'{}'
p21
sS'__sizeof__'
p22
S'<built-in method __sizeof__ of ProgrammingError object>'
p23
sS'__weakref__'
p24
S'None'
p25
sS'__init__'
p26
S"<method-wrapper '__init__' of ProgrammingError object>"
p27
sS'__setattr__'
p28
S"<method-wrapper '__setattr__' of ProgrammingError object>"
p29
sS'__reduce_ex__'
p30
S'<built-in method __reduce_ex__ of ProgrammingError object>'
p31
sS'__new__'
p32
S'<built-in method __new__ of type object>'
p33
sS'__format__'
p34
S'<built-in method __format__ of ProgrammingError object>'
p35
sS'__class__'
p36
S"<class 'gluon.contrib.pg8000.errors.ProgrammingError'>"
p37
sS'__doc__'
p38
S'None'
p39
sS'__getitem__'
p40
S"<method-wrapper '__getitem__' of ProgrammingError object>"
p41
sS'__setstate__'
p42
S'<built-in method __setstate__ of ProgrammingError object>'
p43
sS'__getattribute__'
p44
S"<method-wrapper '__getattribute__' of ProgrammingError object>"
p45
sS'args'
p46
S'(\'ERROR\', \'42P01\', \'relation "usuario" does not exist\')'
p47
sS'__subclasshook__'
p48
S'<built-in method __subclasshook__ of type object>'
p49
sS'__unicode__'
p50
S'<built-in method __unicode__ of ProgrammingError object>'
p51
sS'__delattr__'
p52
S"<method-wrapper '__delattr__' of ProgrammingError object>"
p53
sS'__repr__'
p54
S"<method-wrapper '__repr__' of ProgrammingError object>"
p55
sS'__hash__'
p56
S"<method-wrapper '__hash__' of ProgrammingError object>"
p57
ssS'evalue'
p58
S'(\'ERROR\', \'42P01\', \'relation "usuario" does not exist\')'
p59
sS'request'
p60
ccopy_reg
_reconstructor
p61
(cgluon.html
BEAUTIFY
p62
c__builtin__
object
p63
NtRp64
(dp65
S'attributes'
p66
(dp67
sS'components'
p68
(lp69
g61
(cgluon.html
TABLE
p70
g63
NtRp71
(dp72
g66
(dp73
S'level'
p74
I5
ssS'parent'
p75
Nsg68
(lp76
g61
(cgluon.html
TR
p77
g63
NtRp78
(dp79
g66
(dp80
sg75
g71
sg68
(lp81
g61
(cgluon.html
TD
p82
g63
NtRp83
(dp84
g66
(dp85
S'_style'
p86
S'font-weight:bold;vertical-align:top'
p87
ssg75
g78
sg68
(lp88
S'ajax'
p89
asbag61
(g82
g63
NtRp90
(dp91
g66
(dp92
S'_valign'
p93
S'top'
p94
ssg75
g78
sg68
(lp95
S':'
asbag61
(g82
g63
NtRp96
(dp97
g66
(dp98
sg75
g78
sg68
(lp99
g61
(g62
g63
NtRp100
(dp101
g66
(dp102
g74
I5
ssg75
g96
sg68
(lp103
S'False'
p104
asbasbasbag61
(g77
g63
NtRp105
(dp106
g66
(dp107
sg75
g71
sg68
(lp108
g61
(g82
g63
NtRp109
(dp110
g66
(dp111
g86
g87
ssg75
g105
sg68
(lp112
S'application'
p113
asbag61
(g82
g63
NtRp114
(dp115
g66
(dp116
g93
g94
ssg75
g105
sg68
(lp117
S':'
asbag61
(g82
g63
NtRp118
(dp119
g66
(dp120
sg75
g105
sg68
(lp121
g61
(g62
g63
NtRp122
(dp123
g66
(dp124
g74
I5
ssg75
g118
sg68
(lp125
S'projeto'
p126
asbasbasbag61
(g77
g63
NtRp127
(dp128
g66
(dp129
sg75
g71
sg68
(lp130
g61
(g82
g63
NtRp131
(dp132
g66
(dp133
g86
g87
ssg75
g127
sg68
(lp134
g46
asbag61
(g82
g63
NtRp135
(dp136
g66
(dp137
g93
g94
ssg75
g127
sg68
(lp138
S':'
asbag61
(g82
g63
NtRp139
(dp140
g66
(dp141
sg75
g127
sg68
(lp142
g61
(g62
g63
NtRp143
(dp144
g66
(dp145
g74
I5
ssg75
g139
sg68
(lp146
g61
(g70
g63
NtRp147
(dp148
g66
(dp149
g74
I4
ssg75
Nsg68
(lp150
g61
(g77
g63
NtRp151
(dp152
g66
(dp153
sg75
g147
sg68
(lp154
g61
(g82
g63
NtRp155
(dp156
g66
(dp157
sg75
g151
sg68
(lp158
g61
(g62
g63
NtRp159
(dp160
g66
(dp161
g74
I4
ssg75
g155
sg68
(lp162
S'new'
p163
asbasbasbag61
(g77
g63
NtRp164
(dp165
g66
(dp166
sg75
g147
sg68
(lp167
g61
(g82
g63
NtRp168
(dp169
g66
(dp170
sg75
g164
sg68
(lp171
g61
(g62
g63
NtRp172
(dp173
g66
(dp174
g74
I4
ssg75
g168
sg68
(lp175
S'meetme'
p176
asbasbasbasbasbasbasbag61
(g77
g63
NtRp177
(dp178
g66
(dp179
sg75
g71
sg68
(lp180
g61
(g82
g63
NtRp181
(dp182
g66
(dp183
g86
g87
ssg75
g177
sg68
(lp184
S'body'
p185
asbag61
(g82
g63
NtRp186
(dp187
g66
(dp188
g93
g94
ssg75
g177
sg68
(lp189
S':'
asbag61
(g82
g63
NtRp190
(dp191
g66
(dp192
sg75
g177
sg68
(lp193
g61
(g62
g63
NtRp194
(dp195
g66
(dp196
g74
I5
ssg75
g190
sg68
(lp197
S'<cStringIO.StringO object at 0x7f32fc15a688>'
p198
asbasbasbag61
(g77
g63
NtRp199
(dp200
g66
(dp201
sg75
g71
sg68
(lp202
g61
(g82
g63
NtRp203
(dp204
g66
(dp205
g86
g87
ssg75
g199
sg68
(lp206
S'cid'
p207
asbag61
(g82
g63
NtRp208
(dp209
g66
(dp210
g93
g94
ssg75
g199
sg68
(lp211
S':'
asbag61
(g82
g63
NtRp212
(dp213
g66
(dp214
sg75
g199
sg68
(lp215
g61
(g62
g63
NtRp216
(dp217
g66
(dp218
g74
I5
ssg75
g212
sg68
(lp219
S'None'
p220
asbasbasbag61
(g77
g63
NtRp221
(dp222
g66
(dp223
sg75
g71
sg68
(lp224
g61
(g82
g63
NtRp225
(dp226
g66
(dp227
g86
g87
ssg75
g221
sg68
(lp228
S'client'
p229
asbag61
(g82
g63
NtRp230
(dp231
g66
(dp232
g93
g94
ssg75
g221
sg68
(lp233
S':'
asbag61
(g82
g63
NtRp234
(dp235
g66
(dp236
sg75
g221
sg68
(lp237
g61
(g62
g63
NtRp238
(dp239
g66
(dp240
g74
I5
ssg75
g234
sg68
(lp241
S'127.0.0.1'
p242
asbasbasbag61
(g77
g63
NtRp243
(dp244
g66
(dp245
sg75
g71
sg68
(lp246
g61
(g82
g63
NtRp247
(dp248
g66
(dp249
g86
g87
ssg75
g243
sg68
(lp250
S'controller'
p251
asbag61
(g82
g63
NtRp252
(dp253
g66
(dp254
g93
g94
ssg75
g243
sg68
(lp255
S':'
asbag61
(g82
g63
NtRp256
(dp257
g66
(dp258
sg75
g243
sg68
(lp259
g61
(g62
g63
NtRp260
(dp261
g66
(dp262
g74
I5
ssg75
g256
sg68
(lp263
S'initial'
p264
asbasbasbag61
(g77
g63
NtRp265
(dp266
g66
(dp267
sg75
g71
sg68
(lp268
g61
(g82
g63
NtRp269
(dp270
g66
(dp271
g86
g87
ssg75
g265
sg68
(lp272
S'cookies'
p273
asbag61
(g82
g63
NtRp274
(dp275
g66
(dp276
g93
g94
ssg75
g265
sg68
(lp277
S':'
asbag61
(g82
g63
NtRp278
(dp279
g66
(dp280
sg75
g265
sg68
(lp281
g61
(g62
g63
NtRp282
(dp283
g66
(dp284
g74
I5
ssg75
g278
sg68
(lp285
g61
(g70
g63
NtRp286
(dp287
g66
(dp288
g74
I4
ssg75
Nsg68
(lp289
g61
(g77
g63
NtRp290
(dp291
g66
(dp292
sg75
g286
sg68
(lp293
g61
(g82
g63
NtRp294
(dp295
g66
(dp296
g86
g87
ssg75
g290
sg68
(lp297
S'session_id_admin'
p298
asbag61
(g82
g63
NtRp299
(dp300
g66
(dp301
g93
g94
ssg75
g290
sg68
(lp302
S':'
asbag61
(g82
g63
NtRp303
(dp304
g66
(dp305
sg75
g290
sg68
(lp306
g61
(g62
g63
NtRp307
(dp308
g66
(dp309
g74
I4
ssg75
g303
sg68
(lp310
S'127.0.0.1-f08163e7-63a0-4e97-8334-13b9dc892d78'
p311
ag61
(g70
g63
NtRp312
(dp313
g66
(dp314
g74
I3
ssg75
Nsg68
(lp315
g61
(g77
g63
NtRp316
(dp317
g66
(dp318
sg75
g312
sg68
(lp319
g61
(g82
g63
NtRp320
(dp321
g66
(dp322
g86
g87
ssg75
g316
sg68
(lp323
S'comment'
p324
asbag61
(g82
g63
NtRp325
(dp326
g66
(dp327
g93
g94
ssg75
g316
sg68
(lp328
S':'
asbag61
(g82
g63
NtRp329
(dp330
g66
(dp331
sg75
g316
sg68
(lp332
g61
(g62
g63
NtRp333
(dp334
g66
(dp335
g74
I3
ssg75
g329
sg68
(lp336
S''
asbasbasbag61
(g77
g63
NtRp337
(dp338
g66
(dp339
sg75
g312
sg68
(lp340
g61
(g82
g63
NtRp341
(dp342
g66
(dp343
g86
g87
ssg75
g337
sg68
(lp344
S'domain'
p345
asbag61
(g82
g63
NtRp346
(dp347
g66
(dp348
g93
g94
ssg75
g337
sg68
(lp349
S':'
asbag61
(g82
g63
NtRp350
(dp351
g66
(dp352
sg75
g337
sg68
(lp353
g61
(g62
g63
NtRp354
(dp355
g66
(dp356
g74
I3
ssg75
g350
sg68
(lp357
S''
asbasbasbag61
(g77
g63
NtRp358
(dp359
g66
(dp360
sg75
g312
sg68
(lp361
g61
(g82
g63
NtRp362
(dp363
g66
(dp364
g86
g87
ssg75
g358
sg68
(lp365
S'expires'
p366
asbag61
(g82
g63
NtRp367
(dp368
g66
(dp369
g93
g94
ssg75
g358
sg68
(lp370
S':'
asbag61
(g82
g63
NtRp371
(dp372
g66
(dp373
sg75
g358
sg68
(lp374
g61
(g62
g63
NtRp375
(dp376
g66
(dp377
g74
I3
ssg75
g371
sg68
(lp378
S''
asbasbasbag61
(g77
g63
NtRp379
(dp380
g66
(dp381
sg75
g312
sg68
(lp382
g61
(g82
g63
NtRp383
(dp384
g66
(dp385
g86
g87
ssg75
g379
sg68
(lp386
S'httponly'
p387
asbag61
(g82
g63
NtRp388
(dp389
g66
(dp390
g93
g94
ssg75
g379
sg68
(lp391
S':'
asbag61
(g82
g63
NtRp392
(dp393
g66
(dp394
sg75
g379
sg68
(lp395
g61
(g62
g63
NtRp396
(dp397
g66
(dp398
g74
I3
ssg75
g392
sg68
(lp399
S''
asbasbasbag61
(g77
g63
NtRp400
(dp401
g66
(dp402
sg75
g312
sg68
(lp403
g61
(g82
g63
NtRp404
(dp405
g66
(dp406
g86
g87
ssg75
g400
sg68
(lp407
S'max-age'
p408
asbag61
(g82
g63
NtRp409
(dp410
g66
(dp411
g93
g94
ssg75
g400
sg68
(lp412
S':'
asbag61
(g82
g63
NtRp413
(dp414
g66
(dp415
sg75
g400
sg68
(lp416
g61
(g62
g63
NtRp417
(dp418
g66
(dp419
g74
I3
ssg75
g413
sg68
(lp420
S''
asbasbasbag61
(g77
g63
NtRp421
(dp422
g66
(dp423
sg75
g312
sg68
(lp424
g61
(g82
g63
NtRp425
(dp426
g66
(dp427
g86
g87
ssg75
g421
sg68
(lp428
S'path'
p429
asbag61
(g82
g63
NtRp430
(dp431
g66
(dp432
g93
g94
ssg75
g421
sg68
(lp433
S':'
asbag61
(g82
g63
NtRp434
(dp435
g66
(dp436
sg75
g421
sg68
(lp437
g61
(g62
g63
NtRp438
(dp439
g66
(dp440
g74
I3
ssg75
g434
sg68
(lp441
S''
asbasbasbag61
(g77
g63
NtRp442
(dp443
g66
(dp444
sg75
g312
sg68
(lp445
g61
(g82
g63
NtRp446
(dp447
g66
(dp448
g86
g87
ssg75
g442
sg68
(lp449
S'secure'
p450
asbag61
(g82
g63
NtRp451
(dp452
g66
(dp453
g93
g94
ssg75
g442
sg68
(lp454
S':'
asbag61
(g82
g63
NtRp455
(dp456
g66
(dp457
sg75
g442
sg68
(lp458
g61
(g62
g63
NtRp459
(dp460
g66
(dp461
g74
I3
ssg75
g455
sg68
(lp462
S''
asbasbasbag61
(g77
g63
NtRp463
(dp464
g66
(dp465
sg75
g312
sg68
(lp466
g61
(g82
g63
NtRp467
(dp468
g66
(dp469
g86
g87
ssg75
g463
sg68
(lp470
S'version'
p471
asbag61
(g82
g63
NtRp472
(dp473
g66
(dp474
g93
g94
ssg75
g463
sg68
(lp475
S':'
asbag61
(g82
g63
NtRp476
(dp477
g66
(dp478
sg75
g463
sg68
(lp479
g61
(g62
g63
NtRp480
(dp481
g66
(dp482
g74
I3
ssg75
g476
sg68
(lp483
S''
asbasbasbasbasbasbasbag61
(g77
g63
NtRp484
(dp485
g66
(dp486
sg75
g286
sg68
(lp487
g61
(g82
g63
NtRp488
(dp489
g66
(dp490
g86
g87
ssg75
g484
sg68
(lp491
S'session_id_projeto'
p492
asbag61
(g82
g63
NtRp493
(dp494
g66
(dp495
g93
g94
ssg75
g484
sg68
(lp496
S':'
asbag61
(g82
g63
NtRp497
(dp498
g66
(dp499
sg75
g484
sg68
(lp500
g61
(g62
g63
NtRp501
(dp502
g66
(dp503
g74
I4
ssg75
g497
sg68
(lp504
S'127.0.0.1-0fe02c32-0739-4f06-a369-3bba6377da8b'
p505
ag61
(g70
g63
NtRp506
(dp507
g66
(dp508
g74
I3
ssg75
Nsg68
(lp509
g61
(g77
g63
NtRp510
(dp511
g66
(dp512
sg75
g506
sg68
(lp513
g61
(g82
g63
NtRp514
(dp515
g66
(dp516
g86
g87
ssg75
g510
sg68
(lp517
g324
asbag61
(g82
g63
NtRp518
(dp519
g66
(dp520
g93
g94
ssg75
g510
sg68
(lp521
S':'
asbag61
(g82
g63
NtRp522
(dp523
g66
(dp524
sg75
g510
sg68
(lp525
g61
(g62
g63
NtRp526
(dp527
g66
(dp528
g74
I3
ssg75
g522
sg68
(lp529
S''
asbasbasbag61
(g77
g63
NtRp530
(dp531
g66
(dp532
sg75
g506
sg68
(lp533
g61
(g82
g63
NtRp534
(dp535
g66
(dp536
g86
g87
ssg75
g530
sg68
(lp537
g345
asbag61
(g82
g63
NtRp538
(dp539
g66
(dp540
g93
g94
ssg75
g530
sg68
(lp541
S':'
asbag61
(g82
g63
NtRp542
(dp543
g66
(dp544
sg75
g530
sg68
(lp545
g61
(g62
g63
NtRp546
(dp547
g66
(dp548
g74
I3
ssg75
g542
sg68
(lp549
S''
asbasbasbag61
(g77
g63
NtRp550
(dp551
g66
(dp552
sg75
g506
sg68
(lp553
g61
(g82
g63
NtRp554
(dp555
g66
(dp556
g86
g87
ssg75
g550
sg68
(lp557
g366
asbag61
(g82
g63
NtRp558
(dp559
g66
(dp560
g93
g94
ssg75
g550
sg68
(lp561
S':'
asbag61
(g82
g63
NtRp562
(dp563
g66
(dp564
sg75
g550
sg68
(lp565
g61
(g62
g63
NtRp566
(dp567
g66
(dp568
g74
I3
ssg75
g562
sg68
(lp569
S''
asbasbasbag61
(g77
g63
NtRp570
(dp571
g66
(dp572
sg75
g506
sg68
(lp573
g61
(g82
g63
NtRp574
(dp575
g66
(dp576
g86
g87
ssg75
g570
sg68
(lp577
g387
asbag61
(g82
g63
NtRp578
(dp579
g66
(dp580
g93
g94
ssg75
g570
sg68
(lp581
S':'
asbag61
(g82
g63
NtRp582
(dp583
g66
(dp584
sg75
g570
sg68
(lp585
g61
(g62
g63
NtRp586
(dp587
g66
(dp588
g74
I3
ssg75
g582
sg68
(lp589
S''
asbasbasbag61
(g77
g63
NtRp590
(dp591
g66
(dp592
sg75
g506
sg68
(lp593
g61
(g82
g63
NtRp594
(dp595
g66
(dp596
g86
g87
ssg75
g590
sg68
(lp597
g408
asbag61
(g82
g63
NtRp598
(dp599
g66
(dp600
g93
g94
ssg75
g590
sg68
(lp601
S':'
asbag61
(g82
g63
NtRp602
(dp603
g66
(dp604
sg75
g590
sg68
(lp605
g61
(g62
g63
NtRp606
(dp607
g66
(dp608
g74
I3
ssg75
g602
sg68
(lp609
S''
asbasbasbag61
(g77
g63
NtRp610
(dp611
g66
(dp612
sg75
g506
sg68
(lp613
g61
(g82
g63
NtRp614
(dp615
g66
(dp616
g86
g87
ssg75
g610
sg68
(lp617
g429
asbag61
(g82
g63
NtRp618
(dp619
g66
(dp620
g93
g94
ssg75
g610
sg68
(lp621
S':'
asbag61
(g82
g63
NtRp622
(dp623
g66
(dp624
sg75
g610
sg68
(lp625
g61
(g62
g63
NtRp626
(dp627
g66
(dp628
g74
I3
ssg75
g622
sg68
(lp629
S''
asbasbasbag61
(g77
g63
NtRp630
(dp631
g66
(dp632
sg75
g506
sg68
(lp633
g61
(g82
g63
NtRp634
(dp635
g66
(dp636
g86
g87
ssg75
g630
sg68
(lp637
g450
asbag61
(g82
g63
NtRp638
(dp639
g66
(dp640
g93
g94
ssg75
g630
sg68
(lp641
S':'
asbag61
(g82
g63
NtRp642
(dp643
g66
(dp644
sg75
g630
sg68
(lp645
g61
(g62
g63
NtRp646
(dp647
g66
(dp648
g74
I3
ssg75
g642
sg68
(lp649
S''
asbasbasbag61
(g77
g63
NtRp650
(dp651
g66
(dp652
sg75
g506
sg68
(lp653
g61
(g82
g63
NtRp654
(dp655
g66
(dp656
g86
g87
ssg75
g650
sg68
(lp657
g471
asbag61
(g82
g63
NtRp658
(dp659
g66
(dp660
g93
g94
ssg75
g650
sg68
(lp661
S':'
asbag61
(g82
g63
NtRp662
(dp663
g66
(dp664
sg75
g650
sg68
(lp665
g61
(g62
g63
NtRp666
(dp667
g66
(dp668
g74
I3
ssg75
g662
sg68
(lp669
S''
asbasbasbasbasbasbasbasbasbasbasbag61
(g77
g63
NtRp670
(dp671
g66
(dp672
sg75
g71
sg68
(lp673
g61
(g82
g63
NtRp674
(dp675
g66
(dp676
g86
g87
ssg75
g670
sg68
(lp677
S'env'
p678
asbag61
(g82
g63
NtRp679
(dp680
g66
(dp681
g93
g94
ssg75
g670
sg68
(lp682
S':'
asbag61
(g82
g63
NtRp683
(dp684
g66
(dp685
sg75
g670
sg68
(lp686
g61
(g62
g63
NtRp687
(dp688
g66
(dp689
g74
I5
ssg75
g683
sg68
(lp690
g61
(g70
g63
NtRp691
(dp692
g66
(dp693
g74
I4
ssg75
Nsg68
(lp694
g61
(g77
g63
NtRp695
(dp696
g66
(dp697
sg75
g691
sg68
(lp698
g61
(g82
g63
NtRp699
(dp700
g66
(dp701
g86
g87
ssg75
g695
sg68
(lp702
S'app_folders'
p703
asbag61
(g82
g63
NtRp704
(dp705
g66
(dp706
g93
g94
ssg75
g695
sg68
(lp707
S':'
asbag61
(g82
g63
NtRp708
(dp709
g66
(dp710
sg75
g695
sg68
(lp711
g61
(g62
g63
NtRp712
(dp713
g66
(dp714
g74
I4
ssg75
g708
sg68
(lp715
S"set(['/var/www/conferencia/applications/projeto/'])"
p716
asbasbasbag61
(g77
g63
NtRp717
(dp718
g66
(dp719
sg75
g691
sg68
(lp720
g61
(g82
g63
NtRp721
(dp722
g66
(dp723
g86
g87
ssg75
g717
sg68
(lp724
S'applications_parent'
p725
asbag61
(g82
g63
NtRp726
(dp727
g66
(dp728
g93
g94
ssg75
g717
sg68
(lp729
S':'
asbag61
(g82
g63
NtRp730
(dp731
g66
(dp732
sg75
g717
sg68
(lp733
g61
(g62
g63
NtRp734
(dp735
g66
(dp736
g74
I4
ssg75
g730
sg68
(lp737
S'/var/www/conferencia'
p738
asbasbasbag61
(g77
g63
NtRp739
(dp740
g66
(dp741
sg75
g691
sg68
(lp742
g61
(g82
g63
NtRp743
(dp744
g66
(dp745
g86
g87
ssg75
g739
sg68
(lp746
S'cmd_args'
p747
asbag61
(g82
g63
NtRp748
(dp749
g66
(dp750
g93
g94
ssg75
g739
sg68
(lp751
S':'
asbag61
(g82
g63
NtRp752
(dp753
g66
(dp754
sg75
g739
sg68
(lp755
g61
(g62
g63
NtRp756
(dp757
g66
(dp758
g74
I4
ssg75
g752
sg68
(lp759
g61
(g70
g63
NtRp760
(dp761
g66
(dp762
g74
I3
ssg75
Nsg68
(lp763
sbasbasbasbag61
(g77
g63
NtRp764
(dp765
g66
(dp766
sg75
g691
sg68
(lp767
g61
(g82
g63
NtRp768
(dp769
g66
(dp770
g86
g87
ssg75
g764
sg68
(lp771
S'cmd_options'
p772
asbag61
(g82
g63
NtRp773
(dp774
g66
(dp775
g93
g94
ssg75
g764
sg68
(lp776
S':'
asbag61
(g82
g63
NtRp777
(dp778
g66
(dp779
sg75
g764
sg68
(lp780
g61
(g62
g63
NtRp781
(dp782
g66
(dp783
g74
I4
ssg75
g777
sg68
(lp784
S"<Values at 0x221c248: {'verbose': False, 'ip': '127.0.0.1', 'with_scheduler': False, 'ips': [], 'shutdown_timeout': 5, 'taskbar': False, 'port': 8000, 'maxthreads': None, 'softcron': False, 'server_name': 'fernando-workstation', 'bpython': False, 'nogui': False, 'pid_filename': 'httpserver.pid', 'extcron': False, 'runcron': False, 'run_system_tests': False, 'test': None, 'folder': '/var/www/conferencia', 'config': '', 'minthreads': None, 'winservice': '', 'shell': None, 'run': '', 'log_filename': 'httpserver.log', 'debuglevel': 30, 'args': [''], 'socket_timeout': 5, 'ssl_ca_certificate': None, 'scheduler': None, 'profiler_filename': None, 'ssl_private_key': '', 'scheduler_groups': None, 'password': '123456', 'request_queue_size': 5, 'ssl_certificate': '', 'cronjob': False, 'numthreads': None, 'quiet': False, 'interfaces': None, 'import_models': False, 'timeout': 10, 'plain': False, 'nobanner': False}>"
p785
asbasbasbag61
(g77
g63
NtRp786
(dp787
g66
(dp788
sg75
g691
sg68
(lp789
g61
(g82
g63
NtRp790
(dp791
g66
(dp792
g86
g87
ssg75
g786
sg68
(lp793
S'db_sessions'
p794
asbag61
(g82
g63
NtRp795
(dp796
g66
(dp797
g93
g94
ssg75
g786
sg68
(lp798
S':'
asbag61
(g82
g63
NtRp799
(dp800
g66
(dp801
sg75
g786
sg68
(lp802
g61
(g62
g63
NtRp803
(dp804
g66
(dp805
g74
I4
ssg75
g799
sg68
(lp806
S'set([])'
p807
asbasbasbag61
(g77
g63
NtRp808
(dp809
g66
(dp810
sg75
g691
sg68
(lp811
g61
(g82
g63
NtRp812
(dp813
g66
(dp814
g86
g87
ssg75
g808
sg68
(lp815
S'debugging'
p816
asbag61
(g82
g63
NtRp817
(dp818
g66
(dp819
g93
g94
ssg75
g808
sg68
(lp820
S':'
asbag61
(g82
g63
NtRp821
(dp822
g66
(dp823
sg75
g808
sg68
(lp824
g61
(g62
g63
NtRp825
(dp826
g66
(dp827
g74
I4
ssg75
g821
sg68
(lp828
g104
asbasbasbag61
(g77
g63
NtRp829
(dp830
g66
(dp831
sg75
g691
sg68
(lp832
g61
(g82
g63
NtRp833
(dp834
g66
(dp835
g86
g87
ssg75
g829
sg68
(lp836
S'gluon_parent'
p837
asbag61
(g82
g63
NtRp838
(dp839
g66
(dp840
g93
g94
ssg75
g829
sg68
(lp841
S':'
asbag61
(g82
g63
NtRp842
(dp843
g66
(dp844
sg75
g829
sg68
(lp845
g61
(g62
g63
NtRp846
(dp847
g66
(dp848
g74
I4
ssg75
g842
sg68
(lp849
S'/var/www/conferencia'
p850
asbasbasbag61
(g77
g63
NtRp851
(dp852
g66
(dp853
sg75
g691
sg68
(lp854
g61
(g82
g63
NtRp855
(dp856
g66
(dp857
g86
g87
ssg75
g851
sg68
(lp858
S'http_accept'
p859
asbag61
(g82
g63
NtRp860
(dp861
g66
(dp862
g93
g94
ssg75
g851
sg68
(lp863
S':'
asbag61
(g82
g63
NtRp864
(dp865
g66
(dp866
sg75
g851
sg68
(lp867
g61
(g62
g63
NtRp868
(dp869
g66
(dp870
g74
I4
ssg75
g864
sg68
(lp871
S'text/html,application/xhtml+xml,application/xml;q=0.9,*/*;q=0.8'
p872
asbasbasbag61
(g77
g63
NtRp873
(dp874
g66
(dp875
sg75
g691
sg68
(lp876
g61
(g82
g63
NtRp877
(dp878
g66
(dp879
g86
g87
ssg75
g873
sg68
(lp880
S'http_accept_charset'
p881
asbag61
(g82
g63
NtRp882
(dp883
g66
(dp884
g93
g94
ssg75
g873
sg68
(lp885
S':'
asbag61
(g82
g63
NtRp886
(dp887
g66
(dp888
sg75
g873
sg68
(lp889
g61
(g62
g63
NtRp890
(dp891
g66
(dp892
g74
I4
ssg75
g886
sg68
(lp893
S'ISO-8859-1,utf-8;q=0.7,*;q=0.3'
p894
asbasbasbag61
(g77
g63
NtRp895
(dp896
g66
(dp897
sg75
g691
sg68
(lp898
g61
(g82
g63
NtRp899
(dp900
g66
(dp901
g86
g87
ssg75
g895
sg68
(lp902
S'http_accept_encoding'
p903
asbag61
(g82
g63
NtRp904
(dp905
g66
(dp906
g93
g94
ssg75
g895
sg68
(lp907
S':'
asbag61
(g82
g63
NtRp908
(dp909
g66
(dp910
sg75
g895
sg68
(lp911
g61
(g62
g63
NtRp912
(dp913
g66
(dp914
g74
I4
ssg75
g908
sg68
(lp915
S'gzip,deflate,sdch'
p916
asbasbasbag61
(g77
g63
NtRp917
(dp918
g66
(dp919
sg75
g691
sg68
(lp920
g61
(g82
g63
NtRp921
(dp922
g66
(dp923
g86
g87
ssg75
g917
sg68
(lp924
S'http_accept_language'
p925
asbag61
(g82
g63
NtRp926
(dp927
g66
(dp928
g93
g94
ssg75
g917
sg68
(lp929
S':'
asbag61
(g82
g63
NtRp930
(dp931
g66
(dp932
sg75
g917
sg68
(lp933
g61
(g62
g63
NtRp934
(dp935
g66
(dp936
g74
I4
ssg75
g930
sg68
(lp937
S'pt-BR,pt;q=0.8,en-US;q=0.6,en;q=0.4'
p938
asbasbasbag61
(g77
g63
NtRp939
(dp940
g66
(dp941
sg75
g691
sg68
(lp942
g61
(g82
g63
NtRp943
(dp944
g66
(dp945
g86
g87
ssg75
g939
sg68
(lp946
S'http_connection'
p947
asbag61
(g82
g63
NtRp948
(dp949
g66
(dp950
g93
g94
ssg75
g939
sg68
(lp951
S':'
asbag61
(g82
g63
NtRp952
(dp953
g66
(dp954
sg75
g939
sg68
(lp955
g61
(g62
g63
NtRp956
(dp957
g66
(dp958
g74
I4
ssg75
g952
sg68
(lp959
S'keep-alive'
p960
asbasbasbag61
(g77
g63
NtRp961
(dp962
g66
(dp963
sg75
g691
sg68
(lp964
g61
(g82
g63
NtRp965
(dp966
g66
(dp967
g86
g87
ssg75
g961
sg68
(lp968
S'http_cookie'
p969
asbag61
(g82
g63
NtRp970
(dp971
g66
(dp972
g93
g94
ssg75
g961
sg68
(lp973
S':'
asbag61
(g82
g63
NtRp974
(dp975
g66
(dp976
sg75
g961
sg68
(lp977
g61
(g62
g63
NtRp978
(dp979
g66
(dp980
g74
I4
ssg75
g974
sg68
(lp981
S'session_id_admin=127.0.0.1-f08163e7-63a0-4e97-8334-13b9dc892d78; session_id_projeto=127.0.0.1-0fe02c32-0739-4f06-a369-3bba6377da8b'
p982
asbasbasbag61
(g77
g63
NtRp983
(dp984
g66
(dp985
sg75
g691
sg68
(lp986
g61
(g82
g63
NtRp987
(dp988
g66
(dp989
g86
g87
ssg75
g983
sg68
(lp990
S'http_host'
p991
asbag61
(g82
g63
NtRp992
(dp993
g66
(dp994
g93
g94
ssg75
g983
sg68
(lp995
S':'
asbag61
(g82
g63
NtRp996
(dp997
g66
(dp998
sg75
g983
sg68
(lp999
g61
(g62
g63
NtRp1000
(dp1001
g66
(dp1002
g74
I4
ssg75
g996
sg68
(lp1003
S'127.0.0.1:8000'
p1004
asbasbasbag61
(g77
g63
NtRp1005
(dp1006
g66
(dp1007
sg75
g691
sg68
(lp1008
g61
(g82
g63
NtRp1009
(dp1010
g66
(dp1011
g86
g87
ssg75
g1005
sg68
(lp1012
S'http_referer'
p1013
asbag61
(g82
g63
NtRp1014
(dp1015
g66
(dp1016
g93
g94
ssg75
g1005
sg68
(lp1017
S':'
asbag61
(g82
g63
NtRp1018
(dp1019
g66
(dp1020
sg75
g1005
sg68
(lp1021
g61
(g62
g63
NtRp1022
(dp1023
g66
(dp1024
g74
I4
ssg75
g1018
sg68
(lp1025
S'http://127.0.0.1:8000/show_cliente'
p1026
asbasbasbag61
(g77
g63
NtRp1027
(dp1028
g66
(dp1029
sg75
g691
sg68
(lp1030
g61
(g82
g63
NtRp1031
(dp1032
g66
(dp1033
g86
g87
ssg75
g1027
sg68
(lp1034
S'http_user_agent'
p1035
asbag61
(g82
g63
NtRp1036
(dp1037
g66
(dp1038
g93
g94
ssg75
g1027
sg68
(lp1039
S':'
asbag61
(g82
g63
NtRp1040
(dp1041
g66
(dp1042
sg75
g1027
sg68
(lp1043
g61
(g62
g63
NtRp1044
(dp1045
g66
(dp1046
g74
I4
ssg75
g1040
sg68
(lp1047
S'Mozilla/5.0 (X11; Linux x86_64) AppleWebKit/537.4 (KHTML, like Gecko) Ubuntu/12.10 Chromium/22.0.1229.94 Chrome/22.0.1229.94 Safari/537.4'
p1048
asbasbasbag61
(g77
g63
NtRp1049
(dp1050
g66
(dp1051
sg75
g691
sg68
(lp1052
g61
(g82
g63
NtRp1053
(dp1054
g66
(dp1055
g86
g87
ssg75
g1049
sg68
(lp1056
S'is_jython'
p1057
asbag61
(g82
g63
NtRp1058
(dp1059
g66
(dp1060
g93
g94
ssg75
g1049
sg68
(lp1061
S':'
asbag61
(g82
g63
NtRp1062
(dp1063
g66
(dp1064
sg75
g1049
sg68
(lp1065
g61
(g62
g63
NtRp1066
(dp1067
g66
(dp1068
g74
I4
ssg75
g1062
sg68
(lp1069
g104
asbasbasbag61
(g77
g63
NtRp1070
(dp1071
g66
(dp1072
sg75
g691
sg68
(lp1073
g61
(g82
g63
NtRp1074
(dp1075
g66
(dp1076
g86
g87
ssg75
g1070
sg68
(lp1077
S'is_pypy'
p1078
asbag61
(g82
g63
NtRp1079
(dp1080
g66
(dp1081
g93
g94
ssg75
g1070
sg68
(lp1082
S':'
asbag61
(g82
g63
NtRp1083
(dp1084
g66
(dp1085
sg75
g1070
sg68
(lp1086
g61
(g62
g63
NtRp1087
(dp1088
g66
(dp1089
g74
I4
ssg75
g1083
sg68
(lp1090
g104
asbasbasbag61
(g77
g63
NtRp1091
(dp1092
g66
(dp1093
sg75
g691
sg68
(lp1094
g61
(g82
g63
NtRp1095
(dp1096
g66
(dp1097
g86
g87
ssg75
g1091
sg68
(lp1098
S'local_hosts'
p1099
asbag61
(g82
g63
NtRp1100
(dp1101
g66
(dp1102
g93
g94
ssg75
g1091
sg68
(lp1103
S':'
asbag61
(g82
g63
NtRp1104
(dp1105
g66
(dp1106
sg75
g1091
sg68
(lp1107
g61
(g62
g63
NtRp1108
(dp1109
g66
(dp1110
g74
I4
ssg75
g1104
sg68
(lp1111
g61
(g70
g63
NtRp1112
(dp1113
g66
(dp1114
g74
I3
ssg75
Nsg68
(lp1115
g61
(g77
g63
NtRp1116
(dp1117
g66
(dp1118
sg75
g1112
sg68
(lp1119
g61
(g82
g63
NtRp1120
(dp1121
g66
(dp1122
sg75
g1116
sg68
(lp1123
g61
(g62
g63
NtRp1124
(dp1125
g66
(dp1126
g74
I3
ssg75
g1120
sg68
(lp1127
S'::1'
p1128
asbasbasbag61
(g77
g63
NtRp1129
(dp1130
g66
(dp1131
sg75
g1112
sg68
(lp1132
g61
(g82
g63
NtRp1133
(dp1134
g66
(dp1135
sg75
g1129
sg68
(lp1136
g61
(g62
g63
NtRp1137
(dp1138
g66
(dp1139
g74
I3
ssg75
g1133
sg68
(lp1140
S'::ffff:127.0.0.1'
p1141
asbasbasbag61
(g77
g63
NtRp1142
(dp1143
g66
(dp1144
sg75
g1112
sg68
(lp1145
g61
(g82
g63
NtRp1146
(dp1147
g66
(dp1148
sg75
g1142
sg68
(lp1149
g61
(g62
g63
NtRp1150
(dp1151
g66
(dp1152
g74
I3
ssg75
g1146
sg68
(lp1153
S'127.0.0.1'
p1154
asbasbasbag61
(g77
g63
NtRp1155
(dp1156
g66
(dp1157
sg75
g1112
sg68
(lp1158
g61
(g82
g63
NtRp1159
(dp1160
g66
(dp1161
sg75
g1155
sg68
(lp1162
g61
(g62
g63
NtRp1163
(dp1164
g66
(dp1165
g74
I3
ssg75
g1159
sg68
(lp1166
S'fernando-workstation'
p1167
asbasbasbasbasbasbasbag61
(g77
g63
NtRp1168
(dp1169
g66
(dp1170
sg75
g691
sg68
(lp1171
g61
(g82
g63
NtRp1172
(dp1173
g66
(dp1174
g86
g87
ssg75
g1168
sg68
(lp1175
S'path_info'
p1176
asbag61
(g82
g63
NtRp1177
(dp1178
g66
(dp1179
g93
g94
ssg75
g1168
sg68
(lp1180
S':'
asbag61
(g82
g63
NtRp1181
(dp1182
g66
(dp1183
sg75
g1168
sg68
(lp1184
g61
(g62
g63
NtRp1185
(dp1186
g66
(dp1187
g74
I4
ssg75
g1181
sg68
(lp1188
S'/show_cliente/new/meetme'
p1189
asbasbasbag61
(g77
g63
NtRp1190
(dp1191
g66
(dp1192
sg75
g691
sg68
(lp1193
g61
(g82
g63
NtRp1194
(dp1195
g66
(dp1196
g86
g87
ssg75
g1190
sg68
(lp1197
S'query_string'
p1198
asbag61
(g82
g63
NtRp1199
(dp1200
g66
(dp1201
g93
g94
ssg75
g1190
sg68
(lp1202
S':'
asbag61
(g82
g63
NtRp1203
(dp1204
g66
(dp1205
sg75
g1190
sg68
(lp1206
g61
(g62
g63
NtRp1207
(dp1208
g66
(dp1209
g74
I4
ssg75
g1203
sg68
(lp1210
S''
asbasbasbag61
(g77
g63
NtRp1211
(dp1212
g66
(dp1213
sg75
g691
sg68
(lp1214
g61
(g82
g63
NtRp1215
(dp1216
g66
(dp1217
g86
g87
ssg75
g1211
sg68
(lp1218
S'remote_addr'
p1219
asbag61
(g82
g63
NtRp1220
(dp1221
g66
(dp1222
g93
g94
ssg75
g1211
sg68
(lp1223
S':'
asbag61
(g82
g63
NtRp1224
(dp1225
g66
(dp1226
sg75
g1211
sg68
(lp1227
g61
(g62
g63
NtRp1228
(dp1229
g66
(dp1230
g74
I4
ssg75
g1224
sg68
(lp1231
g242
asbasbasbag61
(g77
g63
NtRp1232
(dp1233
g66
(dp1234
sg75
g691
sg68
(lp1235
g61
(g82
g63
NtRp1236
(dp1237
g66
(dp1238
g86
g87
ssg75
g1232
sg68
(lp1239
S'remote_port'
p1240
asbag61
(g82
g63
NtRp1241
(dp1242
g66
(dp1243
g93
g94
ssg75
g1232
sg68
(lp1244
S':'
asbag61
(g82
g63
NtRp1245
(dp1246
g66
(dp1247
sg75
g1232
sg68
(lp1248
g61
(g62
g63
NtRp1249
(dp1250
g66
(dp1251
g74
I4
ssg75
g1245
sg68
(lp1252
S'45371'
p1253
asbasbasbag61
(g77
g63
NtRp1254
(dp1255
g66
(dp1256
sg75
g691
sg68
(lp1257
g61
(g82
g63
NtRp1258
(dp1259
g66
(dp1260
g86
g87
ssg75
g1254
sg68
(lp1261
S'request_method'
p1262
asbag61
(g82
g63
NtRp1263
(dp1264
g66
(dp1265
g93
g94
ssg75
g1254
sg68
(lp1266
S':'
asbag61
(g82
g63
NtRp1267
(dp1268
g66
(dp1269
sg75
g1254
sg68
(lp1270
g61
(g62
g63
NtRp1271
(dp1272
g66
(dp1273
g74
I4
ssg75
g1267
sg68
(lp1274
S'GET'
p1275
asbasbasbag61
(g77
g63
NtRp1276
(dp1277
g66
(dp1278
sg75
g691
sg68
(lp1279
g61
(g82
g63
NtRp1280
(dp1281
g66
(dp1282
g86
g87
ssg75
g1276
sg68
(lp1283
S'request_uri'
p1284
asbag61
(g82
g63
NtRp1285
(dp1286
g66
(dp1287
g93
g94
ssg75
g1276
sg68
(lp1288
S':'
asbag61
(g82
g63
NtRp1289
(dp1290
g66
(dp1291
sg75
g1276
sg68
(lp1292
g61
(g62
g63
NtRp1293
(dp1294
g66
(dp1295
g74
I4
ssg75
g1289
sg68
(lp1296
S'/projeto/initial/show_cliente/new/meetme'
p1297
asbasbasbag61
(g77
g63
NtRp1298
(dp1299
g66
(dp1300
sg75
g691
sg68
(lp1301
g61
(g82
g63
NtRp1302
(dp1303
g66
(dp1304
g86
g87
ssg75
g1298
sg68
(lp1305
S'script_name'
p1306
asbag61
(g82
g63
NtRp1307
(dp1308
g66
(dp1309
g93
g94
ssg75
g1298
sg68
(lp1310
S':'
asbag61
(g82
g63
NtRp1311
(dp1312
g66
(dp1313
sg75
g1298
sg68
(lp1314
g61
(g62
g63
NtRp1315
(dp1316
g66
(dp1317
g74
I4
ssg75
g1311
sg68
(lp1318
S''
asbasbasbag61
(g77
g63
NtRp1319
(dp1320
g66
(dp1321
sg75
g691
sg68
(lp1322
g61
(g82
g63
NtRp1323
(dp1324
g66
(dp1325
g86
g87
ssg75
g1319
sg68
(lp1326
S'server_name'
p1327
asbag61
(g82
g63
NtRp1328
(dp1329
g66
(dp1330
g93
g94
ssg75
g1319
sg68
(lp1331
S':'
asbag61
(g82
g63
NtRp1332
(dp1333
g66
(dp1334
sg75
g1319
sg68
(lp1335
g61
(g62
g63
NtRp1336
(dp1337
g66
(dp1338
g74
I4
ssg75
g1332
sg68
(lp1339
S'fernando-workstation'
p1340
asbasbasbag61
(g77
g63
NtRp1341
(dp1342
g66
(dp1343
sg75
g691
sg68
(lp1344
g61
(g82
g63
NtRp1345
(dp1346
g66
(dp1347
g86
g87
ssg75
g1341
sg68
(lp1348
S'server_port'
p1349
asbag61
(g82
g63
NtRp1350
(dp1351
g66
(dp1352
g93
g94
ssg75
g1341
sg68
(lp1353
S':'
asbag61
(g82
g63
NtRp1354
(dp1355
g66
(dp1356
sg75
g1341
sg68
(lp1357
g61
(g62
g63
NtRp1358
(dp1359
g66
(dp1360
g74
I4
ssg75
g1354
sg68
(lp1361
S'8000'
p1362
asbasbasbag61
(g77
g63
NtRp1363
(dp1364
g66
(dp1365
sg75
g691
sg68
(lp1366
g61
(g82
g63
NtRp1367
(dp1368
g66
(dp1369
g86
g87
ssg75
g1363
sg68
(lp1370
S'server_protocol'
p1371
asbag61
(g82
g63
NtRp1372
(dp1373
g66
(dp1374
g93
g94
ssg75
g1363
sg68
(lp1375
S':'
asbag61
(g82
g63
NtRp1376
(dp1377
g66
(dp1378
sg75
g1363
sg68
(lp1379
g61
(g62
g63
NtRp1380
(dp1381
g66
(dp1382
g74
I4
ssg75
g1376
sg68
(lp1383
S'HTTP/1.1'
p1384
asbasbasbag61
(g77
g63
NtRp1385
(dp1386
g66
(dp1387
sg75
g691
sg68
(lp1388
g61
(g82
g63
NtRp1389
(dp1390
g66
(dp1391
g86
g87
ssg75
g1385
sg68
(lp1392
S'server_software'
p1393
asbag61
(g82
g63
NtRp1394
(dp1395
g66
(dp1396
g93
g94
ssg75
g1385
sg68
(lp1397
S':'
asbag61
(g82
g63
NtRp1398
(dp1399
g66
(dp1400
sg75
g1385
sg68
(lp1401
g61
(g62
g63
NtRp1402
(dp1403
g66
(dp1404
g74
I4
ssg75
g1398
sg68
(lp1405
S'Rocket 1.2.6'
p1406
asbasbasbag61
(g77
g63
NtRp1407
(dp1408
g66
(dp1409
sg75
g691
sg68
(lp1410
g61
(g82
g63
NtRp1411
(dp1412
g66
(dp1413
g86
g87
ssg75
g1407
sg68
(lp1414
S'web2py_original_uri'
p1415
asbag61
(g82
g63
NtRp1416
(dp1417
g66
(dp1418
g93
g94
ssg75
g1407
sg68
(lp1419
S':'
asbag61
(g82
g63
NtRp1420
(dp1421
g66
(dp1422
sg75
g1407
sg68
(lp1423
g61
(g62
g63
NtRp1424
(dp1425
g66
(dp1426
g74
I4
ssg75
g1420
sg68
(lp1427
g1189
asbasbasbag61
(g77
g63
NtRp1428
(dp1429
g66
(dp1430
sg75
g691
sg68
(lp1431
g61
(g82
g63
NtRp1432
(dp1433
g66
(dp1434
g86
g87
ssg75
g1428
sg68
(lp1435
S'web2py_path'
p1436
asbag61
(g82
g63
NtRp1437
(dp1438
g66
(dp1439
g93
g94
ssg75
g1428
sg68
(lp1440
S':'
asbag61
(g82
g63
NtRp1441
(dp1442
g66
(dp1443
sg75
g1428
sg68
(lp1444
g61
(g62
g63
NtRp1445
(dp1446
g66
(dp1447
g74
I4
ssg75
g1441
sg68
(lp1448
g738
asbasbasbag61
(g77
g63
NtRp1449
(dp1450
g66
(dp1451
sg75
g691
sg68
(lp1452
g61
(g82
g63
NtRp1453
(dp1454
g66
(dp1455
g86
g87
ssg75
g1449
sg68
(lp1456
S'web2py_version'
p1457
asbag61
(g82
g63
NtRp1458
(dp1459
g66
(dp1460
g93
g94
ssg75
g1449
sg68
(lp1461
S':'
asbag61
(g82
g63
NtRp1462
(dp1463
g66
(dp1464
sg75
g1449
sg68
(lp1465
g61
(g62
g63
NtRp1466
(dp1467
g66
(dp1468
g74
I4
ssg75
g1462
sg68
(lp1469
g61
(g70
g63
NtRp1470
(dp1471
g66
(dp1472
g74
I3
ssg75
Nsg68
(lp1473
g61
(g77
g63
NtRp1474
(dp1475
g66
(dp1476
sg75
g1470
sg68
(lp1477
g61
(g82
g63
NtRp1478
(dp1479
g66
(dp1480
sg75
g1474
sg68
(lp1481
g61
(g62
g63
NtRp1482
(dp1483
g66
(dp1484
g74
I3
ssg75
g1478
sg68
(lp1485
S'2'
asbasbasbag61
(g77
g63
NtRp1486
(dp1487
g66
(dp1488
sg75
g1470
sg68
(lp1489
g61
(g82
g63
NtRp1490
(dp1491
g66
(dp1492
sg75
g1486
sg68
(lp1493
g61
(g62
g63
NtRp1494
(dp1495
g66
(dp1496
g74
I3
ssg75
g1490
sg68
(lp1497
S'3'
asbasbasbag61
(g77
g63
NtRp1498
(dp1499
g66
(dp1500
sg75
g1470
sg68
(lp1501
g61
(g82
g63
NtRp1502
(dp1503
g66
(dp1504
sg75
g1498
sg68
(lp1505
g61
(g62
g63
NtRp1506
(dp1507
g66
(dp1508
g74
I3
ssg75
g1502
sg68
(lp1509
S'2'
asbasbasbag61
(g77
g63
NtRp1510
(dp1511
g66
(dp1512
sg75
g1470
sg68
(lp1513
g61
(g82
g63
NtRp1514
(dp1515
g66
(dp1516
sg75
g1510
sg68
(lp1517
g61
(g62
g63
NtRp1518
(dp1519
g66
(dp1520
g74
I3
ssg75
g1514
sg68
(lp1521
S'datetime.datetime(2012, 12, 17, 15, 3, 30)'
p1522
asbasbasbag61
(g77
g63
NtRp1523
(dp1524
g66
(dp1525
sg75
g1470
sg68
(lp1526
g61
(g82
g63
NtRp1527
(dp1528
g66
(dp1529
sg75
g1523
sg68
(lp1530
g61
(g62
g63
NtRp1531
(dp1532
g66
(dp1533
g74
I3
ssg75
g1527
sg68
(lp1534
S'stable'
p1535
asbasbasbasbasbasbasbag61
(g77
g63
NtRp1536
(dp1537
g66
(dp1538
sg75
g691
sg68
(lp1539
g61
(g82
g63
NtRp1540
(dp1541
g66
(dp1542
g86
g87
ssg75
g1536
sg68
(lp1543
S'wsgi_errors'
p1544
asbag61
(g82
g63
NtRp1545
(dp1546
g66
(dp1547
g93
g94
ssg75
g1536
sg68
(lp1548
S':'
asbag61
(g82
g63
NtRp1549
(dp1550
g66
(dp1551
sg75
g1536
sg68
(lp1552
g61
(g62
g63
NtRp1553
(dp1554
g66
(dp1555
g74
I4
ssg75
g1549
sg68
(lp1556
S"<open file '<stderr>', mode 'w' at 0x7f3308ed3270>"
p1557
asbasbasbag61
(g77
g63
NtRp1558
(dp1559
g66
(dp1560
sg75
g691
sg68
(lp1561
g61
(g82
g63
NtRp1562
(dp1563
g66
(dp1564
g86
g87
ssg75
g1558
sg68
(lp1565
S'wsgi_file_wrapper'
p1566
asbag61
(g82
g63
NtRp1567
(dp1568
g66
(dp1569
g93
g94
ssg75
g1558
sg68
(lp1570
S':'
asbag61
(g82
g63
NtRp1571
(dp1572
g66
(dp1573
sg75
g1558
sg68
(lp1574
g61
(g62
g63
NtRp1575
(dp1576
g66
(dp1577
g74
I4
ssg75
g1571
sg68
(lp1578
S'<class wsgiref.util.FileWrapper at 0x2194598>'
p1579
asbasbasbag61
(g77
g63
NtRp1580
(dp1581
g66
(dp1582
sg75
g691
sg68
(lp1583
g61
(g82
g63
NtRp1584
(dp1585
g66
(dp1586
g86
g87
ssg75
g1580
sg68
(lp1587
S'wsgi_input'
p1588
asbag61
(g82
g63
NtRp1589
(dp1590
g66
(dp1591
g93
g94
ssg75
g1580
sg68
(lp1592
S':'
asbag61
(g82
g63
NtRp1593
(dp1594
g66
(dp1595
sg75
g1580
sg68
(lp1596
g61
(g62
g63
NtRp1597
(dp1598
g66
(dp1599
g74
I4
ssg75
g1593
sg68
(lp1600
S'<socket._fileobject object at 0x7f32fc147250>'
p1601
asbasbasbag61
(g77
g63
NtRp1602
(dp1603
g66
(dp1604
sg75
g691
sg68
(lp1605
g61
(g82
g63
NtRp1606
(dp1607
g66
(dp1608
g86
g87
ssg75
g1602
sg68
(lp1609
S'wsgi_multiprocess'
p1610
asbag61
(g82
g63
NtRp1611
(dp1612
g66
(dp1613
g93
g94
ssg75
g1602
sg68
(lp1614
S':'
asbag61
(g82
g63
NtRp1615
(dp1616
g66
(dp1617
sg75
g1602
sg68
(lp1618
g61
(g62
g63
NtRp1619
(dp1620
g66
(dp1621
g74
I4
ssg75
g1615
sg68
(lp1622
g104
asbasbasbag61
(g77
g63
NtRp1623
(dp1624
g66
(dp1625
sg75
g691
sg68
(lp1626
g61
(g82
g63
NtRp1627
(dp1628
g66
(dp1629
g86
g87
ssg75
g1623
sg68
(lp1630
S'wsgi_multithread'
p1631
asbag61
(g82
g63
NtRp1632
(dp1633
g66
(dp1634
g93
g94
ssg75
g1623
sg68
(lp1635
S':'
asbag61
(g82
g63
NtRp1636
(dp1637
g66
(dp1638
sg75
g1623
sg68
(lp1639
g61
(g62
g63
NtRp1640
(dp1641
g66
(dp1642
g74
I4
ssg75
g1636
sg68
(lp1643
S'True'
p1644
asbasbasbag61
(g77
g63
NtRp1645
(dp1646
g66
(dp1647
sg75
g691
sg68
(lp1648
g61
(g82
g63
NtRp1649
(dp1650
g66
(dp1651
g86
g87
ssg75
g1645
sg68
(lp1652
S'wsgi_run_once'
p1653
asbag61
(g82
g63
NtRp1654
(dp1655
g66
(dp1656
g93
g94
ssg75
g1645
sg68
(lp1657
S':'
asbag61
(g82
g63
NtRp1658
(dp1659
g66
(dp1660
sg75
g1645
sg68
(lp1661
g61
(g62
g63
NtRp1662
(dp1663
g66
(dp1664
g74
I4
ssg75
g1658
sg68
(lp1665
g104
asbasbasbag61
(g77
g63
NtRp1666
(dp1667
g66
(dp1668
sg75
g691
sg68
(lp1669
g61
(g82
g63
NtRp1670
(dp1671
g66
(dp1672
g86
g87
ssg75
g1666
sg68
(lp1673
S'wsgi_url_scheme'
p1674
asbag61
(g82
g63
NtRp1675
(dp1676
g66
(dp1677
g93
g94
ssg75
g1666
sg68
(lp1678
S':'
asbag61
(g82
g63
NtRp1679
(dp1680
g66
(dp1681
sg75
g1666
sg68
(lp1682
g61
(g62
g63
NtRp1683
(dp1684
g66
(dp1685
g74
I4
ssg75
g1679
sg68
(lp1686
S'http'
p1687
asbasbasbag61
(g77
g63
NtRp1688
(dp1689
g66
(dp1690
sg75
g691
sg68
(lp1691
g61
(g82
g63
NtRp1692
(dp1693
g66
(dp1694
g86
g87
ssg75
g1688
sg68
(lp1695
S'wsgi_version'
p1696
asbag61
(g82
g63
NtRp1697
(dp1698
g66
(dp1699
g93
g94
ssg75
g1688
sg68
(lp1700
S':'
asbag61
(g82
g63
NtRp1701
(dp1702
g66
(dp1703
sg75
g1688
sg68
(lp1704
g61
(g62
g63
NtRp1705
(dp1706
g66
(dp1707
g74
I4
ssg75
g1701
sg68
(lp1708
g61
(g70
g63
NtRp1709
(dp1710
g66
(dp1711
g74
I3
ssg75
Nsg68
(lp1712
g61
(g77
g63
NtRp1713
(dp1714
g66
(dp1715
sg75
g1709
sg68
(lp1716
g61
(g82
g63
NtRp1717
(dp1718
g66
(dp1719
sg75
g1713
sg68
(lp1720
g61
(g62
g63
NtRp1721
(dp1722
g66
(dp1723
g74
I3
ssg75
g1717
sg68
(lp1724
S'1'
asbasbasbag61
(g77
g63
NtRp1725
(dp1726
g66
(dp1727
sg75
g1709
sg68
(lp1728
g61
(g82
g63
NtRp1729
(dp1730
g66
(dp1731
sg75
g1725
sg68
(lp1732
g61
(g62
g63
NtRp1733
(dp1734
g66
(dp1735
g74
I3
ssg75
g1729
sg68
(lp1736
S'0'
asbasbasbasbasbasbasbasbasbasbasbag61
(g77
g63
NtRp1737
(dp1738
g66
(dp1739
sg75
g71
sg68
(lp1740
g61
(g82
g63
NtRp1741
(dp1742
g66
(dp1743
g86
g87
ssg75
g1737
sg68
(lp1744
S'extension'
p1745
asbag61
(g82
g63
NtRp1746
(dp1747
g66
(dp1748
g93
g94
ssg75
g1737
sg68
(lp1749
S':'
asbag61
(g82
g63
NtRp1750
(dp1751
g66
(dp1752
sg75
g1737
sg68
(lp1753
g61
(g62
g63
NtRp1754
(dp1755
g66
(dp1756
g74
I5
ssg75
g1750
sg68
(lp1757
S'html'
p1758
asbasbasbag61
(g77
g63
NtRp1759
(dp1760
g66
(dp1761
sg75
g71
sg68
(lp1762
g61
(g82
g63
NtRp1763
(dp1764
g66
(dp1765
g86
g87
ssg75
g1759
sg68
(lp1766
S'folder'
p1767
asbag61
(g82
g63
NtRp1768
(dp1769
g66
(dp1770
g93
g94
ssg75
g1759
sg68
(lp1771
S':'
asbag61
(g82
g63
NtRp1772
(dp1773
g66
(dp1774
sg75
g1759
sg68
(lp1775
g61
(g62
g63
NtRp1776
(dp1777
g66
(dp1778
g74
I5
ssg75
g1772
sg68
(lp1779
S'/var/www/conferencia/applications/projeto/'
p1780
asbasbasbag61
(g77
g63
NtRp1781
(dp1782
g66
(dp1783
sg75
g71
sg68
(lp1784
g61
(g82
g63
NtRp1785
(dp1786
g66
(dp1787
g86
g87
ssg75
g1781
sg68
(lp1788
S'function'
p1789
asbag61
(g82
g63
NtRp1790
(dp1791
g66
(dp1792
g93
g94
ssg75
g1781
sg68
(lp1793
S':'
asbag61
(g82
g63
NtRp1794
(dp1795
g66
(dp1796
sg75
g1781
sg68
(lp1797
g61
(g62
g63
NtRp1798
(dp1799
g66
(dp1800
g74
I5
ssg75
g1794
sg68
(lp1801
S'show_cliente'
p1802
asbasbasbag61
(g77
g63
NtRp1803
(dp1804
g66
(dp1805
sg75
g71
sg68
(lp1806
g61
(g82
g63
NtRp1807
(dp1808
g66
(dp1809
g86
g87
ssg75
g1803
sg68
(lp1810
S'get_vars'
p1811
asbag61
(g82
g63
NtRp1812
(dp1813
g66
(dp1814
g93
g94
ssg75
g1803
sg68
(lp1815
S':'
asbag61
(g82
g63
NtRp1816
(dp1817
g66
(dp1818
sg75
g1803
sg68
(lp1819
g61
(g62
g63
NtRp1820
(dp1821
g66
(dp1822
g74
I5
ssg75
g1816
sg68
(lp1823
g61
(g70
g63
NtRp1824
(dp1825
g66
(dp1826
g74
I4
ssg75
Nsg68
(lp1827
sbasbasbasbag61
(g77
g63
NtRp1828
(dp1829
g66
(dp1830
sg75
g71
sg68
(lp1831
g61
(g82
g63
NtRp1832
(dp1833
g66
(dp1834
g86
g87
ssg75
g1828
sg68
(lp1835
S'global_settings'
p1836
asbag61
(g82
g63
NtRp1837
(dp1838
g66
(dp1839
g93
g94
ssg75
g1828
sg68
(lp1840
S':'
asbag61
(g82
g63
NtRp1841
(dp1842
g66
(dp1843
sg75
g1828
sg68
(lp1844
g61
(g62
g63
NtRp1845
(dp1846
g66
(dp1847
g74
I5
ssg75
g1841
sg68
(lp1848
g61
(g70
g63
NtRp1849
(dp1850
g66
(dp1851
g74
I4
ssg75
Nsg68
(lp1852
g61
(g77
g63
NtRp1853
(dp1854
g66
(dp1855
sg75
g1849
sg68
(lp1856
g61
(g82
g63
NtRp1857
(dp1858
g66
(dp1859
g86
g87
ssg75
g1853
sg68
(lp1860
g703
asbag61
(g82
g63
NtRp1861
(dp1862
g66
(dp1863
g93
g94
ssg75
g1853
sg68
(lp1864
S':'
asbag61
(g82
g63
NtRp1865
(dp1866
g66
(dp1867
sg75
g1853
sg68
(lp1868
g61
(g62
g63
NtRp1869
(dp1870
g66
(dp1871
g74
I4
ssg75
g1865
sg68
(lp1872
S"set(['/var/www/conferencia/applications/projeto/'])"
p1873
asbasbasbag61
(g77
g63
NtRp1874
(dp1875
g66
(dp1876
sg75
g1849
sg68
(lp1877
g61
(g82
g63
NtRp1878
(dp1879
g66
(dp1880
g86
g87
ssg75
g1874
sg68
(lp1881
g725
asbag61
(g82
g63
NtRp1882
(dp1883
g66
(dp1884
g93
g94
ssg75
g1874
sg68
(lp1885
S':'
asbag61
(g82
g63
NtRp1886
(dp1887
g66
(dp1888
sg75
g1874
sg68
(lp1889
g61
(g62
g63
NtRp1890
(dp1891
g66
(dp1892
g74
I4
ssg75
g1886
sg68
(lp1893
g738
asbasbasbag61
(g77
g63
NtRp1894
(dp1895
g66
(dp1896
sg75
g1849
sg68
(lp1897
g61
(g82
g63
NtRp1898
(dp1899
g66
(dp1900
g86
g87
ssg75
g1894
sg68
(lp1901
g747
asbag61
(g82
g63
NtRp1902
(dp1903
g66
(dp1904
g93
g94
ssg75
g1894
sg68
(lp1905
S':'
asbag61
(g82
g63
NtRp1906
(dp1907
g66
(dp1908
sg75
g1894
sg68
(lp1909
g61
(g62
g63
NtRp1910
(dp1911
g66
(dp1912
g74
I4
ssg75
g1906
sg68
(lp1913
g61
(g70
g63
NtRp1914
(dp1915
g66
(dp1916
g74
I3
ssg75
Nsg68
(lp1917
sbasbasbasbag61
(g77
g63
NtRp1918
(dp1919
g66
(dp1920
sg75
g1849
sg68
(lp1921
g61
(g82
g63
NtRp1922
(dp1923
g66
(dp1924
g86
g87
ssg75
g1918
sg68
(lp1925
g772
asbag61
(g82
g63
NtRp1926
(dp1927
g66
(dp1928
g93
g94
ssg75
g1918
sg68
(lp1929
S':'
asbag61
(g82
g63
NtRp1930
(dp1931
g66
(dp1932
sg75
g1918
sg68
(lp1933
g61
(g62
g63
NtRp1934
(dp1935
g66
(dp1936
g74
I4
ssg75
g1930
sg68
(lp1937
S"<Values at 0x221c248: {'verbose': False, 'ip': '127.0.0.1', 'with_scheduler': False, 'ips': [], 'shutdown_timeout': 5, 'taskbar': False, 'port': 8000, 'maxthreads': None, 'softcron': False, 'server_name': 'fernando-workstation', 'bpython': False, 'nogui': False, 'pid_filename': 'httpserver.pid', 'extcron': False, 'runcron': False, 'run_system_tests': False, 'test': None, 'folder': '/var/www/conferencia', 'config': '', 'minthreads': None, 'winservice': '', 'shell': None, 'run': '', 'log_filename': 'httpserver.log', 'debuglevel': 30, 'args': [''], 'socket_timeout': 5, 'ssl_ca_certificate': None, 'scheduler': None, 'profiler_filename': None, 'ssl_private_key': '', 'scheduler_groups': None, 'password': '123456', 'request_queue_size': 5, 'ssl_certificate': '', 'cronjob': False, 'numthreads': None, 'quiet': False, 'interfaces': None, 'import_models': False, 'timeout': 10, 'plain': False, 'nobanner': False}>"
p1938
asbasbasbag61
(g77
g63
NtRp1939
(dp1940
g66
(dp1941
sg75
g1849
sg68
(lp1942
g61
(g82
g63
NtRp1943
(dp1944
g66
(dp1945
g86
g87
ssg75
g1939
sg68
(lp1946
g794
asbag61
(g82
g63
NtRp1947
(dp1948
g66
(dp1949
g93
g94
ssg75
g1939
sg68
(lp1950
S':'
asbag61
(g82
g63
NtRp1951
(dp1952
g66
(dp1953
sg75
g1939
sg68
(lp1954
g61
(g62
g63
NtRp1955
(dp1956
g66
(dp1957
g74
I4
ssg75
g1951
sg68
(lp1958
S'set([])'
p1959
asbasbasbag61
(g77
g63
NtRp1960
(dp1961
g66
(dp1962
sg75
g1849
sg68
(lp1963
g61
(g82
g63
NtRp1964
(dp1965
g66
(dp1966
g86
g87
ssg75
g1960
sg68
(lp1967
g816
asbag61
(g82
g63
NtRp1968
(dp1969
g66
(dp1970
g93
g94
ssg75
g1960
sg68
(lp1971
S':'
asbag61
(g82
g63
NtRp1972
(dp1973
g66
(dp1974
sg75
g1960
sg68
(lp1975
g61
(g62
g63
NtRp1976
(dp1977
g66
(dp1978
g74
I4
ssg75
g1972
sg68
(lp1979
g104
asbasbasbag61
(g77
g63
NtRp1980
(dp1981
g66
(dp1982
sg75
g1849
sg68
(lp1983
g61
(g82
g63
NtRp1984
(dp1985
g66
(dp1986
g86
g87
ssg75
g1980
sg68
(lp1987
g837
asbag61
(g82
g63
NtRp1988
(dp1989
g66
(dp1990
g93
g94
ssg75
g1980
sg68
(lp1991
S':'
asbag61
(g82
g63
NtRp1992
(dp1993
g66
(dp1994
sg75
g1980
sg68
(lp1995
g61
(g62
g63
NtRp1996
(dp1997
g66
(dp1998
g74
I4
ssg75
g1992
sg68
(lp1999
g850
asbasbasbag61
(g77
g63
NtRp2000
(dp2001
g66
(dp2002
sg75
g1849
sg68
(lp2003
g61
(g82
g63
NtRp2004
(dp2005
g66
(dp2006
g86
g87
ssg75
g2000
sg68
(lp2007
g1057
asbag61
(g82
g63
NtRp2008
(dp2009
g66
(dp2010
g93
g94
ssg75
g2000
sg68
(lp2011
S':'
asbag61
(g82
g63
NtRp2012
(dp2013
g66
(dp2014
sg75
g2000
sg68
(lp2015
g61
(g62
g63
NtRp2016
(dp2017
g66
(dp2018
g74
I4
ssg75
g2012
sg68
(lp2019
g104
asbasbasbag61
(g77
g63
NtRp2020
(dp2021
g66
(dp2022
sg75
g1849
sg68
(lp2023
g61
(g82
g63
NtRp2024
(dp2025
g66
(dp2026
g86
g87
ssg75
g2020
sg68
(lp2027
g1078
asbag61
(g82
g63
NtRp2028
(dp2029
g66
(dp2030
g93
g94
ssg75
g2020
sg68
(lp2031
S':'
asbag61
(g82
g63
NtRp2032
(dp2033
g66
(dp2034
sg75
g2020
sg68
(lp2035
g61
(g62
g63
NtRp2036
(dp2037
g66
(dp2038
g74
I4
ssg75
g2032
sg68
(lp2039
g104
asbasbasbag61
(g77
g63
NtRp2040
(dp2041
g66
(dp2042
sg75
g1849
sg68
(lp2043
g61
(g82
g63
NtRp2044
(dp2045
g66
(dp2046
g86
g87
ssg75
g2040
sg68
(lp2047
g1099
asbag61
(g82
g63
NtRp2048
(dp2049
g66
(dp2050
g93
g94
ssg75
g2040
sg68
(lp2051
S':'
asbag61
(g82
g63
NtRp2052
(dp2053
g66
(dp2054
sg75
g2040
sg68
(lp2055
g61
(g62
g63
NtRp2056
(dp2057
g66
(dp2058
g74
I4
ssg75
g2052
sg68
(lp2059
g61
(g70
g63
NtRp2060
(dp2061
g66
(dp2062
g74
I3
ssg75
Nsg68
(lp2063
g61
(g77
g63
NtRp2064
(dp2065
g66
(dp2066
sg75
g2060
sg68
(lp2067
g61
(g82
g63
NtRp2068
(dp2069
g66
(dp2070
sg75
g2064
sg68
(lp2071
g61
(g62
g63
NtRp2072
(dp2073
g66
(dp2074
g74
I3
ssg75
g2068
sg68
(lp2075
g1128
asbasbasbag61
(g77
g63
NtRp2076
(dp2077
g66
(dp2078
sg75
g2060
sg68
(lp2079
g61
(g82
g63
NtRp2080
(dp2081
g66
(dp2082
sg75
g2076
sg68
(lp2083
g61
(g62
g63
NtRp2084
(dp2085
g66
(dp2086
g74
I3
ssg75
g2080
sg68
(lp2087
g1141
asbasbasbag61
(g77
g63
NtRp2088
(dp2089
g66
(dp2090
sg75
g2060
sg68
(lp2091
g61
(g82
g63
NtRp2092
(dp2093
g66
(dp2094
sg75
g2088
sg68
(lp2095
g61
(g62
g63
NtRp2096
(dp2097
g66
(dp2098
g74
I3
ssg75
g2092
sg68
(lp2099
g1154
asbasbasbag61
(g77
g63
NtRp2100
(dp2101
g66
(dp2102
sg75
g2060
sg68
(lp2103
g61
(g82
g63
NtRp2104
(dp2105
g66
(dp2106
sg75
g2100
sg68
(lp2107
g61
(g62
g63
NtRp2108
(dp2109
g66
(dp2110
g74
I3
ssg75
g2104
sg68
(lp2111
g1167
asbasbasbasbasbasbasbag61
(g77
g63
NtRp2112
(dp2113
g66
(dp2114
sg75
g1849
sg68
(lp2115
g61
(g82
g63
NtRp2116
(dp2117
g66
(dp2118
g86
g87
ssg75
g2112
sg68
(lp2119
g1457
asbag61
(g82
g63
NtRp2120
(dp2121
g66
(dp2122
g93
g94
ssg75
g2112
sg68
(lp2123
S':'
asbag61
(g82
g63
NtRp2124
(dp2125
g66
(dp2126
sg75
g2112
sg68
(lp2127
g61
(g62
g63
NtRp2128
(dp2129
g66
(dp2130
g74
I4
ssg75
g2124
sg68
(lp2131
g61
(g70
g63
NtRp2132
(dp2133
g66
(dp2134
g74
I3
ssg75
Nsg68
(lp2135
g61
(g77
g63
NtRp2136
(dp2137
g66
(dp2138
sg75
g2132
sg68
(lp2139
g61
(g82
g63
NtRp2140
(dp2141
g66
(dp2142
sg75
g2136
sg68
(lp2143
g61
(g62
g63
NtRp2144
(dp2145
g66
(dp2146
g74
I3
ssg75
g2140
sg68
(lp2147
S'2'
asbasbasbag61
(g77
g63
NtRp2148
(dp2149
g66
(dp2150
sg75
g2132
sg68
(lp2151
g61
(g82
g63
NtRp2152
(dp2153
g66
(dp2154
sg75
g2148
sg68
(lp2155
g61
(g62
g63
NtRp2156
(dp2157
g66
(dp2158
g74
I3
ssg75
g2152
sg68
(lp2159
S'3'
asbasbasbag61
(g77
g63
NtRp2160
(dp2161
g66
(dp2162
sg75
g2132
sg68
(lp2163
g61
(g82
g63
NtRp2164
(dp2165
g66
(dp2166
sg75
g2160
sg68
(lp2167
g61
(g62
g63
NtRp2168
(dp2169
g66
(dp2170
g74
I3
ssg75
g2164
sg68
(lp2171
S'2'
asbasbasbag61
(g77
g63
NtRp2172
(dp2173
g66
(dp2174
sg75
g2132
sg68
(lp2175
g61
(g82
g63
NtRp2176
(dp2177
g66
(dp2178
sg75
g2172
sg68
(lp2179
g61
(g62
g63
NtRp2180
(dp2181
g66
(dp2182
g74
I3
ssg75
g2176
sg68
(lp2183
S'datetime.datetime(2012, 12, 17, 15, 3, 30)'
p2184
asbasbasbag61
(g77
g63
NtRp2185
(dp2186
g66
(dp2187
sg75
g2132
sg68
(lp2188
g61
(g82
g63
NtRp2189
(dp2190
g66
(dp2191
sg75
g2185
sg68
(lp2192
g61
(g62
g63
NtRp2193
(dp2194
g66
(dp2195
g74
I3
ssg75
g2189
sg68
(lp2196
g1535
asbasbasbasbasbasbasbasbasbasbasbag61
(g77
g63
NtRp2197
(dp2198
g66
(dp2199
sg75
g71
sg68
(lp2200
g61
(g82
g63
NtRp2201
(dp2202
g66
(dp2203
g86
g87
ssg75
g2197
sg68
(lp2204
S'is_https'
p2205
asbag61
(g82
g63
NtRp2206
(dp2207
g66
(dp2208
g93
g94
ssg75
g2197
sg68
(lp2209
S':'
asbag61
(g82
g63
NtRp2210
(dp2211
g66
(dp2212
sg75
g2197
sg68
(lp2213
g61
(g62
g63
NtRp2214
(dp2215
g66
(dp2216
g74
I5
ssg75
g2210
sg68
(lp2217
g104
asbasbasbag61
(g77
g63
NtRp2218
(dp2219
g66
(dp2220
sg75
g71
sg68
(lp2221
g61
(g82
g63
NtRp2222
(dp2223
g66
(dp2224
g86
g87
ssg75
g2218
sg68
(lp2225
S'is_local'
p2226
asbag61
(g82
g63
NtRp2227
(dp2228
g66
(dp2229
g93
g94
ssg75
g2218
sg68
(lp2230
S':'
asbag61
(g82
g63
NtRp2231
(dp2232
g66
(dp2233
sg75
g2218
sg68
(lp2234
g61
(g62
g63
NtRp2235
(dp2236
g66
(dp2237
g74
I5
ssg75
g2231
sg68
(lp2238
g1644
asbasbasbag61
(g77
g63
NtRp2239
(dp2240
g66
(dp2241
sg75
g71
sg68
(lp2242
g61
(g82
g63
NtRp2243
(dp2244
g66
(dp2245
g86
g87
ssg75
g2239
sg68
(lp2246
S'is_restful'
p2247
asbag61
(g82
g63
NtRp2248
(dp2249
g66
(dp2250
g93
g94
ssg75
g2239
sg68
(lp2251
S':'
asbag61
(g82
g63
NtRp2252
(dp2253
g66
(dp2254
sg75
g2239
sg68
(lp2255
g61
(g62
g63
NtRp2256
(dp2257
g66
(dp2258
g74
I5
ssg75
g2252
sg68
(lp2259
g104
asbasbasbag61
(g77
g63
NtRp2260
(dp2261
g66
(dp2262
sg75
g71
sg68
(lp2263
g61
(g82
g63
NtRp2264
(dp2265
g66
(dp2266
g86
g87
ssg75
g2260
sg68
(lp2267
S'now'
p2268
asbag61
(g82
g63
NtRp2269
(dp2270
g66
(dp2271
g93
g94
ssg75
g2260
sg68
(lp2272
S':'
asbag61
(g82
g63
NtRp2273
(dp2274
g66
(dp2275
sg75
g2260
sg68
(lp2276
g61
(g62
g63
NtRp2277
(dp2278
g66
(dp2279
g74
I5
ssg75
g2273
sg68
(lp2280
S'datetime.datetime(2013, 4, 2, 18, 36, 23, 575308)'
p2281
asbasbasbag61
(g77
g63
NtRp2282
(dp2283
g66
(dp2284
sg75
g71
sg68
(lp2285
g61
(g82
g63
NtRp2286
(dp2287
g66
(dp2288
g86
g87
ssg75
g2282
sg68
(lp2289
S'post_vars'
p2290
asbag61
(g82
g63
NtRp2291
(dp2292
g66
(dp2293
g93
g94
ssg75
g2282
sg68
(lp2294
S':'
asbag61
(g82
g63
NtRp2295
(dp2296
g66
(dp2297
sg75
g2282
sg68
(lp2298
g61
(g62
g63
NtRp2299
(dp2300
g66
(dp2301
g74
I5
ssg75
g2295
sg68
(lp2302
g61
(g70
g63
NtRp2303
(dp2304
g66
(dp2305
g74
I4
ssg75
Nsg68
(lp2306
sbasbasbasbag61
(g77
g63
NtRp2307
(dp2308
g66
(dp2309
sg75
g71
sg68
(lp2310
g61
(g82
g63
NtRp2311
(dp2312
g66
(dp2313
g86
g87
ssg75
g2307
sg68
(lp2314
S'url'
p2315
asbag61
(g82
g63
NtRp2316
(dp2317
g66
(dp2318
g93
g94
ssg75
g2307
sg68
(lp2319
S':'
asbag61
(g82
g63
NtRp2320
(dp2321
g66
(dp2322
sg75
g2307
sg68
(lp2323
g61
(g62
g63
NtRp2324
(dp2325
g66
(dp2326
g74
I5
ssg75
g2320
sg68
(lp2327
g1189
asbasbasbag61
(g77
g63
NtRp2328
(dp2329
g66
(dp2330
sg75
g71
sg68
(lp2331
g61
(g82
g63
NtRp2332
(dp2333
g66
(dp2334
g86
g87
ssg75
g2328
sg68
(lp2335
S'utcnow'
p2336
asbag61
(g82
g63
NtRp2337
(dp2338
g66
(dp2339
g93
g94
ssg75
g2328
sg68
(lp2340
S':'
asbag61
(g82
g63
NtRp2341
(dp2342
g66
(dp2343
sg75
g2328
sg68
(lp2344
g61
(g62
g63
NtRp2345
(dp2346
g66
(dp2347
g74
I5
ssg75
g2341
sg68
(lp2348
S'datetime.datetime(2013, 4, 2, 21, 36, 23, 575391)'
p2349
asbasbasbag61
(g77
g63
NtRp2350
(dp2351
g66
(dp2352
sg75
g71
sg68
(lp2353
g61
(g82
g63
NtRp2354
(dp2355
g66
(dp2356
g86
g87
ssg75
g2350
sg68
(lp2357
S'uuid'
p2358
asbag61
(g82
g63
NtRp2359
(dp2360
g66
(dp2361
g93
g94
ssg75
g2350
sg68
(lp2362
S':'
asbag61
(g82
g63
NtRp2363
(dp2364
g66
(dp2365
sg75
g2350
sg68
(lp2366
g61
(g62
g63
NtRp2367
(dp2368
g66
(dp2369
g74
I5
ssg75
g2363
sg68
(lp2370
S'projeto/127.0.0.1.2013-04-02.18-36-23.42dcfe4a-36fb-485a-adcd-44d08cd53034'
p2371
asbasbasbag61
(g77
g63
NtRp2372
(dp2373
g66
(dp2374
sg75
g71
sg68
(lp2375
g61
(g82
g63
NtRp2376
(dp2377
g66
(dp2378
g86
g87
ssg75
g2372
sg68
(lp2379
S'vars'
p2380
asbag61
(g82
g63
NtRp2381
(dp2382
g66
(dp2383
g93
g94
ssg75
g2372
sg68
(lp2384
S':'
asbag61
(g82
g63
NtRp2385
(dp2386
g66
(dp2387
sg75
g2372
sg68
(lp2388
g61
(g62
g63
NtRp2389
(dp2390
g66
(dp2391
g74
I5
ssg75
g2385
sg68
(lp2392
g61
(g70
g63
NtRp2393
(dp2394
g66
(dp2395
g74
I4
ssg75
Nsg68
(lp2396
sbasbasbasbag61
(g77
g63
NtRp2397
(dp2398
g66
(dp2399
sg75
g71
sg68
(lp2400
g61
(g82
g63
NtRp2401
(dp2402
g66
(dp2403
g86
g87
ssg75
g2397
sg68
(lp2404
S'wsgi'
p2405
asbag61
(g82
g63
NtRp2406
(dp2407
g66
(dp2408
g93
g94
ssg75
g2397
sg68
(lp2409
S':'
asbag61
(g82
g63
NtRp2410
(dp2411
g66
(dp2412
sg75
g2397
sg68
(lp2413
g61
(g62
g63
NtRp2414
(dp2415
g66
(dp2416
g74
I5
ssg75
g2410
sg68
(lp2417
g61
(g70
g63
NtRp2418
(dp2419
g66
(dp2420
g74
I4
ssg75
Nsg68
(lp2421
g61
(g77
g63
NtRp2422
(dp2423
g66
(dp2424
sg75
g2418
sg68
(lp2425
g61
(g82
g63
NtRp2426
(dp2427
g66
(dp2428
g86
g87
ssg75
g2422
sg68
(lp2429
S'environ'
p2430
asbag61
(g82
g63
NtRp2431
(dp2432
g66
(dp2433
g93
g94
ssg75
g2422
sg68
(lp2434
S':'
asbag61
(g82
g63
NtRp2435
(dp2436
g66
(dp2437
sg75
g2422
sg68
(lp2438
g61
(g62
g63
NtRp2439
(dp2440
g66
(dp2441
g74
I4
ssg75
g2435
sg68
(lp2442
g61
(g70
g63
NtRp2443
(dp2444
g66
(dp2445
g74
I3
ssg75
Nsg68
(lp2446
g61
(g77
g63
NtRp2447
(dp2448
g66
(dp2449
sg75
g2443
sg68
(lp2450
g61
(g82
g63
NtRp2451
(dp2452
g66
(dp2453
g86
g87
ssg75
g2447
sg68
(lp2454
S'HTTP_ACCEPT'
p2455
asbag61
(g82
g63
NtRp2456
(dp2457
g66
(dp2458
g93
g94
ssg75
g2447
sg68
(lp2459
S':'
asbag61
(g82
g63
NtRp2460
(dp2461
g66
(dp2462
sg75
g2447
sg68
(lp2463
g61
(g62
g63
NtRp2464
(dp2465
g66
(dp2466
g74
I3
ssg75
g2460
sg68
(lp2467
g872
asbasbasbag61
(g77
g63
NtRp2468
(dp2469
g66
(dp2470
sg75
g2443
sg68
(lp2471
g61
(g82
g63
NtRp2472
(dp2473
g66
(dp2474
g86
g87
ssg75
g2468
sg68
(lp2475
S'HTTP_ACCEPT_CHARSET'
p2476
asbag61
(g82
g63
NtRp2477
(dp2478
g66
(dp2479
g93
g94
ssg75
g2468
sg68
(lp2480
S':'
asbag61
(g82
g63
NtRp2481
(dp2482
g66
(dp2483
sg75
g2468
sg68
(lp2484
g61
(g62
g63
NtRp2485
(dp2486
g66
(dp2487
g74
I3
ssg75
g2481
sg68
(lp2488
g894
asbasbasbag61
(g77
g63
NtRp2489
(dp2490
g66
(dp2491
sg75
g2443
sg68
(lp2492
g61
(g82
g63
NtRp2493
(dp2494
g66
(dp2495
g86
g87
ssg75
g2489
sg68
(lp2496
S'HTTP_ACCEPT_ENCODING'
p2497
asbag61
(g82
g63
NtRp2498
(dp2499
g66
(dp2500
g93
g94
ssg75
g2489
sg68
(lp2501
S':'
asbag61
(g82
g63
NtRp2502
(dp2503
g66
(dp2504
sg75
g2489
sg68
(lp2505
g61
(g62
g63
NtRp2506
(dp2507
g66
(dp2508
g74
I3
ssg75
g2502
sg68
(lp2509
g916
asbasbasbag61
(g77
g63
NtRp2510
(dp2511
g66
(dp2512
sg75
g2443
sg68
(lp2513
g61
(g82
g63
NtRp2514
(dp2515
g66
(dp2516
g86
g87
ssg75
g2510
sg68
(lp2517
S'HTTP_ACCEPT_LANGUAGE'
p2518
asbag61
(g82
g63
NtRp2519
(dp2520
g66
(dp2521
g93
g94
ssg75
g2510
sg68
(lp2522
S':'
asbag61
(g82
g63
NtRp2523
(dp2524
g66
(dp2525
sg75
g2510
sg68
(lp2526
g61
(g62
g63
NtRp2527
(dp2528
g66
(dp2529
g74
I3
ssg75
g2523
sg68
(lp2530
g938
asbasbasbag61
(g77
g63
NtRp2531
(dp2532
g66
(dp2533
sg75
g2443
sg68
(lp2534
g61
(g82
g63
NtRp2535
(dp2536
g66
(dp2537
g86
g87
ssg75
g2531
sg68
(lp2538
S'HTTP_CONNECTION'
p2539
asbag61
(g82
g63
NtRp2540
(dp2541
g66
(dp2542
g93
g94
ssg75
g2531
sg68
(lp2543
S':'
asbag61
(g82
g63
NtRp2544
(dp2545
g66
(dp2546
sg75
g2531
sg68
(lp2547
g61
(g62
g63
NtRp2548
(dp2549
g66
(dp2550
g74
I3
ssg75
g2544
sg68
(lp2551
g960
asbasbasbag61
(g77
g63
NtRp2552
(dp2553
g66
(dp2554
sg75
g2443
sg68
(lp2555
g61
(g82
g63
NtRp2556
(dp2557
g66
(dp2558
g86
g87
ssg75
g2552
sg68
(lp2559
S'HTTP_COOKIE'
p2560
asbag61
(g82
g63
NtRp2561
(dp2562
g66
(dp2563
g93
g94
ssg75
g2552
sg68
(lp2564
S':'
asbag61
(g82
g63
NtRp2565
(dp2566
g66
(dp2567
sg75
g2552
sg68
(lp2568
g61
(g62
g63
NtRp2569
(dp2570
g66
(dp2571
g74
I3
ssg75
g2565
sg68
(lp2572
g982
asbasbasbag61
(g77
g63
NtRp2573
(dp2574
g66
(dp2575
sg75
g2443
sg68
(lp2576
g61
(g82
g63
NtRp2577
(dp2578
g66
(dp2579
g86
g87
ssg75
g2573
sg68
(lp2580
S'HTTP_HOST'
p2581
asbag61
(g82
g63
NtRp2582
(dp2583
g66
(dp2584
g93
g94
ssg75
g2573
sg68
(lp2585
S':'
asbag61
(g82
g63
NtRp2586
(dp2587
g66
(dp2588
sg75
g2573
sg68
(lp2589
g61
(g62
g63
NtRp2590
(dp2591
g66
(dp2592
g74
I3
ssg75
g2586
sg68
(lp2593
g1004
asbasbasbag61
(g77
g63
NtRp2594
(dp2595
g66
(dp2596
sg75
g2443
sg68
(lp2597
g61
(g82
g63
NtRp2598
(dp2599
g66
(dp2600
g86
g87
ssg75
g2594
sg68
(lp2601
S'HTTP_REFERER'
p2602
asbag61
(g82
g63
NtRp2603
(dp2604
g66
(dp2605
g93
g94
ssg75
g2594
sg68
(lp2606
S':'
asbag61
(g82
g63
NtRp2607
(dp2608
g66
(dp2609
sg75
g2594
sg68
(lp2610
g61
(g62
g63
NtRp2611
(dp2612
g66
(dp2613
g74
I3
ssg75
g2607
sg68
(lp2614
g1026
asbasbasbag61
(g77
g63
NtRp2615
(dp2616
g66
(dp2617
sg75
g2443
sg68
(lp2618
g61
(g82
g63
NtRp2619
(dp2620
g66
(dp2621
g86
g87
ssg75
g2615
sg68
(lp2622
S'HTTP_USER_AGENT'
p2623
asbag61
(g82
g63
NtRp2624
(dp2625
g66
(dp2626
g93
g94
ssg75
g2615
sg68
(lp2627
S':'
asbag61
(g82
g63
NtRp2628
(dp2629
g66
(dp2630
sg75
g2615
sg68
(lp2631
g61
(g62
g63
NtRp2632
(dp2633
g66
(dp2634
g74
I3
ssg75
g2628
sg68
(lp2635
g1048
asbasbasbag61
(g77
g63
NtRp2636
(dp2637
g66
(dp2638
sg75
g2443
sg68
(lp2639
g61
(g82
g63
NtRp2640
(dp2641
g66
(dp2642
g86
g87
ssg75
g2636
sg68
(lp2643
S'PATH_INFO'
p2644
asbag61
(g82
g63
NtRp2645
(dp2646
g66
(dp2647
g93
g94
ssg75
g2636
sg68
(lp2648
S':'
asbag61
(g82
g63
NtRp2649
(dp2650
g66
(dp2651
sg75
g2636
sg68
(lp2652
g61
(g62
g63
NtRp2653
(dp2654
g66
(dp2655
g74
I3
ssg75
g2649
sg68
(lp2656
g1189
asbasbasbag61
(g77
g63
NtRp2657
(dp2658
g66
(dp2659
sg75
g2443
sg68
(lp2660
g61
(g82
g63
NtRp2661
(dp2662
g66
(dp2663
g86
g87
ssg75
g2657
sg68
(lp2664
S'QUERY_STRING'
p2665
asbag61
(g82
g63
NtRp2666
(dp2667
g66
(dp2668
g93
g94
ssg75
g2657
sg68
(lp2669
S':'
asbag61
(g82
g63
NtRp2670
(dp2671
g66
(dp2672
sg75
g2657
sg68
(lp2673
g61
(g62
g63
NtRp2674
(dp2675
g66
(dp2676
g74
I3
ssg75
g2670
sg68
(lp2677
S''
asbasbasbag61
(g77
g63
NtRp2678
(dp2679
g66
(dp2680
sg75
g2443
sg68
(lp2681
g61
(g82
g63
NtRp2682
(dp2683
g66
(dp2684
g86
g87
ssg75
g2678
sg68
(lp2685
S'REMOTE_ADDR'
p2686
asbag61
(g82
g63
NtRp2687
(dp2688
g66
(dp2689
g93
g94
ssg75
g2678
sg68
(lp2690
S':'
asbag61
(g82
g63
NtRp2691
(dp2692
g66
(dp2693
sg75
g2678
sg68
(lp2694
g61
(g62
g63
NtRp2695
(dp2696
g66
(dp2697
g74
I3
ssg75
g2691
sg68
(lp2698
g242
asbasbasbag61
(g77
g63
NtRp2699
(dp2700
g66
(dp2701
sg75
g2443
sg68
(lp2702
g61
(g82
g63
NtRp2703
(dp2704
g66
(dp2705
g86
g87
ssg75
g2699
sg68
(lp2706
S'REMOTE_PORT'
p2707
asbag61
(g82
g63
NtRp2708
(dp2709
g66
(dp2710
g93
g94
ssg75
g2699
sg68
(lp2711
S':'
asbag61
(g82
g63
NtRp2712
(dp2713
g66
(dp2714
sg75
g2699
sg68
(lp2715
g61
(g62
g63
NtRp2716
(dp2717
g66
(dp2718
g74
I3
ssg75
g2712
sg68
(lp2719
g1253
asbasbasbag61
(g77
g63
NtRp2720
(dp2721
g66
(dp2722
sg75
g2443
sg68
(lp2723
g61
(g82
g63
NtRp2724
(dp2725
g66
(dp2726
g86
g87
ssg75
g2720
sg68
(lp2727
S'REQUEST_METHOD'
p2728
asbag61
(g82
g63
NtRp2729
(dp2730
g66
(dp2731
g93
g94
ssg75
g2720
sg68
(lp2732
S':'
asbag61
(g82
g63
NtRp2733
(dp2734
g66
(dp2735
sg75
g2720
sg68
(lp2736
g61
(g62
g63
NtRp2737
(dp2738
g66
(dp2739
g74
I3
ssg75
g2733
sg68
(lp2740
g1275
asbasbasbag61
(g77
g63
NtRp2741
(dp2742
g66
(dp2743
sg75
g2443
sg68
(lp2744
g61
(g82
g63
NtRp2745
(dp2746
g66
(dp2747
g86
g87
ssg75
g2741
sg68
(lp2748
S'REQUEST_URI'
p2749
asbag61
(g82
g63
NtRp2750
(dp2751
g66
(dp2752
g93
g94
ssg75
g2741
sg68
(lp2753
S':'
asbag61
(g82
g63
NtRp2754
(dp2755
g66
(dp2756
sg75
g2741
sg68
(lp2757
g61
(g62
g63
NtRp2758
(dp2759
g66
(dp2760
g74
I3
ssg75
g2754
sg68
(lp2761
g1297
asbasbasbag61
(g77
g63
NtRp2762
(dp2763
g66
(dp2764
sg75
g2443
sg68
(lp2765
g61
(g82
g63
NtRp2766
(dp2767
g66
(dp2768
g86
g87
ssg75
g2762
sg68
(lp2769
S'SCRIPT_NAME'
p2770
asbag61
(g82
g63
NtRp2771
(dp2772
g66
(dp2773
g93
g94
ssg75
g2762
sg68
(lp2774
S':'
asbag61
(g82
g63
NtRp2775
(dp2776
g66
(dp2777
sg75
g2762
sg68
(lp2778
g61
(g62
g63
NtRp2779
(dp2780
g66
(dp2781
g74
I3
ssg75
g2775
sg68
(lp2782
S''
asbasbasbag61
(g77
g63
NtRp2783
(dp2784
g66
(dp2785
sg75
g2443
sg68
(lp2786
g61
(g82
g63
NtRp2787
(dp2788
g66
(dp2789
g86
g87
ssg75
g2783
sg68
(lp2790
S'SERVER_NAME'
p2791
asbag61
(g82
g63
NtRp2792
(dp2793
g66
(dp2794
g93
g94
ssg75
g2783
sg68
(lp2795
S':'
asbag61
(g82
g63
NtRp2796
(dp2797
g66
(dp2798
sg75
g2783
sg68
(lp2799
g61
(g62
g63
NtRp2800
(dp2801
g66
(dp2802
g74
I3
ssg75
g2796
sg68
(lp2803
g1340
asbasbasbag61
(g77
g63
NtRp2804
(dp2805
g66
(dp2806
sg75
g2443
sg68
(lp2807
g61
(g82
g63
NtRp2808
(dp2809
g66
(dp2810
g86
g87
ssg75
g2804
sg68
(lp2811
S'SERVER_PORT'
p2812
asbag61
(g82
g63
NtRp2813
(dp2814
g66
(dp2815
g93
g94
ssg75
g2804
sg68
(lp2816
S':'
asbag61
(g82
g63
NtRp2817
(dp2818
g66
(dp2819
sg75
g2804
sg68
(lp2820
g61
(g62
g63
NtRp2821
(dp2822
g66
(dp2823
g74
I3
ssg75
g2817
sg68
(lp2824
g1362
asbasbasbag61
(g77
g63
NtRp2825
(dp2826
g66
(dp2827
sg75
g2443
sg68
(lp2828
g61
(g82
g63
NtRp2829
(dp2830
g66
(dp2831
g86
g87
ssg75
g2825
sg68
(lp2832
S'SERVER_PROTOCOL'
p2833
asbag61
(g82
g63
NtRp2834
(dp2835
g66
(dp2836
g93
g94
ssg75
g2825
sg68
(lp2837
S':'
asbag61
(g82
g63
NtRp2838
(dp2839
g66
(dp2840
sg75
g2825
sg68
(lp2841
g61
(g62
g63
NtRp2842
(dp2843
g66
(dp2844
g74
I3
ssg75
g2838
sg68
(lp2845
g1384
asbasbasbag61
(g77
g63
NtRp2846
(dp2847
g66
(dp2848
sg75
g2443
sg68
(lp2849
g61
(g82
g63
NtRp2850
(dp2851
g66
(dp2852
g86
g87
ssg75
g2846
sg68
(lp2853
S'SERVER_SOFTWARE'
p2854
asbag61
(g82
g63
NtRp2855
(dp2856
g66
(dp2857
g93
g94
ssg75
g2846
sg68
(lp2858
S':'
asbag61
(g82
g63
NtRp2859
(dp2860
g66
(dp2861
sg75
g2846
sg68
(lp2862
g61
(g62
g63
NtRp2863
(dp2864
g66
(dp2865
g74
I3
ssg75
g2859
sg68
(lp2866
g1406
asbasbasbag61
(g77
g63
NtRp2867
(dp2868
g66
(dp2869
sg75
g2443
sg68
(lp2870
g61
(g82
g63
NtRp2871
(dp2872
g66
(dp2873
g86
g87
ssg75
g2867
sg68
(lp2874
S'WEB2PY_ORIGINAL_URI'
p2875
asbag61
(g82
g63
NtRp2876
(dp2877
g66
(dp2878
g93
g94
ssg75
g2867
sg68
(lp2879
S':'
asbag61
(g82
g63
NtRp2880
(dp2881
g66
(dp2882
sg75
g2867
sg68
(lp2883
g61
(g62
g63
NtRp2884
(dp2885
g66
(dp2886
g74
I3
ssg75
g2880
sg68
(lp2887
g1189
asbasbasbag61
(g77
g63
NtRp2888
(dp2889
g66
(dp2890
sg75
g2443
sg68
(lp2891
g61
(g82
g63
NtRp2892
(dp2893
g66
(dp2894
g86
g87
ssg75
g2888
sg68
(lp2895
S'wsgi.errors'
p2896
asbag61
(g82
g63
NtRp2897
(dp2898
g66
(dp2899
g93
g94
ssg75
g2888
sg68
(lp2900
S':'
asbag61
(g82
g63
NtRp2901
(dp2902
g66
(dp2903
sg75
g2888
sg68
(lp2904
g61
(g62
g63
NtRp2905
(dp2906
g66
(dp2907
g74
I3
ssg75
g2901
sg68
(lp2908
S"<open file '<stderr>', mode 'w' at 0x7f3308ed3270>"
p2909
asbasbasbag61
(g77
g63
NtRp2910
(dp2911
g66
(dp2912
sg75
g2443
sg68
(lp2913
g61
(g82
g63
NtRp2914
(dp2915
g66
(dp2916
g86
g87
ssg75
g2910
sg68
(lp2917
S'wsgi.file_wrapper'
p2918
asbag61
(g82
g63
NtRp2919
(dp2920
g66
(dp2921
g93
g94
ssg75
g2910
sg68
(lp2922
S':'
asbag61
(g82
g63
NtRp2923
(dp2924
g66
(dp2925
sg75
g2910
sg68
(lp2926
g61
(g62
g63
NtRp2927
(dp2928
g66
(dp2929
g74
I3
ssg75
g2923
sg68
(lp2930
S'<class wsgiref.util.FileWrapper at 0x2194598>'
p2931
asbasbasbag61
(g77
g63
NtRp2932
(dp2933
g66
(dp2934
sg75
g2443
sg68
(lp2935
g61
(g82
g63
NtRp2936
(dp2937
g66
(dp2938
g86
g87
ssg75
g2932
sg68
(lp2939
S'wsgi.input'
p2940
asbag61
(g82
g63
NtRp2941
(dp2942
g66
(dp2943
g93
g94
ssg75
g2932
sg68
(lp2944
S':'
asbag61
(g82
g63
NtRp2945
(dp2946
g66
(dp2947
sg75
g2932
sg68
(lp2948
g61
(g62
g63
NtRp2949
(dp2950
g66
(dp2951
g74
I3
ssg75
g2945
sg68
(lp2952
S'<cStringIO.StringO object at 0x7f32fc15a688>'
p2953
asbasbasbag61
(g77
g63
NtRp2954
(dp2955
g66
(dp2956
sg75
g2443
sg68
(lp2957
g61
(g82
g63
NtRp2958
(dp2959
g66
(dp2960
g86
g87
ssg75
g2954
sg68
(lp2961
S'wsgi.multiprocess'
p2962
asbag61
(g82
g63
NtRp2963
(dp2964
g66
(dp2965
g93
g94
ssg75
g2954
sg68
(lp2966
S':'
asbag61
(g82
g63
NtRp2967
(dp2968
g66
(dp2969
sg75
g2954
sg68
(lp2970
g61
(g62
g63
NtRp2971
(dp2972
g66
(dp2973
g74
I3
ssg75
g2967
sg68
(lp2974
g104
asbasbasbag61
(g77
g63
NtRp2975
(dp2976
g66
(dp2977
sg75
g2443
sg68
(lp2978
g61
(g82
g63
NtRp2979
(dp2980
g66
(dp2981
g86
g87
ssg75
g2975
sg68
(lp2982
S'wsgi.multithread'
p2983
asbag61
(g82
g63
NtRp2984
(dp2985
g66
(dp2986
g93
g94
ssg75
g2975
sg68
(lp2987
S':'
asbag61
(g82
g63
NtRp2988
(dp2989
g66
(dp2990
sg75
g2975
sg68
(lp2991
g61
(g62
g63
NtRp2992
(dp2993
g66
(dp2994
g74
I3
ssg75
g2988
sg68
(lp2995
g1644
asbasbasbag61
(g77
g63
NtRp2996
(dp2997
g66
(dp2998
sg75
g2443
sg68
(lp2999
g61
(g82
g63
NtRp3000
(dp3001
g66
(dp3002
g86
g87
ssg75
g2996
sg68
(lp3003
S'wsgi.run_once'
p3004
asbag61
(g82
g63
NtRp3005
(dp3006
g66
(dp3007
g93
g94
ssg75
g2996
sg68
(lp3008
S':'
asbag61
(g82
g63
NtRp3009
(dp3010
g66
(dp3011
sg75
g2996
sg68
(lp3012
g61
(g62
g63
NtRp3013
(dp3014
g66
(dp3015
g74
I3
ssg75
g3009
sg68
(lp3016
g104
asbasbasbag61
(g77
g63
NtRp3017
(dp3018
g66
(dp3019
sg75
g2443
sg68
(lp3020
g61
(g82
g63
NtRp3021
(dp3022
g66
(dp3023
g86
g87
ssg75
g3017
sg68
(lp3024
S'wsgi.url_scheme'
p3025
asbag61
(g82
g63
NtRp3026
(dp3027
g66
(dp3028
g93
g94
ssg75
g3017
sg68
(lp3029
S':'
asbag61
(g82
g63
NtRp3030
(dp3031
g66
(dp3032
sg75
g3017
sg68
(lp3033
g61
(g62
g63
NtRp3034
(dp3035
g66
(dp3036
g74
I3
ssg75
g3030
sg68
(lp3037
g1687
asbasbasbag61
(g77
g63
NtRp3038
(dp3039
g66
(dp3040
sg75
g2443
sg68
(lp3041
g61
(g82
g63
NtRp3042
(dp3043
g66
(dp3044
g86
g87
ssg75
g3038
sg68
(lp3045
S'wsgi.version'
p3046
asbag61
(g82
g63
NtRp3047
(dp3048
g66
(dp3049
g93
g94
ssg75
g3038
sg68
(lp3050
S':'
asbag61
(g82
g63
NtRp3051
(dp3052
g66
(dp3053
sg75
g3038
sg68
(lp3054
g61
(g62
g63
NtRp3055
(dp3056
g66
(dp3057
g74
I3
ssg75
g3051
sg68
(lp3058
S'1'
asbasbasbasbasbasbasbasbasbasbasbasbasbsS'frames'
p3059
(lp3060
(dp3061
S'file'
p3062
S'/var/www/conferencia/gluon/restricted.py'
p3063
sS'dump'
p3064
(dp3065
S'environment'
p3066
S"{'A': <class 'gluon.html.A'>, 'Auth': <class 'gluon.tools.Auth'>, 'B': <class 'gluon.html.B'>, 'BEAUTIFY': <class 'gluon.html.BEAUTIFY'>, 'BODY': <class 'gluon.html.BODY'>, 'BR': <class 'gluon.html.BR'>, 'BUTTON': <class 'gluon.html.BUTTON'>, 'CAT': <class 'gluon.html.CAT'>, 'CENTER': <class 'gluon.html.CENTER'>, 'CLEANUP': <class 'gluon.validators.CLEANUP'>, ...}"
p3067
sS'ccode'
p3068
S'<code object <module> at 0x7f32fc5623b0, file "/...ications/projeto/controllers/initial.py", line 3>'
p3069
ssS'lnum'
p3070
I212
sS'lines'
p3071
(dp3072
I207
S'    try:'
p3073
sI208
S'        if isinstance(code, types.CodeType):'
p3074
sI209
S'            ccode = code'
p3075
sI210
S'        else:'
p3076
sI211
S'            ccode = compile2(code, layer)'
p3077
sI212
S'        exec ccode in environment'
p3078
sI213
S'    except HTTP:'
p3079
sI214
S'        raise'
p3080
sI215
S'    except RestrictedError:'
p3081
sI216
S'        # do not encapsulate (obfuscate) the original RestrictedError'
p3082
ssS'call'
p3083
S"(code='# coding: utf-8\\n\\ndef show_cliente():\\n\\tresponse.t...)\\n\\nresponse._vars=response._caller(show_cliente)\\n', environment={'A': <class 'gluon.html.A'>, 'Auth': <class 'gluon.tools.Auth'>, 'B': <class 'gluon.html.B'>, 'BEAUTIFY': <class 'gluon.html.BEAUTIFY'>, 'BODY': <class 'gluon.html.BODY'>, 'BR': <class 'gluon.html.BR'>, 'BUTTON': <class 'gluon.html.BUTTON'>, 'CAT': <class 'gluon.html.CAT'>, 'CENTER': <class 'gluon.html.CENTER'>, 'CLEANUP': <class 'gluon.validators.CLEANUP'>, ...}, layer='/var/www/conferencia/applications/projeto/controllers/initial.py')"
p3084
sS'func'
p3085
S'restricted'
p3086
sa(dp3087
g3062
S'/var/www/conferencia/applications/projeto/controllers/initial.py'
p3088
sg3064
(dp3089
sg3070
I328
sg3071
(dp3090
I320
S'\t\t\t)'
p3091
sI321
S"\telif auth.has_membership('internet'):"
p3092
sI322
S'\t\tmail.send('
p3093
sI323
S'\t\t\tto="fernando@ad2.com.br",'
p3094
sI324
S'\t\t\tsubject="host adicionado",'
p3095
sI325
S'\t\t\tmessage="<html>Um novo host foi adicionado pelo usu\xc3\xa1rio %s <br>nome: %s <br>vpn: %s<br><br>\xc3\x89 preciso fazer a instala\xc3\xa7\xc3\xa3o do client zabbix e bacula</html>" % (auth.user.first_name, host.nome, host.ip_chegada,)'
p3096
sI326
S'\t\t\t)'
p3097
sI317
S'\t\t\tto="fndiaz02@gmail.com",'
p3098
sI318
S'\t\t\tsubject="host adicionado",'
p3099
sI319
S'\t\t\tmessage="<html>Um novo host foi adicionado pelo usu\xc3\xa1rio %s <br>nome: %s <br>vpn: %s<br><br>\xc3\x89 preciso fazer a instala\xc3\xa7\xc3\xa3o do client zabbix e bacula</html>" % (auth.user.first_name, host.nome, host.ip_chegada,)'
p3100
ssg3083
S'()'
p3101
sg3085
S'<module>'
p3102
sa(dp3103
g3062
S'/var/www/conferencia/gluon/globals.py'
p3104
sg3064
(dp3105
S'self'
p3106
S'undefined'
p3107
sS'f'
S'<function show_cliente>'
p3108
ssg3070
I193
sg3071
(dp3109
I192
S'        self._vars = None'
p3110
sI193
S'        self._caller = lambda f: f()'
p3111
sI194
S'        self._view_environment = None'
p3112
sI195
S'        self._custom_commit = None'
p3113
sI196
S'        self._custom_rollback = None'
p3114
sI197
S''
sI188
S'        self.menu = []             # used by the default view layout'
p3115
sI189
S'        self.files = []            # used by web2py_ajax.html'
p3116
sI190
S'        self.generic_patterns = []  # patterns to allow generic views'
p3117
sI191
S"        self.delimiters = ('{{', '}}')"
p3118
ssg3083
S'(f=<function show_cliente>)'
p3119
sg3085
S'<lambda>'
p3120
sa(dp3121
g3062
S'/var/www/conferencia/applications/projeto/controllers/initial.py'
p3122
sg3064
(dp3123
S'ignore_rw'
p3124
g3107
sS'builtinTrue'
p3125
g1644
sS'maxtextlength'
p3126
g3107
ssg3070
I9
sg3071
(dp3127
I4
S'\tresponse.title="Eventos"'
p3128
sI5
S''
sI6
S'\tgrid = SQLFORM.grid(db.meetme,'
p3129
sI7
S'\t\tuser_signature=False, searchable=True, csv=False,'
p3130
sI8
S'\t\tpaginate=50, details=False,'
p3131
sI9
S'\t\tignore_rw = True, maxtextlength=36,'
p3132
sI10
S'    \t)'
p3133
sI11
S'\treturn response.render("initial/show_grid.html", grid=grid)'
p3134
sI12
S''
sI13
S'@auth.requires_login()'
p3135
ssg3083
S'()'
p3136
sg3085
S'show_cliente'
p3137
sa(dp3138
g3062
S'/var/www/conferencia/gluon/sqlhtml.py'
p3139
sg3064
(dp3140
S'sqlformargs'
p3141
g21
ssg3070
I1877
sg3071
(dp3142
I1872
S'            table = db[request.args[-1]]'
p3143
sI1873
S'            sqlformargs.update(createargs)'
p3144
sI1874
S'            create_form = SQLFORM('
p3145
sI1875
S'                table, ignore_rw=ignore_rw, formstyle=formstyle,'
p3146
sI1876
S"                _class='web2py_form',"
p3147
sI1877
S'                **sqlformargs)'
p3148
sI1878
S'            create_form.process(formname=formname,'
p3149
sI1879
S'                                next=referrer,'
p3150
sI1880
S'                                onvalidation=onvalidation,'
p3151
sI1881
S'                                onsuccess=oncreate)'
p3152
ssg3083
S"(query=<Table meetme (confno,starttime,endtime,membros_user)>, fields=[<gluon.dal.Field object>, <gluon.dal.Field object>, <gluon.dal.Field object>, <gluon.dal.Field object>], field_id=<gluon.dal.Field object>, left=None, headers={}, orderby=None, groupby=None, searchable=True, sortable=True, paginate=50, deletable=True, editable=True, details=False, selectable=None, create=True, csv=False, links=None, links_in_grid=True, upload=<function <lambda>>, args=[], user_signature=False, maxtextlengths={}, maxtextlength=36, onvalidation=None, oncreate=None, onupdate=None, ondelete=None, sorter_icons=(<gluon.html.XML object>, <gluon.html.XML object>), ui={'button': 'button btn', 'buttonadd': 'icon plus icon-plus', 'buttonback': 'icon leftarrow icon-arrow-left', 'buttondelete': 'icon trash icon-trash', 'buttonedit': 'icon pen icon-pencil', 'buttonexport': 'icon downarrow icon-download', 'buttontable': 'icon rightarrow icon-arrow-right', 'buttontext': 'buttontext button', 'buttonview': 'icon magnifier icon-zoom-in', 'content': '', ...}, showbuttontext=True, _class='web2py_grid', formname='web2py_grid', search_widget='default', ignore_rw=True, formstyle='table3cols', exportclasses=None, formargs={}, createargs={}, editargs={}, viewargs={}, buttons_placement='right', links_placement='right')"
p3153
sg3085
S'grid'
p3154
sa(dp3155
g3062
S'/var/www/conferencia/gluon/sqlhtml.py'
p3156
sg3064
(dp3157
S'default'
p3158
S'None'
p3159
sS'self'
p3160
S'<gluon.sqlhtml.SQLFORM object>'
p3161
sS'inp'
p3162
S'<gluon.html.INPUT object>'
p3163
sS'self.widgets.multiple'
p3164
S"<class 'gluon.sqlhtml.MultipleOptionsWidget'>"
p3165
sS'self.widgets'
p3166
S"<Storage {'multiple': <class 'gluon.sqlhtml.Mult...ss 'gluon.sqlhtml.OptionsWidget'>, 'blob': None}>"
p3167
sS'field'
p3168
S'<gluon.dal.Field object>'
p3169
sS'self.widgets.multiple.widget'
p3170
S"<bound method type.widget of <class 'gluon.sqlhtml.MultipleOptionsWidget'>>"
p3171
ssg3070
I1074
sg3071
(dp3172
I1069
S"                    inpval = ''"
p3173
sI1070
S'            elif OptionsWidget.has_options(field):'
p3174
sI1071
S'                if not field.requires.multiple:'
p3175
sI1072
S'                    inp = self.widgets.options.widget(field, default)'
p3176
sI1073
S'                else:'
p3177
sI1074
S'                    inp = self.widgets.multiple.widget(field, default)'
p3178
sI1075
S'                if fieldname in keepopts:'
p3179
sI1076
S"                    inpval = TAG[''](*inp.components)"
p3180
sI1077
S"            elif field.type.startswith('list:'):"
p3181
sI1078
S'                inp = self.widgets.list.widget(field, default)'
p3182
ssg3083
S"(self=<gluon.sqlhtml.SQLFORM object>, table=<Table meetme (confno,starttime,endtime,membros_user)>, record=None, deletable=False, linkto=None, upload=None, fields=['confno', 'starttime', 'endtime', 'membros_user'], labels=None, col3={}, submit_button='Confirmar', delete_label='Check to deletee', showid=True, readonly=False, comments=True, keepopts=[], ignore_rw=True, record_id=None, formstyle='table3cols', buttons=['submit'], separator=': ', **attributes={'_class': 'web2py_form'})"
p3183
sg3085
g26
sa(dp3184
g3062
S'/var/www/conferencia/gluon/sqlhtml.py'
p3185
sg3064
(dp3186
S'field'
p3187
S'<gluon.dal.Field object>'
p3188
sS'global OptionsWidget'
p3189
S"<class 'gluon.sqlhtml.OptionsWidget'>"
p3190
sS'OptionsWidget.widget'
p3191
S"<bound method type.widget of <class 'gluon.sqlhtml.OptionsWidget'>>"
p3192
sS'value'
p3193
S'None'
p3194
sS'attributes'
p3195
S"{'_multiple': True, '_size': 5}"
p3196
ssg3070
I313
sg3071
(dp3197
I308
S'            be shown'
p3198
sI309
S'        """'
p3199
sI310
S''
sI311
S'        attributes.update(_size=size, _multiple=True)'
p3200
sI312
S''
sI313
S'        return OptionsWidget.widget(field, value, **attributes)'
p3201
sI314
S''
sI315
S''
sI316
S'class RadioWidget(OptionsWidget):'
p3202
sI317
S''
ssg3083
S"(cls=<class 'gluon.sqlhtml.MultipleOptionsWidget'>, field=<gluon.dal.Field object>, value=None, size=5, **attributes={'_multiple': True, '_size': 5})"
p3203
sg3085
S'widget'
p3204
sa(dp3205
g3062
S'/var/www/conferencia/gluon/sqlhtml.py'
p3206
sg3064
(dp3207
S'].options'
p3208
g3107
sS'requires'
p3209
S'[<gluon.validators.IS_IN_DB object>]'
p3210
sS'options'
p3211
g3107
ssg3070
I233
sg3071
(dp3212
I228
S'        requires = field.requires'
p3213
sI229
S'        if not isinstance(requires, (list, tuple)):'
p3214
sI230
S'            requires = [requires]'
p3215
sI231
S'        if requires:'
p3216
sI232
S"            if hasattr(requires[0], 'options'):"
p3217
sI233
S'                options = requires[0].options()'
p3218
sI234
S'            else:'
p3219
sI235
S'                raise SyntaxError('
p3220
sI236
S"                    'widget cannot determine options of %s' % field)"
p3221
sI237
S'        opts = [OPTION(v, _value=k) for (k, v) in options]'
p3222
ssg3083
S"(cls=<class 'gluon.sqlhtml.OptionsWidget'>, field=<gluon.dal.Field object>, value=None, **attributes={'_multiple': True, '_size': 5})"
p3223
sg3085
g3204
sa(dp3224
g3062
S'/var/www/conferencia/gluon/validators.py'
p3225
sg3064
(dp3226
S'self'
p3227
S'<gluon.validators.IS_IN_DB object>'
p3228
sS'self.build_set'
p3229
S'<bound method IS_IN_DB.build_set of <gluon.validators.IS_IN_DB object>>'
p3230
ssg3070
I489
sg3071
(dp3231
I484
S'            self.labels = [self.label % dict(r) for r in records]'
p3232
sI485
S'        else:'
p3233
sI486
S'            self.labels = [self.label(r) for r in records]'
p3234
sI487
S''
sI488
S'    def options(self, zero=True):'
p3235
sI489
S'        self.build_set()'
p3236
sI490
S'        items = [(k, self.labels[i]) for (i, k) in enumerate(self.theset)]'
p3237
sI491
S'        if self.sort:'
p3238
sI492
S'            items.sort(options_sorter)'
p3239
sI493
S'        if zero and not self.zero is None and not self.multiple:'
p3240
ssg3083
S'(self=<gluon.validators.IS_IN_DB object>, zero=True)'
p3241
sg3085
S'options'
p3242
sa(dp3243
g3062
S'/var/www/conferencia/gluon/validators.py'
p3244
sg3064
(dp3245
S'self.dbset'
p3246
S'<Set None>'
p3247
sS'fields'
p3248
S'[<gluon.dal.Field object>, <gluon.dal.Field object>]'
p3249
sS'self'
p3250
S'<gluon.validators.IS_IN_DB object>'
p3251
sS').select'
p3252
g3107
sS'records'
p3253
g3107
sS'table'
p3254
S'<Table usuario (id,nome,pin,email)>'
p3255
sS'dd'
p3256
S"{'cache': None, 'cacheable': True, 'distinct': None, 'groupby': None, 'orderby': <gluon.dal.Expression object>}"
p3257
ssg3070
I475
sg3071
(dp3258
I470
S'            groupby = self.groupby'
p3259
sI471
S'            distinct = self.distinct'
p3260
sI472
S'            dd = dict(orderby=orderby, groupby=groupby,'
p3261
sI473
S'                      distinct=distinct, cache=self.cache,'
p3262
sI474
S'                      cacheable=True)'
p3263
sI475
S'            records = self.dbset(table).select(*fields, **dd)'
p3264
sI476
S'        else:'
p3265
sI477
S'            orderby = self.orderby or \\'
p3266
sI478
S'                reduce(lambda a, b: a | b, ('
p3267
sI479
S"                    f for f in fields if not f.name == 'id'))"
p3268
ssg3083
S'(self=<gluon.validators.IS_IN_DB object>)'
p3269
sg3085
S'build_set'
p3270
sa(dp3271
g3062
S'/var/www/conferencia/gluon/dal.py'
p3272
sg3064
(dp3273
S'self.query'
p3274
S'<Query (usuario.id IS NOT NULL)>'
p3275
sS'adapter.select'
p3276
S'<bound method PostgreSQLAdapter.select of <gluon.dal.PostgreSQLAdapter object>>'
p3277
sS'fields'
p3278
S'[<gluon.dal.Field object>, <gluon.dal.Field object>]'
p3279
sS'adapter'
p3280
S'<gluon.dal.PostgreSQLAdapter object>'
p3281
sS'attributes'
p3282
S"{'cache': None, 'cacheable': True, 'distinct': None, 'groupby': None, 'orderby': <gluon.dal.Expression object>}"
p3283
sS'self'
p3284
S'<Set (usuario.id IS NOT NULL)>'
p3285
ssg3070
I8905
sg3071
(dp3286
I8900
S"                                    attributes.get('join',None),"
p3287
sI8901
S"                                    attributes.get('left',None),"
p3288
sI8902
S"                                    attributes.get('orderby',None),"
p3289
sI8903
S"                                    attributes.get('groupby',None))"
p3290
sI8904
S'        fields = adapter.expand_all(fields, tablenames)'
p3291
sI8905
S'        return adapter.select(self.query,fields,attributes)'
p3292
sI8906
S''
sI8907
S'    def nested_select(self,*fields,**attributes):'
p3293
sI8908
S'        return Expression(self.db,self._select(*fields,**attributes))'
p3294
sI8909
S''
ssg3083
S"(self=<Set (usuario.id IS NOT NULL)>, *fields=[<gluon.dal.Field object>, <gluon.dal.Field object>], **attributes={'cache': None, 'cacheable': True, 'distinct': None, 'groupby': None, 'orderby': <gluon.dal.Expression object>})"
p3295
sg3085
S'select'
p3296
sa(dp3297
g3062
S'/var/www/conferencia/gluon/dal.py'
p3298
sg3064
(dp3299
S'fields'
p3300
S'[<gluon.dal.Field object>, <gluon.dal.Field object>]'
p3301
sS'self'
p3302
S'<gluon.dal.PostgreSQLAdapter object>'
p3303
sS'attributes'
p3304
S"{'cache': None, 'cacheable': True, 'distinct': None, 'groupby': None, 'orderby': <gluon.dal.Expression object>}"
p3305
sS'self._select_aux'
p3306
S'<bound method PostgreSQLAdapter._select_aux of <gluon.dal.PostgreSQLAdapter object>>'
p3307
sS'sql'
p3308
S"'SELECT  usuario.nome, usuario.id FROM usuario WH...d IS NOT NULL) ORDER BY usuario.nome, usuario.id;'"
p3309
ssg3070
I1631
sg3071
(dp3310
I1632
S''
sI1633
S'    def _count(self, query, distinct=None):'
p3311
sI1634
S'        tablenames = self.tables(query)'
p3312
sI1635
S'        if query:'
p3313
sI1626
S'            return cache_model('
p3314
sI1627
S'                key,'
p3315
sI1628
S'                lambda self=self,args=args:self._select_aux(*args),'
p3316
sI1629
S'                time_expire)'
p3317
sI1630
S'        else:'
p3318
sI1631
S'            return self._select_aux(sql,fields,attributes)'
p3319
ssg3083
S"(self=<gluon.dal.PostgreSQLAdapter object>, query=<Query (usuario.id IS NOT NULL)>, fields=[<gluon.dal.Field object>, <gluon.dal.Field object>], attributes={'cache': None, 'cacheable': True, 'distinct': None, 'groupby': None, 'orderby': <gluon.dal.Expression object>})"
p3320
sg3085
g3296
sa(dp3321
g3062
S'/var/www/conferencia/gluon/dal.py'
p3322
sg3064
(dp3323
S'self'
p3324
S'<gluon.dal.PostgreSQLAdapter object>'
p3325
sS'self.execute'
p3326
S'<bound method PostgreSQLAdapter.execute of <gluon.dal.PostgreSQLAdapter object>>'
p3327
sS'sql'
p3328
S"'SELECT  usuario.nome, usuario.id FROM usuario WH...d IS NOT NULL) ORDER BY usuario.nome, usuario.id;'"
p3329
ssg3070
I1596
sg3071
(dp3330
I1600
S"            key = self.uri + '/' + sql + '/rows'"
p3331
sI1591
S''
sI1592
S'    def _select_aux(self,sql,fields,attributes):'
p3332
sI1593
S'        args_get = attributes.get'
p3333
sI1594
S"        cache = args_get('cache',None)"
p3334
sI1595
S'        if not cache:'
p3335
sI1596
S'            self.execute(sql)'
p3336
sI1597
S'            rows = self._fetchall()'
p3337
sI1598
S'        else:'
p3338
sI1599
S'            (cache_model, time_expire) = cache'
p3339
ssg3083
S"(self=<gluon.dal.PostgreSQLAdapter object>, sql='SELECT  usuario.nome, usuario.id FROM usuario WH...d IS NOT NULL) ORDER BY usuario.nome, usuario.id;', fields=[<gluon.dal.Field object>, <gluon.dal.Field object>], attributes={'cache': None, 'cacheable': True, 'distinct': None, 'groupby': None, 'orderby': <gluon.dal.Expression object>})"
p3340
sg3085
S'_select_aux'
p3341
sa(dp3342
g3062
S'/var/www/conferencia/gluon/dal.py'
p3343
sg3064
(dp3344
S'a'
S"('SELECT  usuario.nome, usuario.id FROM usuario WH...d IS NOT NULL) ORDER BY usuario.nome, usuario.id;',)"
p3345
sS'self'
p3346
S'<gluon.dal.PostgreSQLAdapter object>'
p3347
sS'b'
g21
sS'self.log_execute'
p3348
S'<bound method PostgreSQLAdapter.log_execute of <gluon.dal.PostgreSQLAdapter object>>'
p3349
ssg3070
I1709
sg3071
(dp3350
I1704
S'        self.db._timings.append((command,time.time()-t0))'
p3351
sI1705
S'        del self.db._timings[:-TIMINGSSIZE]'
p3352
sI1706
S'        return ret'
p3353
sI1707
S''
sI1708
S'    def execute(self, *a, **b):'
p3354
sI1709
S'        return self.log_execute(*a, **b)'
p3355
sI1710
S''
sI1711
S'    def represent(self, obj, fieldtype):'
p3356
sI1712
S'        field_is_type = fieldtype.startswith'
p3357
sI1713
S'        if isinstance(obj, CALLABLETYPES):'
p3358
ssg3083
S"(self=<gluon.dal.PostgreSQLAdapter object>, *a=('SELECT  usuario.nome, usuario.id FROM usuario WH...d IS NOT NULL) ORDER BY usuario.nome, usuario.id;',), **b={})"
p3359
sg3085
S'execute'
p3360
sa(dp3361
g3062
S'/var/www/conferencia/gluon/dal.py'
p3362
sg3064
(dp3363
S'a'
S"('SELECT  usuario.nome, usuario.id FROM usuario WH...d IS NOT NULL) ORDER BY usuario.nome, usuario.id;',)"
p3364
sS'b'
g21
sS'self'
p3365
S'<gluon.dal.PostgreSQLAdapter object>'
p3366
sS'ret'
p3367
g3107
sS'self.cursor'
p3368
S'<gluon.contrib.pg8000.dbapi.CursorWrapper object>'
p3369
sS'self.cursor.execute'
p3370
S'<bound method CursorWrapper._fn of <gluon.contrib.pg8000.dbapi.CursorWrapper object>>'
p3371
ssg3070
I1703
sg3071
(dp3372
I1698
S'        command = a[0]'
p3373
sI1699
S'        if self.db._debug:'
p3374
sI1700
S"            LOGGER.debug('SQL: %s' % command)"
p3375
sI1701
S'        self.db._lastsql = command'
p3376
sI1702
S'        t0 = time.time()'
p3377
sI1703
S'        ret = self.cursor.execute(*a, **b)'
p3378
sI1704
S'        self.db._timings.append((command,time.time()-t0))'
p3379
sI1705
S'        del self.db._timings[:-TIMINGSSIZE]'
p3380
sI1706
S'        return ret'
p3381
sI1707
S''
ssg3083
S"(self=<gluon.dal.PostgreSQLAdapter object>, *a=('SELECT  usuario.nome, usuario.id FROM usuario WH...d IS NOT NULL) ORDER BY usuario.nome, usuario.id;',), **b={})"
p3382
sg3085
S'log_execute'
p3383
sa(dp3384
g3062
S'/var/www/conferencia/gluon/contrib/pg8000/dbapi.py'
p3385
sg3064
(dp3386
S'self'
p3387
S'<gluon.contrib.pg8000.dbapi.CursorWrapper object>'
p3388
sS'args'
p3389
S"('SELECT  usuario.nome, usuario.id FROM usuario WH...d IS NOT NULL) ORDER BY usuario.nome, usuario.id;',)"
p3390
sS'fn'
p3391
S'<function execute>'
p3392
sS'kwargs'
p3393
g21
ssg3070
I246
sg3071
(dp3394
I241
S''
sI242
S'def require_open_cursor(fn):'
p3395
sI243
S'    def _fn(self, *args, **kwargs):'
p3396
sI244
S'        if self.cursor == None:'
p3397
sI245
S'            raise CursorClosedError()'
p3398
sI246
S'        return fn(self, *args, **kwargs)'
p3399
sI247
S'    return _fn'
p3400
sI248
S''
sI249
S'##'
p3401
sI250
S'# The class of object returned by the {@link #ConnectionWrapper.cursor cursor method}.'
p3402
ssg3083
S"(self=<gluon.contrib.pg8000.dbapi.CursorWrapper object>, *args=('SELECT  usuario.nome, usuario.id FROM usuario WH...d IS NOT NULL) ORDER BY usuario.nome, usuario.id;',), **kwargs={})"
p3403
sg3085
S'_fn'
p3404
sa(dp3405
g3062
S'/var/www/conferencia/gluon/contrib/pg8000/dbapi.py'
p3406
sg3064
(dp3407
S'self._execute'
p3408
S'<bound method CursorWrapper._execute of <gluon.contrib.pg8000.dbapi.CursorWrapper object>>'
p3409
sS'self'
p3410
S'<gluon.contrib.pg8000.dbapi.CursorWrapper object>'
p3411
sS'args'
p3412
S'()'
p3413
sS'operation'
p3414
S"'SELECT  usuario.nome, usuario.id FROM usuario WH...d IS NOT NULL) ORDER BY usuario.nome, usuario.id;'"
p3415
ssg3070
I317
sg3071
(dp3416
I320
S'        new_query, new_args = convert_paramstyle(paramstyle, operation, args)'
p3417
sI321
S'        try:'
p3418
sI312
S'    @require_open_cursor'
p3419
sI313
S'    def execute(self, operation, args=()):'
p3420
sI314
S'        if not self._connection.in_transaction:'
p3421
sI315
S'            self._connection.begin()'
p3422
sI316
S'        self._override_rowcount = None'
p3423
sI317
S'        self._execute(operation, args)'
p3424
sI318
S''
sI319
S'    def _execute(self, operation, args=()):'
p3425
ssg3083
S"(self=<gluon.contrib.pg8000.dbapi.CursorWrapper object>, operation='SELECT  usuario.nome, usuario.id FROM usuario WH...d IS NOT NULL) ORDER BY usuario.nome, usuario.id;', args=())"
p3426
sg3085
g3360
sa(dp3427
g3062
S'/var/www/conferencia/gluon/contrib/pg8000/dbapi.py'
p3428
sg3064
(dp3429
S'new_args'
p3430
S'()'
p3431
sS'self.cursor'
p3432
S'<gluon.contrib.pg8000.interface.Cursor object>'
p3433
sS'self'
p3434
S'<gluon.contrib.pg8000.dbapi.CursorWrapper object>'
p3435
sS'new_query'
p3436
S"'SELECT  usuario.nome, usuario.id FROM usuario WH...d IS NOT NULL) ORDER BY usuario.nome, usuario.id;'"
p3437
sS'self.cursor.execute'
p3438
S'<bound method Cursor.execute of <gluon.contrib.pg8000.interface.Cursor object>>'
p3439
ssg3070
I322
sg3071
(dp3440
I320
S'        new_query, new_args = convert_paramstyle(paramstyle, operation, args)'
p3441
sI321
S'        try:'
p3442
sI322
S'            self.cursor.execute(new_query, *new_args)'
p3443
sI323
S'        except ConnectionClosedError:'
p3444
sI324
S"            # can't rollback in this case"
p3445
sI325
S'            raise'
p3446
sI326
S'        except:'
p3447
sI317
S'        self._execute(operation, args)'
p3448
sI318
S''
sI319
S'    def _execute(self, operation, args=()):'
p3449
ssg3083
S"(self=<gluon.contrib.pg8000.dbapi.CursorWrapper object>, operation='SELECT  usuario.nome, usuario.id FROM usuario WH...d IS NOT NULL) ORDER BY usuario.nome, usuario.id;', args=())"
p3450
sg3085
S'_execute'
p3451
sa(dp3452
g3062
S'/var/www/conferencia/gluon/contrib/pg8000/interface.py'
p3453
sg3064
(dp3454
S'x'
g3107
sS'args'
p3455
S'()'
p3456
sS'builtintype'
p3457
S"<type 'type'>"
p3458
sS'self._stmt'
p3459
S'<gluon.contrib.pg8000.interface.PreparedStatement object>'
p3460
sS'self'
p3461
S'<gluon.contrib.pg8000.interface.Cursor object>'
p3462
sS'self.connection'
p3463
S'<gluon.contrib.pg8000.interface.Connection object>'
p3464
sS'global PreparedStatement'
p3465
S"<class 'gluon.contrib.pg8000.interface.PreparedStatement'>"
p3466
sS'statement_name'
p3467
g3107
sS'query'
p3468
S"'SELECT  usuario.nome, usuario.id FROM usuario WH...d IS NOT NULL) ORDER BY usuario.nome, usuario.id;'"
p3469
ssg3070
I398
sg3071
(dp3470
I393
S'                # use PostgreSQL Simple Query Protocol'
p3471
sI394
S'                ## print "SimpleQuery:", query'
p3472
sI395
S'                self._stmt = SimpleStatement(self.connection, query)'
p3473
sI396
S'            else:'
p3474
sI397
S'                # use PostgreSQL Extended Query Protocol'
p3475
sI398
S'                self._stmt = PreparedStatement(self.connection, query, statement_name="", *[{"type": type(x), "value": x} for x in args])'
p3476
sI399
S'            self._stmt.execute(*args, **kwargs)'
p3477
sI400
S'        finally:'
p3478
sI401
S'            self.connection._unnamed_prepared_statement_lock.release()'
p3479
sI402
S''
ssg3083
S"(self=<gluon.contrib.pg8000.interface.Cursor object>, query='SELECT  usuario.nome, usuario.id FROM usuario WH...d IS NOT NULL) ORDER BY usuario.nome, usuario.id;', *args=(), **kwargs={})"
p3480
sg3085
g3360
sa(dp3481
g3062
S'/var/www/conferencia/gluon/contrib/pg8000/interface.py'
p3482
sg3064
(dp3483
S'self.c'
p3484
S'<gluon.contrib.pg8000.protocol.Connection object>'
p3485
sS'self'
p3486
S'<gluon.contrib.pg8000.interface.PreparedStatement object>'
p3487
sS'self.c.parse'
p3488
S'<bound method Connection._fn of <gluon.contrib.pg8000.protocol.Connection object>>'
p3489
sS'self._statement_name'
p3490
S"''"
p3491
sS'self._parse_row_desc'
p3492
g3107
sS'statement'
p3493
S"'SELECT  usuario.nome, usuario.id FROM usuario WH...d IS NOT NULL) ORDER BY usuario.nome, usuario.id;'"
p3494
sS'types'
p3495
S'()'
p3496
ssg3070
I138
sg3071
(dp3497
I133
S'        self._statement_name = kwargs.get("statement_name", "pg8000_statement_%s" % self._statement_number)'
p3498
sI134
S'        self._row_desc = None'
p3499
sI135
S'        self._cached_rows = []'
p3500
sI136
S'        self._ongoing_row_count = 0'
p3501
sI137
S'        self._command_complete = True'
p3502
sI138
S'        self._parse_row_desc = self.c.parse(self._statement_name, statement, types)'
p3503
sI139
S'        self._lock = threading.RLock()'
p3504
sI140
S''
sI141
S'    def close(self):'
p3505
sI142
S'        if self._statement_name != "": # don\'t close unnamed statement'
p3506
ssg3083
S"(self=<gluon.contrib.pg8000.interface.PreparedStatement object>, connection=<gluon.contrib.pg8000.interface.Connection object>, statement='SELECT  usuario.nome, usuario.id FROM usuario WH...d IS NOT NULL) ORDER BY usuario.nome, usuario.id;', *types=(), **kwargs={'statement_name': ''})"
p3507
sg3085
g26
sa(dp3508
g3062
S'/var/www/conferencia/gluon/contrib/pg8000/protocol.py'
p3509
sg3064
(dp3510
S'self'
p3511
S'<gluon.contrib.pg8000.protocol.Connection object>'
p3512
sS'args'
p3513
S"('', 'SELECT  usuario.nome, usuario.id FROM usuario WH...d IS NOT NULL) ORDER BY usuario.nome, usuario.id;', ())"
p3514
sS'fn'
p3515
S'<function parse>'
p3516
sS'kwargs'
p3517
g21
ssg3070
I943
sg3071
(dp3518
I938
S''
sI939
S'def sync_on_error(fn):'
p3519
sI940
S'    def _fn(self, *args, **kwargs):'
p3520
sI941
S'        try:'
p3521
sI942
S'            self._sock_lock.acquire()'
p3522
sI943
S'            return fn(self, *args, **kwargs)'
p3523
sI944
S'        except:'
p3524
sI945
S'            self._sync()'
p3525
sI946
S'            raise'
p3526
sI947
S'        finally:'
p3527
ssg3083
S"(self=<gluon.contrib.pg8000.protocol.Connection object>, *args=('', 'SELECT  usuario.nome, usuario.id FROM usuario WH...d IS NOT NULL) ORDER BY usuario.nome, usuario.id;', ()), **kwargs={})"
p3528
sg3085
g3404
sa(dp3529
g3062
S'/var/www/conferencia/gluon/contrib/pg8000/protocol.py'
p3530
sg3064
(dp3531
S'reader.handle_messages'
p3532
S'<bound method MessageReader.handle_messages of <gluon.contrib.pg8000.protocol.MessageReader object>>'
p3533
sS'reader'
p3534
S'<gluon.contrib.pg8000.protocol.MessageReader object>'
p3535
ssg3070
I1104
sg3071
(dp3536
I1099
S'        reader.add_message(NoData, lambda msg: (None, param_fc))'
p3537
sI1100
S''
sI1101
S'        # Common row description response'
p3538
sI1102
S'        reader.add_message(RowDescription, lambda msg: (msg, param_fc))'
p3539
sI1103
S''
sI1104
S'        return reader.handle_messages()'
p3540
sI1105
S''
sI1106
S'    @sync_on_error'
p3541
sI1107
S'    def bind(self, portal, statement, params, parse_data, copy_stream):'
p3542
sI1108
S'        self.verifyState("ready")'
p3543
ssg3083
S"(self=<gluon.contrib.pg8000.protocol.Connection object>, statement='', qs='SELECT  usuario.nome, usuario.id FROM usuario WH...d IS NOT NULL) ORDER BY usuario.nome, usuario.id;', param_types=[])"
p3544
sg3085
S'parse'
p3545
sa(dp3546
g3062
S'/var/www/conferencia/gluon/contrib/pg8000/protocol.py'
p3547
sg3064
(dp3548
S'exc'
p3549
S'ProgrammingError(\'ERROR\', \'42P01\', \'relation "usuario" does not exist\')'
p3550
ssg3070
I929
sg3071
(dp3551
I928
S'                if not self.delay_raising_exception:'
p3552
sI929
S'                    raise exc'
p3553
sI930
S'            elif isinstance(msg, NoticeResponse):'
p3554
sI931
S'                self._conn.handleNoticeResponse(msg)'
p3555
sI932
S'            elif isinstance(msg, ParameterStatus):'
p3556
sI933
S'                self._conn.handleParameterStatus(msg)'
p3557
sI924
S'            if msg_handled:'
p3558
sI925
S'                continue'
p3559
sI926
S'            elif isinstance(msg, ErrorResponse):'
p3560
sI927
S'                exc = msg.createException()'
p3561
ssg3083
S'(self=<gluon.contrib.pg8000.protocol.MessageReader object>)'
p3562
sg3085
S'handle_messages'
p3563
sasS'pyver'
p3564
S'Python 2.7.3: /usr/bin/python'
p3565
sS'session'
p3566
g61
(g62
g63
NtRp3567
(dp3568
g66
(dp3569
sg68
(lp3570
g61
(g70
g63
NtRp3571
(dp3572
g66
(dp3573
g74
I5
ssg75
Nsg68
(lp3574
g61
(g77
g63
NtRp3575
(dp3576
g66
(dp3577
sg75
g3571
sg68
(lp3578
g61
(g82
g63
NtRp3579
(dp3580
g66
(dp3581
g86
g87
ssg75
g3575
sg68
(lp3582
S'flash'
p3583
asbag61
(g82
g63
NtRp3584
(dp3585
g66
(dp3586
g93
g94
ssg75
g3575
sg68
(lp3587
S':'
asbag61
(g82
g63
NtRp3588
(dp3589
g66
(dp3590
sg75
g3575
sg68
(lp3591
g61
(g62
g63
NtRp3592
(dp3593
g66
(dp3594
g74
I5
ssg75
g3588
sg68
(lp3595
S'None'
p3596
asbasbasbasbasbsS'etype'
p3597
S"<class 'gluon.contrib.pg8000.errors.ProgrammingError'>"
p3598
sS'date'
p3599
S'Tue Apr  2 18:36:23 2013'
p3600
sS'response'
p3601
g61
(g62
g63
NtRp3602
(dp3603
g66
(dp3604
sg68
(lp3605
g61
(g70
g63
NtRp3606
(dp3607
g66
(dp3608
g74
I5
ssg75
Nsg68
(lp3609
g61
(g77
g63
NtRp3610
(dp3611
g66
(dp3612
sg75
g3606
sg68
(lp3613
g61
(g82
g63
NtRp3614
(dp3615
g66
(dp3616
g86
g87
ssg75
g3610
sg68
(lp3617
g185
asbag61
(g82
g63
NtRp3618
(dp3619
g66
(dp3620
g93
g94
ssg75
g3610
sg68
(lp3621
S':'
asbag61
(g82
g63
NtRp3622
(dp3623
g66
(dp3624
sg75
g3610
sg68
(lp3625
g61
(g62
g63
NtRp3626
(dp3627
g66
(dp3628
g74
I5
ssg75
g3622
sg68
(lp3629
S'<cStringIO.StringO object at 0x7f32fc3390d8>'
p3630
asbasbasbag61
(g77
g63
NtRp3631
(dp3632
g66
(dp3633
sg75
g3606
sg68
(lp3634
g61
(g82
g63
NtRp3635
(dp3636
g66
(dp3637
g86
g87
ssg75
g3631
sg68
(lp3638
g273
asbag61
(g82
g63
NtRp3639
(dp3640
g66
(dp3641
g93
g94
ssg75
g3631
sg68
(lp3642
S':'
asbag61
(g82
g63
NtRp3643
(dp3644
g66
(dp3645
sg75
g3631
sg68
(lp3646
g61
(g62
g63
NtRp3647
(dp3648
g66
(dp3649
g74
I5
ssg75
g3643
sg68
(lp3650
g61
(g70
g63
NtRp3651
(dp3652
g66
(dp3653
g74
I4
ssg75
Nsg68
(lp3654
g61
(g77
g63
NtRp3655
(dp3656
g66
(dp3657
sg75
g3651
sg68
(lp3658
g61
(g82
g63
NtRp3659
(dp3660
g66
(dp3661
g86
g87
ssg75
g3655
sg68
(lp3662
S'session_id_projeto'
p3663
asbag61
(g82
g63
NtRp3664
(dp3665
g66
(dp3666
g93
g94
ssg75
g3655
sg68
(lp3667
S':'
asbag61
(g82
g63
NtRp3668
(dp3669
g66
(dp3670
sg75
g3655
sg68
(lp3671
g61
(g62
g63
NtRp3672
(dp3673
g66
(dp3674
g74
I4
ssg75
g3668
sg68
(lp3675
g505
ag61
(g70
g63
NtRp3676
(dp3677
g66
(dp3678
g74
I3
ssg75
Nsg68
(lp3679
g61
(g77
g63
NtRp3680
(dp3681
g66
(dp3682
sg75
g3676
sg68
(lp3683
g61
(g82
g63
NtRp3684
(dp3685
g66
(dp3686
g86
g87
ssg75
g3680
sg68
(lp3687
g324
asbag61
(g82
g63
NtRp3688
(dp3689
g66
(dp3690
g93
g94
ssg75
g3680
sg68
(lp3691
S':'
asbag61
(g82
g63
NtRp3692
(dp3693
g66
(dp3694
sg75
g3680
sg68
(lp3695
g61
(g62
g63
NtRp3696
(dp3697
g66
(dp3698
g74
I3
ssg75
g3692
sg68
(lp3699
S''
asbasbasbag61
(g77
g63
NtRp3700
(dp3701
g66
(dp3702
sg75
g3676
sg68
(lp3703
g61
(g82
g63
NtRp3704
(dp3705
g66
(dp3706
g86
g87
ssg75
g3700
sg68
(lp3707
g345
asbag61
(g82
g63
NtRp3708
(dp3709
g66
(dp3710
g93
g94
ssg75
g3700
sg68
(lp3711
S':'
asbag61
(g82
g63
NtRp3712
(dp3713
g66
(dp3714
sg75
g3700
sg68
(lp3715
g61
(g62
g63
NtRp3716
(dp3717
g66
(dp3718
g74
I3
ssg75
g3712
sg68
(lp3719
S''
asbasbasbag61
(g77
g63
NtRp3720
(dp3721
g66
(dp3722
sg75
g3676
sg68
(lp3723
g61
(g82
g63
NtRp3724
(dp3725
g66
(dp3726
g86
g87
ssg75
g3720
sg68
(lp3727
g366
asbag61
(g82
g63
NtRp3728
(dp3729
g66
(dp3730
g93
g94
ssg75
g3720
sg68
(lp3731
S':'
asbag61
(g82
g63
NtRp3732
(dp3733
g66
(dp3734
sg75
g3720
sg68
(lp3735
g61
(g62
g63
NtRp3736
(dp3737
g66
(dp3738
g74
I3
ssg75
g3732
sg68
(lp3739
S''
asbasbasbag61
(g77
g63
NtRp3740
(dp3741
g66
(dp3742
sg75
g3676
sg68
(lp3743
g61
(g82
g63
NtRp3744
(dp3745
g66
(dp3746
g86
g87
ssg75
g3740
sg68
(lp3747
g387
asbag61
(g82
g63
NtRp3748
(dp3749
g66
(dp3750
g93
g94
ssg75
g3740
sg68
(lp3751
S':'
asbag61
(g82
g63
NtRp3752
(dp3753
g66
(dp3754
sg75
g3740
sg68
(lp3755
g61
(g62
g63
NtRp3756
(dp3757
g66
(dp3758
g74
I3
ssg75
g3752
sg68
(lp3759
S''
asbasbasbag61
(g77
g63
NtRp3760
(dp3761
g66
(dp3762
sg75
g3676
sg68
(lp3763
g61
(g82
g63
NtRp3764
(dp3765
g66
(dp3766
g86
g87
ssg75
g3760
sg68
(lp3767
g408
asbag61
(g82
g63
NtRp3768
(dp3769
g66
(dp3770
g93
g94
ssg75
g3760
sg68
(lp3771
S':'
asbag61
(g82
g63
NtRp3772
(dp3773
g66
(dp3774
sg75
g3760
sg68
(lp3775
g61
(g62
g63
NtRp3776
(dp3777
g66
(dp3778
g74
I3
ssg75
g3772
sg68
(lp3779
S''
asbasbasbag61
(g77
g63
NtRp3780
(dp3781
g66
(dp3782
sg75
g3676
sg68
(lp3783
g61
(g82
g63
NtRp3784
(dp3785
g66
(dp3786
g86
g87
ssg75
g3780
sg68
(lp3787
g429
asbag61
(g82
g63
NtRp3788
(dp3789
g66
(dp3790
g93
g94
ssg75
g3780
sg68
(lp3791
S':'
asbag61
(g82
g63
NtRp3792
(dp3793
g66
(dp3794
sg75
g3780
sg68
(lp3795
g61
(g62
g63
NtRp3796
(dp3797
g66
(dp3798
g74
I3
ssg75
g3792
sg68
(lp3799
S'/'
asbasbasbag61
(g77
g63
NtRp3800
(dp3801
g66
(dp3802
sg75
g3676
sg68
(lp3803
g61
(g82
g63
NtRp3804
(dp3805
g66
(dp3806
g86
g87
ssg75
g3800
sg68
(lp3807
g450
asbag61
(g82
g63
NtRp3808
(dp3809
g66
(dp3810
g93
g94
ssg75
g3800
sg68
(lp3811
S':'
asbag61
(g82
g63
NtRp3812
(dp3813
g66
(dp3814
sg75
g3800
sg68
(lp3815
g61
(g62
g63
NtRp3816
(dp3817
g66
(dp3818
g74
I3
ssg75
g3812
sg68
(lp3819
S''
asbasbasbag61
(g77
g63
NtRp3820
(dp3821
g66
(dp3822
sg75
g3676
sg68
(lp3823
g61
(g82
g63
NtRp3824
(dp3825
g66
(dp3826
g86
g87
ssg75
g3820
sg68
(lp3827
g471
asbag61
(g82
g63
NtRp3828
(dp3829
g66
(dp3830
g93
g94
ssg75
g3820
sg68
(lp3831
S':'
asbag61
(g82
g63
NtRp3832
(dp3833
g66
(dp3834
sg75
g3820
sg68
(lp3835
g61
(g62
g63
NtRp3836
(dp3837
g66
(dp3838
g74
I3
ssg75
g3832
sg68
(lp3839
S''
asbasbasbasbasbasbasbasbasbasbasbag61
(g77
g63
NtRp3840
(dp3841
g66
(dp3842
sg75
g3606
sg68
(lp3843
g61
(g82
g63
NtRp3844
(dp3845
g66
(dp3846
g86
g87
ssg75
g3840
sg68
(lp3847
S'delimiters'
p3848
asbag61
(g82
g63
NtRp3849
(dp3850
g66
(dp3851
g93
g94
ssg75
g3840
sg68
(lp3852
S':'
asbag61
(g82
g63
NtRp3853
(dp3854
g66
(dp3855
sg75
g3840
sg68
(lp3856
g61
(g62
g63
NtRp3857
(dp3858
g66
(dp3859
g74
I5
ssg75
g3853
sg68
(lp3860
g61
(g70
g63
NtRp3861
(dp3862
g66
(dp3863
g74
I4
ssg75
Nsg68
(lp3864
g61
(g77
g63
NtRp3865
(dp3866
g66
(dp3867
sg75
g3861
sg68
(lp3868
g61
(g82
g63
NtRp3869
(dp3870
g66
(dp3871
sg75
g3865
sg68
(lp3872
g61
(g62
g63
NtRp3873
(dp3874
g66
(dp3875
g74
I4
ssg75
g3869
sg68
(lp3876
S'{{'
p3877
asbasbasbag61
(g77
g63
NtRp3878
(dp3879
g66
(dp3880
sg75
g3861
sg68
(lp3881
g61
(g82
g63
NtRp3882
(dp3883
g66
(dp3884
sg75
g3878
sg68
(lp3885
g61
(g62
g63
NtRp3886
(dp3887
g66
(dp3888
g74
I4
ssg75
g3882
sg68
(lp3889
S'}}'
p3890
asbasbasbasbasbasbasbag61
(g77
g63
NtRp3891
(dp3892
g66
(dp3893
sg75
g3606
sg68
(lp3894
g61
(g82
g63
NtRp3895
(dp3896
g66
(dp3897
g86
g87
ssg75
g3891
sg68
(lp3898
S'files'
p3899
asbag61
(g82
g63
NtRp3900
(dp3901
g66
(dp3902
g93
g94
ssg75
g3891
sg68
(lp3903
S':'
asbag61
(g82
g63
NtRp3904
(dp3905
g66
(dp3906
sg75
g3891
sg68
(lp3907
g61
(g62
g63
NtRp3908
(dp3909
g66
(dp3910
g74
I5
ssg75
g3904
sg68
(lp3911
g61
(g70
g63
NtRp3912
(dp3913
g66
(dp3914
g74
I4
ssg75
Nsg68
(lp3915
sbasbasbasbag61
(g77
g63
NtRp3916
(dp3917
g66
(dp3918
sg75
g3606
sg68
(lp3919
g61
(g82
g63
NtRp3920
(dp3921
g66
(dp3922
g86
g87
ssg75
g3916
sg68
(lp3923
S'flash'
p3924
asbag61
(g82
g63
NtRp3925
(dp3926
g66
(dp3927
g93
g94
ssg75
g3916
sg68
(lp3928
S':'
asbag61
(g82
g63
NtRp3929
(dp3930
g66
(dp3931
sg75
g3916
sg68
(lp3932
g61
(g62
g63
NtRp3933
(dp3934
g66
(dp3935
g74
I5
ssg75
g3929
sg68
(lp3936
S''
asbasbasbag61
(g77
g63
NtRp3937
(dp3938
g66
(dp3939
sg75
g3606
sg68
(lp3940
g61
(g82
g63
NtRp3941
(dp3942
g66
(dp3943
g86
g87
ssg75
g3937
sg68
(lp3944
S'generic_patterns'
p3945
asbag61
(g82
g63
NtRp3946
(dp3947
g66
(dp3948
g93
g94
ssg75
g3937
sg68
(lp3949
S':'
asbag61
(g82
g63
NtRp3950
(dp3951
g66
(dp3952
sg75
g3937
sg68
(lp3953
g61
(g62
g63
NtRp3954
(dp3955
g66
(dp3956
g74
I5
ssg75
g3950
sg68
(lp3957
g61
(g70
g63
NtRp3958
(dp3959
g66
(dp3960
g74
I4
ssg75
Nsg68
(lp3961
g61
(g77
g63
NtRp3962
(dp3963
g66
(dp3964
sg75
g3958
sg68
(lp3965
g61
(g82
g63
NtRp3966
(dp3967
g66
(dp3968
sg75
g3962
sg68
(lp3969
g61
(g62
g63
NtRp3970
(dp3971
g66
(dp3972
g74
I4
ssg75
g3966
sg68
(lp3973
S'*'
asbasbasbasbasbasbasbag61
(g77
g63
NtRp3974
(dp3975
g66
(dp3976
sg75
g3606
sg68
(lp3977
g61
(g82
g63
NtRp3978
(dp3979
g66
(dp3980
g86
g87
ssg75
g3974
sg68
(lp3981
S'google_analytics_id'
p3982
asbag61
(g82
g63
NtRp3983
(dp3984
g66
(dp3985
g93
g94
ssg75
g3974
sg68
(lp3986
S':'
asbag61
(g82
g63
NtRp3987
(dp3988
g66
(dp3989
sg75
g3974
sg68
(lp3990
g61
(g62
g63
NtRp3991
(dp3992
g66
(dp3993
g74
I5
ssg75
g3987
sg68
(lp3994
S'None'
p3995
asbasbasbag61
(g77
g63
NtRp3996
(dp3997
g66
(dp3998
sg75
g3606
sg68
(lp3999
g61
(g82
g63
NtRp4000
(dp4001
g66
(dp4002
g86
g87
ssg75
g3996
sg68
(lp4003
S'headers'
p4004
asbag61
(g82
g63
NtRp4005
(dp4006
g66
(dp4007
g93
g94
ssg75
g3996
sg68
(lp4008
S':'
asbag61
(g82
g63
NtRp4009
(dp4010
g66
(dp4011
sg75
g3996
sg68
(lp4012
g61
(g62
g63
NtRp4013
(dp4014
g66
(dp4015
g74
I5
ssg75
g4009
sg68
(lp4016
g61
(g70
g63
NtRp4017
(dp4018
g66
(dp4019
g74
I4
ssg75
Nsg68
(lp4020
g61
(g77
g63
NtRp4021
(dp4022
g66
(dp4023
sg75
g4017
sg68
(lp4024
g61
(g82
g63
NtRp4025
(dp4026
g66
(dp4027
g86
g87
ssg75
g4021
sg68
(lp4028
S'X-Powered-By'
p4029
asbag61
(g82
g63
NtRp4030
(dp4031
g66
(dp4032
g93
g94
ssg75
g4021
sg68
(lp4033
S':'
asbag61
(g82
g63
NtRp4034
(dp4035
g66
(dp4036
sg75
g4021
sg68
(lp4037
g61
(g62
g63
NtRp4038
(dp4039
g66
(dp4040
g74
I4
ssg75
g4034
sg68
(lp4041
S'web2py'
p4042
asbasbasbasbasbasbasbag61
(g77
g63
NtRp4043
(dp4044
g66
(dp4045
sg75
g3606
sg68
(lp4046
g61
(g82
g63
NtRp4047
(dp4048
g66
(dp4049
g86
g87
ssg75
g4043
sg68
(lp4050
S'logo'
p4051
asbag61
(g82
g63
NtRp4052
(dp4053
g66
(dp4054
g93
g94
ssg75
g4043
sg68
(lp4055
S':'
asbag61
(g82
g63
NtRp4056
(dp4057
g66
(dp4058
sg75
g4043
sg68
(lp4059
g61
(g62
g63
NtRp4060
(dp4061
g66
(dp4062
g74
I5
ssg75
g4056
sg68
(lp4063
g61
(cgluon.html
A
p4064
g63
NtRp4065
(dp4066
g66
(dp4067
S'_class'
p4068
S'brand'
p4069
sS'_href'
p4070
S'principal'
p4071
ssg75
Nsg68
(lp4072
g61
(cgluon.html
B
p4073
g63
NtRp4074
(dp4075
g66
(dp4076
sg75
g4065
sg68
(lp4077
S'hosts'
p4078
ag61
(cgluon.html
SPAN
p4079
g63
NtRp4080
(dp4081
g66
(dp4082
sg75
g4074
sg68
(lp4083
S'3'
asbaS''
asbacgluon.html
XML_unpickle
p4084
(S's\r\x00\x00\x00&trade;&nbsp;'
tRp4085
asbasbasbasbag61
(g77
g63
NtRp4086
(dp4087
g66
(dp4088
sg75
g3606
sg68
(lp4089
g61
(g82
g63
NtRp4090
(dp4091
g66
(dp4092
g86
g87
ssg75
g4086
sg68
(lp4093
S'menu'
p4094
asbag61
(g82
g63
NtRp4095
(dp4096
g66
(dp4097
g93
g94
ssg75
g4086
sg68
(lp4098
S':'
asbag61
(g82
g63
NtRp4099
(dp4100
g66
(dp4101
sg75
g4086
sg68
(lp4102
g61
(g62
g63
NtRp4103
(dp4104
g66
(dp4105
g74
I5
ssg75
g4099
sg68
(lp4106
g61
(g70
g63
NtRp4107
(dp4108
g66
(dp4109
g74
I4
ssg75
Nsg68
(lp4110
g61
(g77
g63
NtRp4111
(dp4112
g66
(dp4113
sg75
g4107
sg68
(lp4114
g61
(g82
g63
NtRp4115
(dp4116
g66
(dp4117
sg75
g4111
sg68
(lp4118
g61
(g62
g63
NtRp4119
(dp4120
g66
(dp4121
g74
I4
ssg75
g4115
sg68
(lp4122
g61
(g70
g63
NtRp4123
(dp4124
g66
(dp4125
g74
I3
ssg75
Nsg68
(lp4126
g61
(g77
g63
NtRp4127
(dp4128
g66
(dp4129
sg75
g4123
sg68
(lp4130
g61
(g82
g63
NtRp4131
(dp4132
g66
(dp4133
sg75
g4127
sg68
(lp4134
g61
(g62
g63
NtRp4135
(dp4136
g66
(dp4137
g74
I3
ssg75
g4131
sg68
(lp4138
cgluon.languages
lazyT_unpickle
p4139
(S't\x08\x00\x00\x00Clientes'
tRp4140
asbasbasbag61
(g77
g63
NtRp4141
(dp4142
g66
(dp4143
sg75
g4123
sg68
(lp4144
g61
(g82
g63
NtRp4145
(dp4146
g66
(dp4147
sg75
g4141
sg68
(lp4148
g61
(g62
g63
NtRp4149
(dp4150
g66
(dp4151
g74
I3
ssg75
g4145
sg68
(lp4152
g104
asbasbasbag61
(g77
g63
NtRp4153
(dp4154
g66
(dp4155
sg75
g4123
sg68
(lp4156
g61
(g82
g63
NtRp4157
(dp4158
g66
(dp4159
sg75
g4153
sg68
(lp4160
g61
(g62
g63
NtRp4161
(dp4162
g66
(dp4163
g74
I3
ssg75
g4157
sg68
(lp4164
S'/show_cliente'
p4165
asbasbasbag61
(g77
g63
NtRp4166
(dp4167
g66
(dp4168
sg75
g4123
sg68
(lp4169
g61
(g82
g63
NtRp4170
(dp4171
g66
(dp4172
sg75
g4166
sg68
(lp4173
g61
(g62
g63
NtRp4174
(dp4175
g66
(dp4176
g74
I3
ssg75
g4170
sg68
(lp4177
g61
(g70
g63
NtRp4178
(dp4179
g66
(dp4180
g74
I2
ssg75
Nsg68
(lp4181
sbasbasbasbasbasbasbasbag61
(g77
g63
NtRp4182
(dp4183
g66
(dp4184
sg75
g4107
sg68
(lp4185
g61
(g82
g63
NtRp4186
(dp4187
g66
(dp4188
sg75
g4182
sg68
(lp4189
g61
(g62
g63
NtRp4190
(dp4191
g66
(dp4192
g74
I4
ssg75
g4186
sg68
(lp4193
g61
(g70
g63
NtRp4194
(dp4195
g66
(dp4196
g74
I3
ssg75
Nsg68
(lp4197
g61
(g77
g63
NtRp4198
(dp4199
g66
(dp4200
sg75
g4194
sg68
(lp4201
g61
(g82
g63
NtRp4202
(dp4203
g66
(dp4204
sg75
g4198
sg68
(lp4205
g61
(g62
g63
NtRp4206
(dp4207
g66
(dp4208
g74
I3
ssg75
g4202
sg68
(lp4209
g4139
(S't\n\x00\x00\x00Servidores'
tRp4210
asbasbasbag61
(g77
g63
NtRp4211
(dp4212
g66
(dp4213
sg75
g4194
sg68
(lp4214
g61
(g82
g63
NtRp4215
(dp4216
g66
(dp4217
sg75
g4211
sg68
(lp4218
g61
(g62
g63
NtRp4219
(dp4220
g66
(dp4221
g74
I3
ssg75
g4215
sg68
(lp4222
g104
asbasbasbag61
(g77
g63
NtRp4223
(dp4224
g66
(dp4225
sg75
g4194
sg68
(lp4226
g61
(g82
g63
NtRp4227
(dp4228
g66
(dp4229
sg75
g4223
sg68
(lp4230
g61
(g62
g63
NtRp4231
(dp4232
g66
(dp4233
g74
I3
ssg75
g4227
sg68
(lp4234
S'/show_servidor'
p4235
asbasbasbag61
(g77
g63
NtRp4236
(dp4237
g66
(dp4238
sg75
g4194
sg68
(lp4239
g61
(g82
g63
NtRp4240
(dp4241
g66
(dp4242
sg75
g4236
sg68
(lp4243
g61
(g62
g63
NtRp4244
(dp4245
g66
(dp4246
g74
I3
ssg75
g4240
sg68
(lp4247
g61
(g70
g63
NtRp4248
(dp4249
g66
(dp4250
g74
I2
ssg75
Nsg68
(lp4251
sbasbasbasbasbasbasbasbag61
(g77
g63
NtRp4252
(dp4253
g66
(dp4254
sg75
g4107
sg68
(lp4255
g61
(g82
g63
NtRp4256
(dp4257
g66
(dp4258
sg75
g4252
sg68
(lp4259
g61
(g62
g63
NtRp4260
(dp4261
g66
(dp4262
g74
I4
ssg75
g4256
sg68
(lp4263
g61
(g70
g63
NtRp4264
(dp4265
g66
(dp4266
g74
I3
ssg75
Nsg68
(lp4267
g61
(g77
g63
NtRp4268
(dp4269
g66
(dp4270
sg75
g4264
sg68
(lp4271
g61
(g82
g63
NtRp4272
(dp4273
g66
(dp4274
sg75
g4268
sg68
(lp4275
g61
(g62
g63
NtRp4276
(dp4277
g66
(dp4278
g74
I3
ssg75
g4272
sg68
(lp4279
g4139
(S't\x07\x00\x00\x00Distros'
tRp4280
asbasbasbag61
(g77
g63
NtRp4281
(dp4282
g66
(dp4283
sg75
g4264
sg68
(lp4284
g61
(g82
g63
NtRp4285
(dp4286
g66
(dp4287
sg75
g4281
sg68
(lp4288
g61
(g62
g63
NtRp4289
(dp4290
g66
(dp4291
g74
I3
ssg75
g4285
sg68
(lp4292
g104
asbasbasbag61
(g77
g63
NtRp4293
(dp4294
g66
(dp4295
sg75
g4264
sg68
(lp4296
g61
(g82
g63
NtRp4297
(dp4298
g66
(dp4299
sg75
g4293
sg68
(lp4300
g61
(g62
g63
NtRp4301
(dp4302
g66
(dp4303
g74
I3
ssg75
g4297
sg68
(lp4304
S'/show_distro'
p4305
asbasbasbag61
(g77
g63
NtRp4306
(dp4307
g66
(dp4308
sg75
g4264
sg68
(lp4309
g61
(g82
g63
NtRp4310
(dp4311
g66
(dp4312
sg75
g4306
sg68
(lp4313
g61
(g62
g63
NtRp4314
(dp4315
g66
(dp4316
g74
I3
ssg75
g4310
sg68
(lp4317
g61
(g70
g63
NtRp4318
(dp4319
g66
(dp4320
g74
I2
ssg75
Nsg68
(lp4321
sbasbasbasbasbasbasbasbag61
(g77
g63
NtRp4322
(dp4323
g66
(dp4324
sg75
g4107
sg68
(lp4325
g61
(g82
g63
NtRp4326
(dp4327
g66
(dp4328
sg75
g4322
sg68
(lp4329
g61
(g62
g63
NtRp4330
(dp4331
g66
(dp4332
g74
I4
ssg75
g4326
sg68
(lp4333
g61
(g70
g63
NtRp4334
(dp4335
g66
(dp4336
g74
I3
ssg75
Nsg68
(lp4337
g61
(g77
g63
NtRp4338
(dp4339
g66
(dp4340
sg75
g4334
sg68
(lp4341
g61
(g82
g63
NtRp4342
(dp4343
g66
(dp4344
sg75
g4338
sg68
(lp4345
g61
(g62
g63
NtRp4346
(dp4347
g66
(dp4348
g74
I3
ssg75
g4342
sg68
(lp4349
g4139
(S's\x05\x00\x00\x00+host'
tRp4350
asbasbasbag61
(g77
g63
NtRp4351
(dp4352
g66
(dp4353
sg75
g4334
sg68
(lp4354
g61
(g82
g63
NtRp4355
(dp4356
g66
(dp4357
sg75
g4351
sg68
(lp4358
g61
(g62
g63
NtRp4359
(dp4360
g66
(dp4361
g74
I3
ssg75
g4355
sg68
(lp4362
g104
asbasbasbag61
(g77
g63
NtRp4363
(dp4364
g66
(dp4365
sg75
g4334
sg68
(lp4366
g61
(g82
g63
NtRp4367
(dp4368
g66
(dp4369
sg75
g4363
sg68
(lp4370
g61
(g62
g63
NtRp4371
(dp4372
g66
(dp4373
g74
I3
ssg75
g4367
sg68
(lp4374
S'/interface'
p4375
asbasbasbag61
(g77
g63
NtRp4376
(dp4377
g66
(dp4378
sg75
g4334
sg68
(lp4379
g61
(g82
g63
NtRp4380
(dp4381
g66
(dp4382
sg75
g4376
sg68
(lp4383
g61
(g62
g63
NtRp4384
(dp4385
g66
(dp4386
g74
I3
ssg75
g4380
sg68
(lp4387
g61
(g70
g63
NtRp4388
(dp4389
g66
(dp4390
g74
I2
ssg75
Nsg68
(lp4391
sbasbasbasbasbasbasbasbasbasbasbasbag61
(g77
g63
NtRp4392
(dp4393
g66
(dp4394
sg75
g3606
sg68
(lp4395
g61
(g82
g63
NtRp4396
(dp4397
g66
(dp4398
g86
g87
ssg75
g4392
sg68
(lp4399
S'menu2'
p4400
asbag61
(g82
g63
NtRp4401
(dp4402
g66
(dp4403
g93
g94
ssg75
g4392
sg68
(lp4404
S':'
asbag61
(g82
g63
NtRp4405
(dp4406
g66
(dp4407
sg75
g4392
sg68
(lp4408
g61
(g62
g63
NtRp4409
(dp4410
g66
(dp4411
g74
I5
ssg75
g4405
sg68
(lp4412
g61
(g70
g63
NtRp4413
(dp4414
g66
(dp4415
g74
I4
ssg75
Nsg68
(lp4416
g61
(g77
g63
NtRp4417
(dp4418
g66
(dp4419
sg75
g4413
sg68
(lp4420
g61
(g82
g63
NtRp4421
(dp4422
g66
(dp4423
sg75
g4417
sg68
(lp4424
g61
(g62
g63
NtRp4425
(dp4426
g66
(dp4427
g74
I4
ssg75
g4421
sg68
(lp4428
g61
(g70
g63
NtRp4429
(dp4430
g66
(dp4431
g74
I3
ssg75
Nsg68
(lp4432
g61
(g77
g63
NtRp4433
(dp4434
g66
(dp4435
sg75
g4429
sg68
(lp4436
g61
(g82
g63
NtRp4437
(dp4438
g66
(dp4439
sg75
g4433
sg68
(lp4440
g61
(g62
g63
NtRp4441
(dp4442
g66
(dp4443
g74
I3
ssg75
g4437
sg68
(lp4444
g61
(g4079
g63
NtRp4445
(dp4446
g66
(dp4447
g4068
S'dropdown-toggle'
p4448
ssg75
Nsg68
(lp4449
S'Admin'
p4450
asbasbasbasbag61
(g77
g63
NtRp4451
(dp4452
g66
(dp4453
sg75
g4429
sg68
(lp4454
g61
(g82
g63
NtRp4455
(dp4456
g66
(dp4457
sg75
g4451
sg68
(lp4458
g61
(g62
g63
NtRp4459
(dp4460
g66
(dp4461
g74
I3
ssg75
g4455
sg68
(lp4462
g104
asbasbasbag61
(g77
g63
NtRp4463
(dp4464
g66
(dp4465
sg75
g4429
sg68
(lp4466
g61
(g82
g63
NtRp4467
(dp4468
g66
(dp4469
sg75
g4463
sg68
(lp4470
g61
(g62
g63
NtRp4471
(dp4472
g66
(dp4473
g74
I3
ssg75
g4467
sg68
(lp4474
S'#'
asbasbasbag61
(g77
g63
NtRp4475
(dp4476
g66
(dp4477
sg75
g4429
sg68
(lp4478
g61
(g82
g63
NtRp4479
(dp4480
g66
(dp4481
sg75
g4475
sg68
(lp4482
g61
(g62
g63
NtRp4483
(dp4484
g66
(dp4485
g74
I3
ssg75
g4479
sg68
(lp4486
g61
(g70
g63
NtRp4487
(dp4488
g66
(dp4489
g74
I2
ssg75
Nsg68
(lp4490
g61
(g77
g63
NtRp4491
(dp4492
g66
(dp4493
sg75
g4487
sg68
(lp4494
g61
(g82
g63
NtRp4495
(dp4496
g66
(dp4497
sg75
g4491
sg68
(lp4498
g61
(g62
g63
NtRp4499
(dp4500
g66
(dp4501
g74
I2
ssg75
g4495
sg68
(lp4502
g61
(g70
g63
NtRp4503
(dp4504
g66
(dp4505
g74
I1
ssg75
Nsg68
(lp4506
g61
(g77
g63
NtRp4507
(dp4508
g66
(dp4509
sg75
g4503
sg68
(lp4510
g61
(g82
g63
NtRp4511
(dp4512
g66
(dp4513
sg75
g4507
sg68
(lp4514
g61
(g62
g63
NtRp4515
(dp4516
g66
(dp4517
g74
I1
ssg75
g4511
sg68
(lp4518
g4139
(S's\t\x00\x00\x00Usu\xc3\xa1rios'
tRp4519
asbasbasbag61
(g77
g63
NtRp4520
(dp4521
g66
(dp4522
sg75
g4503
sg68
(lp4523
g61
(g82
g63
NtRp4524
(dp4525
g66
(dp4526
sg75
g4520
sg68
(lp4527
g61
(g62
g63
NtRp4528
(dp4529
g66
(dp4530
g74
I1
ssg75
g4524
sg68
(lp4531
I00
asbasbasbag61
(g77
g63
NtRp4532
(dp4533
g66
(dp4534
sg75
g4503
sg68
(lp4535
g61
(g82
g63
NtRp4536
(dp4537
g66
(dp4538
sg75
g4532
sg68
(lp4539
g61
(g62
g63
NtRp4540
(dp4541
g66
(dp4542
g74
I1
ssg75
g4536
sg68
(lp4543
S'/manager/users'
p4544
asbasbasbasbasbasbasbag61
(g77
g63
NtRp4545
(dp4546
g66
(dp4547
sg75
g4487
sg68
(lp4548
g61
(g82
g63
NtRp4549
(dp4550
g66
(dp4551
sg75
g4545
sg68
(lp4552
g61
(g62
g63
NtRp4553
(dp4554
g66
(dp4555
g74
I2
ssg75
g4549
sg68
(lp4556
g61
(g70
g63
NtRp4557
(dp4558
g66
(dp4559
g74
I1
ssg75
Nsg68
(lp4560
g61
(g77
g63
NtRp4561
(dp4562
g66
(dp4563
sg75
g4557
sg68
(lp4564
g61
(g82
g63
NtRp4565
(dp4566
g66
(dp4567
sg75
g4561
sg68
(lp4568
g61
(g62
g63
NtRp4569
(dp4570
g66
(dp4571
g74
I1
ssg75
g4565
sg68
(lp4572
g4139
(S't\x06\x00\x00\x00Grupos'
tRp4573
asbasbasbag61
(g77
g63
NtRp4574
(dp4575
g66
(dp4576
sg75
g4557
sg68
(lp4577
g61
(g82
g63
NtRp4578
(dp4579
g66
(dp4580
sg75
g4574
sg68
(lp4581
g61
(g62
g63
NtRp4582
(dp4583
g66
(dp4584
g74
I1
ssg75
g4578
sg68
(lp4585
I00
asbasbasbag61
(g77
g63
NtRp4586
(dp4587
g66
(dp4588
sg75
g4557
sg68
(lp4589
g61
(g82
g63
NtRp4590
(dp4591
g66
(dp4592
sg75
g4586
sg68
(lp4593
g61
(g62
g63
NtRp4594
(dp4595
g66
(dp4596
g74
I1
ssg75
g4590
sg68
(lp4597
S'/manager/groups'
p4598
asbasbasbasbasbasbasbag61
(g77
g63
NtRp4599
(dp4600
g66
(dp4601
sg75
g4487
sg68
(lp4602
g61
(g82
g63
NtRp4603
(dp4604
g66
(dp4605
sg75
g4599
sg68
(lp4606
g61
(g62
g63
NtRp4607
(dp4608
g66
(dp4609
g74
I2
ssg75
g4603
sg68
(lp4610
g61
(g70
g63
NtRp4611
(dp4612
g66
(dp4613
g74
I1
ssg75
Nsg68
(lp4614
g61
(g77
g63
NtRp4615
(dp4616
g66
(dp4617
sg75
g4611
sg68
(lp4618
g61
(g82
g63
NtRp4619
(dp4620
g66
(dp4621
sg75
g4615
sg68
(lp4622
g61
(g62
g63
NtRp4623
(dp4624
g66
(dp4625
g74
I1
ssg75
g4619
sg68
(lp4626
g4139
(S't\x07\x00\x00\x00Membros'
tRp4627
asbasbasbag61
(g77
g63
NtRp4628
(dp4629
g66
(dp4630
sg75
g4611
sg68
(lp4631
g61
(g82
g63
NtRp4632
(dp4633
g66
(dp4634
sg75
g4628
sg68
(lp4635
g61
(g62
g63
NtRp4636
(dp4637
g66
(dp4638
g74
I1
ssg75
g4632
sg68
(lp4639
I00
asbasbasbag61
(g77
g63
NtRp4640
(dp4641
g66
(dp4642
sg75
g4611
sg68
(lp4643
g61
(g82
g63
NtRp4644
(dp4645
g66
(dp4646
sg75
g4640
sg68
(lp4647
g61
(g62
g63
NtRp4648
(dp4649
g66
(dp4650
g74
I1
ssg75
g4644
sg68
(lp4651
S'/manager/membership'
p4652
asbasbasbasbasbasbasbasbasbasbasbasbasbasbasbag61
(g77
g63
NtRp4653
(dp4654
g66
(dp4655
sg75
g4413
sg68
(lp4656
g61
(g82
g63
NtRp4657
(dp4658
g66
(dp4659
sg75
g4653
sg68
(lp4660
g61
(g62
g63
NtRp4661
(dp4662
g66
(dp4663
g74
I4
ssg75
g4657
sg68
(lp4664
g61
(g70
g63
NtRp4665
(dp4666
g66
(dp4667
g74
I3
ssg75
Nsg68
(lp4668
g61
(g77
g63
NtRp4669
(dp4670
g66
(dp4671
sg75
g4665
sg68
(lp4672
g61
(g82
g63
NtRp4673
(dp4674
g66
(dp4675
sg75
g4669
sg68
(lp4676
g61
(g62
g63
NtRp4677
(dp4678
g66
(dp4679
g74
I3
ssg75
g4673
sg68
(lp4680
g61
(g4079
g63
NtRp4681
(dp4682
g66
(dp4683
g4068
g4448
ssg75
Nsg68
(lp4684
S'Login'
p4685
asbasbasbasbag61
(g77
g63
NtRp4686
(dp4687
g66
(dp4688
sg75
g4665
sg68
(lp4689
g61
(g82
g63
NtRp4690
(dp4691
g66
(dp4692
sg75
g4686
sg68
(lp4693
g61
(g62
g63
NtRp4694
(dp4695
g66
(dp4696
g74
I3
ssg75
g4690
sg68
(lp4697
g104
asbasbasbag61
(g77
g63
NtRp4698
(dp4699
g66
(dp4700
sg75
g4665
sg68
(lp4701
g61
(g82
g63
NtRp4702
(dp4703
g66
(dp4704
sg75
g4698
sg68
(lp4705
g61
(g62
g63
NtRp4706
(dp4707
g66
(dp4708
g74
I3
ssg75
g4702
sg68
(lp4709
S'#'
asbasbasbag61
(g77
g63
NtRp4710
(dp4711
g66
(dp4712
sg75
g4665
sg68
(lp4713
g61
(g82
g63
NtRp4714
(dp4715
g66
(dp4716
sg75
g4710
sg68
(lp4717
g61
(g62
g63
NtRp4718
(dp4719
g66
(dp4720
g74
I3
ssg75
g4714
sg68
(lp4721
g61
(g70
g63
NtRp4722
(dp4723
g66
(dp4724
g74
I2
ssg75
Nsg68
(lp4725
g61
(g77
g63
NtRp4726
(dp4727
g66
(dp4728
sg75
g4722
sg68
(lp4729
g61
(g82
g63
NtRp4730
(dp4731
g66
(dp4732
sg75
g4726
sg68
(lp4733
g61
(g62
g63
NtRp4734
(dp4735
g66
(dp4736
g74
I2
ssg75
g4730
sg68
(lp4737
g61
(g70
g63
NtRp4738
(dp4739
g66
(dp4740
g74
I1
ssg75
Nsg68
(lp4741
g61
(g77
g63
NtRp4742
(dp4743
g66
(dp4744
sg75
g4738
sg68
(lp4745
g61
(g82
g63
NtRp4746
(dp4747
g66
(dp4748
sg75
g4742
sg68
(lp4749
g61
(g62
g63
NtRp4750
(dp4751
g66
(dp4752
g74
I1
ssg75
g4746
sg68
(lp4753
g4139
(S't\x06\x00\x00\x00Logout'
tRp4754
asbasbasbag61
(g77
g63
NtRp4755
(dp4756
g66
(dp4757
sg75
g4738
sg68
(lp4758
g61
(g82
g63
NtRp4759
(dp4760
g66
(dp4761
sg75
g4755
sg68
(lp4762
g61
(g62
g63
NtRp4763
(dp4764
g66
(dp4765
g74
I1
ssg75
g4759
sg68
(lp4766
I00
asbasbasbag61
(g77
g63
NtRp4767
(dp4768
g66
(dp4769
sg75
g4738
sg68
(lp4770
g61
(g82
g63
NtRp4771
(dp4772
g66
(dp4773
sg75
g4767
sg68
(lp4774
g61
(g62
g63
NtRp4775
(dp4776
g66
(dp4777
g74
I1
ssg75
g4771
sg68
(lp4778
S'/initial/user/logout'
p4779
asbasbasbasbasbasbasbasbasbasbasbasbasbasbasbasbasbasbasbag61
(g77
g63
NtRp4780
(dp4781
g66
(dp4782
sg75
g3606
sg68
(lp4783
g61
(g82
g63
NtRp4784
(dp4785
g66
(dp4786
g86
g87
ssg75
g4780
sg68
(lp4787
S'meta'
p4788
asbag61
(g82
g63
NtRp4789
(dp4790
g66
(dp4791
g93
g94
ssg75
g4780
sg68
(lp4792
S':'
asbag61
(g82
g63
NtRp4793
(dp4794
g66
(dp4795
sg75
g4780
sg68
(lp4796
g61
(g62
g63
NtRp4797
(dp4798
g66
(dp4799
g74
I5
ssg75
g4793
sg68
(lp4800
g61
(g70
g63
NtRp4801
(dp4802
g66
(dp4803
g74
I4
ssg75
Nsg68
(lp4804
g61
(g77
g63
NtRp4805
(dp4806
g66
(dp4807
sg75
g4801
sg68
(lp4808
g61
(g82
g63
NtRp4809
(dp4810
g66
(dp4811
g86
g87
ssg75
g4805
sg68
(lp4812
S'author'
p4813
asbag61
(g82
g63
NtRp4814
(dp4815
g66
(dp4816
g93
g94
ssg75
g4805
sg68
(lp4817
S':'
asbag61
(g82
g63
NtRp4818
(dp4819
g66
(dp4820
sg75
g4805
sg68
(lp4821
g61
(g62
g63
NtRp4822
(dp4823
g66
(dp4824
g74
I4
ssg75
g4818
sg68
(lp4825
S'Your Name <you@example.com>'
p4826
asbasbasbag61
(g77
g63
NtRp4827
(dp4828
g66
(dp4829
sg75
g4801
sg68
(lp4830
g61
(g82
g63
NtRp4831
(dp4832
g66
(dp4833
g86
g87
ssg75
g4827
sg68
(lp4834
S'description'
p4835
asbag61
(g82
g63
NtRp4836
(dp4837
g66
(dp4838
g93
g94
ssg75
g4827
sg68
(lp4839
S':'
asbag61
(g82
g63
NtRp4840
(dp4841
g66
(dp4842
sg75
g4827
sg68
(lp4843
g61
(g62
g63
NtRp4844
(dp4845
g66
(dp4846
g74
I4
ssg75
g4840
sg68
(lp4847
S'a cool new app'
p4848
asbasbasbag61
(g77
g63
NtRp4849
(dp4850
g66
(dp4851
sg75
g4801
sg68
(lp4852
g61
(g82
g63
NtRp4853
(dp4854
g66
(dp4855
g86
g87
ssg75
g4849
sg68
(lp4856
S'generator'
p4857
asbag61
(g82
g63
NtRp4858
(dp4859
g66
(dp4860
g93
g94
ssg75
g4849
sg68
(lp4861
S':'
asbag61
(g82
g63
NtRp4862
(dp4863
g66
(dp4864
sg75
g4849
sg68
(lp4865
g61
(g62
g63
NtRp4866
(dp4867
g66
(dp4868
g74
I4
ssg75
g4862
sg68
(lp4869
S'Web2py Web Framework'
p4870
asbasbasbag61
(g77
g63
NtRp4871
(dp4872
g66
(dp4873
sg75
g4801
sg68
(lp4874
g61
(g82
g63
NtRp4875
(dp4876
g66
(dp4877
g86
g87
ssg75
g4871
sg68
(lp4878
S'keywords'
p4879
asbag61
(g82
g63
NtRp4880
(dp4881
g66
(dp4882
g93
g94
ssg75
g4871
sg68
(lp4883
S':'
asbag61
(g82
g63
NtRp4884
(dp4885
g66
(dp4886
sg75
g4871
sg68
(lp4887
g61
(g62
g63
NtRp4888
(dp4889
g66
(dp4890
g74
I4
ssg75
g4884
sg68
(lp4891
S'web2py, python, framework'
p4892
asbasbasbasbasbasbasbag61
(g77
g63
NtRp4893
(dp4894
g66
(dp4895
sg75
g3606
sg68
(lp4896
g61
(g82
g63
NtRp4897
(dp4898
g66
(dp4899
g86
g87
ssg75
g4893
sg68
(lp4900
S'models_to_run'
p4901
asbag61
(g82
g63
NtRp4902
(dp4903
g66
(dp4904
g93
g94
ssg75
g4893
sg68
(lp4905
S':'
asbag61
(g82
g63
NtRp4906
(dp4907
g66
(dp4908
sg75
g4893
sg68
(lp4909
g61
(g62
g63
NtRp4910
(dp4911
g66
(dp4912
g74
I5
ssg75
g4906
sg68
(lp4913
g61
(g70
g63
NtRp4914
(dp4915
g66
(dp4916
g74
I4
ssg75
Nsg68
(lp4917
g61
(g77
g63
NtRp4918
(dp4919
g66
(dp4920
sg75
g4914
sg68
(lp4921
g61
(g82
g63
NtRp4922
(dp4923
g66
(dp4924
sg75
g4918
sg68
(lp4925
g61
(g62
g63
NtRp4926
(dp4927
g66
(dp4928
g74
I4
ssg75
g4922
sg68
(lp4929
S'^\\w+\\.py$'
p4930
asbasbasbag61
(g77
g63
NtRp4931
(dp4932
g66
(dp4933
sg75
g4914
sg68
(lp4934
g61
(g82
g63
NtRp4935
(dp4936
g66
(dp4937
sg75
g4931
sg68
(lp4938
g61
(g62
g63
NtRp4939
(dp4940
g66
(dp4941
g74
I4
ssg75
g4935
sg68
(lp4942
S'^initial/\\w+\\.py$'
p4943
asbasbasbag61
(g77
g63
NtRp4944
(dp4945
g66
(dp4946
sg75
g4914
sg68
(lp4947
g61
(g82
g63
NtRp4948
(dp4949
g66
(dp4950
sg75
g4944
sg68
(lp4951
g61
(g62
g63
NtRp4952
(dp4953
g66
(dp4954
g74
I4
ssg75
g4948
sg68
(lp4955
S'^initial/show_cliente/\\w+\\.py$'
p4956
asbasbasbasbasbasbasbag61
(g77
g63
NtRp4957
(dp4958
g66
(dp4959
sg75
g3606
sg68
(lp4960
g61
(g82
g63
NtRp4961
(dp4962
g66
(dp4963
g86
g87
ssg75
g4957
sg68
(lp4964
S'postprocessing'
p4965
asbag61
(g82
g63
NtRp4966
(dp4967
g66
(dp4968
g93
g94
ssg75
g4957
sg68
(lp4969
S':'
asbag61
(g82
g63
NtRp4970
(dp4971
g66
(dp4972
sg75
g4957
sg68
(lp4973
g61
(g62
g63
NtRp4974
(dp4975
g66
(dp4976
g74
I5
ssg75
g4970
sg68
(lp4977
g61
(g70
g63
NtRp4978
(dp4979
g66
(dp4980
g74
I4
ssg75
Nsg68
(lp4981
sbasbasbasbag61
(g77
g63
NtRp4982
(dp4983
g66
(dp4984
sg75
g3606
sg68
(lp4985
g61
(g82
g63
NtRp4986
(dp4987
g66
(dp4988
g86
g87
ssg75
g4982
sg68
(lp4989
S'session_cookie_expires'
p4990
asbag61
(g82
g63
NtRp4991
(dp4992
g66
(dp4993
g93
g94
ssg75
g4982
sg68
(lp4994
S':'
asbag61
(g82
g63
NtRp4995
(dp4996
g66
(dp4997
sg75
g4982
sg68
(lp4998
g61
(g62
g63
NtRp4999
(dp5000
g66
(dp5001
g74
I5
ssg75
g4995
sg68
(lp5002
S'None'
p5003
asbasbasbag61
(g77
g63
NtRp5004
(dp5005
g66
(dp5006
sg75
g3606
sg68
(lp5007
g61
(g82
g63
NtRp5008
(dp5009
g66
(dp5010
g86
g87
ssg75
g5004
sg68
(lp5011
S'session_data_name'
p5012
asbag61
(g82
g63
NtRp5013
(dp5014
g66
(dp5015
g93
g94
ssg75
g5004
sg68
(lp5016
S':'
asbag61
(g82
g63
NtRp5017
(dp5018
g66
(dp5019
sg75
g5004
sg68
(lp5020
g61
(g62
g63
NtRp5021
(dp5022
g66
(dp5023
g74
I5
ssg75
g5017
sg68
(lp5024
S'session_data_projeto'
p5025
asbasbasbag61
(g77
g63
NtRp5026
(dp5027
g66
(dp5028
sg75
g3606
sg68
(lp5029
g61
(g82
g63
NtRp5030
(dp5031
g66
(dp5032
g86
g87
ssg75
g5026
sg68
(lp5033
S'session_file'
p5034
asbag61
(g82
g63
NtRp5035
(dp5036
g66
(dp5037
g93
g94
ssg75
g5026
sg68
(lp5038
S':'
asbag61
(g82
g63
NtRp5039
(dp5040
g66
(dp5041
sg75
g5026
sg68
(lp5042
g61
(g62
g63
NtRp5043
(dp5044
g66
(dp5045
g74
I5
ssg75
g5039
sg68
(lp5046
S"<open file '/var/www/conferencia/applications/projeto/sessions/127.0.0.1-0fe02c32-0739-4f06-a369-3bba6377da8b', mode 'rb+' at 0x7f32fc126db0>"
p5047
asbasbasbag61
(g77
g63
NtRp5048
(dp5049
g66
(dp5050
sg75
g3606
sg68
(lp5051
g61
(g82
g63
NtRp5052
(dp5053
g66
(dp5054
g86
g87
ssg75
g5048
sg68
(lp5055
S'session_filename'
p5056
asbag61
(g82
g63
NtRp5057
(dp5058
g66
(dp5059
g93
g94
ssg75
g5048
sg68
(lp5060
S':'
asbag61
(g82
g63
NtRp5061
(dp5062
g66
(dp5063
sg75
g5048
sg68
(lp5064
g61
(g62
g63
NtRp5065
(dp5066
g66
(dp5067
g74
I5
ssg75
g5061
sg68
(lp5068
S'/var/www/conferencia/applications/projeto/sessions/127.0.0.1-0fe02c32-0739-4f06-a369-3bba6377da8b'
p5069
asbasbasbag61
(g77
g63
NtRp5070
(dp5071
g66
(dp5072
sg75
g3606
sg68
(lp5073
g61
(g82
g63
NtRp5074
(dp5075
g66
(dp5076
g86
g87
ssg75
g5070
sg68
(lp5077
S'session_id'
p5078
asbag61
(g82
g63
NtRp5079
(dp5080
g66
(dp5081
g93
g94
ssg75
g5070
sg68
(lp5082
S':'
asbag61
(g82
g63
NtRp5083
(dp5084
g66
(dp5085
sg75
g5070
sg68
(lp5086
g61
(g62
g63
NtRp5087
(dp5088
g66
(dp5089
g74
I5
ssg75
g5083
sg68
(lp5090
g505
asbasbasbag61
(g77
g63
NtRp5091
(dp5092
g66
(dp5093
sg75
g3606
sg68
(lp5094
g61
(g82
g63
NtRp5095
(dp5096
g66
(dp5097
g86
g87
ssg75
g5091
sg68
(lp5098
S'session_id_name'
p5099
asbag61
(g82
g63
NtRp5100
(dp5101
g66
(dp5102
g93
g94
ssg75
g5091
sg68
(lp5103
S':'
asbag61
(g82
g63
NtRp5104
(dp5105
g66
(dp5106
sg75
g5091
sg68
(lp5107
g61
(g62
g63
NtRp5108
(dp5109
g66
(dp5110
g74
I5
ssg75
g5104
sg68
(lp5111
g3663
asbasbasbag61
(g77
g63
NtRp5112
(dp5113
g66
(dp5114
sg75
g3606
sg68
(lp5115
g61
(g82
g63
NtRp5116
(dp5117
g66
(dp5118
g86
g87
ssg75
g5112
sg68
(lp5119
S'session_locked'
p5120
asbag61
(g82
g63
NtRp5121
(dp5122
g66
(dp5123
g93
g94
ssg75
g5112
sg68
(lp5124
S':'
asbag61
(g82
g63
NtRp5125
(dp5126
g66
(dp5127
sg75
g5112
sg68
(lp5128
g61
(g62
g63
NtRp5129
(dp5130
g66
(dp5131
g74
I5
ssg75
g5125
sg68
(lp5132
g1644
asbasbasbag61
(g77
g63
NtRp5133
(dp5134
g66
(dp5135
sg75
g3606
sg68
(lp5136
g61
(g82
g63
NtRp5137
(dp5138
g66
(dp5139
g86
g87
ssg75
g5133
sg68
(lp5140
S'session_new'
p5141
asbag61
(g82
g63
NtRp5142
(dp5143
g66
(dp5144
g93
g94
ssg75
g5133
sg68
(lp5145
S':'
asbag61
(g82
g63
NtRp5146
(dp5147
g66
(dp5148
sg75
g5133
sg68
(lp5149
g61
(g62
g63
NtRp5150
(dp5151
g66
(dp5152
g74
I5
ssg75
g5146
sg68
(lp5153
g104
asbasbasbag61
(g77
g63
NtRp5154
(dp5155
g66
(dp5156
sg75
g3606
sg68
(lp5157
g61
(g82
g63
NtRp5158
(dp5159
g66
(dp5160
g86
g87
ssg75
g5154
sg68
(lp5161
S'session_storage_type'
p5162
asbag61
(g82
g63
NtRp5163
(dp5164
g66
(dp5165
g93
g94
ssg75
g5154
sg68
(lp5166
S':'
asbag61
(g82
g63
NtRp5167
(dp5168
g66
(dp5169
sg75
g5154
sg68
(lp5170
g61
(g62
g63
NtRp5171
(dp5172
g66
(dp5173
g74
I5
ssg75
g5167
sg68
(lp5174
g3062
asbasbasbag61
(g77
g63
NtRp5175
(dp5176
g66
(dp5177
sg75
g3606
sg68
(lp5178
g61
(g82
g63
NtRp5179
(dp5180
g66
(dp5181
g86
g87
ssg75
g5175
sg68
(lp5182
S'status'
p5183
asbag61
(g82
g63
NtRp5184
(dp5185
g66
(dp5186
g93
g94
ssg75
g5175
sg68
(lp5187
S':'
asbag61
(g82
g63
NtRp5188
(dp5189
g66
(dp5190
sg75
g5175
sg68
(lp5191
g61
(g62
g63
NtRp5192
(dp5193
g66
(dp5194
g74
I5
ssg75
g5188
sg68
(lp5195
S'200'
p5196
asbasbasbag61
(g77
g63
NtRp5197
(dp5198
g66
(dp5199
sg75
g3606
sg68
(lp5200
g61
(g82
g63
NtRp5201
(dp5202
g66
(dp5203
g86
g87
ssg75
g5197
sg68
(lp5204
S'subtitle'
p5205
asbag61
(g82
g63
NtRp5206
(dp5207
g66
(dp5208
g93
g94
ssg75
g5197
sg68
(lp5209
S':'
asbag61
(g82
g63
NtRp5210
(dp5211
g66
(dp5212
sg75
g5197
sg68
(lp5213
g61
(g62
g63
NtRp5214
(dp5215
g66
(dp5216
g74
I5
ssg75
g5210
sg68
(lp5217
g4139
(S's\r\x00\x00\x00customize me!'
tRp5218
asbasbasbag61
(g77
g63
NtRp5219
(dp5220
g66
(dp5221
sg75
g3606
sg68
(lp5222
g61
(g82
g63
NtRp5223
(dp5224
g66
(dp5225
g86
g87
ssg75
g5219
sg68
(lp5226
S'title'
p5227
asbag61
(g82
g63
NtRp5228
(dp5229
g66
(dp5230
g93
g94
ssg75
g5219
sg68
(lp5231
S':'
asbag61
(g82
g63
NtRp5232
(dp5233
g66
(dp5234
sg75
g5219
sg68
(lp5235
g61
(g62
g63
NtRp5236
(dp5237
g66
(dp5238
g74
I5
ssg75
g5232
sg68
(lp5239
S'Eventos'
p5240
asbasbasbag61
(g77
g63
NtRp5241
(dp5242
g66
(dp5243
sg75
g3606
sg68
(lp5244
g61
(g82
g63
NtRp5245
(dp5246
g66
(dp5247
g86
g87
ssg75
g5241
sg68
(lp5248
S'view'
p5249
asbag61
(g82
g63
NtRp5250
(dp5251
g66
(dp5252
g93
g94
ssg75
g5241
sg68
(lp5253
S':'
asbag61
(g82
g63
NtRp5254
(dp5255
g66
(dp5256
sg75
g5241
sg68
(lp5257
g61
(g62
g63
NtRp5258
(dp5259
g66
(dp5260
g74
I5
ssg75
g5254
sg68
(lp5261
S'initial/show_cliente.html'
p5262
asbasbasbasbasbsS'locals'
p5263
(dp5264
S'exc'
p5265
S'ProgrammingError(\'ERROR\', \'42P01\', \'relation "usuario" does not exist\')'
p5266
sS'msg_class'
p5267
S"<class 'gluon.contrib.pg8000.protocol.RowDescription'>"
p5268
sS'self'
p5269
S'<gluon.contrib.pg8000.protocol.MessageReader object>'
p5270
sg46
S'()'
p5271
sS'handler'
p5272
S'<function <lambda>>'
p5273
sS'kwargs'
p5274
g21
sS'msg'
p5275
S'<ErrorResponse ERROR 42P01 \'relation "usuario" does not exist\'>'
p5276
sS'msg_handled'
p5277
g104
sssS'traceback'
p5278
S'Traceback (most recent call last):\n  File "/var/www/conferencia/gluon/restricted.py", line 212, in restricted\n    exec ccode in environment\n  File "/var/www/conferencia/applications/projeto/controllers/initial.py", line 328, in <module>\n  File "/var/www/conferencia/gluon/globals.py", line 193, in <lambda>\n    self._caller = lambda f: f()\n  File "/var/www/conferencia/applications/projeto/controllers/initial.py", line 9, in show_cliente\n    ignore_rw = True, maxtextlength=36,\n  File "/var/www/conferencia/gluon/sqlhtml.py", line 1877, in grid\n    **sqlformargs)\n  File "/var/www/conferencia/gluon/sqlhtml.py", line 1074, in __init__\n    inp = self.widgets.multiple.widget(field, default)\n  File "/var/www/conferencia/gluon/sqlhtml.py", line 313, in widget\n    return OptionsWidget.widget(field, value, **attributes)\n  File "/var/www/conferencia/gluon/sqlhtml.py", line 233, in widget\n    options = requires[0].options()\n  File "/var/www/conferencia/gluon/validators.py", line 489, in options\n    self.build_set()\n  File "/var/www/conferencia/gluon/validators.py", line 475, in build_set\n    records = self.dbset(table).select(*fields, **dd)\n  File "/var/www/conferencia/gluon/dal.py", line 8905, in select\n    return adapter.select(self.query,fields,attributes)\n  File "/var/www/conferencia/gluon/dal.py", line 1631, in select\n    return self._select_aux(sql,fields,attributes)\n  File "/var/www/conferencia/gluon/dal.py", line 1596, in _select_aux\n    self.execute(sql)\n  File "/var/www/conferencia/gluon/dal.py", line 1709, in execute\n    return self.log_execute(*a, **b)\n  File "/var/www/conferencia/gluon/dal.py", line 1703, in log_execute\n    ret = self.cursor.execute(*a, **b)\n  File "/var/www/conferencia/gluon/contrib/pg8000/dbapi.py", line 246, in _fn\n    return fn(self, *args, **kwargs)\n  File "/var/www/conferencia/gluon/contrib/pg8000/dbapi.py", line 317, in execute\n    self._execute(operation, args)\n  File "/var/www/conferencia/gluon/contrib/pg8000/dbapi.py", line 322, in _execute\n    self.cursor.execute(new_query, *new_args)\n  File "/var/www/conferencia/gluon/contrib/pg8000/interface.py", line 398, in execute\n    self._stmt = PreparedStatement(self.connection, query, statement_name="", *[{"type": type(x), "value": x} for x in args])\n  File "/var/www/conferencia/gluon/contrib/pg8000/interface.py", line 138, in __init__\n    self._parse_row_desc = self.c.parse(self._statement_name, statement, types)\n  File "/var/www/conferencia/gluon/contrib/pg8000/protocol.py", line 943, in _fn\n    return fn(self, *args, **kwargs)\n  File "/var/www/conferencia/gluon/contrib/pg8000/protocol.py", line 1104, in parse\n    return reader.handle_messages()\n  File "/var/www/conferencia/gluon/contrib/pg8000/protocol.py", line 929, in handle_messages\n    raise exc\nProgrammingError: (\'ERROR\', \'42P01\', \'relation "usuario" does not exist\')\n'
p5279
s.