(dp1
S'output'
p2
S'<type \'exceptions.SyntaxError\'> invalid table/column name "user" is a "ALL" reserved SQL keyword'
p3
sS'layer'
p4
S'/var/www/conferencia/applications/projeto/models/models.py'
p5
sS'code'
p6
S'user = db.define_table("user",\n      Field("nome", notnull=True, unique=True),\n      Field("pin"),\n      Field("email"),\n      #auth.signature\n      format="%(nome)s")'
p7
sS'snapshot'
p8
(dp9
S'exception'
p10
(dp11
S'__getslice__'
p12
S"<method-wrapper '__getslice__' of exceptions.SyntaxError object>"
p13
sS'text'
p14
S'None'
p15
sS'__str__'
p16
S"<method-wrapper '__str__' of exceptions.SyntaxError object>"
p17
sS'__reduce__'
p18
S'<built-in method __reduce__ of exceptions.SyntaxError object>'
p19
sS'__dict__'
p20
S'{}'
p21
sS'__sizeof__'
p22
S'<built-in method __sizeof__ of exceptions.SyntaxError object>'
p23
sS'__init__'
p24
S"<method-wrapper '__init__' of exceptions.SyntaxError object>"
p25
sS'__setattr__'
p26
S"<method-wrapper '__setattr__' of exceptions.SyntaxError object>"
p27
sS'__reduce_ex__'
p28
S'<built-in method __reduce_ex__ of exceptions.SyntaxError object>'
p29
sS'__new__'
p30
S'<built-in method __new__ of type object>'
p31
sS'__format__'
p32
S'<built-in method __format__ of exceptions.SyntaxError object>'
p33
sS'__class__'
p34
S"<type 'exceptions.SyntaxError'>"
p35
sS'filename'
p36
S'None'
p37
sS'lineno'
p38
S'None'
p39
sS'msg'
p40
S'\'invalid table/column name "user" is a "ALL" reserved SQL keyword\''
p41
sS'__doc__'
p42
S"'Invalid syntax.'"
p43
sS'__getitem__'
p44
S"<method-wrapper '__getitem__' of exceptions.SyntaxError object>"
p45
sS'__setstate__'
p46
S'<built-in method __setstate__ of exceptions.SyntaxError object>'
p47
sS'__getattribute__'
p48
S"<method-wrapper '__getattribute__' of exceptions.SyntaxError object>"
p49
sS'print_file_and_line'
p50
S'None'
p51
sS'args'
p52
S'(\'invalid table/column name "user" is a "ALL" reserved SQL keyword\',)'
p53
sS'__subclasshook__'
p54
S'<built-in method __subclasshook__ of type object>'
p55
sS'offset'
p56
S'None'
p57
sS'__unicode__'
p58
S'<built-in method __unicode__ of exceptions.SyntaxError object>'
p59
sS'__delattr__'
p60
S"<method-wrapper '__delattr__' of exceptions.SyntaxError object>"
p61
sS'__repr__'
p62
S"<method-wrapper '__repr__' of exceptions.SyntaxError object>"
p63
sS'__hash__'
p64
S"<method-wrapper '__hash__' of exceptions.SyntaxError object>"
p65
ssS'evalue'
p66
S'invalid table/column name "user" is a "ALL" reserved SQL keyword'
p67
sS'request'
p68
ccopy_reg
_reconstructor
p69
(cgluon.html
BEAUTIFY
p70
c__builtin__
object
p71
NtRp72
(dp73
S'attributes'
p74
(dp75
sS'components'
p76
(lp77
g69
(cgluon.html
TABLE
p78
g71
NtRp79
(dp80
g74
(dp81
S'level'
p82
I5
ssS'parent'
p83
Nsg76
(lp84
g69
(cgluon.html
TR
p85
g71
NtRp86
(dp87
g74
(dp88
sg83
g79
sg76
(lp89
g69
(cgluon.html
TD
p90
g71
NtRp91
(dp92
g74
(dp93
S'_style'
p94
S'font-weight:bold;vertical-align:top'
p95
ssg83
g86
sg76
(lp96
S'ajax'
p97
asbag69
(g90
g71
NtRp98
(dp99
g74
(dp100
S'_valign'
p101
S'top'
p102
ssg83
g86
sg76
(lp103
S':'
asbag69
(g90
g71
NtRp104
(dp105
g74
(dp106
sg83
g86
sg76
(lp107
g69
(g70
g71
NtRp108
(dp109
g74
(dp110
g82
I5
ssg83
g104
sg76
(lp111
S'False'
p112
asbasbasbag69
(g85
g71
NtRp113
(dp114
g74
(dp115
sg83
g79
sg76
(lp116
g69
(g90
g71
NtRp117
(dp118
g74
(dp119
g94
g95
ssg83
g113
sg76
(lp120
S'application'
p121
asbag69
(g90
g71
NtRp122
(dp123
g74
(dp124
g101
g102
ssg83
g113
sg76
(lp125
S':'
asbag69
(g90
g71
NtRp126
(dp127
g74
(dp128
sg83
g113
sg76
(lp129
g69
(g70
g71
NtRp130
(dp131
g74
(dp132
g82
I5
ssg83
g126
sg76
(lp133
S'projeto'
p134
asbasbasbag69
(g85
g71
NtRp135
(dp136
g74
(dp137
sg83
g79
sg76
(lp138
g69
(g90
g71
NtRp139
(dp140
g74
(dp141
g94
g95
ssg83
g135
sg76
(lp142
g52
asbag69
(g90
g71
NtRp143
(dp144
g74
(dp145
g101
g102
ssg83
g135
sg76
(lp146
S':'
asbag69
(g90
g71
NtRp147
(dp148
g74
(dp149
sg83
g135
sg76
(lp150
g69
(g70
g71
NtRp151
(dp152
g74
(dp153
g82
I5
ssg83
g147
sg76
(lp154
g69
(g78
g71
NtRp155
(dp156
g74
(dp157
g82
I4
ssg83
Nsg76
(lp158
sbasbasbasbag69
(g85
g71
NtRp159
(dp160
g74
(dp161
sg83
g79
sg76
(lp162
g69
(g90
g71
NtRp163
(dp164
g74
(dp165
g94
g95
ssg83
g159
sg76
(lp166
S'body'
p167
asbag69
(g90
g71
NtRp168
(dp169
g74
(dp170
g101
g102
ssg83
g159
sg76
(lp171
S':'
asbag69
(g90
g71
NtRp172
(dp173
g74
(dp174
sg83
g159
sg76
(lp175
g69
(g70
g71
NtRp176
(dp177
g74
(dp178
g82
I5
ssg83
g172
sg76
(lp179
S'<cStringIO.StringO object at 0x3379d88>'
p180
asbasbasbag69
(g85
g71
NtRp181
(dp182
g74
(dp183
sg83
g79
sg76
(lp184
g69
(g90
g71
NtRp185
(dp186
g74
(dp187
g94
g95
ssg83
g181
sg76
(lp188
S'cid'
p189
asbag69
(g90
g71
NtRp190
(dp191
g74
(dp192
g101
g102
ssg83
g181
sg76
(lp193
S':'
asbag69
(g90
g71
NtRp194
(dp195
g74
(dp196
sg83
g181
sg76
(lp197
g69
(g70
g71
NtRp198
(dp199
g74
(dp200
g82
I5
ssg83
g194
sg76
(lp201
S'None'
p202
asbasbasbag69
(g85
g71
NtRp203
(dp204
g74
(dp205
sg83
g79
sg76
(lp206
g69
(g90
g71
NtRp207
(dp208
g74
(dp209
g94
g95
ssg83
g203
sg76
(lp210
S'client'
p211
asbag69
(g90
g71
NtRp212
(dp213
g74
(dp214
g101
g102
ssg83
g203
sg76
(lp215
S':'
asbag69
(g90
g71
NtRp216
(dp217
g74
(dp218
sg83
g203
sg76
(lp219
g69
(g70
g71
NtRp220
(dp221
g74
(dp222
g82
I5
ssg83
g216
sg76
(lp223
S'127.0.0.1'
p224
asbasbasbag69
(g85
g71
NtRp225
(dp226
g74
(dp227
sg83
g79
sg76
(lp228
g69
(g90
g71
NtRp229
(dp230
g74
(dp231
g94
g95
ssg83
g225
sg76
(lp232
S'controller'
p233
asbag69
(g90
g71
NtRp234
(dp235
g74
(dp236
g101
g102
ssg83
g225
sg76
(lp237
S':'
asbag69
(g90
g71
NtRp238
(dp239
g74
(dp240
sg83
g225
sg76
(lp241
g69
(g70
g71
NtRp242
(dp243
g74
(dp244
g82
I5
ssg83
g238
sg76
(lp245
S'initial'
p246
asbasbasbag69
(g85
g71
NtRp247
(dp248
g74
(dp249
sg83
g79
sg76
(lp250
g69
(g90
g71
NtRp251
(dp252
g74
(dp253
g94
g95
ssg83
g247
sg76
(lp254
S'cookies'
p255
asbag69
(g90
g71
NtRp256
(dp257
g74
(dp258
g101
g102
ssg83
g247
sg76
(lp259
S':'
asbag69
(g90
g71
NtRp260
(dp261
g74
(dp262
sg83
g247
sg76
(lp263
g69
(g70
g71
NtRp264
(dp265
g74
(dp266
g82
I5
ssg83
g260
sg76
(lp267
g69
(g78
g71
NtRp268
(dp269
g74
(dp270
g82
I4
ssg83
Nsg76
(lp271
g69
(g85
g71
NtRp272
(dp273
g74
(dp274
sg83
g268
sg76
(lp275
g69
(g90
g71
NtRp276
(dp277
g74
(dp278
g94
g95
ssg83
g272
sg76
(lp279
S'session_id_projeto'
p280
asbag69
(g90
g71
NtRp281
(dp282
g74
(dp283
g101
g102
ssg83
g272
sg76
(lp284
S':'
asbag69
(g90
g71
NtRp285
(dp286
g74
(dp287
sg83
g272
sg76
(lp288
g69
(g70
g71
NtRp289
(dp290
g74
(dp291
g82
I4
ssg83
g285
sg76
(lp292
S'127.0.0.1-0fe02c32-0739-4f06-a369-3bba6377da8b'
p293
ag69
(g78
g71
NtRp294
(dp295
g74
(dp296
g82
I3
ssg83
Nsg76
(lp297
g69
(g85
g71
NtRp298
(dp299
g74
(dp300
sg83
g294
sg76
(lp301
g69
(g90
g71
NtRp302
(dp303
g74
(dp304
g94
g95
ssg83
g298
sg76
(lp305
S'comment'
p306
asbag69
(g90
g71
NtRp307
(dp308
g74
(dp309
g101
g102
ssg83
g298
sg76
(lp310
S':'
asbag69
(g90
g71
NtRp311
(dp312
g74
(dp313
sg83
g298
sg76
(lp314
g69
(g70
g71
NtRp315
(dp316
g74
(dp317
g82
I3
ssg83
g311
sg76
(lp318
S''
asbasbasbag69
(g85
g71
NtRp319
(dp320
g74
(dp321
sg83
g294
sg76
(lp322
g69
(g90
g71
NtRp323
(dp324
g74
(dp325
g94
g95
ssg83
g319
sg76
(lp326
S'domain'
p327
asbag69
(g90
g71
NtRp328
(dp329
g74
(dp330
g101
g102
ssg83
g319
sg76
(lp331
S':'
asbag69
(g90
g71
NtRp332
(dp333
g74
(dp334
sg83
g319
sg76
(lp335
g69
(g70
g71
NtRp336
(dp337
g74
(dp338
g82
I3
ssg83
g332
sg76
(lp339
S''
asbasbasbag69
(g85
g71
NtRp340
(dp341
g74
(dp342
sg83
g294
sg76
(lp343
g69
(g90
g71
NtRp344
(dp345
g74
(dp346
g94
g95
ssg83
g340
sg76
(lp347
S'expires'
p348
asbag69
(g90
g71
NtRp349
(dp350
g74
(dp351
g101
g102
ssg83
g340
sg76
(lp352
S':'
asbag69
(g90
g71
NtRp353
(dp354
g74
(dp355
sg83
g340
sg76
(lp356
g69
(g70
g71
NtRp357
(dp358
g74
(dp359
g82
I3
ssg83
g353
sg76
(lp360
S''
asbasbasbag69
(g85
g71
NtRp361
(dp362
g74
(dp363
sg83
g294
sg76
(lp364
g69
(g90
g71
NtRp365
(dp366
g74
(dp367
g94
g95
ssg83
g361
sg76
(lp368
S'httponly'
p369
asbag69
(g90
g71
NtRp370
(dp371
g74
(dp372
g101
g102
ssg83
g361
sg76
(lp373
S':'
asbag69
(g90
g71
NtRp374
(dp375
g74
(dp376
sg83
g361
sg76
(lp377
g69
(g70
g71
NtRp378
(dp379
g74
(dp380
g82
I3
ssg83
g374
sg76
(lp381
S''
asbasbasbag69
(g85
g71
NtRp382
(dp383
g74
(dp384
sg83
g294
sg76
(lp385
g69
(g90
g71
NtRp386
(dp387
g74
(dp388
g94
g95
ssg83
g382
sg76
(lp389
S'max-age'
p390
asbag69
(g90
g71
NtRp391
(dp392
g74
(dp393
g101
g102
ssg83
g382
sg76
(lp394
S':'
asbag69
(g90
g71
NtRp395
(dp396
g74
(dp397
sg83
g382
sg76
(lp398
g69
(g70
g71
NtRp399
(dp400
g74
(dp401
g82
I3
ssg83
g395
sg76
(lp402
S''
asbasbasbag69
(g85
g71
NtRp403
(dp404
g74
(dp405
sg83
g294
sg76
(lp406
g69
(g90
g71
NtRp407
(dp408
g74
(dp409
g94
g95
ssg83
g403
sg76
(lp410
S'path'
p411
asbag69
(g90
g71
NtRp412
(dp413
g74
(dp414
g101
g102
ssg83
g403
sg76
(lp415
S':'
asbag69
(g90
g71
NtRp416
(dp417
g74
(dp418
sg83
g403
sg76
(lp419
g69
(g70
g71
NtRp420
(dp421
g74
(dp422
g82
I3
ssg83
g416
sg76
(lp423
S''
asbasbasbag69
(g85
g71
NtRp424
(dp425
g74
(dp426
sg83
g294
sg76
(lp427
g69
(g90
g71
NtRp428
(dp429
g74
(dp430
g94
g95
ssg83
g424
sg76
(lp431
S'secure'
p432
asbag69
(g90
g71
NtRp433
(dp434
g74
(dp435
g101
g102
ssg83
g424
sg76
(lp436
S':'
asbag69
(g90
g71
NtRp437
(dp438
g74
(dp439
sg83
g424
sg76
(lp440
g69
(g70
g71
NtRp441
(dp442
g74
(dp443
g82
I3
ssg83
g437
sg76
(lp444
S''
asbasbasbag69
(g85
g71
NtRp445
(dp446
g74
(dp447
sg83
g294
sg76
(lp448
g69
(g90
g71
NtRp449
(dp450
g74
(dp451
g94
g95
ssg83
g445
sg76
(lp452
S'version'
p453
asbag69
(g90
g71
NtRp454
(dp455
g74
(dp456
g101
g102
ssg83
g445
sg76
(lp457
S':'
asbag69
(g90
g71
NtRp458
(dp459
g74
(dp460
sg83
g445
sg76
(lp461
g69
(g70
g71
NtRp462
(dp463
g74
(dp464
g82
I3
ssg83
g458
sg76
(lp465
S''
asbasbasbasbasbasbasbasbasbasbasbag69
(g85
g71
NtRp466
(dp467
g74
(dp468
sg83
g79
sg76
(lp469
g69
(g90
g71
NtRp470
(dp471
g74
(dp472
g94
g95
ssg83
g466
sg76
(lp473
S'env'
p474
asbag69
(g90
g71
NtRp475
(dp476
g74
(dp477
g101
g102
ssg83
g466
sg76
(lp478
S':'
asbag69
(g90
g71
NtRp479
(dp480
g74
(dp481
sg83
g466
sg76
(lp482
g69
(g70
g71
NtRp483
(dp484
g74
(dp485
g82
I5
ssg83
g479
sg76
(lp486
g69
(g78
g71
NtRp487
(dp488
g74
(dp489
g82
I4
ssg83
Nsg76
(lp490
g69
(g85
g71
NtRp491
(dp492
g74
(dp493
sg83
g487
sg76
(lp494
g69
(g90
g71
NtRp495
(dp496
g74
(dp497
g94
g95
ssg83
g491
sg76
(lp498
S'app_folders'
p499
asbag69
(g90
g71
NtRp500
(dp501
g74
(dp502
g101
g102
ssg83
g491
sg76
(lp503
S':'
asbag69
(g90
g71
NtRp504
(dp505
g74
(dp506
sg83
g491
sg76
(lp507
g69
(g70
g71
NtRp508
(dp509
g74
(dp510
g82
I4
ssg83
g504
sg76
(lp511
S"set(['/var/www/conferencia/applications/projeto/'])"
p512
asbasbasbag69
(g85
g71
NtRp513
(dp514
g74
(dp515
sg83
g487
sg76
(lp516
g69
(g90
g71
NtRp517
(dp518
g74
(dp519
g94
g95
ssg83
g513
sg76
(lp520
S'applications_parent'
p521
asbag69
(g90
g71
NtRp522
(dp523
g74
(dp524
g101
g102
ssg83
g513
sg76
(lp525
S':'
asbag69
(g90
g71
NtRp526
(dp527
g74
(dp528
sg83
g513
sg76
(lp529
g69
(g70
g71
NtRp530
(dp531
g74
(dp532
g82
I4
ssg83
g526
sg76
(lp533
S'/var/www/conferencia'
p534
asbasbasbag69
(g85
g71
NtRp535
(dp536
g74
(dp537
sg83
g487
sg76
(lp538
g69
(g90
g71
NtRp539
(dp540
g74
(dp541
g94
g95
ssg83
g535
sg76
(lp542
S'cmd_args'
p543
asbag69
(g90
g71
NtRp544
(dp545
g74
(dp546
g101
g102
ssg83
g535
sg76
(lp547
S':'
asbag69
(g90
g71
NtRp548
(dp549
g74
(dp550
sg83
g535
sg76
(lp551
g69
(g70
g71
NtRp552
(dp553
g74
(dp554
g82
I4
ssg83
g548
sg76
(lp555
g69
(g78
g71
NtRp556
(dp557
g74
(dp558
g82
I3
ssg83
Nsg76
(lp559
sbasbasbasbag69
(g85
g71
NtRp560
(dp561
g74
(dp562
sg83
g487
sg76
(lp563
g69
(g90
g71
NtRp564
(dp565
g74
(dp566
g94
g95
ssg83
g560
sg76
(lp567
S'cmd_options'
p568
asbag69
(g90
g71
NtRp569
(dp570
g74
(dp571
g101
g102
ssg83
g560
sg76
(lp572
S':'
asbag69
(g90
g71
NtRp573
(dp574
g74
(dp575
sg83
g560
sg76
(lp576
g69
(g70
g71
NtRp577
(dp578
g74
(dp579
g82
I4
ssg83
g573
sg76
(lp580
S"<Values at 0x3364248: {'verbose': False, 'ip': '127.0.0.1', 'with_scheduler': False, 'ips': [], 'shutdown_timeout': 5, 'taskbar': False, 'port': 8000, 'maxthreads': None, 'softcron': False, 'server_name': 'fernando-workstation', 'bpython': False, 'nogui': False, 'pid_filename': 'httpserver.pid', 'extcron': False, 'runcron': False, 'run_system_tests': False, 'test': None, 'folder': '/var/www/conferencia', 'config': '', 'minthreads': None, 'winservice': '', 'shell': None, 'run': '', 'log_filename': 'httpserver.log', 'debuglevel': 30, 'args': [''], 'socket_timeout': 5, 'ssl_ca_certificate': None, 'scheduler': None, 'profiler_filename': None, 'ssl_private_key': '', 'scheduler_groups': None, 'password': '123456', 'request_queue_size': 5, 'ssl_certificate': '', 'cronjob': False, 'numthreads': None, 'quiet': False, 'interfaces': None, 'import_models': False, 'timeout': 10, 'plain': False, 'nobanner': False}>"
p581
asbasbasbag69
(g85
g71
NtRp582
(dp583
g74
(dp584
sg83
g487
sg76
(lp585
g69
(g90
g71
NtRp586
(dp587
g74
(dp588
g94
g95
ssg83
g582
sg76
(lp589
S'db_sessions'
p590
asbag69
(g90
g71
NtRp591
(dp592
g74
(dp593
g101
g102
ssg83
g582
sg76
(lp594
S':'
asbag69
(g90
g71
NtRp595
(dp596
g74
(dp597
sg83
g582
sg76
(lp598
g69
(g70
g71
NtRp599
(dp600
g74
(dp601
g82
I4
ssg83
g595
sg76
(lp602
S'set([])'
p603
asbasbasbag69
(g85
g71
NtRp604
(dp605
g74
(dp606
sg83
g487
sg76
(lp607
g69
(g90
g71
NtRp608
(dp609
g74
(dp610
g94
g95
ssg83
g604
sg76
(lp611
S'debugging'
p612
asbag69
(g90
g71
NtRp613
(dp614
g74
(dp615
g101
g102
ssg83
g604
sg76
(lp616
S':'
asbag69
(g90
g71
NtRp617
(dp618
g74
(dp619
sg83
g604
sg76
(lp620
g69
(g70
g71
NtRp621
(dp622
g74
(dp623
g82
I4
ssg83
g617
sg76
(lp624
g112
asbasbasbag69
(g85
g71
NtRp625
(dp626
g74
(dp627
sg83
g487
sg76
(lp628
g69
(g90
g71
NtRp629
(dp630
g74
(dp631
g94
g95
ssg83
g625
sg76
(lp632
S'gluon_parent'
p633
asbag69
(g90
g71
NtRp634
(dp635
g74
(dp636
g101
g102
ssg83
g625
sg76
(lp637
S':'
asbag69
(g90
g71
NtRp638
(dp639
g74
(dp640
sg83
g625
sg76
(lp641
g69
(g70
g71
NtRp642
(dp643
g74
(dp644
g82
I4
ssg83
g638
sg76
(lp645
S'/var/www/conferencia'
p646
asbasbasbag69
(g85
g71
NtRp647
(dp648
g74
(dp649
sg83
g487
sg76
(lp650
g69
(g90
g71
NtRp651
(dp652
g74
(dp653
g94
g95
ssg83
g647
sg76
(lp654
S'http_accept'
p655
asbag69
(g90
g71
NtRp656
(dp657
g74
(dp658
g101
g102
ssg83
g647
sg76
(lp659
S':'
asbag69
(g90
g71
NtRp660
(dp661
g74
(dp662
sg83
g647
sg76
(lp663
g69
(g70
g71
NtRp664
(dp665
g74
(dp666
g82
I4
ssg83
g660
sg76
(lp667
S'text/html,application/xhtml+xml,application/xml;q=0.9,*/*;q=0.8'
p668
asbasbasbag69
(g85
g71
NtRp669
(dp670
g74
(dp671
sg83
g487
sg76
(lp672
g69
(g90
g71
NtRp673
(dp674
g74
(dp675
g94
g95
ssg83
g669
sg76
(lp676
S'http_accept_charset'
p677
asbag69
(g90
g71
NtRp678
(dp679
g74
(dp680
g101
g102
ssg83
g669
sg76
(lp681
S':'
asbag69
(g90
g71
NtRp682
(dp683
g74
(dp684
sg83
g669
sg76
(lp685
g69
(g70
g71
NtRp686
(dp687
g74
(dp688
g82
I4
ssg83
g682
sg76
(lp689
S'ISO-8859-1,utf-8;q=0.7,*;q=0.3'
p690
asbasbasbag69
(g85
g71
NtRp691
(dp692
g74
(dp693
sg83
g487
sg76
(lp694
g69
(g90
g71
NtRp695
(dp696
g74
(dp697
g94
g95
ssg83
g691
sg76
(lp698
S'http_accept_encoding'
p699
asbag69
(g90
g71
NtRp700
(dp701
g74
(dp702
g101
g102
ssg83
g691
sg76
(lp703
S':'
asbag69
(g90
g71
NtRp704
(dp705
g74
(dp706
sg83
g691
sg76
(lp707
g69
(g70
g71
NtRp708
(dp709
g74
(dp710
g82
I4
ssg83
g704
sg76
(lp711
S'gzip,deflate,sdch'
p712
asbasbasbag69
(g85
g71
NtRp713
(dp714
g74
(dp715
sg83
g487
sg76
(lp716
g69
(g90
g71
NtRp717
(dp718
g74
(dp719
g94
g95
ssg83
g713
sg76
(lp720
S'http_accept_language'
p721
asbag69
(g90
g71
NtRp722
(dp723
g74
(dp724
g101
g102
ssg83
g713
sg76
(lp725
S':'
asbag69
(g90
g71
NtRp726
(dp727
g74
(dp728
sg83
g713
sg76
(lp729
g69
(g70
g71
NtRp730
(dp731
g74
(dp732
g82
I4
ssg83
g726
sg76
(lp733
S'pt-BR,pt;q=0.8,en-US;q=0.6,en;q=0.4'
p734
asbasbasbag69
(g85
g71
NtRp735
(dp736
g74
(dp737
sg83
g487
sg76
(lp738
g69
(g90
g71
NtRp739
(dp740
g74
(dp741
g94
g95
ssg83
g735
sg76
(lp742
S'http_connection'
p743
asbag69
(g90
g71
NtRp744
(dp745
g74
(dp746
g101
g102
ssg83
g735
sg76
(lp747
S':'
asbag69
(g90
g71
NtRp748
(dp749
g74
(dp750
sg83
g735
sg76
(lp751
g69
(g70
g71
NtRp752
(dp753
g74
(dp754
g82
I4
ssg83
g748
sg76
(lp755
S'keep-alive'
p756
asbasbasbag69
(g85
g71
NtRp757
(dp758
g74
(dp759
sg83
g487
sg76
(lp760
g69
(g90
g71
NtRp761
(dp762
g74
(dp763
g94
g95
ssg83
g757
sg76
(lp764
S'http_cookie'
p765
asbag69
(g90
g71
NtRp766
(dp767
g74
(dp768
g101
g102
ssg83
g757
sg76
(lp769
S':'
asbag69
(g90
g71
NtRp770
(dp771
g74
(dp772
sg83
g757
sg76
(lp773
g69
(g70
g71
NtRp774
(dp775
g74
(dp776
g82
I4
ssg83
g770
sg76
(lp777
S'session_id_projeto=127.0.0.1-0fe02c32-0739-4f06-a369-3bba6377da8b'
p778
asbasbasbag69
(g85
g71
NtRp779
(dp780
g74
(dp781
sg83
g487
sg76
(lp782
g69
(g90
g71
NtRp783
(dp784
g74
(dp785
g94
g95
ssg83
g779
sg76
(lp786
S'http_host'
p787
asbag69
(g90
g71
NtRp788
(dp789
g74
(dp790
g101
g102
ssg83
g779
sg76
(lp791
S':'
asbag69
(g90
g71
NtRp792
(dp793
g74
(dp794
sg83
g779
sg76
(lp795
g69
(g70
g71
NtRp796
(dp797
g74
(dp798
g82
I4
ssg83
g792
sg76
(lp799
S'127.0.0.1:8000'
p800
asbasbasbag69
(g85
g71
NtRp801
(dp802
g74
(dp803
sg83
g487
sg76
(lp804
g69
(g90
g71
NtRp805
(dp806
g74
(dp807
g94
g95
ssg83
g801
sg76
(lp808
S'http_user_agent'
p809
asbag69
(g90
g71
NtRp810
(dp811
g74
(dp812
g101
g102
ssg83
g801
sg76
(lp813
S':'
asbag69
(g90
g71
NtRp814
(dp815
g74
(dp816
sg83
g801
sg76
(lp817
g69
(g70
g71
NtRp818
(dp819
g74
(dp820
g82
I4
ssg83
g814
sg76
(lp821
S'Mozilla/5.0 (X11; Linux x86_64) AppleWebKit/537.4 (KHTML, like Gecko) Ubuntu/12.10 Chromium/22.0.1229.94 Chrome/22.0.1229.94 Safari/537.4'
p822
asbasbasbag69
(g85
g71
NtRp823
(dp824
g74
(dp825
sg83
g487
sg76
(lp826
g69
(g90
g71
NtRp827
(dp828
g74
(dp829
g94
g95
ssg83
g823
sg76
(lp830
S'is_jython'
p831
asbag69
(g90
g71
NtRp832
(dp833
g74
(dp834
g101
g102
ssg83
g823
sg76
(lp835
S':'
asbag69
(g90
g71
NtRp836
(dp837
g74
(dp838
sg83
g823
sg76
(lp839
g69
(g70
g71
NtRp840
(dp841
g74
(dp842
g82
I4
ssg83
g836
sg76
(lp843
g112
asbasbasbag69
(g85
g71
NtRp844
(dp845
g74
(dp846
sg83
g487
sg76
(lp847
g69
(g90
g71
NtRp848
(dp849
g74
(dp850
g94
g95
ssg83
g844
sg76
(lp851
S'is_pypy'
p852
asbag69
(g90
g71
NtRp853
(dp854
g74
(dp855
g101
g102
ssg83
g844
sg76
(lp856
S':'
asbag69
(g90
g71
NtRp857
(dp858
g74
(dp859
sg83
g844
sg76
(lp860
g69
(g70
g71
NtRp861
(dp862
g74
(dp863
g82
I4
ssg83
g857
sg76
(lp864
g112
asbasbasbag69
(g85
g71
NtRp865
(dp866
g74
(dp867
sg83
g487
sg76
(lp868
g69
(g90
g71
NtRp869
(dp870
g74
(dp871
g94
g95
ssg83
g865
sg76
(lp872
S'path_info'
p873
asbag69
(g90
g71
NtRp874
(dp875
g74
(dp876
g101
g102
ssg83
g865
sg76
(lp877
S':'
asbag69
(g90
g71
NtRp878
(dp879
g74
(dp880
sg83
g865
sg76
(lp881
g69
(g70
g71
NtRp882
(dp883
g74
(dp884
g82
I4
ssg83
g878
sg76
(lp885
S'/'
asbasbasbag69
(g85
g71
NtRp886
(dp887
g74
(dp888
sg83
g487
sg76
(lp889
g69
(g90
g71
NtRp890
(dp891
g74
(dp892
g94
g95
ssg83
g886
sg76
(lp893
S'query_string'
p894
asbag69
(g90
g71
NtRp895
(dp896
g74
(dp897
g101
g102
ssg83
g886
sg76
(lp898
S':'
asbag69
(g90
g71
NtRp899
(dp900
g74
(dp901
sg83
g886
sg76
(lp902
g69
(g70
g71
NtRp903
(dp904
g74
(dp905
g82
I4
ssg83
g899
sg76
(lp906
S''
asbasbasbag69
(g85
g71
NtRp907
(dp908
g74
(dp909
sg83
g487
sg76
(lp910
g69
(g90
g71
NtRp911
(dp912
g74
(dp913
g94
g95
ssg83
g907
sg76
(lp914
S'remote_addr'
p915
asbag69
(g90
g71
NtRp916
(dp917
g74
(dp918
g101
g102
ssg83
g907
sg76
(lp919
S':'
asbag69
(g90
g71
NtRp920
(dp921
g74
(dp922
sg83
g907
sg76
(lp923
g69
(g70
g71
NtRp924
(dp925
g74
(dp926
g82
I4
ssg83
g920
sg76
(lp927
g224
asbasbasbag69
(g85
g71
NtRp928
(dp929
g74
(dp930
sg83
g487
sg76
(lp931
g69
(g90
g71
NtRp932
(dp933
g74
(dp934
g94
g95
ssg83
g928
sg76
(lp935
S'remote_port'
p936
asbag69
(g90
g71
NtRp937
(dp938
g74
(dp939
g101
g102
ssg83
g928
sg76
(lp940
S':'
asbag69
(g90
g71
NtRp941
(dp942
g74
(dp943
sg83
g928
sg76
(lp944
g69
(g70
g71
NtRp945
(dp946
g74
(dp947
g82
I4
ssg83
g941
sg76
(lp948
S'44603'
p949
asbasbasbag69
(g85
g71
NtRp950
(dp951
g74
(dp952
sg83
g487
sg76
(lp953
g69
(g90
g71
NtRp954
(dp955
g74
(dp956
g94
g95
ssg83
g950
sg76
(lp957
S'request_method'
p958
asbag69
(g90
g71
NtRp959
(dp960
g74
(dp961
g101
g102
ssg83
g950
sg76
(lp962
S':'
asbag69
(g90
g71
NtRp963
(dp964
g74
(dp965
sg83
g950
sg76
(lp966
g69
(g70
g71
NtRp967
(dp968
g74
(dp969
g82
I4
ssg83
g963
sg76
(lp970
S'GET'
p971
asbasbasbag69
(g85
g71
NtRp972
(dp973
g74
(dp974
sg83
g487
sg76
(lp975
g69
(g90
g71
NtRp976
(dp977
g74
(dp978
g94
g95
ssg83
g972
sg76
(lp979
S'request_uri'
p980
asbag69
(g90
g71
NtRp981
(dp982
g74
(dp983
g101
g102
ssg83
g972
sg76
(lp984
S':'
asbag69
(g90
g71
NtRp985
(dp986
g74
(dp987
sg83
g972
sg76
(lp988
g69
(g70
g71
NtRp989
(dp990
g74
(dp991
g82
I4
ssg83
g985
sg76
(lp992
S'/projeto/initial/principal'
p993
asbasbasbag69
(g85
g71
NtRp994
(dp995
g74
(dp996
sg83
g487
sg76
(lp997
g69
(g90
g71
NtRp998
(dp999
g74
(dp1000
g94
g95
ssg83
g994
sg76
(lp1001
S'script_name'
p1002
asbag69
(g90
g71
NtRp1003
(dp1004
g74
(dp1005
g101
g102
ssg83
g994
sg76
(lp1006
S':'
asbag69
(g90
g71
NtRp1007
(dp1008
g74
(dp1009
sg83
g994
sg76
(lp1010
g69
(g70
g71
NtRp1011
(dp1012
g74
(dp1013
g82
I4
ssg83
g1007
sg76
(lp1014
S''
asbasbasbag69
(g85
g71
NtRp1015
(dp1016
g74
(dp1017
sg83
g487
sg76
(lp1018
g69
(g90
g71
NtRp1019
(dp1020
g74
(dp1021
g94
g95
ssg83
g1015
sg76
(lp1022
S'server_name'
p1023
asbag69
(g90
g71
NtRp1024
(dp1025
g74
(dp1026
g101
g102
ssg83
g1015
sg76
(lp1027
S':'
asbag69
(g90
g71
NtRp1028
(dp1029
g74
(dp1030
sg83
g1015
sg76
(lp1031
g69
(g70
g71
NtRp1032
(dp1033
g74
(dp1034
g82
I4
ssg83
g1028
sg76
(lp1035
S'fernando-workstation'
p1036
asbasbasbag69
(g85
g71
NtRp1037
(dp1038
g74
(dp1039
sg83
g487
sg76
(lp1040
g69
(g90
g71
NtRp1041
(dp1042
g74
(dp1043
g94
g95
ssg83
g1037
sg76
(lp1044
S'server_port'
p1045
asbag69
(g90
g71
NtRp1046
(dp1047
g74
(dp1048
g101
g102
ssg83
g1037
sg76
(lp1049
S':'
asbag69
(g90
g71
NtRp1050
(dp1051
g74
(dp1052
sg83
g1037
sg76
(lp1053
g69
(g70
g71
NtRp1054
(dp1055
g74
(dp1056
g82
I4
ssg83
g1050
sg76
(lp1057
S'8000'
p1058
asbasbasbag69
(g85
g71
NtRp1059
(dp1060
g74
(dp1061
sg83
g487
sg76
(lp1062
g69
(g90
g71
NtRp1063
(dp1064
g74
(dp1065
g94
g95
ssg83
g1059
sg76
(lp1066
S'server_protocol'
p1067
asbag69
(g90
g71
NtRp1068
(dp1069
g74
(dp1070
g101
g102
ssg83
g1059
sg76
(lp1071
S':'
asbag69
(g90
g71
NtRp1072
(dp1073
g74
(dp1074
sg83
g1059
sg76
(lp1075
g69
(g70
g71
NtRp1076
(dp1077
g74
(dp1078
g82
I4
ssg83
g1072
sg76
(lp1079
S'HTTP/1.1'
p1080
asbasbasbag69
(g85
g71
NtRp1081
(dp1082
g74
(dp1083
sg83
g487
sg76
(lp1084
g69
(g90
g71
NtRp1085
(dp1086
g74
(dp1087
g94
g95
ssg83
g1081
sg76
(lp1088
S'server_software'
p1089
asbag69
(g90
g71
NtRp1090
(dp1091
g74
(dp1092
g101
g102
ssg83
g1081
sg76
(lp1093
S':'
asbag69
(g90
g71
NtRp1094
(dp1095
g74
(dp1096
sg83
g1081
sg76
(lp1097
g69
(g70
g71
NtRp1098
(dp1099
g74
(dp1100
g82
I4
ssg83
g1094
sg76
(lp1101
S'Rocket 1.2.6'
p1102
asbasbasbag69
(g85
g71
NtRp1103
(dp1104
g74
(dp1105
sg83
g487
sg76
(lp1106
g69
(g90
g71
NtRp1107
(dp1108
g74
(dp1109
g94
g95
ssg83
g1103
sg76
(lp1110
S'web2py_original_uri'
p1111
asbag69
(g90
g71
NtRp1112
(dp1113
g74
(dp1114
g101
g102
ssg83
g1103
sg76
(lp1115
S':'
asbag69
(g90
g71
NtRp1116
(dp1117
g74
(dp1118
sg83
g1103
sg76
(lp1119
g69
(g70
g71
NtRp1120
(dp1121
g74
(dp1122
g82
I4
ssg83
g1116
sg76
(lp1123
S'/'
asbasbasbag69
(g85
g71
NtRp1124
(dp1125
g74
(dp1126
sg83
g487
sg76
(lp1127
g69
(g90
g71
NtRp1128
(dp1129
g74
(dp1130
g94
g95
ssg83
g1124
sg76
(lp1131
S'web2py_path'
p1132
asbag69
(g90
g71
NtRp1133
(dp1134
g74
(dp1135
g101
g102
ssg83
g1124
sg76
(lp1136
S':'
asbag69
(g90
g71
NtRp1137
(dp1138
g74
(dp1139
sg83
g1124
sg76
(lp1140
g69
(g70
g71
NtRp1141
(dp1142
g74
(dp1143
g82
I4
ssg83
g1137
sg76
(lp1144
g534
asbasbasbag69
(g85
g71
NtRp1145
(dp1146
g74
(dp1147
sg83
g487
sg76
(lp1148
g69
(g90
g71
NtRp1149
(dp1150
g74
(dp1151
g94
g95
ssg83
g1145
sg76
(lp1152
S'web2py_version'
p1153
asbag69
(g90
g71
NtRp1154
(dp1155
g74
(dp1156
g101
g102
ssg83
g1145
sg76
(lp1157
S':'
asbag69
(g90
g71
NtRp1158
(dp1159
g74
(dp1160
sg83
g1145
sg76
(lp1161
g69
(g70
g71
NtRp1162
(dp1163
g74
(dp1164
g82
I4
ssg83
g1158
sg76
(lp1165
g69
(g78
g71
NtRp1166
(dp1167
g74
(dp1168
g82
I3
ssg83
Nsg76
(lp1169
g69
(g85
g71
NtRp1170
(dp1171
g74
(dp1172
sg83
g1166
sg76
(lp1173
g69
(g90
g71
NtRp1174
(dp1175
g74
(dp1176
sg83
g1170
sg76
(lp1177
g69
(g70
g71
NtRp1178
(dp1179
g74
(dp1180
g82
I3
ssg83
g1174
sg76
(lp1181
S'2'
asbasbasbag69
(g85
g71
NtRp1182
(dp1183
g74
(dp1184
sg83
g1166
sg76
(lp1185
g69
(g90
g71
NtRp1186
(dp1187
g74
(dp1188
sg83
g1182
sg76
(lp1189
g69
(g70
g71
NtRp1190
(dp1191
g74
(dp1192
g82
I3
ssg83
g1186
sg76
(lp1193
S'3'
asbasbasbag69
(g85
g71
NtRp1194
(dp1195
g74
(dp1196
sg83
g1166
sg76
(lp1197
g69
(g90
g71
NtRp1198
(dp1199
g74
(dp1200
sg83
g1194
sg76
(lp1201
g69
(g70
g71
NtRp1202
(dp1203
g74
(dp1204
g82
I3
ssg83
g1198
sg76
(lp1205
S'2'
asbasbasbag69
(g85
g71
NtRp1206
(dp1207
g74
(dp1208
sg83
g1166
sg76
(lp1209
g69
(g90
g71
NtRp1210
(dp1211
g74
(dp1212
sg83
g1206
sg76
(lp1213
g69
(g70
g71
NtRp1214
(dp1215
g74
(dp1216
g82
I3
ssg83
g1210
sg76
(lp1217
S'datetime.datetime(2012, 12, 17, 15, 3, 30)'
p1218
asbasbasbag69
(g85
g71
NtRp1219
(dp1220
g74
(dp1221
sg83
g1166
sg76
(lp1222
g69
(g90
g71
NtRp1223
(dp1224
g74
(dp1225
sg83
g1219
sg76
(lp1226
g69
(g70
g71
NtRp1227
(dp1228
g74
(dp1229
g82
I3
ssg83
g1223
sg76
(lp1230
S'stable'
p1231
asbasbasbasbasbasbasbag69
(g85
g71
NtRp1232
(dp1233
g74
(dp1234
sg83
g487
sg76
(lp1235
g69
(g90
g71
NtRp1236
(dp1237
g74
(dp1238
g94
g95
ssg83
g1232
sg76
(lp1239
S'wsgi_errors'
p1240
asbag69
(g90
g71
NtRp1241
(dp1242
g74
(dp1243
g101
g102
ssg83
g1232
sg76
(lp1244
S':'
asbag69
(g90
g71
NtRp1245
(dp1246
g74
(dp1247
sg83
g1232
sg76
(lp1248
g69
(g70
g71
NtRp1249
(dp1250
g74
(dp1251
g82
I4
ssg83
g1245
sg76
(lp1252
S"<open file '<stderr>', mode 'w' at 0x7f0922279270>"
p1253
asbasbasbag69
(g85
g71
NtRp1254
(dp1255
g74
(dp1256
sg83
g487
sg76
(lp1257
g69
(g90
g71
NtRp1258
(dp1259
g74
(dp1260
g94
g95
ssg83
g1254
sg76
(lp1261
S'wsgi_file_wrapper'
p1262
asbag69
(g90
g71
NtRp1263
(dp1264
g74
(dp1265
g101
g102
ssg83
g1254
sg76
(lp1266
S':'
asbag69
(g90
g71
NtRp1267
(dp1268
g74
(dp1269
sg83
g1254
sg76
(lp1270
g69
(g70
g71
NtRp1271
(dp1272
g74
(dp1273
g82
I4
ssg83
g1267
sg76
(lp1274
S'<class wsgiref.util.FileWrapper at 0x32db598>'
p1275
asbasbasbag69
(g85
g71
NtRp1276
(dp1277
g74
(dp1278
sg83
g487
sg76
(lp1279
g69
(g90
g71
NtRp1280
(dp1281
g74
(dp1282
g94
g95
ssg83
g1276
sg76
(lp1283
S'wsgi_input'
p1284
asbag69
(g90
g71
NtRp1285
(dp1286
g74
(dp1287
g101
g102
ssg83
g1276
sg76
(lp1288
S':'
asbag69
(g90
g71
NtRp1289
(dp1290
g74
(dp1291
sg83
g1276
sg76
(lp1292
g69
(g70
g71
NtRp1293
(dp1294
g74
(dp1295
g82
I4
ssg83
g1289
sg76
(lp1296
S'<socket._fileobject object at 0x7f0922182350>'
p1297
asbasbasbag69
(g85
g71
NtRp1298
(dp1299
g74
(dp1300
sg83
g487
sg76
(lp1301
g69
(g90
g71
NtRp1302
(dp1303
g74
(dp1304
g94
g95
ssg83
g1298
sg76
(lp1305
S'wsgi_multiprocess'
p1306
asbag69
(g90
g71
NtRp1307
(dp1308
g74
(dp1309
g101
g102
ssg83
g1298
sg76
(lp1310
S':'
asbag69
(g90
g71
NtRp1311
(dp1312
g74
(dp1313
sg83
g1298
sg76
(lp1314
g69
(g70
g71
NtRp1315
(dp1316
g74
(dp1317
g82
I4
ssg83
g1311
sg76
(lp1318
g112
asbasbasbag69
(g85
g71
NtRp1319
(dp1320
g74
(dp1321
sg83
g487
sg76
(lp1322
g69
(g90
g71
NtRp1323
(dp1324
g74
(dp1325
g94
g95
ssg83
g1319
sg76
(lp1326
S'wsgi_multithread'
p1327
asbag69
(g90
g71
NtRp1328
(dp1329
g74
(dp1330
g101
g102
ssg83
g1319
sg76
(lp1331
S':'
asbag69
(g90
g71
NtRp1332
(dp1333
g74
(dp1334
sg83
g1319
sg76
(lp1335
g69
(g70
g71
NtRp1336
(dp1337
g74
(dp1338
g82
I4
ssg83
g1332
sg76
(lp1339
S'True'
p1340
asbasbasbag69
(g85
g71
NtRp1341
(dp1342
g74
(dp1343
sg83
g487
sg76
(lp1344
g69
(g90
g71
NtRp1345
(dp1346
g74
(dp1347
g94
g95
ssg83
g1341
sg76
(lp1348
S'wsgi_run_once'
p1349
asbag69
(g90
g71
NtRp1350
(dp1351
g74
(dp1352
g101
g102
ssg83
g1341
sg76
(lp1353
S':'
asbag69
(g90
g71
NtRp1354
(dp1355
g74
(dp1356
sg83
g1341
sg76
(lp1357
g69
(g70
g71
NtRp1358
(dp1359
g74
(dp1360
g82
I4
ssg83
g1354
sg76
(lp1361
g112
asbasbasbag69
(g85
g71
NtRp1362
(dp1363
g74
(dp1364
sg83
g487
sg76
(lp1365
g69
(g90
g71
NtRp1366
(dp1367
g74
(dp1368
g94
g95
ssg83
g1362
sg76
(lp1369
S'wsgi_url_scheme'
p1370
asbag69
(g90
g71
NtRp1371
(dp1372
g74
(dp1373
g101
g102
ssg83
g1362
sg76
(lp1374
S':'
asbag69
(g90
g71
NtRp1375
(dp1376
g74
(dp1377
sg83
g1362
sg76
(lp1378
g69
(g70
g71
NtRp1379
(dp1380
g74
(dp1381
g82
I4
ssg83
g1375
sg76
(lp1382
S'http'
p1383
asbasbasbag69
(g85
g71
NtRp1384
(dp1385
g74
(dp1386
sg83
g487
sg76
(lp1387
g69
(g90
g71
NtRp1388
(dp1389
g74
(dp1390
g94
g95
ssg83
g1384
sg76
(lp1391
S'wsgi_version'
p1392
asbag69
(g90
g71
NtRp1393
(dp1394
g74
(dp1395
g101
g102
ssg83
g1384
sg76
(lp1396
S':'
asbag69
(g90
g71
NtRp1397
(dp1398
g74
(dp1399
sg83
g1384
sg76
(lp1400
g69
(g70
g71
NtRp1401
(dp1402
g74
(dp1403
g82
I4
ssg83
g1397
sg76
(lp1404
g69
(g78
g71
NtRp1405
(dp1406
g74
(dp1407
g82
I3
ssg83
Nsg76
(lp1408
g69
(g85
g71
NtRp1409
(dp1410
g74
(dp1411
sg83
g1405
sg76
(lp1412
g69
(g90
g71
NtRp1413
(dp1414
g74
(dp1415
sg83
g1409
sg76
(lp1416
g69
(g70
g71
NtRp1417
(dp1418
g74
(dp1419
g82
I3
ssg83
g1413
sg76
(lp1420
S'1'
asbasbasbag69
(g85
g71
NtRp1421
(dp1422
g74
(dp1423
sg83
g1405
sg76
(lp1424
g69
(g90
g71
NtRp1425
(dp1426
g74
(dp1427
sg83
g1421
sg76
(lp1428
g69
(g70
g71
NtRp1429
(dp1430
g74
(dp1431
g82
I3
ssg83
g1425
sg76
(lp1432
S'0'
asbasbasbasbasbasbasbasbasbasbasbag69
(g85
g71
NtRp1433
(dp1434
g74
(dp1435
sg83
g79
sg76
(lp1436
g69
(g90
g71
NtRp1437
(dp1438
g74
(dp1439
g94
g95
ssg83
g1433
sg76
(lp1440
S'extension'
p1441
asbag69
(g90
g71
NtRp1442
(dp1443
g74
(dp1444
g101
g102
ssg83
g1433
sg76
(lp1445
S':'
asbag69
(g90
g71
NtRp1446
(dp1447
g74
(dp1448
sg83
g1433
sg76
(lp1449
g69
(g70
g71
NtRp1450
(dp1451
g74
(dp1452
g82
I5
ssg83
g1446
sg76
(lp1453
S'html'
p1454
asbasbasbag69
(g85
g71
NtRp1455
(dp1456
g74
(dp1457
sg83
g79
sg76
(lp1458
g69
(g90
g71
NtRp1459
(dp1460
g74
(dp1461
g94
g95
ssg83
g1455
sg76
(lp1462
S'folder'
p1463
asbag69
(g90
g71
NtRp1464
(dp1465
g74
(dp1466
g101
g102
ssg83
g1455
sg76
(lp1467
S':'
asbag69
(g90
g71
NtRp1468
(dp1469
g74
(dp1470
sg83
g1455
sg76
(lp1471
g69
(g70
g71
NtRp1472
(dp1473
g74
(dp1474
g82
I5
ssg83
g1468
sg76
(lp1475
S'/var/www/conferencia/applications/projeto/'
p1476
asbasbasbag69
(g85
g71
NtRp1477
(dp1478
g74
(dp1479
sg83
g79
sg76
(lp1480
g69
(g90
g71
NtRp1481
(dp1482
g74
(dp1483
g94
g95
ssg83
g1477
sg76
(lp1484
S'function'
p1485
asbag69
(g90
g71
NtRp1486
(dp1487
g74
(dp1488
g101
g102
ssg83
g1477
sg76
(lp1489
S':'
asbag69
(g90
g71
NtRp1490
(dp1491
g74
(dp1492
sg83
g1477
sg76
(lp1493
g69
(g70
g71
NtRp1494
(dp1495
g74
(dp1496
g82
I5
ssg83
g1490
sg76
(lp1497
S'principal'
p1498
asbasbasbag69
(g85
g71
NtRp1499
(dp1500
g74
(dp1501
sg83
g79
sg76
(lp1502
g69
(g90
g71
NtRp1503
(dp1504
g74
(dp1505
g94
g95
ssg83
g1499
sg76
(lp1506
S'get_vars'
p1507
asbag69
(g90
g71
NtRp1508
(dp1509
g74
(dp1510
g101
g102
ssg83
g1499
sg76
(lp1511
S':'
asbag69
(g90
g71
NtRp1512
(dp1513
g74
(dp1514
sg83
g1499
sg76
(lp1515
g69
(g70
g71
NtRp1516
(dp1517
g74
(dp1518
g82
I5
ssg83
g1512
sg76
(lp1519
g69
(g78
g71
NtRp1520
(dp1521
g74
(dp1522
g82
I4
ssg83
Nsg76
(lp1523
sbasbasbasbag69
(g85
g71
NtRp1524
(dp1525
g74
(dp1526
sg83
g79
sg76
(lp1527
g69
(g90
g71
NtRp1528
(dp1529
g74
(dp1530
g94
g95
ssg83
g1524
sg76
(lp1531
S'global_settings'
p1532
asbag69
(g90
g71
NtRp1533
(dp1534
g74
(dp1535
g101
g102
ssg83
g1524
sg76
(lp1536
S':'
asbag69
(g90
g71
NtRp1537
(dp1538
g74
(dp1539
sg83
g1524
sg76
(lp1540
g69
(g70
g71
NtRp1541
(dp1542
g74
(dp1543
g82
I5
ssg83
g1537
sg76
(lp1544
g69
(g78
g71
NtRp1545
(dp1546
g74
(dp1547
g82
I4
ssg83
Nsg76
(lp1548
g69
(g85
g71
NtRp1549
(dp1550
g74
(dp1551
sg83
g1545
sg76
(lp1552
g69
(g90
g71
NtRp1553
(dp1554
g74
(dp1555
g94
g95
ssg83
g1549
sg76
(lp1556
g499
asbag69
(g90
g71
NtRp1557
(dp1558
g74
(dp1559
g101
g102
ssg83
g1549
sg76
(lp1560
S':'
asbag69
(g90
g71
NtRp1561
(dp1562
g74
(dp1563
sg83
g1549
sg76
(lp1564
g69
(g70
g71
NtRp1565
(dp1566
g74
(dp1567
g82
I4
ssg83
g1561
sg76
(lp1568
S"set(['/var/www/conferencia/applications/projeto/'])"
p1569
asbasbasbag69
(g85
g71
NtRp1570
(dp1571
g74
(dp1572
sg83
g1545
sg76
(lp1573
g69
(g90
g71
NtRp1574
(dp1575
g74
(dp1576
g94
g95
ssg83
g1570
sg76
(lp1577
g521
asbag69
(g90
g71
NtRp1578
(dp1579
g74
(dp1580
g101
g102
ssg83
g1570
sg76
(lp1581
S':'
asbag69
(g90
g71
NtRp1582
(dp1583
g74
(dp1584
sg83
g1570
sg76
(lp1585
g69
(g70
g71
NtRp1586
(dp1587
g74
(dp1588
g82
I4
ssg83
g1582
sg76
(lp1589
g534
asbasbasbag69
(g85
g71
NtRp1590
(dp1591
g74
(dp1592
sg83
g1545
sg76
(lp1593
g69
(g90
g71
NtRp1594
(dp1595
g74
(dp1596
g94
g95
ssg83
g1590
sg76
(lp1597
g543
asbag69
(g90
g71
NtRp1598
(dp1599
g74
(dp1600
g101
g102
ssg83
g1590
sg76
(lp1601
S':'
asbag69
(g90
g71
NtRp1602
(dp1603
g74
(dp1604
sg83
g1590
sg76
(lp1605
g69
(g70
g71
NtRp1606
(dp1607
g74
(dp1608
g82
I4
ssg83
g1602
sg76
(lp1609
g69
(g78
g71
NtRp1610
(dp1611
g74
(dp1612
g82
I3
ssg83
Nsg76
(lp1613
sbasbasbasbag69
(g85
g71
NtRp1614
(dp1615
g74
(dp1616
sg83
g1545
sg76
(lp1617
g69
(g90
g71
NtRp1618
(dp1619
g74
(dp1620
g94
g95
ssg83
g1614
sg76
(lp1621
g568
asbag69
(g90
g71
NtRp1622
(dp1623
g74
(dp1624
g101
g102
ssg83
g1614
sg76
(lp1625
S':'
asbag69
(g90
g71
NtRp1626
(dp1627
g74
(dp1628
sg83
g1614
sg76
(lp1629
g69
(g70
g71
NtRp1630
(dp1631
g74
(dp1632
g82
I4
ssg83
g1626
sg76
(lp1633
S"<Values at 0x3364248: {'verbose': False, 'ip': '127.0.0.1', 'with_scheduler': False, 'ips': [], 'shutdown_timeout': 5, 'taskbar': False, 'port': 8000, 'maxthreads': None, 'softcron': False, 'server_name': 'fernando-workstation', 'bpython': False, 'nogui': False, 'pid_filename': 'httpserver.pid', 'extcron': False, 'runcron': False, 'run_system_tests': False, 'test': None, 'folder': '/var/www/conferencia', 'config': '', 'minthreads': None, 'winservice': '', 'shell': None, 'run': '', 'log_filename': 'httpserver.log', 'debuglevel': 30, 'args': [''], 'socket_timeout': 5, 'ssl_ca_certificate': None, 'scheduler': None, 'profiler_filename': None, 'ssl_private_key': '', 'scheduler_groups': None, 'password': '123456', 'request_queue_size': 5, 'ssl_certificate': '', 'cronjob': False, 'numthreads': None, 'quiet': False, 'interfaces': None, 'import_models': False, 'timeout': 10, 'plain': False, 'nobanner': False}>"
p1634
asbasbasbag69
(g85
g71
NtRp1635
(dp1636
g74
(dp1637
sg83
g1545
sg76
(lp1638
g69
(g90
g71
NtRp1639
(dp1640
g74
(dp1641
g94
g95
ssg83
g1635
sg76
(lp1642
g590
asbag69
(g90
g71
NtRp1643
(dp1644
g74
(dp1645
g101
g102
ssg83
g1635
sg76
(lp1646
S':'
asbag69
(g90
g71
NtRp1647
(dp1648
g74
(dp1649
sg83
g1635
sg76
(lp1650
g69
(g70
g71
NtRp1651
(dp1652
g74
(dp1653
g82
I4
ssg83
g1647
sg76
(lp1654
S'set([])'
p1655
asbasbasbag69
(g85
g71
NtRp1656
(dp1657
g74
(dp1658
sg83
g1545
sg76
(lp1659
g69
(g90
g71
NtRp1660
(dp1661
g74
(dp1662
g94
g95
ssg83
g1656
sg76
(lp1663
g612
asbag69
(g90
g71
NtRp1664
(dp1665
g74
(dp1666
g101
g102
ssg83
g1656
sg76
(lp1667
S':'
asbag69
(g90
g71
NtRp1668
(dp1669
g74
(dp1670
sg83
g1656
sg76
(lp1671
g69
(g70
g71
NtRp1672
(dp1673
g74
(dp1674
g82
I4
ssg83
g1668
sg76
(lp1675
g112
asbasbasbag69
(g85
g71
NtRp1676
(dp1677
g74
(dp1678
sg83
g1545
sg76
(lp1679
g69
(g90
g71
NtRp1680
(dp1681
g74
(dp1682
g94
g95
ssg83
g1676
sg76
(lp1683
g633
asbag69
(g90
g71
NtRp1684
(dp1685
g74
(dp1686
g101
g102
ssg83
g1676
sg76
(lp1687
S':'
asbag69
(g90
g71
NtRp1688
(dp1689
g74
(dp1690
sg83
g1676
sg76
(lp1691
g69
(g70
g71
NtRp1692
(dp1693
g74
(dp1694
g82
I4
ssg83
g1688
sg76
(lp1695
g646
asbasbasbag69
(g85
g71
NtRp1696
(dp1697
g74
(dp1698
sg83
g1545
sg76
(lp1699
g69
(g90
g71
NtRp1700
(dp1701
g74
(dp1702
g94
g95
ssg83
g1696
sg76
(lp1703
g831
asbag69
(g90
g71
NtRp1704
(dp1705
g74
(dp1706
g101
g102
ssg83
g1696
sg76
(lp1707
S':'
asbag69
(g90
g71
NtRp1708
(dp1709
g74
(dp1710
sg83
g1696
sg76
(lp1711
g69
(g70
g71
NtRp1712
(dp1713
g74
(dp1714
g82
I4
ssg83
g1708
sg76
(lp1715
g112
asbasbasbag69
(g85
g71
NtRp1716
(dp1717
g74
(dp1718
sg83
g1545
sg76
(lp1719
g69
(g90
g71
NtRp1720
(dp1721
g74
(dp1722
g94
g95
ssg83
g1716
sg76
(lp1723
g852
asbag69
(g90
g71
NtRp1724
(dp1725
g74
(dp1726
g101
g102
ssg83
g1716
sg76
(lp1727
S':'
asbag69
(g90
g71
NtRp1728
(dp1729
g74
(dp1730
sg83
g1716
sg76
(lp1731
g69
(g70
g71
NtRp1732
(dp1733
g74
(dp1734
g82
I4
ssg83
g1728
sg76
(lp1735
g112
asbasbasbag69
(g85
g71
NtRp1736
(dp1737
g74
(dp1738
sg83
g1545
sg76
(lp1739
g69
(g90
g71
NtRp1740
(dp1741
g74
(dp1742
g94
g95
ssg83
g1736
sg76
(lp1743
S'local_hosts'
p1744
asbag69
(g90
g71
NtRp1745
(dp1746
g74
(dp1747
g101
g102
ssg83
g1736
sg76
(lp1748
S':'
asbag69
(g90
g71
NtRp1749
(dp1750
g74
(dp1751
sg83
g1736
sg76
(lp1752
g69
(g70
g71
NtRp1753
(dp1754
g74
(dp1755
g82
I4
ssg83
g1749
sg76
(lp1756
g69
(g78
g71
NtRp1757
(dp1758
g74
(dp1759
g82
I3
ssg83
Nsg76
(lp1760
g69
(g85
g71
NtRp1761
(dp1762
g74
(dp1763
sg83
g1757
sg76
(lp1764
g69
(g90
g71
NtRp1765
(dp1766
g74
(dp1767
sg83
g1761
sg76
(lp1768
g69
(g70
g71
NtRp1769
(dp1770
g74
(dp1771
g82
I3
ssg83
g1765
sg76
(lp1772
S'::1'
p1773
asbasbasbag69
(g85
g71
NtRp1774
(dp1775
g74
(dp1776
sg83
g1757
sg76
(lp1777
g69
(g90
g71
NtRp1778
(dp1779
g74
(dp1780
sg83
g1774
sg76
(lp1781
g69
(g70
g71
NtRp1782
(dp1783
g74
(dp1784
g82
I3
ssg83
g1778
sg76
(lp1785
S'::ffff:127.0.0.1'
p1786
asbasbasbag69
(g85
g71
NtRp1787
(dp1788
g74
(dp1789
sg83
g1757
sg76
(lp1790
g69
(g90
g71
NtRp1791
(dp1792
g74
(dp1793
sg83
g1787
sg76
(lp1794
g69
(g70
g71
NtRp1795
(dp1796
g74
(dp1797
g82
I3
ssg83
g1791
sg76
(lp1798
S'127.0.0.1'
p1799
asbasbasbag69
(g85
g71
NtRp1800
(dp1801
g74
(dp1802
sg83
g1757
sg76
(lp1803
g69
(g90
g71
NtRp1804
(dp1805
g74
(dp1806
sg83
g1800
sg76
(lp1807
g69
(g70
g71
NtRp1808
(dp1809
g74
(dp1810
g82
I3
ssg83
g1804
sg76
(lp1811
S'fernando-workstation'
p1812
asbasbasbasbasbasbasbag69
(g85
g71
NtRp1813
(dp1814
g74
(dp1815
sg83
g1545
sg76
(lp1816
g69
(g90
g71
NtRp1817
(dp1818
g74
(dp1819
g94
g95
ssg83
g1813
sg76
(lp1820
g1153
asbag69
(g90
g71
NtRp1821
(dp1822
g74
(dp1823
g101
g102
ssg83
g1813
sg76
(lp1824
S':'
asbag69
(g90
g71
NtRp1825
(dp1826
g74
(dp1827
sg83
g1813
sg76
(lp1828
g69
(g70
g71
NtRp1829
(dp1830
g74
(dp1831
g82
I4
ssg83
g1825
sg76
(lp1832
g69
(g78
g71
NtRp1833
(dp1834
g74
(dp1835
g82
I3
ssg83
Nsg76
(lp1836
g69
(g85
g71
NtRp1837
(dp1838
g74
(dp1839
sg83
g1833
sg76
(lp1840
g69
(g90
g71
NtRp1841
(dp1842
g74
(dp1843
sg83
g1837
sg76
(lp1844
g69
(g70
g71
NtRp1845
(dp1846
g74
(dp1847
g82
I3
ssg83
g1841
sg76
(lp1848
S'2'
asbasbasbag69
(g85
g71
NtRp1849
(dp1850
g74
(dp1851
sg83
g1833
sg76
(lp1852
g69
(g90
g71
NtRp1853
(dp1854
g74
(dp1855
sg83
g1849
sg76
(lp1856
g69
(g70
g71
NtRp1857
(dp1858
g74
(dp1859
g82
I3
ssg83
g1853
sg76
(lp1860
S'3'
asbasbasbag69
(g85
g71
NtRp1861
(dp1862
g74
(dp1863
sg83
g1833
sg76
(lp1864
g69
(g90
g71
NtRp1865
(dp1866
g74
(dp1867
sg83
g1861
sg76
(lp1868
g69
(g70
g71
NtRp1869
(dp1870
g74
(dp1871
g82
I3
ssg83
g1865
sg76
(lp1872
S'2'
asbasbasbag69
(g85
g71
NtRp1873
(dp1874
g74
(dp1875
sg83
g1833
sg76
(lp1876
g69
(g90
g71
NtRp1877
(dp1878
g74
(dp1879
sg83
g1873
sg76
(lp1880
g69
(g70
g71
NtRp1881
(dp1882
g74
(dp1883
g82
I3
ssg83
g1877
sg76
(lp1884
S'datetime.datetime(2012, 12, 17, 15, 3, 30)'
p1885
asbasbasbag69
(g85
g71
NtRp1886
(dp1887
g74
(dp1888
sg83
g1833
sg76
(lp1889
g69
(g90
g71
NtRp1890
(dp1891
g74
(dp1892
sg83
g1886
sg76
(lp1893
g69
(g70
g71
NtRp1894
(dp1895
g74
(dp1896
g82
I3
ssg83
g1890
sg76
(lp1897
g1231
asbasbasbasbasbasbasbasbasbasbasbag69
(g85
g71
NtRp1898
(dp1899
g74
(dp1900
sg83
g79
sg76
(lp1901
g69
(g90
g71
NtRp1902
(dp1903
g74
(dp1904
g94
g95
ssg83
g1898
sg76
(lp1905
S'is_https'
p1906
asbag69
(g90
g71
NtRp1907
(dp1908
g74
(dp1909
g101
g102
ssg83
g1898
sg76
(lp1910
S':'
asbag69
(g90
g71
NtRp1911
(dp1912
g74
(dp1913
sg83
g1898
sg76
(lp1914
g69
(g70
g71
NtRp1915
(dp1916
g74
(dp1917
g82
I5
ssg83
g1911
sg76
(lp1918
g112
asbasbasbag69
(g85
g71
NtRp1919
(dp1920
g74
(dp1921
sg83
g79
sg76
(lp1922
g69
(g90
g71
NtRp1923
(dp1924
g74
(dp1925
g94
g95
ssg83
g1919
sg76
(lp1926
S'is_local'
p1927
asbag69
(g90
g71
NtRp1928
(dp1929
g74
(dp1930
g101
g102
ssg83
g1919
sg76
(lp1931
S':'
asbag69
(g90
g71
NtRp1932
(dp1933
g74
(dp1934
sg83
g1919
sg76
(lp1935
g69
(g70
g71
NtRp1936
(dp1937
g74
(dp1938
g82
I5
ssg83
g1932
sg76
(lp1939
g1340
asbasbasbag69
(g85
g71
NtRp1940
(dp1941
g74
(dp1942
sg83
g79
sg76
(lp1943
g69
(g90
g71
NtRp1944
(dp1945
g74
(dp1946
g94
g95
ssg83
g1940
sg76
(lp1947
S'is_restful'
p1948
asbag69
(g90
g71
NtRp1949
(dp1950
g74
(dp1951
g101
g102
ssg83
g1940
sg76
(lp1952
S':'
asbag69
(g90
g71
NtRp1953
(dp1954
g74
(dp1955
sg83
g1940
sg76
(lp1956
g69
(g70
g71
NtRp1957
(dp1958
g74
(dp1959
g82
I5
ssg83
g1953
sg76
(lp1960
g112
asbasbasbag69
(g85
g71
NtRp1961
(dp1962
g74
(dp1963
sg83
g79
sg76
(lp1964
g69
(g90
g71
NtRp1965
(dp1966
g74
(dp1967
g94
g95
ssg83
g1961
sg76
(lp1968
S'now'
p1969
asbag69
(g90
g71
NtRp1970
(dp1971
g74
(dp1972
g101
g102
ssg83
g1961
sg76
(lp1973
S':'
asbag69
(g90
g71
NtRp1974
(dp1975
g74
(dp1976
sg83
g1961
sg76
(lp1977
g69
(g70
g71
NtRp1978
(dp1979
g74
(dp1980
g82
I5
ssg83
g1974
sg76
(lp1981
S'datetime.datetime(2013, 4, 2, 16, 50, 5, 774267)'
p1982
asbasbasbag69
(g85
g71
NtRp1983
(dp1984
g74
(dp1985
sg83
g79
sg76
(lp1986
g69
(g90
g71
NtRp1987
(dp1988
g74
(dp1989
g94
g95
ssg83
g1983
sg76
(lp1990
S'post_vars'
p1991
asbag69
(g90
g71
NtRp1992
(dp1993
g74
(dp1994
g101
g102
ssg83
g1983
sg76
(lp1995
S':'
asbag69
(g90
g71
NtRp1996
(dp1997
g74
(dp1998
sg83
g1983
sg76
(lp1999
g69
(g70
g71
NtRp2000
(dp2001
g74
(dp2002
g82
I5
ssg83
g1996
sg76
(lp2003
g69
(g78
g71
NtRp2004
(dp2005
g74
(dp2006
g82
I4
ssg83
Nsg76
(lp2007
sbasbasbasbag69
(g85
g71
NtRp2008
(dp2009
g74
(dp2010
sg83
g79
sg76
(lp2011
g69
(g90
g71
NtRp2012
(dp2013
g74
(dp2014
g94
g95
ssg83
g2008
sg76
(lp2015
S'url'
p2016
asbag69
(g90
g71
NtRp2017
(dp2018
g74
(dp2019
g101
g102
ssg83
g2008
sg76
(lp2020
S':'
asbag69
(g90
g71
NtRp2021
(dp2022
g74
(dp2023
sg83
g2008
sg76
(lp2024
g69
(g70
g71
NtRp2025
(dp2026
g74
(dp2027
g82
I5
ssg83
g2021
sg76
(lp2028
S'/'
asbasbasbag69
(g85
g71
NtRp2029
(dp2030
g74
(dp2031
sg83
g79
sg76
(lp2032
g69
(g90
g71
NtRp2033
(dp2034
g74
(dp2035
g94
g95
ssg83
g2029
sg76
(lp2036
S'utcnow'
p2037
asbag69
(g90
g71
NtRp2038
(dp2039
g74
(dp2040
g101
g102
ssg83
g2029
sg76
(lp2041
S':'
asbag69
(g90
g71
NtRp2042
(dp2043
g74
(dp2044
sg83
g2029
sg76
(lp2045
g69
(g70
g71
NtRp2046
(dp2047
g74
(dp2048
g82
I5
ssg83
g2042
sg76
(lp2049
S'datetime.datetime(2013, 4, 2, 19, 50, 5, 774317)'
p2050
asbasbasbag69
(g85
g71
NtRp2051
(dp2052
g74
(dp2053
sg83
g79
sg76
(lp2054
g69
(g90
g71
NtRp2055
(dp2056
g74
(dp2057
g94
g95
ssg83
g2051
sg76
(lp2058
S'uuid'
p2059
asbag69
(g90
g71
NtRp2060
(dp2061
g74
(dp2062
g101
g102
ssg83
g2051
sg76
(lp2063
S':'
asbag69
(g90
g71
NtRp2064
(dp2065
g74
(dp2066
sg83
g2051
sg76
(lp2067
g69
(g70
g71
NtRp2068
(dp2069
g74
(dp2070
g82
I5
ssg83
g2064
sg76
(lp2071
S'projeto/127.0.0.1.2013-04-02.16-50-05.0f21fe27-2699-4203-8102-1d420671c82b'
p2072
asbasbasbag69
(g85
g71
NtRp2073
(dp2074
g74
(dp2075
sg83
g79
sg76
(lp2076
g69
(g90
g71
NtRp2077
(dp2078
g74
(dp2079
g94
g95
ssg83
g2073
sg76
(lp2080
S'vars'
p2081
asbag69
(g90
g71
NtRp2082
(dp2083
g74
(dp2084
g101
g102
ssg83
g2073
sg76
(lp2085
S':'
asbag69
(g90
g71
NtRp2086
(dp2087
g74
(dp2088
sg83
g2073
sg76
(lp2089
g69
(g70
g71
NtRp2090
(dp2091
g74
(dp2092
g82
I5
ssg83
g2086
sg76
(lp2093
g69
(g78
g71
NtRp2094
(dp2095
g74
(dp2096
g82
I4
ssg83
Nsg76
(lp2097
sbasbasbasbag69
(g85
g71
NtRp2098
(dp2099
g74
(dp2100
sg83
g79
sg76
(lp2101
g69
(g90
g71
NtRp2102
(dp2103
g74
(dp2104
g94
g95
ssg83
g2098
sg76
(lp2105
S'wsgi'
p2106
asbag69
(g90
g71
NtRp2107
(dp2108
g74
(dp2109
g101
g102
ssg83
g2098
sg76
(lp2110
S':'
asbag69
(g90
g71
NtRp2111
(dp2112
g74
(dp2113
sg83
g2098
sg76
(lp2114
g69
(g70
g71
NtRp2115
(dp2116
g74
(dp2117
g82
I5
ssg83
g2111
sg76
(lp2118
g69
(g78
g71
NtRp2119
(dp2120
g74
(dp2121
g82
I4
ssg83
Nsg76
(lp2122
g69
(g85
g71
NtRp2123
(dp2124
g74
(dp2125
sg83
g2119
sg76
(lp2126
g69
(g90
g71
NtRp2127
(dp2128
g74
(dp2129
g94
g95
ssg83
g2123
sg76
(lp2130
S'environ'
p2131
asbag69
(g90
g71
NtRp2132
(dp2133
g74
(dp2134
g101
g102
ssg83
g2123
sg76
(lp2135
S':'
asbag69
(g90
g71
NtRp2136
(dp2137
g74
(dp2138
sg83
g2123
sg76
(lp2139
g69
(g70
g71
NtRp2140
(dp2141
g74
(dp2142
g82
I4
ssg83
g2136
sg76
(lp2143
g69
(g78
g71
NtRp2144
(dp2145
g74
(dp2146
g82
I3
ssg83
Nsg76
(lp2147
g69
(g85
g71
NtRp2148
(dp2149
g74
(dp2150
sg83
g2144
sg76
(lp2151
g69
(g90
g71
NtRp2152
(dp2153
g74
(dp2154
g94
g95
ssg83
g2148
sg76
(lp2155
S'HTTP_ACCEPT'
p2156
asbag69
(g90
g71
NtRp2157
(dp2158
g74
(dp2159
g101
g102
ssg83
g2148
sg76
(lp2160
S':'
asbag69
(g90
g71
NtRp2161
(dp2162
g74
(dp2163
sg83
g2148
sg76
(lp2164
g69
(g70
g71
NtRp2165
(dp2166
g74
(dp2167
g82
I3
ssg83
g2161
sg76
(lp2168
g668
asbasbasbag69
(g85
g71
NtRp2169
(dp2170
g74
(dp2171
sg83
g2144
sg76
(lp2172
g69
(g90
g71
NtRp2173
(dp2174
g74
(dp2175
g94
g95
ssg83
g2169
sg76
(lp2176
S'HTTP_ACCEPT_CHARSET'
p2177
asbag69
(g90
g71
NtRp2178
(dp2179
g74
(dp2180
g101
g102
ssg83
g2169
sg76
(lp2181
S':'
asbag69
(g90
g71
NtRp2182
(dp2183
g74
(dp2184
sg83
g2169
sg76
(lp2185
g69
(g70
g71
NtRp2186
(dp2187
g74
(dp2188
g82
I3
ssg83
g2182
sg76
(lp2189
g690
asbasbasbag69
(g85
g71
NtRp2190
(dp2191
g74
(dp2192
sg83
g2144
sg76
(lp2193
g69
(g90
g71
NtRp2194
(dp2195
g74
(dp2196
g94
g95
ssg83
g2190
sg76
(lp2197
S'HTTP_ACCEPT_ENCODING'
p2198
asbag69
(g90
g71
NtRp2199
(dp2200
g74
(dp2201
g101
g102
ssg83
g2190
sg76
(lp2202
S':'
asbag69
(g90
g71
NtRp2203
(dp2204
g74
(dp2205
sg83
g2190
sg76
(lp2206
g69
(g70
g71
NtRp2207
(dp2208
g74
(dp2209
g82
I3
ssg83
g2203
sg76
(lp2210
g712
asbasbasbag69
(g85
g71
NtRp2211
(dp2212
g74
(dp2213
sg83
g2144
sg76
(lp2214
g69
(g90
g71
NtRp2215
(dp2216
g74
(dp2217
g94
g95
ssg83
g2211
sg76
(lp2218
S'HTTP_ACCEPT_LANGUAGE'
p2219
asbag69
(g90
g71
NtRp2220
(dp2221
g74
(dp2222
g101
g102
ssg83
g2211
sg76
(lp2223
S':'
asbag69
(g90
g71
NtRp2224
(dp2225
g74
(dp2226
sg83
g2211
sg76
(lp2227
g69
(g70
g71
NtRp2228
(dp2229
g74
(dp2230
g82
I3
ssg83
g2224
sg76
(lp2231
g734
asbasbasbag69
(g85
g71
NtRp2232
(dp2233
g74
(dp2234
sg83
g2144
sg76
(lp2235
g69
(g90
g71
NtRp2236
(dp2237
g74
(dp2238
g94
g95
ssg83
g2232
sg76
(lp2239
S'HTTP_CONNECTION'
p2240
asbag69
(g90
g71
NtRp2241
(dp2242
g74
(dp2243
g101
g102
ssg83
g2232
sg76
(lp2244
S':'
asbag69
(g90
g71
NtRp2245
(dp2246
g74
(dp2247
sg83
g2232
sg76
(lp2248
g69
(g70
g71
NtRp2249
(dp2250
g74
(dp2251
g82
I3
ssg83
g2245
sg76
(lp2252
g756
asbasbasbag69
(g85
g71
NtRp2253
(dp2254
g74
(dp2255
sg83
g2144
sg76
(lp2256
g69
(g90
g71
NtRp2257
(dp2258
g74
(dp2259
g94
g95
ssg83
g2253
sg76
(lp2260
S'HTTP_COOKIE'
p2261
asbag69
(g90
g71
NtRp2262
(dp2263
g74
(dp2264
g101
g102
ssg83
g2253
sg76
(lp2265
S':'
asbag69
(g90
g71
NtRp2266
(dp2267
g74
(dp2268
sg83
g2253
sg76
(lp2269
g69
(g70
g71
NtRp2270
(dp2271
g74
(dp2272
g82
I3
ssg83
g2266
sg76
(lp2273
g778
asbasbasbag69
(g85
g71
NtRp2274
(dp2275
g74
(dp2276
sg83
g2144
sg76
(lp2277
g69
(g90
g71
NtRp2278
(dp2279
g74
(dp2280
g94
g95
ssg83
g2274
sg76
(lp2281
S'HTTP_HOST'
p2282
asbag69
(g90
g71
NtRp2283
(dp2284
g74
(dp2285
g101
g102
ssg83
g2274
sg76
(lp2286
S':'
asbag69
(g90
g71
NtRp2287
(dp2288
g74
(dp2289
sg83
g2274
sg76
(lp2290
g69
(g70
g71
NtRp2291
(dp2292
g74
(dp2293
g82
I3
ssg83
g2287
sg76
(lp2294
g800
asbasbasbag69
(g85
g71
NtRp2295
(dp2296
g74
(dp2297
sg83
g2144
sg76
(lp2298
g69
(g90
g71
NtRp2299
(dp2300
g74
(dp2301
g94
g95
ssg83
g2295
sg76
(lp2302
S'HTTP_USER_AGENT'
p2303
asbag69
(g90
g71
NtRp2304
(dp2305
g74
(dp2306
g101
g102
ssg83
g2295
sg76
(lp2307
S':'
asbag69
(g90
g71
NtRp2308
(dp2309
g74
(dp2310
sg83
g2295
sg76
(lp2311
g69
(g70
g71
NtRp2312
(dp2313
g74
(dp2314
g82
I3
ssg83
g2308
sg76
(lp2315
g822
asbasbasbag69
(g85
g71
NtRp2316
(dp2317
g74
(dp2318
sg83
g2144
sg76
(lp2319
g69
(g90
g71
NtRp2320
(dp2321
g74
(dp2322
g94
g95
ssg83
g2316
sg76
(lp2323
S'PATH_INFO'
p2324
asbag69
(g90
g71
NtRp2325
(dp2326
g74
(dp2327
g101
g102
ssg83
g2316
sg76
(lp2328
S':'
asbag69
(g90
g71
NtRp2329
(dp2330
g74
(dp2331
sg83
g2316
sg76
(lp2332
g69
(g70
g71
NtRp2333
(dp2334
g74
(dp2335
g82
I3
ssg83
g2329
sg76
(lp2336
S'/'
asbasbasbag69
(g85
g71
NtRp2337
(dp2338
g74
(dp2339
sg83
g2144
sg76
(lp2340
g69
(g90
g71
NtRp2341
(dp2342
g74
(dp2343
g94
g95
ssg83
g2337
sg76
(lp2344
S'QUERY_STRING'
p2345
asbag69
(g90
g71
NtRp2346
(dp2347
g74
(dp2348
g101
g102
ssg83
g2337
sg76
(lp2349
S':'
asbag69
(g90
g71
NtRp2350
(dp2351
g74
(dp2352
sg83
g2337
sg76
(lp2353
g69
(g70
g71
NtRp2354
(dp2355
g74
(dp2356
g82
I3
ssg83
g2350
sg76
(lp2357
S''
asbasbasbag69
(g85
g71
NtRp2358
(dp2359
g74
(dp2360
sg83
g2144
sg76
(lp2361
g69
(g90
g71
NtRp2362
(dp2363
g74
(dp2364
g94
g95
ssg83
g2358
sg76
(lp2365
S'REMOTE_ADDR'
p2366
asbag69
(g90
g71
NtRp2367
(dp2368
g74
(dp2369
g101
g102
ssg83
g2358
sg76
(lp2370
S':'
asbag69
(g90
g71
NtRp2371
(dp2372
g74
(dp2373
sg83
g2358
sg76
(lp2374
g69
(g70
g71
NtRp2375
(dp2376
g74
(dp2377
g82
I3
ssg83
g2371
sg76
(lp2378
g224
asbasbasbag69
(g85
g71
NtRp2379
(dp2380
g74
(dp2381
sg83
g2144
sg76
(lp2382
g69
(g90
g71
NtRp2383
(dp2384
g74
(dp2385
g94
g95
ssg83
g2379
sg76
(lp2386
S'REMOTE_PORT'
p2387
asbag69
(g90
g71
NtRp2388
(dp2389
g74
(dp2390
g101
g102
ssg83
g2379
sg76
(lp2391
S':'
asbag69
(g90
g71
NtRp2392
(dp2393
g74
(dp2394
sg83
g2379
sg76
(lp2395
g69
(g70
g71
NtRp2396
(dp2397
g74
(dp2398
g82
I3
ssg83
g2392
sg76
(lp2399
g949
asbasbasbag69
(g85
g71
NtRp2400
(dp2401
g74
(dp2402
sg83
g2144
sg76
(lp2403
g69
(g90
g71
NtRp2404
(dp2405
g74
(dp2406
g94
g95
ssg83
g2400
sg76
(lp2407
S'REQUEST_METHOD'
p2408
asbag69
(g90
g71
NtRp2409
(dp2410
g74
(dp2411
g101
g102
ssg83
g2400
sg76
(lp2412
S':'
asbag69
(g90
g71
NtRp2413
(dp2414
g74
(dp2415
sg83
g2400
sg76
(lp2416
g69
(g70
g71
NtRp2417
(dp2418
g74
(dp2419
g82
I3
ssg83
g2413
sg76
(lp2420
g971
asbasbasbag69
(g85
g71
NtRp2421
(dp2422
g74
(dp2423
sg83
g2144
sg76
(lp2424
g69
(g90
g71
NtRp2425
(dp2426
g74
(dp2427
g94
g95
ssg83
g2421
sg76
(lp2428
S'REQUEST_URI'
p2429
asbag69
(g90
g71
NtRp2430
(dp2431
g74
(dp2432
g101
g102
ssg83
g2421
sg76
(lp2433
S':'
asbag69
(g90
g71
NtRp2434
(dp2435
g74
(dp2436
sg83
g2421
sg76
(lp2437
g69
(g70
g71
NtRp2438
(dp2439
g74
(dp2440
g82
I3
ssg83
g2434
sg76
(lp2441
g993
asbasbasbag69
(g85
g71
NtRp2442
(dp2443
g74
(dp2444
sg83
g2144
sg76
(lp2445
g69
(g90
g71
NtRp2446
(dp2447
g74
(dp2448
g94
g95
ssg83
g2442
sg76
(lp2449
S'SCRIPT_NAME'
p2450
asbag69
(g90
g71
NtRp2451
(dp2452
g74
(dp2453
g101
g102
ssg83
g2442
sg76
(lp2454
S':'
asbag69
(g90
g71
NtRp2455
(dp2456
g74
(dp2457
sg83
g2442
sg76
(lp2458
g69
(g70
g71
NtRp2459
(dp2460
g74
(dp2461
g82
I3
ssg83
g2455
sg76
(lp2462
S''
asbasbasbag69
(g85
g71
NtRp2463
(dp2464
g74
(dp2465
sg83
g2144
sg76
(lp2466
g69
(g90
g71
NtRp2467
(dp2468
g74
(dp2469
g94
g95
ssg83
g2463
sg76
(lp2470
S'SERVER_NAME'
p2471
asbag69
(g90
g71
NtRp2472
(dp2473
g74
(dp2474
g101
g102
ssg83
g2463
sg76
(lp2475
S':'
asbag69
(g90
g71
NtRp2476
(dp2477
g74
(dp2478
sg83
g2463
sg76
(lp2479
g69
(g70
g71
NtRp2480
(dp2481
g74
(dp2482
g82
I3
ssg83
g2476
sg76
(lp2483
g1036
asbasbasbag69
(g85
g71
NtRp2484
(dp2485
g74
(dp2486
sg83
g2144
sg76
(lp2487
g69
(g90
g71
NtRp2488
(dp2489
g74
(dp2490
g94
g95
ssg83
g2484
sg76
(lp2491
S'SERVER_PORT'
p2492
asbag69
(g90
g71
NtRp2493
(dp2494
g74
(dp2495
g101
g102
ssg83
g2484
sg76
(lp2496
S':'
asbag69
(g90
g71
NtRp2497
(dp2498
g74
(dp2499
sg83
g2484
sg76
(lp2500
g69
(g70
g71
NtRp2501
(dp2502
g74
(dp2503
g82
I3
ssg83
g2497
sg76
(lp2504
g1058
asbasbasbag69
(g85
g71
NtRp2505
(dp2506
g74
(dp2507
sg83
g2144
sg76
(lp2508
g69
(g90
g71
NtRp2509
(dp2510
g74
(dp2511
g94
g95
ssg83
g2505
sg76
(lp2512
S'SERVER_PROTOCOL'
p2513
asbag69
(g90
g71
NtRp2514
(dp2515
g74
(dp2516
g101
g102
ssg83
g2505
sg76
(lp2517
S':'
asbag69
(g90
g71
NtRp2518
(dp2519
g74
(dp2520
sg83
g2505
sg76
(lp2521
g69
(g70
g71
NtRp2522
(dp2523
g74
(dp2524
g82
I3
ssg83
g2518
sg76
(lp2525
g1080
asbasbasbag69
(g85
g71
NtRp2526
(dp2527
g74
(dp2528
sg83
g2144
sg76
(lp2529
g69
(g90
g71
NtRp2530
(dp2531
g74
(dp2532
g94
g95
ssg83
g2526
sg76
(lp2533
S'SERVER_SOFTWARE'
p2534
asbag69
(g90
g71
NtRp2535
(dp2536
g74
(dp2537
g101
g102
ssg83
g2526
sg76
(lp2538
S':'
asbag69
(g90
g71
NtRp2539
(dp2540
g74
(dp2541
sg83
g2526
sg76
(lp2542
g69
(g70
g71
NtRp2543
(dp2544
g74
(dp2545
g82
I3
ssg83
g2539
sg76
(lp2546
g1102
asbasbasbag69
(g85
g71
NtRp2547
(dp2548
g74
(dp2549
sg83
g2144
sg76
(lp2550
g69
(g90
g71
NtRp2551
(dp2552
g74
(dp2553
g94
g95
ssg83
g2547
sg76
(lp2554
S'WEB2PY_ORIGINAL_URI'
p2555
asbag69
(g90
g71
NtRp2556
(dp2557
g74
(dp2558
g101
g102
ssg83
g2547
sg76
(lp2559
S':'
asbag69
(g90
g71
NtRp2560
(dp2561
g74
(dp2562
sg83
g2547
sg76
(lp2563
g69
(g70
g71
NtRp2564
(dp2565
g74
(dp2566
g82
I3
ssg83
g2560
sg76
(lp2567
S'/'
asbasbasbag69
(g85
g71
NtRp2568
(dp2569
g74
(dp2570
sg83
g2144
sg76
(lp2571
g69
(g90
g71
NtRp2572
(dp2573
g74
(dp2574
g94
g95
ssg83
g2568
sg76
(lp2575
S'wsgi.errors'
p2576
asbag69
(g90
g71
NtRp2577
(dp2578
g74
(dp2579
g101
g102
ssg83
g2568
sg76
(lp2580
S':'
asbag69
(g90
g71
NtRp2581
(dp2582
g74
(dp2583
sg83
g2568
sg76
(lp2584
g69
(g70
g71
NtRp2585
(dp2586
g74
(dp2587
g82
I3
ssg83
g2581
sg76
(lp2588
S"<open file '<stderr>', mode 'w' at 0x7f0922279270>"
p2589
asbasbasbag69
(g85
g71
NtRp2590
(dp2591
g74
(dp2592
sg83
g2144
sg76
(lp2593
g69
(g90
g71
NtRp2594
(dp2595
g74
(dp2596
g94
g95
ssg83
g2590
sg76
(lp2597
S'wsgi.file_wrapper'
p2598
asbag69
(g90
g71
NtRp2599
(dp2600
g74
(dp2601
g101
g102
ssg83
g2590
sg76
(lp2602
S':'
asbag69
(g90
g71
NtRp2603
(dp2604
g74
(dp2605
sg83
g2590
sg76
(lp2606
g69
(g70
g71
NtRp2607
(dp2608
g74
(dp2609
g82
I3
ssg83
g2603
sg76
(lp2610
S'<class wsgiref.util.FileWrapper at 0x32db598>'
p2611
asbasbasbag69
(g85
g71
NtRp2612
(dp2613
g74
(dp2614
sg83
g2144
sg76
(lp2615
g69
(g90
g71
NtRp2616
(dp2617
g74
(dp2618
g94
g95
ssg83
g2612
sg76
(lp2619
S'wsgi.input'
p2620
asbag69
(g90
g71
NtRp2621
(dp2622
g74
(dp2623
g101
g102
ssg83
g2612
sg76
(lp2624
S':'
asbag69
(g90
g71
NtRp2625
(dp2626
g74
(dp2627
sg83
g2612
sg76
(lp2628
g69
(g70
g71
NtRp2629
(dp2630
g74
(dp2631
g82
I3
ssg83
g2625
sg76
(lp2632
S'<cStringIO.StringO object at 0x3379d88>'
p2633
asbasbasbag69
(g85
g71
NtRp2634
(dp2635
g74
(dp2636
sg83
g2144
sg76
(lp2637
g69
(g90
g71
NtRp2638
(dp2639
g74
(dp2640
g94
g95
ssg83
g2634
sg76
(lp2641
S'wsgi.multiprocess'
p2642
asbag69
(g90
g71
NtRp2643
(dp2644
g74
(dp2645
g101
g102
ssg83
g2634
sg76
(lp2646
S':'
asbag69
(g90
g71
NtRp2647
(dp2648
g74
(dp2649
sg83
g2634
sg76
(lp2650
g69
(g70
g71
NtRp2651
(dp2652
g74
(dp2653
g82
I3
ssg83
g2647
sg76
(lp2654
g112
asbasbasbag69
(g85
g71
NtRp2655
(dp2656
g74
(dp2657
sg83
g2144
sg76
(lp2658
g69
(g90
g71
NtRp2659
(dp2660
g74
(dp2661
g94
g95
ssg83
g2655
sg76
(lp2662
S'wsgi.multithread'
p2663
asbag69
(g90
g71
NtRp2664
(dp2665
g74
(dp2666
g101
g102
ssg83
g2655
sg76
(lp2667
S':'
asbag69
(g90
g71
NtRp2668
(dp2669
g74
(dp2670
sg83
g2655
sg76
(lp2671
g69
(g70
g71
NtRp2672
(dp2673
g74
(dp2674
g82
I3
ssg83
g2668
sg76
(lp2675
g1340
asbasbasbag69
(g85
g71
NtRp2676
(dp2677
g74
(dp2678
sg83
g2144
sg76
(lp2679
g69
(g90
g71
NtRp2680
(dp2681
g74
(dp2682
g94
g95
ssg83
g2676
sg76
(lp2683
S'wsgi.run_once'
p2684
asbag69
(g90
g71
NtRp2685
(dp2686
g74
(dp2687
g101
g102
ssg83
g2676
sg76
(lp2688
S':'
asbag69
(g90
g71
NtRp2689
(dp2690
g74
(dp2691
sg83
g2676
sg76
(lp2692
g69
(g70
g71
NtRp2693
(dp2694
g74
(dp2695
g82
I3
ssg83
g2689
sg76
(lp2696
g112
asbasbasbag69
(g85
g71
NtRp2697
(dp2698
g74
(dp2699
sg83
g2144
sg76
(lp2700
g69
(g90
g71
NtRp2701
(dp2702
g74
(dp2703
g94
g95
ssg83
g2697
sg76
(lp2704
S'wsgi.url_scheme'
p2705
asbag69
(g90
g71
NtRp2706
(dp2707
g74
(dp2708
g101
g102
ssg83
g2697
sg76
(lp2709
S':'
asbag69
(g90
g71
NtRp2710
(dp2711
g74
(dp2712
sg83
g2697
sg76
(lp2713
g69
(g70
g71
NtRp2714
(dp2715
g74
(dp2716
g82
I3
ssg83
g2710
sg76
(lp2717
g1383
asbasbasbag69
(g85
g71
NtRp2718
(dp2719
g74
(dp2720
sg83
g2144
sg76
(lp2721
g69
(g90
g71
NtRp2722
(dp2723
g74
(dp2724
g94
g95
ssg83
g2718
sg76
(lp2725
S'wsgi.version'
p2726
asbag69
(g90
g71
NtRp2727
(dp2728
g74
(dp2729
g101
g102
ssg83
g2718
sg76
(lp2730
S':'
asbag69
(g90
g71
NtRp2731
(dp2732
g74
(dp2733
sg83
g2718
sg76
(lp2734
g69
(g70
g71
NtRp2735
(dp2736
g74
(dp2737
g82
I3
ssg83
g2731
sg76
(lp2738
S'1'
asbasbasbasbasbasbasbasbasbasbasbasbasbsS'frames'
p2739
(lp2740
(dp2741
S'file'
p2742
S'/var/www/conferencia/gluon/restricted.py'
p2743
sS'dump'
p2744
(dp2745
S'environment'
p2746
S"{'A': <class 'gluon.html.A'>, 'Auth': <class 'gluon.tools.Auth'>, 'B': <class 'gluon.html.B'>, 'BEAUTIFY': <class 'gluon.html.BEAUTIFY'>, 'BODY': <class 'gluon.html.BODY'>, 'BR': <class 'gluon.html.BR'>, 'BUTTON': <class 'gluon.html.BUTTON'>, 'CAT': <class 'gluon.html.CAT'>, 'CENTER': <class 'gluon.html.CENTER'>, 'CLEANUP': <class 'gluon.validators.CLEANUP'>, ...}"
p2747
sS'ccode'
p2748
S'<code object <module> at 0x33d09b0, file "/var/w...a/applications/projeto/models/models.py", line 1>'
p2749
ssS'lnum'
p2750
I212
sS'lines'
p2751
(dp2752
I207
S'    try:'
p2753
sI208
S'        if isinstance(code, types.CodeType):'
p2754
sI209
S'            ccode = code'
p2755
sI210
S'        else:'
p2756
sI211
S'            ccode = compile2(code, layer)'
p2757
sI212
S'        exec ccode in environment'
p2758
sI213
S'    except HTTP:'
p2759
sI214
S'        raise'
p2760
sI215
S'    except RestrictedError:'
p2761
sI216
S'        # do not encapsulate (obfuscate) the original RestrictedError'
p2762
ssS'call'
p2763
S'(code=\'user = db.define_table("user",\\n      Field("nome...),\\n      #auth.signature\\n      format="%(nome)s")\', environment={\'A\': <class \'gluon.html.A\'>, \'Auth\': <class \'gluon.tools.Auth\'>, \'B\': <class \'gluon.html.B\'>, \'BEAUTIFY\': <class \'gluon.html.BEAUTIFY\'>, \'BODY\': <class \'gluon.html.BODY\'>, \'BR\': <class \'gluon.html.BR\'>, \'BUTTON\': <class \'gluon.html.BUTTON\'>, \'CAT\': <class \'gluon.html.CAT\'>, \'CENTER\': <class \'gluon.html.CENTER\'>, \'CLEANUP\': <class \'gluon.validators.CLEANUP\'>, ...}, layer=\'/var/www/conferencia/applications/projeto/models/models.py\')'
p2764
sS'func'
p2765
S'restricted'
p2766
sa(dp2767
g2742
S'/var/www/conferencia/applications/projeto/models/models.py'
p2768
sg2744
(dp2769
S'builtinformat'
p2770
S'<built-in function format>'
p2771
ssg2750
I6
sg2751
(dp2772
I1
S'user = db.define_table("user",'
p2773
sI2
S'      Field("nome", notnull=True, unique=True),'
p2774
sI3
S'      Field("pin"),'
p2775
sI4
S'      Field("email"),'
p2776
sI5
S'      #auth.signature'
p2777
sI6
S'      format="%(nome)s")'
p2778
ssg2763
S'()'
p2779
sg2765
S'<module>'
p2780
sa(dp2781
g2742
S'/var/www/conferencia/gluon/dal.py'
p2782
sg2744
(dp2783
S'self.check_reserved_keyword'
p2784
S'<bound method DAL.check_reserved_keyword of <DAL...s:pg8000://******:123456@127.0.0.1/conferencia">>'
p2785
sS'self'
p2786
S'<DAL uri="postgres:pg8000://******:123456@127.0.0.1/conferencia">'
p2787
sS'tablename'
p2788
S"'user'"
p2789
ssg2750
I7176
sg2751
(dp2790
I7171
S"                raise SyntaxError('table already defined: %s' % tablename)"
p2791
sI7172
S"        elif tablename.startswith('_') or hasattr(self,tablename) or \\"
p2792
sI7173
S'                REGEX_PYTHON_KEYWORDS.match(tablename):'
p2793
sI7174
S"            raise SyntaxError('invalid table name: %s' % tablename)"
p2794
sI7175
S'        elif self.check_reserved:'
p2795
sI7176
S'            self.check_reserved_keyword(tablename)'
p2796
sI7177
S'        else:'
p2797
sI7178
S'            invalid_args = set(args)-TABLE_ARGS'
p2798
sI7179
S'            if invalid_args:'
p2799
sI7180
S'                raise SyntaxError(\'invalid table "%s" attributes: %s\' \\'
p2800
ssg2763
S'(self=<DAL uri="postgres:pg8000://******:123456@127.0.0.1/conferencia">, tablename=\'user\', *fields=(<gluon.dal.Field object>, <gluon.dal.Field object>, <gluon.dal.Field object>), **args={\'format\': \'%(nome)s\'})'
p2801
sg2765
S'define_table'
p2802
sa(dp2803
g2742
S'/var/www/conferencia/gluon/dal.py'
p2804
sg2744
(dp2805
S'backend.upper'
p2806
S'<built-in method upper of str object>'
p2807
sS'name'
p2808
S"'user'"
p2809
sS'backend'
p2810
S"'all'"
p2811
ssg2750
I6930
sg2751
(dp2812
I6925
S"        ['all']"
p2813
sI6926
S'        """'
p2814
sI6927
S'        for backend in self.check_reserved:'
p2815
sI6928
S'            if name.upper() in self.RSK[backend]:'
p2816
sI6929
S'                raise SyntaxError('
p2817
sI6930
S'                    \'invalid table/column name "%s" is a "%s" reserved SQL keyword\' % (name, backend.upper()))'
p2818
sI6931
S''
sI6932
S'    def parse_as_rest(self,patterns,args,vars,queries=None,nested_select=True):'
p2819
sI6933
S'        """'
p2820
sI6934
S'        EXAMPLE:'
p2821
ssg2763
S'(self=<DAL uri="postgres:pg8000://******:123456@127.0.0.1/conferencia">, name=\'user\')'
p2822
sg2765
S'check_reserved_keyword'
p2823
sasS'pyver'
p2824
S'Python 2.7.3: /usr/bin/python'
p2825
sS'session'
p2826
g69
(g70
g71
NtRp2827
(dp2828
g74
(dp2829
sg76
(lp2830
g69
(g78
g71
NtRp2831
(dp2832
g74
(dp2833
g82
I5
ssg83
Nsg76
(lp2834
g69
(g85
g71
NtRp2835
(dp2836
g74
(dp2837
sg83
g2831
sg76
(lp2838
g69
(g90
g71
NtRp2839
(dp2840
g74
(dp2841
g94
g95
ssg83
g2835
sg76
(lp2842
S'flash'
p2843
asbag69
(g90
g71
NtRp2844
(dp2845
g74
(dp2846
g101
g102
ssg83
g2835
sg76
(lp2847
S':'
asbag69
(g90
g71
NtRp2848
(dp2849
g74
(dp2850
sg83
g2835
sg76
(lp2851
g69
(g70
g71
NtRp2852
(dp2853
g74
(dp2854
g82
I5
ssg83
g2848
sg76
(lp2855
S''
asbasbasbasbasbsS'etype'
p2856
S"<type 'exceptions.SyntaxError'>"
p2857
sS'date'
p2858
S'Tue Apr  2 16:50:16 2013'
p2859
sS'response'
p2860
g69
(g70
g71
NtRp2861
(dp2862
g74
(dp2863
sg76
(lp2864
g69
(g78
g71
NtRp2865
(dp2866
g74
(dp2867
g82
I5
ssg83
Nsg76
(lp2868
g69
(g85
g71
NtRp2869
(dp2870
g74
(dp2871
sg83
g2865
sg76
(lp2872
g69
(g90
g71
NtRp2873
(dp2874
g74
(dp2875
g94
g95
ssg83
g2869
sg76
(lp2876
g167
asbag69
(g90
g71
NtRp2877
(dp2878
g74
(dp2879
g101
g102
ssg83
g2869
sg76
(lp2880
S':'
asbag69
(g90
g71
NtRp2881
(dp2882
g74
(dp2883
sg83
g2869
sg76
(lp2884
g69
(g70
g71
NtRp2885
(dp2886
g74
(dp2887
g82
I5
ssg83
g2881
sg76
(lp2888
S'<cStringIO.StringO object at 0x339f1f0>'
p2889
asbasbasbag69
(g85
g71
NtRp2890
(dp2891
g74
(dp2892
sg83
g2865
sg76
(lp2893
g69
(g90
g71
NtRp2894
(dp2895
g74
(dp2896
g94
g95
ssg83
g2890
sg76
(lp2897
g255
asbag69
(g90
g71
NtRp2898
(dp2899
g74
(dp2900
g101
g102
ssg83
g2890
sg76
(lp2901
S':'
asbag69
(g90
g71
NtRp2902
(dp2903
g74
(dp2904
sg83
g2890
sg76
(lp2905
g69
(g70
g71
NtRp2906
(dp2907
g74
(dp2908
g82
I5
ssg83
g2902
sg76
(lp2909
g69
(g78
g71
NtRp2910
(dp2911
g74
(dp2912
g82
I4
ssg83
Nsg76
(lp2913
g69
(g85
g71
NtRp2914
(dp2915
g74
(dp2916
sg83
g2910
sg76
(lp2917
g69
(g90
g71
NtRp2918
(dp2919
g74
(dp2920
g94
g95
ssg83
g2914
sg76
(lp2921
S'session_id_projeto'
p2922
asbag69
(g90
g71
NtRp2923
(dp2924
g74
(dp2925
g101
g102
ssg83
g2914
sg76
(lp2926
S':'
asbag69
(g90
g71
NtRp2927
(dp2928
g74
(dp2929
sg83
g2914
sg76
(lp2930
g69
(g70
g71
NtRp2931
(dp2932
g74
(dp2933
g82
I4
ssg83
g2927
sg76
(lp2934
g293
ag69
(g78
g71
NtRp2935
(dp2936
g74
(dp2937
g82
I3
ssg83
Nsg76
(lp2938
g69
(g85
g71
NtRp2939
(dp2940
g74
(dp2941
sg83
g2935
sg76
(lp2942
g69
(g90
g71
NtRp2943
(dp2944
g74
(dp2945
g94
g95
ssg83
g2939
sg76
(lp2946
g306
asbag69
(g90
g71
NtRp2947
(dp2948
g74
(dp2949
g101
g102
ssg83
g2939
sg76
(lp2950
S':'
asbag69
(g90
g71
NtRp2951
(dp2952
g74
(dp2953
sg83
g2939
sg76
(lp2954
g69
(g70
g71
NtRp2955
(dp2956
g74
(dp2957
g82
I3
ssg83
g2951
sg76
(lp2958
S''
asbasbasbag69
(g85
g71
NtRp2959
(dp2960
g74
(dp2961
sg83
g2935
sg76
(lp2962
g69
(g90
g71
NtRp2963
(dp2964
g74
(dp2965
g94
g95
ssg83
g2959
sg76
(lp2966
g327
asbag69
(g90
g71
NtRp2967
(dp2968
g74
(dp2969
g101
g102
ssg83
g2959
sg76
(lp2970
S':'
asbag69
(g90
g71
NtRp2971
(dp2972
g74
(dp2973
sg83
g2959
sg76
(lp2974
g69
(g70
g71
NtRp2975
(dp2976
g74
(dp2977
g82
I3
ssg83
g2971
sg76
(lp2978
S''
asbasbasbag69
(g85
g71
NtRp2979
(dp2980
g74
(dp2981
sg83
g2935
sg76
(lp2982
g69
(g90
g71
NtRp2983
(dp2984
g74
(dp2985
g94
g95
ssg83
g2979
sg76
(lp2986
g348
asbag69
(g90
g71
NtRp2987
(dp2988
g74
(dp2989
g101
g102
ssg83
g2979
sg76
(lp2990
S':'
asbag69
(g90
g71
NtRp2991
(dp2992
g74
(dp2993
sg83
g2979
sg76
(lp2994
g69
(g70
g71
NtRp2995
(dp2996
g74
(dp2997
g82
I3
ssg83
g2991
sg76
(lp2998
S''
asbasbasbag69
(g85
g71
NtRp2999
(dp3000
g74
(dp3001
sg83
g2935
sg76
(lp3002
g69
(g90
g71
NtRp3003
(dp3004
g74
(dp3005
g94
g95
ssg83
g2999
sg76
(lp3006
g369
asbag69
(g90
g71
NtRp3007
(dp3008
g74
(dp3009
g101
g102
ssg83
g2999
sg76
(lp3010
S':'
asbag69
(g90
g71
NtRp3011
(dp3012
g74
(dp3013
sg83
g2999
sg76
(lp3014
g69
(g70
g71
NtRp3015
(dp3016
g74
(dp3017
g82
I3
ssg83
g3011
sg76
(lp3018
S''
asbasbasbag69
(g85
g71
NtRp3019
(dp3020
g74
(dp3021
sg83
g2935
sg76
(lp3022
g69
(g90
g71
NtRp3023
(dp3024
g74
(dp3025
g94
g95
ssg83
g3019
sg76
(lp3026
g390
asbag69
(g90
g71
NtRp3027
(dp3028
g74
(dp3029
g101
g102
ssg83
g3019
sg76
(lp3030
S':'
asbag69
(g90
g71
NtRp3031
(dp3032
g74
(dp3033
sg83
g3019
sg76
(lp3034
g69
(g70
g71
NtRp3035
(dp3036
g74
(dp3037
g82
I3
ssg83
g3031
sg76
(lp3038
S''
asbasbasbag69
(g85
g71
NtRp3039
(dp3040
g74
(dp3041
sg83
g2935
sg76
(lp3042
g69
(g90
g71
NtRp3043
(dp3044
g74
(dp3045
g94
g95
ssg83
g3039
sg76
(lp3046
g411
asbag69
(g90
g71
NtRp3047
(dp3048
g74
(dp3049
g101
g102
ssg83
g3039
sg76
(lp3050
S':'
asbag69
(g90
g71
NtRp3051
(dp3052
g74
(dp3053
sg83
g3039
sg76
(lp3054
g69
(g70
g71
NtRp3055
(dp3056
g74
(dp3057
g82
I3
ssg83
g3051
sg76
(lp3058
S'/'
asbasbasbag69
(g85
g71
NtRp3059
(dp3060
g74
(dp3061
sg83
g2935
sg76
(lp3062
g69
(g90
g71
NtRp3063
(dp3064
g74
(dp3065
g94
g95
ssg83
g3059
sg76
(lp3066
g432
asbag69
(g90
g71
NtRp3067
(dp3068
g74
(dp3069
g101
g102
ssg83
g3059
sg76
(lp3070
S':'
asbag69
(g90
g71
NtRp3071
(dp3072
g74
(dp3073
sg83
g3059
sg76
(lp3074
g69
(g70
g71
NtRp3075
(dp3076
g74
(dp3077
g82
I3
ssg83
g3071
sg76
(lp3078
S''
asbasbasbag69
(g85
g71
NtRp3079
(dp3080
g74
(dp3081
sg83
g2935
sg76
(lp3082
g69
(g90
g71
NtRp3083
(dp3084
g74
(dp3085
g94
g95
ssg83
g3079
sg76
(lp3086
g453
asbag69
(g90
g71
NtRp3087
(dp3088
g74
(dp3089
g101
g102
ssg83
g3079
sg76
(lp3090
S':'
asbag69
(g90
g71
NtRp3091
(dp3092
g74
(dp3093
sg83
g3079
sg76
(lp3094
g69
(g70
g71
NtRp3095
(dp3096
g74
(dp3097
g82
I3
ssg83
g3091
sg76
(lp3098
S''
asbasbasbasbasbasbasbasbasbasbasbag69
(g85
g71
NtRp3099
(dp3100
g74
(dp3101
sg83
g2865
sg76
(lp3102
g69
(g90
g71
NtRp3103
(dp3104
g74
(dp3105
g94
g95
ssg83
g3099
sg76
(lp3106
S'delimiters'
p3107
asbag69
(g90
g71
NtRp3108
(dp3109
g74
(dp3110
g101
g102
ssg83
g3099
sg76
(lp3111
S':'
asbag69
(g90
g71
NtRp3112
(dp3113
g74
(dp3114
sg83
g3099
sg76
(lp3115
g69
(g70
g71
NtRp3116
(dp3117
g74
(dp3118
g82
I5
ssg83
g3112
sg76
(lp3119
g69
(g78
g71
NtRp3120
(dp3121
g74
(dp3122
g82
I4
ssg83
Nsg76
(lp3123
g69
(g85
g71
NtRp3124
(dp3125
g74
(dp3126
sg83
g3120
sg76
(lp3127
g69
(g90
g71
NtRp3128
(dp3129
g74
(dp3130
sg83
g3124
sg76
(lp3131
g69
(g70
g71
NtRp3132
(dp3133
g74
(dp3134
g82
I4
ssg83
g3128
sg76
(lp3135
S'{{'
p3136
asbasbasbag69
(g85
g71
NtRp3137
(dp3138
g74
(dp3139
sg83
g3120
sg76
(lp3140
g69
(g90
g71
NtRp3141
(dp3142
g74
(dp3143
sg83
g3137
sg76
(lp3144
g69
(g70
g71
NtRp3145
(dp3146
g74
(dp3147
g82
I4
ssg83
g3141
sg76
(lp3148
S'}}'
p3149
asbasbasbasbasbasbasbag69
(g85
g71
NtRp3150
(dp3151
g74
(dp3152
sg83
g2865
sg76
(lp3153
g69
(g90
g71
NtRp3154
(dp3155
g74
(dp3156
g94
g95
ssg83
g3150
sg76
(lp3157
S'files'
p3158
asbag69
(g90
g71
NtRp3159
(dp3160
g74
(dp3161
g101
g102
ssg83
g3150
sg76
(lp3162
S':'
asbag69
(g90
g71
NtRp3163
(dp3164
g74
(dp3165
sg83
g3150
sg76
(lp3166
g69
(g70
g71
NtRp3167
(dp3168
g74
(dp3169
g82
I5
ssg83
g3163
sg76
(lp3170
g69
(g78
g71
NtRp3171
(dp3172
g74
(dp3173
g82
I4
ssg83
Nsg76
(lp3174
sbasbasbasbag69
(g85
g71
NtRp3175
(dp3176
g74
(dp3177
sg83
g2865
sg76
(lp3178
g69
(g90
g71
NtRp3179
(dp3180
g74
(dp3181
g94
g95
ssg83
g3175
sg76
(lp3182
S'flash'
p3183
asbag69
(g90
g71
NtRp3184
(dp3185
g74
(dp3186
g101
g102
ssg83
g3175
sg76
(lp3187
S':'
asbag69
(g90
g71
NtRp3188
(dp3189
g74
(dp3190
sg83
g3175
sg76
(lp3191
g69
(g70
g71
NtRp3192
(dp3193
g74
(dp3194
g82
I5
ssg83
g3188
sg76
(lp3195
S''
asbasbasbag69
(g85
g71
NtRp3196
(dp3197
g74
(dp3198
sg83
g2865
sg76
(lp3199
g69
(g90
g71
NtRp3200
(dp3201
g74
(dp3202
g94
g95
ssg83
g3196
sg76
(lp3203
S'generic_patterns'
p3204
asbag69
(g90
g71
NtRp3205
(dp3206
g74
(dp3207
g101
g102
ssg83
g3196
sg76
(lp3208
S':'
asbag69
(g90
g71
NtRp3209
(dp3210
g74
(dp3211
sg83
g3196
sg76
(lp3212
g69
(g70
g71
NtRp3213
(dp3214
g74
(dp3215
g82
I5
ssg83
g3209
sg76
(lp3216
g69
(g78
g71
NtRp3217
(dp3218
g74
(dp3219
g82
I4
ssg83
Nsg76
(lp3220
g69
(g85
g71
NtRp3221
(dp3222
g74
(dp3223
sg83
g3217
sg76
(lp3224
g69
(g90
g71
NtRp3225
(dp3226
g74
(dp3227
sg83
g3221
sg76
(lp3228
g69
(g70
g71
NtRp3229
(dp3230
g74
(dp3231
g82
I4
ssg83
g3225
sg76
(lp3232
S'*'
asbasbasbasbasbasbasbag69
(g85
g71
NtRp3233
(dp3234
g74
(dp3235
sg83
g2865
sg76
(lp3236
g69
(g90
g71
NtRp3237
(dp3238
g74
(dp3239
g94
g95
ssg83
g3233
sg76
(lp3240
S'google_analytics_id'
p3241
asbag69
(g90
g71
NtRp3242
(dp3243
g74
(dp3244
g101
g102
ssg83
g3233
sg76
(lp3245
S':'
asbag69
(g90
g71
NtRp3246
(dp3247
g74
(dp3248
sg83
g3233
sg76
(lp3249
g69
(g70
g71
NtRp3250
(dp3251
g74
(dp3252
g82
I5
ssg83
g3246
sg76
(lp3253
S'None'
p3254
asbasbasbag69
(g85
g71
NtRp3255
(dp3256
g74
(dp3257
sg83
g2865
sg76
(lp3258
g69
(g90
g71
NtRp3259
(dp3260
g74
(dp3261
g94
g95
ssg83
g3255
sg76
(lp3262
S'headers'
p3263
asbag69
(g90
g71
NtRp3264
(dp3265
g74
(dp3266
g101
g102
ssg83
g3255
sg76
(lp3267
S':'
asbag69
(g90
g71
NtRp3268
(dp3269
g74
(dp3270
sg83
g3255
sg76
(lp3271
g69
(g70
g71
NtRp3272
(dp3273
g74
(dp3274
g82
I5
ssg83
g3268
sg76
(lp3275
g69
(g78
g71
NtRp3276
(dp3277
g74
(dp3278
g82
I4
ssg83
Nsg76
(lp3279
g69
(g85
g71
NtRp3280
(dp3281
g74
(dp3282
sg83
g3276
sg76
(lp3283
g69
(g90
g71
NtRp3284
(dp3285
g74
(dp3286
g94
g95
ssg83
g3280
sg76
(lp3287
S'X-Powered-By'
p3288
asbag69
(g90
g71
NtRp3289
(dp3290
g74
(dp3291
g101
g102
ssg83
g3280
sg76
(lp3292
S':'
asbag69
(g90
g71
NtRp3293
(dp3294
g74
(dp3295
sg83
g3280
sg76
(lp3296
g69
(g70
g71
NtRp3297
(dp3298
g74
(dp3299
g82
I4
ssg83
g3293
sg76
(lp3300
S'web2py'
p3301
asbasbasbasbasbasbasbag69
(g85
g71
NtRp3302
(dp3303
g74
(dp3304
sg83
g2865
sg76
(lp3305
g69
(g90
g71
NtRp3306
(dp3307
g74
(dp3308
g94
g95
ssg83
g3302
sg76
(lp3309
S'logo'
p3310
asbag69
(g90
g71
NtRp3311
(dp3312
g74
(dp3313
g101
g102
ssg83
g3302
sg76
(lp3314
S':'
asbag69
(g90
g71
NtRp3315
(dp3316
g74
(dp3317
sg83
g3302
sg76
(lp3318
g69
(g70
g71
NtRp3319
(dp3320
g74
(dp3321
g82
I5
ssg83
g3315
sg76
(lp3322
g69
(cgluon.html
A
p3323
g71
NtRp3324
(dp3325
g74
(dp3326
S'_class'
p3327
S'brand'
p3328
sS'_href'
p3329
g1498
ssg83
Nsg76
(lp3330
g69
(cgluon.html
B
p3331
g71
NtRp3332
(dp3333
g74
(dp3334
sg83
g3324
sg76
(lp3335
S'hosts'
p3336
ag69
(cgluon.html
SPAN
p3337
g71
NtRp3338
(dp3339
g74
(dp3340
sg83
g3332
sg76
(lp3341
S'3'
asbaS''
asbacgluon.html
XML_unpickle
p3342
(S's\r\x00\x00\x00&trade;&nbsp;'
tRp3343
asbasbasbasbag69
(g85
g71
NtRp3344
(dp3345
g74
(dp3346
sg83
g2865
sg76
(lp3347
g69
(g90
g71
NtRp3348
(dp3349
g74
(dp3350
g94
g95
ssg83
g3344
sg76
(lp3351
S'menu'
p3352
asbag69
(g90
g71
NtRp3353
(dp3354
g74
(dp3355
g101
g102
ssg83
g3344
sg76
(lp3356
S':'
asbag69
(g90
g71
NtRp3357
(dp3358
g74
(dp3359
sg83
g3344
sg76
(lp3360
g69
(g70
g71
NtRp3361
(dp3362
g74
(dp3363
g82
I5
ssg83
g3357
sg76
(lp3364
g69
(g78
g71
NtRp3365
(dp3366
g74
(dp3367
g82
I4
ssg83
Nsg76
(lp3368
g69
(g85
g71
NtRp3369
(dp3370
g74
(dp3371
sg83
g3365
sg76
(lp3372
g69
(g90
g71
NtRp3373
(dp3374
g74
(dp3375
sg83
g3369
sg76
(lp3376
g69
(g70
g71
NtRp3377
(dp3378
g74
(dp3379
g82
I4
ssg83
g3373
sg76
(lp3380
g69
(g78
g71
NtRp3381
(dp3382
g74
(dp3383
g82
I3
ssg83
Nsg76
(lp3384
g69
(g85
g71
NtRp3385
(dp3386
g74
(dp3387
sg83
g3381
sg76
(lp3388
g69
(g90
g71
NtRp3389
(dp3390
g74
(dp3391
sg83
g3385
sg76
(lp3392
g69
(g70
g71
NtRp3393
(dp3394
g74
(dp3395
g82
I3
ssg83
g3389
sg76
(lp3396
cgluon.languages
lazyT_unpickle
p3397
(S't\x08\x00\x00\x00Clientes'
tRp3398
asbasbasbag69
(g85
g71
NtRp3399
(dp3400
g74
(dp3401
sg83
g3381
sg76
(lp3402
g69
(g90
g71
NtRp3403
(dp3404
g74
(dp3405
sg83
g3399
sg76
(lp3406
g69
(g70
g71
NtRp3407
(dp3408
g74
(dp3409
g82
I3
ssg83
g3403
sg76
(lp3410
g112
asbasbasbag69
(g85
g71
NtRp3411
(dp3412
g74
(dp3413
sg83
g3381
sg76
(lp3414
g69
(g90
g71
NtRp3415
(dp3416
g74
(dp3417
sg83
g3411
sg76
(lp3418
g69
(g70
g71
NtRp3419
(dp3420
g74
(dp3421
g82
I3
ssg83
g3415
sg76
(lp3422
S'/show_cliente'
p3423
asbasbasbag69
(g85
g71
NtRp3424
(dp3425
g74
(dp3426
sg83
g3381
sg76
(lp3427
g69
(g90
g71
NtRp3428
(dp3429
g74
(dp3430
sg83
g3424
sg76
(lp3431
g69
(g70
g71
NtRp3432
(dp3433
g74
(dp3434
g82
I3
ssg83
g3428
sg76
(lp3435
g69
(g78
g71
NtRp3436
(dp3437
g74
(dp3438
g82
I2
ssg83
Nsg76
(lp3439
sbasbasbasbasbasbasbasbag69
(g85
g71
NtRp3440
(dp3441
g74
(dp3442
sg83
g3365
sg76
(lp3443
g69
(g90
g71
NtRp3444
(dp3445
g74
(dp3446
sg83
g3440
sg76
(lp3447
g69
(g70
g71
NtRp3448
(dp3449
g74
(dp3450
g82
I4
ssg83
g3444
sg76
(lp3451
g69
(g78
g71
NtRp3452
(dp3453
g74
(dp3454
g82
I3
ssg83
Nsg76
(lp3455
g69
(g85
g71
NtRp3456
(dp3457
g74
(dp3458
sg83
g3452
sg76
(lp3459
g69
(g90
g71
NtRp3460
(dp3461
g74
(dp3462
sg83
g3456
sg76
(lp3463
g69
(g70
g71
NtRp3464
(dp3465
g74
(dp3466
g82
I3
ssg83
g3460
sg76
(lp3467
g3397
(S't\n\x00\x00\x00Servidores'
tRp3468
asbasbasbag69
(g85
g71
NtRp3469
(dp3470
g74
(dp3471
sg83
g3452
sg76
(lp3472
g69
(g90
g71
NtRp3473
(dp3474
g74
(dp3475
sg83
g3469
sg76
(lp3476
g69
(g70
g71
NtRp3477
(dp3478
g74
(dp3479
g82
I3
ssg83
g3473
sg76
(lp3480
g112
asbasbasbag69
(g85
g71
NtRp3481
(dp3482
g74
(dp3483
sg83
g3452
sg76
(lp3484
g69
(g90
g71
NtRp3485
(dp3486
g74
(dp3487
sg83
g3481
sg76
(lp3488
g69
(g70
g71
NtRp3489
(dp3490
g74
(dp3491
g82
I3
ssg83
g3485
sg76
(lp3492
S'/show_servidor'
p3493
asbasbasbag69
(g85
g71
NtRp3494
(dp3495
g74
(dp3496
sg83
g3452
sg76
(lp3497
g69
(g90
g71
NtRp3498
(dp3499
g74
(dp3500
sg83
g3494
sg76
(lp3501
g69
(g70
g71
NtRp3502
(dp3503
g74
(dp3504
g82
I3
ssg83
g3498
sg76
(lp3505
g69
(g78
g71
NtRp3506
(dp3507
g74
(dp3508
g82
I2
ssg83
Nsg76
(lp3509
sbasbasbasbasbasbasbasbag69
(g85
g71
NtRp3510
(dp3511
g74
(dp3512
sg83
g3365
sg76
(lp3513
g69
(g90
g71
NtRp3514
(dp3515
g74
(dp3516
sg83
g3510
sg76
(lp3517
g69
(g70
g71
NtRp3518
(dp3519
g74
(dp3520
g82
I4
ssg83
g3514
sg76
(lp3521
g69
(g78
g71
NtRp3522
(dp3523
g74
(dp3524
g82
I3
ssg83
Nsg76
(lp3525
g69
(g85
g71
NtRp3526
(dp3527
g74
(dp3528
sg83
g3522
sg76
(lp3529
g69
(g90
g71
NtRp3530
(dp3531
g74
(dp3532
sg83
g3526
sg76
(lp3533
g69
(g70
g71
NtRp3534
(dp3535
g74
(dp3536
g82
I3
ssg83
g3530
sg76
(lp3537
g3397
(S't\x07\x00\x00\x00Distros'
tRp3538
asbasbasbag69
(g85
g71
NtRp3539
(dp3540
g74
(dp3541
sg83
g3522
sg76
(lp3542
g69
(g90
g71
NtRp3543
(dp3544
g74
(dp3545
sg83
g3539
sg76
(lp3546
g69
(g70
g71
NtRp3547
(dp3548
g74
(dp3549
g82
I3
ssg83
g3543
sg76
(lp3550
g112
asbasbasbag69
(g85
g71
NtRp3551
(dp3552
g74
(dp3553
sg83
g3522
sg76
(lp3554
g69
(g90
g71
NtRp3555
(dp3556
g74
(dp3557
sg83
g3551
sg76
(lp3558
g69
(g70
g71
NtRp3559
(dp3560
g74
(dp3561
g82
I3
ssg83
g3555
sg76
(lp3562
S'/show_distro'
p3563
asbasbasbag69
(g85
g71
NtRp3564
(dp3565
g74
(dp3566
sg83
g3522
sg76
(lp3567
g69
(g90
g71
NtRp3568
(dp3569
g74
(dp3570
sg83
g3564
sg76
(lp3571
g69
(g70
g71
NtRp3572
(dp3573
g74
(dp3574
g82
I3
ssg83
g3568
sg76
(lp3575
g69
(g78
g71
NtRp3576
(dp3577
g74
(dp3578
g82
I2
ssg83
Nsg76
(lp3579
sbasbasbasbasbasbasbasbag69
(g85
g71
NtRp3580
(dp3581
g74
(dp3582
sg83
g3365
sg76
(lp3583
g69
(g90
g71
NtRp3584
(dp3585
g74
(dp3586
sg83
g3580
sg76
(lp3587
g69
(g70
g71
NtRp3588
(dp3589
g74
(dp3590
g82
I4
ssg83
g3584
sg76
(lp3591
g69
(g78
g71
NtRp3592
(dp3593
g74
(dp3594
g82
I3
ssg83
Nsg76
(lp3595
g69
(g85
g71
NtRp3596
(dp3597
g74
(dp3598
sg83
g3592
sg76
(lp3599
g69
(g90
g71
NtRp3600
(dp3601
g74
(dp3602
sg83
g3596
sg76
(lp3603
g69
(g70
g71
NtRp3604
(dp3605
g74
(dp3606
g82
I3
ssg83
g3600
sg76
(lp3607
g3397
(S's\x05\x00\x00\x00+host'
tRp3608
asbasbasbag69
(g85
g71
NtRp3609
(dp3610
g74
(dp3611
sg83
g3592
sg76
(lp3612
g69
(g90
g71
NtRp3613
(dp3614
g74
(dp3615
sg83
g3609
sg76
(lp3616
g69
(g70
g71
NtRp3617
(dp3618
g74
(dp3619
g82
I3
ssg83
g3613
sg76
(lp3620
g112
asbasbasbag69
(g85
g71
NtRp3621
(dp3622
g74
(dp3623
sg83
g3592
sg76
(lp3624
g69
(g90
g71
NtRp3625
(dp3626
g74
(dp3627
sg83
g3621
sg76
(lp3628
g69
(g70
g71
NtRp3629
(dp3630
g74
(dp3631
g82
I3
ssg83
g3625
sg76
(lp3632
S'/interface'
p3633
asbasbasbag69
(g85
g71
NtRp3634
(dp3635
g74
(dp3636
sg83
g3592
sg76
(lp3637
g69
(g90
g71
NtRp3638
(dp3639
g74
(dp3640
sg83
g3634
sg76
(lp3641
g69
(g70
g71
NtRp3642
(dp3643
g74
(dp3644
g82
I3
ssg83
g3638
sg76
(lp3645
g69
(g78
g71
NtRp3646
(dp3647
g74
(dp3648
g82
I2
ssg83
Nsg76
(lp3649
sbasbasbasbasbasbasbasbasbasbasbasbag69
(g85
g71
NtRp3650
(dp3651
g74
(dp3652
sg83
g2865
sg76
(lp3653
g69
(g90
g71
NtRp3654
(dp3655
g74
(dp3656
g94
g95
ssg83
g3650
sg76
(lp3657
S'menu2'
p3658
asbag69
(g90
g71
NtRp3659
(dp3660
g74
(dp3661
g101
g102
ssg83
g3650
sg76
(lp3662
S':'
asbag69
(g90
g71
NtRp3663
(dp3664
g74
(dp3665
sg83
g3650
sg76
(lp3666
g69
(g70
g71
NtRp3667
(dp3668
g74
(dp3669
g82
I5
ssg83
g3663
sg76
(lp3670
g69
(g78
g71
NtRp3671
(dp3672
g74
(dp3673
g82
I4
ssg83
Nsg76
(lp3674
g69
(g85
g71
NtRp3675
(dp3676
g74
(dp3677
sg83
g3671
sg76
(lp3678
g69
(g90
g71
NtRp3679
(dp3680
g74
(dp3681
sg83
g3675
sg76
(lp3682
g69
(g70
g71
NtRp3683
(dp3684
g74
(dp3685
g82
I4
ssg83
g3679
sg76
(lp3686
g69
(g78
g71
NtRp3687
(dp3688
g74
(dp3689
g82
I3
ssg83
Nsg76
(lp3690
g69
(g85
g71
NtRp3691
(dp3692
g74
(dp3693
sg83
g3687
sg76
(lp3694
g69
(g90
g71
NtRp3695
(dp3696
g74
(dp3697
sg83
g3691
sg76
(lp3698
g69
(g70
g71
NtRp3699
(dp3700
g74
(dp3701
g82
I3
ssg83
g3695
sg76
(lp3702
g69
(g3337
g71
NtRp3703
(dp3704
g74
(dp3705
g3327
S'dropdown-toggle'
p3706
ssg83
Nsg76
(lp3707
S'Admin'
p3708
asbasbasbasbag69
(g85
g71
NtRp3709
(dp3710
g74
(dp3711
sg83
g3687
sg76
(lp3712
g69
(g90
g71
NtRp3713
(dp3714
g74
(dp3715
sg83
g3709
sg76
(lp3716
g69
(g70
g71
NtRp3717
(dp3718
g74
(dp3719
g82
I3
ssg83
g3713
sg76
(lp3720
g112
asbasbasbag69
(g85
g71
NtRp3721
(dp3722
g74
(dp3723
sg83
g3687
sg76
(lp3724
g69
(g90
g71
NtRp3725
(dp3726
g74
(dp3727
sg83
g3721
sg76
(lp3728
g69
(g70
g71
NtRp3729
(dp3730
g74
(dp3731
g82
I3
ssg83
g3725
sg76
(lp3732
S'#'
asbasbasbag69
(g85
g71
NtRp3733
(dp3734
g74
(dp3735
sg83
g3687
sg76
(lp3736
g69
(g90
g71
NtRp3737
(dp3738
g74
(dp3739
sg83
g3733
sg76
(lp3740
g69
(g70
g71
NtRp3741
(dp3742
g74
(dp3743
g82
I3
ssg83
g3737
sg76
(lp3744
g69
(g78
g71
NtRp3745
(dp3746
g74
(dp3747
g82
I2
ssg83
Nsg76
(lp3748
g69
(g85
g71
NtRp3749
(dp3750
g74
(dp3751
sg83
g3745
sg76
(lp3752
g69
(g90
g71
NtRp3753
(dp3754
g74
(dp3755
sg83
g3749
sg76
(lp3756
g69
(g70
g71
NtRp3757
(dp3758
g74
(dp3759
g82
I2
ssg83
g3753
sg76
(lp3760
g69
(g78
g71
NtRp3761
(dp3762
g74
(dp3763
g82
I1
ssg83
Nsg76
(lp3764
g69
(g85
g71
NtRp3765
(dp3766
g74
(dp3767
sg83
g3761
sg76
(lp3768
g69
(g90
g71
NtRp3769
(dp3770
g74
(dp3771
sg83
g3765
sg76
(lp3772
g69
(g70
g71
NtRp3773
(dp3774
g74
(dp3775
g82
I1
ssg83
g3769
sg76
(lp3776
g3397
(S's\t\x00\x00\x00Usu\xc3\xa1rios'
tRp3777
asbasbasbag69
(g85
g71
NtRp3778
(dp3779
g74
(dp3780
sg83
g3761
sg76
(lp3781
g69
(g90
g71
NtRp3782
(dp3783
g74
(dp3784
sg83
g3778
sg76
(lp3785
g69
(g70
g71
NtRp3786
(dp3787
g74
(dp3788
g82
I1
ssg83
g3782
sg76
(lp3789
I00
asbasbasbag69
(g85
g71
NtRp3790
(dp3791
g74
(dp3792
sg83
g3761
sg76
(lp3793
g69
(g90
g71
NtRp3794
(dp3795
g74
(dp3796
sg83
g3790
sg76
(lp3797
g69
(g70
g71
NtRp3798
(dp3799
g74
(dp3800
g82
I1
ssg83
g3794
sg76
(lp3801
S'/manager/users'
p3802
asbasbasbasbasbasbasbag69
(g85
g71
NtRp3803
(dp3804
g74
(dp3805
sg83
g3745
sg76
(lp3806
g69
(g90
g71
NtRp3807
(dp3808
g74
(dp3809
sg83
g3803
sg76
(lp3810
g69
(g70
g71
NtRp3811
(dp3812
g74
(dp3813
g82
I2
ssg83
g3807
sg76
(lp3814
g69
(g78
g71
NtRp3815
(dp3816
g74
(dp3817
g82
I1
ssg83
Nsg76
(lp3818
g69
(g85
g71
NtRp3819
(dp3820
g74
(dp3821
sg83
g3815
sg76
(lp3822
g69
(g90
g71
NtRp3823
(dp3824
g74
(dp3825
sg83
g3819
sg76
(lp3826
g69
(g70
g71
NtRp3827
(dp3828
g74
(dp3829
g82
I1
ssg83
g3823
sg76
(lp3830
g3397
(S't\x06\x00\x00\x00Grupos'
tRp3831
asbasbasbag69
(g85
g71
NtRp3832
(dp3833
g74
(dp3834
sg83
g3815
sg76
(lp3835
g69
(g90
g71
NtRp3836
(dp3837
g74
(dp3838
sg83
g3832
sg76
(lp3839
g69
(g70
g71
NtRp3840
(dp3841
g74
(dp3842
g82
I1
ssg83
g3836
sg76
(lp3843
I00
asbasbasbag69
(g85
g71
NtRp3844
(dp3845
g74
(dp3846
sg83
g3815
sg76
(lp3847
g69
(g90
g71
NtRp3848
(dp3849
g74
(dp3850
sg83
g3844
sg76
(lp3851
g69
(g70
g71
NtRp3852
(dp3853
g74
(dp3854
g82
I1
ssg83
g3848
sg76
(lp3855
S'/manager/groups'
p3856
asbasbasbasbasbasbasbag69
(g85
g71
NtRp3857
(dp3858
g74
(dp3859
sg83
g3745
sg76
(lp3860
g69
(g90
g71
NtRp3861
(dp3862
g74
(dp3863
sg83
g3857
sg76
(lp3864
g69
(g70
g71
NtRp3865
(dp3866
g74
(dp3867
g82
I2
ssg83
g3861
sg76
(lp3868
g69
(g78
g71
NtRp3869
(dp3870
g74
(dp3871
g82
I1
ssg83
Nsg76
(lp3872
g69
(g85
g71
NtRp3873
(dp3874
g74
(dp3875
sg83
g3869
sg76
(lp3876
g69
(g90
g71
NtRp3877
(dp3878
g74
(dp3879
sg83
g3873
sg76
(lp3880
g69
(g70
g71
NtRp3881
(dp3882
g74
(dp3883
g82
I1
ssg83
g3877
sg76
(lp3884
g3397
(S't\x07\x00\x00\x00Membros'
tRp3885
asbasbasbag69
(g85
g71
NtRp3886
(dp3887
g74
(dp3888
sg83
g3869
sg76
(lp3889
g69
(g90
g71
NtRp3890
(dp3891
g74
(dp3892
sg83
g3886
sg76
(lp3893
g69
(g70
g71
NtRp3894
(dp3895
g74
(dp3896
g82
I1
ssg83
g3890
sg76
(lp3897
I00
asbasbasbag69
(g85
g71
NtRp3898
(dp3899
g74
(dp3900
sg83
g3869
sg76
(lp3901
g69
(g90
g71
NtRp3902
(dp3903
g74
(dp3904
sg83
g3898
sg76
(lp3905
g69
(g70
g71
NtRp3906
(dp3907
g74
(dp3908
g82
I1
ssg83
g3902
sg76
(lp3909
S'/manager/membership'
p3910
asbasbasbasbasbasbasbasbasbasbasbasbasbasbasbag69
(g85
g71
NtRp3911
(dp3912
g74
(dp3913
sg83
g3671
sg76
(lp3914
g69
(g90
g71
NtRp3915
(dp3916
g74
(dp3917
sg83
g3911
sg76
(lp3918
g69
(g70
g71
NtRp3919
(dp3920
g74
(dp3921
g82
I4
ssg83
g3915
sg76
(lp3922
g69
(g78
g71
NtRp3923
(dp3924
g74
(dp3925
g82
I3
ssg83
Nsg76
(lp3926
g69
(g85
g71
NtRp3927
(dp3928
g74
(dp3929
sg83
g3923
sg76
(lp3930
g69
(g90
g71
NtRp3931
(dp3932
g74
(dp3933
sg83
g3927
sg76
(lp3934
g69
(g70
g71
NtRp3935
(dp3936
g74
(dp3937
g82
I3
ssg83
g3931
sg76
(lp3938
g69
(g3337
g71
NtRp3939
(dp3940
g74
(dp3941
g3327
g3706
ssg83
Nsg76
(lp3942
S'Login'
p3943
asbasbasbasbag69
(g85
g71
NtRp3944
(dp3945
g74
(dp3946
sg83
g3923
sg76
(lp3947
g69
(g90
g71
NtRp3948
(dp3949
g74
(dp3950
sg83
g3944
sg76
(lp3951
g69
(g70
g71
NtRp3952
(dp3953
g74
(dp3954
g82
I3
ssg83
g3948
sg76
(lp3955
g112
asbasbasbag69
(g85
g71
NtRp3956
(dp3957
g74
(dp3958
sg83
g3923
sg76
(lp3959
g69
(g90
g71
NtRp3960
(dp3961
g74
(dp3962
sg83
g3956
sg76
(lp3963
g69
(g70
g71
NtRp3964
(dp3965
g74
(dp3966
g82
I3
ssg83
g3960
sg76
(lp3967
S'#'
asbasbasbag69
(g85
g71
NtRp3968
(dp3969
g74
(dp3970
sg83
g3923
sg76
(lp3971
g69
(g90
g71
NtRp3972
(dp3973
g74
(dp3974
sg83
g3968
sg76
(lp3975
g69
(g70
g71
NtRp3976
(dp3977
g74
(dp3978
g82
I3
ssg83
g3972
sg76
(lp3979
g69
(g78
g71
NtRp3980
(dp3981
g74
(dp3982
g82
I2
ssg83
Nsg76
(lp3983
g69
(g85
g71
NtRp3984
(dp3985
g74
(dp3986
sg83
g3980
sg76
(lp3987
g69
(g90
g71
NtRp3988
(dp3989
g74
(dp3990
sg83
g3984
sg76
(lp3991
g69
(g70
g71
NtRp3992
(dp3993
g74
(dp3994
g82
I2
ssg83
g3988
sg76
(lp3995
g69
(g78
g71
NtRp3996
(dp3997
g74
(dp3998
g82
I1
ssg83
Nsg76
(lp3999
g69
(g85
g71
NtRp4000
(dp4001
g74
(dp4002
sg83
g3996
sg76
(lp4003
g69
(g90
g71
NtRp4004
(dp4005
g74
(dp4006
sg83
g4000
sg76
(lp4007
g69
(g70
g71
NtRp4008
(dp4009
g74
(dp4010
g82
I1
ssg83
g4004
sg76
(lp4011
g3397
(S't\x06\x00\x00\x00Logout'
tRp4012
asbasbasbag69
(g85
g71
NtRp4013
(dp4014
g74
(dp4015
sg83
g3996
sg76
(lp4016
g69
(g90
g71
NtRp4017
(dp4018
g74
(dp4019
sg83
g4013
sg76
(lp4020
g69
(g70
g71
NtRp4021
(dp4022
g74
(dp4023
g82
I1
ssg83
g4017
sg76
(lp4024
I00
asbasbasbag69
(g85
g71
NtRp4025
(dp4026
g74
(dp4027
sg83
g3996
sg76
(lp4028
g69
(g90
g71
NtRp4029
(dp4030
g74
(dp4031
sg83
g4025
sg76
(lp4032
g69
(g70
g71
NtRp4033
(dp4034
g74
(dp4035
g82
I1
ssg83
g4029
sg76
(lp4036
S'/initial/user/logout'
p4037
asbasbasbasbasbasbasbasbasbasbasbasbasbasbasbasbasbasbasbag69
(g85
g71
NtRp4038
(dp4039
g74
(dp4040
sg83
g2865
sg76
(lp4041
g69
(g90
g71
NtRp4042
(dp4043
g74
(dp4044
g94
g95
ssg83
g4038
sg76
(lp4045
S'meta'
p4046
asbag69
(g90
g71
NtRp4047
(dp4048
g74
(dp4049
g101
g102
ssg83
g4038
sg76
(lp4050
S':'
asbag69
(g90
g71
NtRp4051
(dp4052
g74
(dp4053
sg83
g4038
sg76
(lp4054
g69
(g70
g71
NtRp4055
(dp4056
g74
(dp4057
g82
I5
ssg83
g4051
sg76
(lp4058
g69
(g78
g71
NtRp4059
(dp4060
g74
(dp4061
g82
I4
ssg83
Nsg76
(lp4062
g69
(g85
g71
NtRp4063
(dp4064
g74
(dp4065
sg83
g4059
sg76
(lp4066
g69
(g90
g71
NtRp4067
(dp4068
g74
(dp4069
g94
g95
ssg83
g4063
sg76
(lp4070
S'author'
p4071
asbag69
(g90
g71
NtRp4072
(dp4073
g74
(dp4074
g101
g102
ssg83
g4063
sg76
(lp4075
S':'
asbag69
(g90
g71
NtRp4076
(dp4077
g74
(dp4078
sg83
g4063
sg76
(lp4079
g69
(g70
g71
NtRp4080
(dp4081
g74
(dp4082
g82
I4
ssg83
g4076
sg76
(lp4083
S'Your Name <you@example.com>'
p4084
asbasbasbag69
(g85
g71
NtRp4085
(dp4086
g74
(dp4087
sg83
g4059
sg76
(lp4088
g69
(g90
g71
NtRp4089
(dp4090
g74
(dp4091
g94
g95
ssg83
g4085
sg76
(lp4092
S'description'
p4093
asbag69
(g90
g71
NtRp4094
(dp4095
g74
(dp4096
g101
g102
ssg83
g4085
sg76
(lp4097
S':'
asbag69
(g90
g71
NtRp4098
(dp4099
g74
(dp4100
sg83
g4085
sg76
(lp4101
g69
(g70
g71
NtRp4102
(dp4103
g74
(dp4104
g82
I4
ssg83
g4098
sg76
(lp4105
S'a cool new app'
p4106
asbasbasbag69
(g85
g71
NtRp4107
(dp4108
g74
(dp4109
sg83
g4059
sg76
(lp4110
g69
(g90
g71
NtRp4111
(dp4112
g74
(dp4113
g94
g95
ssg83
g4107
sg76
(lp4114
S'generator'
p4115
asbag69
(g90
g71
NtRp4116
(dp4117
g74
(dp4118
g101
g102
ssg83
g4107
sg76
(lp4119
S':'
asbag69
(g90
g71
NtRp4120
(dp4121
g74
(dp4122
sg83
g4107
sg76
(lp4123
g69
(g70
g71
NtRp4124
(dp4125
g74
(dp4126
g82
I4
ssg83
g4120
sg76
(lp4127
S'Web2py Web Framework'
p4128
asbasbasbag69
(g85
g71
NtRp4129
(dp4130
g74
(dp4131
sg83
g4059
sg76
(lp4132
g69
(g90
g71
NtRp4133
(dp4134
g74
(dp4135
g94
g95
ssg83
g4129
sg76
(lp4136
S'keywords'
p4137
asbag69
(g90
g71
NtRp4138
(dp4139
g74
(dp4140
g101
g102
ssg83
g4129
sg76
(lp4141
S':'
asbag69
(g90
g71
NtRp4142
(dp4143
g74
(dp4144
sg83
g4129
sg76
(lp4145
g69
(g70
g71
NtRp4146
(dp4147
g74
(dp4148
g82
I4
ssg83
g4142
sg76
(lp4149
S'web2py, python, framework'
p4150
asbasbasbasbasbasbasbag69
(g85
g71
NtRp4151
(dp4152
g74
(dp4153
sg83
g2865
sg76
(lp4154
g69
(g90
g71
NtRp4155
(dp4156
g74
(dp4157
g94
g95
ssg83
g4151
sg76
(lp4158
S'models_to_run'
p4159
asbag69
(g90
g71
NtRp4160
(dp4161
g74
(dp4162
g101
g102
ssg83
g4151
sg76
(lp4163
S':'
asbag69
(g90
g71
NtRp4164
(dp4165
g74
(dp4166
sg83
g4151
sg76
(lp4167
g69
(g70
g71
NtRp4168
(dp4169
g74
(dp4170
g82
I5
ssg83
g4164
sg76
(lp4171
g69
(g78
g71
NtRp4172
(dp4173
g74
(dp4174
g82
I4
ssg83
Nsg76
(lp4175
g69
(g85
g71
NtRp4176
(dp4177
g74
(dp4178
sg83
g4172
sg76
(lp4179
g69
(g90
g71
NtRp4180
(dp4181
g74
(dp4182
sg83
g4176
sg76
(lp4183
g69
(g70
g71
NtRp4184
(dp4185
g74
(dp4186
g82
I4
ssg83
g4180
sg76
(lp4187
S'^\\w+\\.py$'
p4188
asbasbasbag69
(g85
g71
NtRp4189
(dp4190
g74
(dp4191
sg83
g4172
sg76
(lp4192
g69
(g90
g71
NtRp4193
(dp4194
g74
(dp4195
sg83
g4189
sg76
(lp4196
g69
(g70
g71
NtRp4197
(dp4198
g74
(dp4199
g82
I4
ssg83
g4193
sg76
(lp4200
S'^initial/\\w+\\.py$'
p4201
asbasbasbag69
(g85
g71
NtRp4202
(dp4203
g74
(dp4204
sg83
g4172
sg76
(lp4205
g69
(g90
g71
NtRp4206
(dp4207
g74
(dp4208
sg83
g4202
sg76
(lp4209
g69
(g70
g71
NtRp4210
(dp4211
g74
(dp4212
g82
I4
ssg83
g4206
sg76
(lp4213
S'^initial/principal/\\w+\\.py$'
p4214
asbasbasbasbasbasbasbag69
(g85
g71
NtRp4215
(dp4216
g74
(dp4217
sg83
g2865
sg76
(lp4218
g69
(g90
g71
NtRp4219
(dp4220
g74
(dp4221
g94
g95
ssg83
g4215
sg76
(lp4222
S'postprocessing'
p4223
asbag69
(g90
g71
NtRp4224
(dp4225
g74
(dp4226
g101
g102
ssg83
g4215
sg76
(lp4227
S':'
asbag69
(g90
g71
NtRp4228
(dp4229
g74
(dp4230
sg83
g4215
sg76
(lp4231
g69
(g70
g71
NtRp4232
(dp4233
g74
(dp4234
g82
I5
ssg83
g4228
sg76
(lp4235
g69
(g78
g71
NtRp4236
(dp4237
g74
(dp4238
g82
I4
ssg83
Nsg76
(lp4239
sbasbasbasbag69
(g85
g71
NtRp4240
(dp4241
g74
(dp4242
sg83
g2865
sg76
(lp4243
g69
(g90
g71
NtRp4244
(dp4245
g74
(dp4246
g94
g95
ssg83
g4240
sg76
(lp4247
S'session_cookie_expires'
p4248
asbag69
(g90
g71
NtRp4249
(dp4250
g74
(dp4251
g101
g102
ssg83
g4240
sg76
(lp4252
S':'
asbag69
(g90
g71
NtRp4253
(dp4254
g74
(dp4255
sg83
g4240
sg76
(lp4256
g69
(g70
g71
NtRp4257
(dp4258
g74
(dp4259
g82
I5
ssg83
g4253
sg76
(lp4260
S'None'
p4261
asbasbasbag69
(g85
g71
NtRp4262
(dp4263
g74
(dp4264
sg83
g2865
sg76
(lp4265
g69
(g90
g71
NtRp4266
(dp4267
g74
(dp4268
g94
g95
ssg83
g4262
sg76
(lp4269
S'session_data_name'
p4270
asbag69
(g90
g71
NtRp4271
(dp4272
g74
(dp4273
g101
g102
ssg83
g4262
sg76
(lp4274
S':'
asbag69
(g90
g71
NtRp4275
(dp4276
g74
(dp4277
sg83
g4262
sg76
(lp4278
g69
(g70
g71
NtRp4279
(dp4280
g74
(dp4281
g82
I5
ssg83
g4275
sg76
(lp4282
S'session_data_projeto'
p4283
asbasbasbag69
(g85
g71
NtRp4284
(dp4285
g74
(dp4286
sg83
g2865
sg76
(lp4287
g69
(g90
g71
NtRp4288
(dp4289
g74
(dp4290
g94
g95
ssg83
g4284
sg76
(lp4291
S'session_file'
p4292
asbag69
(g90
g71
NtRp4293
(dp4294
g74
(dp4295
g101
g102
ssg83
g4284
sg76
(lp4296
S':'
asbag69
(g90
g71
NtRp4297
(dp4298
g74
(dp4299
sg83
g4284
sg76
(lp4300
g69
(g70
g71
NtRp4301
(dp4302
g74
(dp4303
g82
I5
ssg83
g4297
sg76
(lp4304
S"<open file '/var/www/conferencia/applications/projeto/sessions/127.0.0.1-0fe02c32-0739-4f06-a369-3bba6377da8b', mode 'rb+' at 0x3244660>"
p4305
asbasbasbag69
(g85
g71
NtRp4306
(dp4307
g74
(dp4308
sg83
g2865
sg76
(lp4309
g69
(g90
g71
NtRp4310
(dp4311
g74
(dp4312
g94
g95
ssg83
g4306
sg76
(lp4313
S'session_filename'
p4314
asbag69
(g90
g71
NtRp4315
(dp4316
g74
(dp4317
g101
g102
ssg83
g4306
sg76
(lp4318
S':'
asbag69
(g90
g71
NtRp4319
(dp4320
g74
(dp4321
sg83
g4306
sg76
(lp4322
g69
(g70
g71
NtRp4323
(dp4324
g74
(dp4325
g82
I5
ssg83
g4319
sg76
(lp4326
S'/var/www/conferencia/applications/projeto/sessions/127.0.0.1-0fe02c32-0739-4f06-a369-3bba6377da8b'
p4327
asbasbasbag69
(g85
g71
NtRp4328
(dp4329
g74
(dp4330
sg83
g2865
sg76
(lp4331
g69
(g90
g71
NtRp4332
(dp4333
g74
(dp4334
g94
g95
ssg83
g4328
sg76
(lp4335
S'session_id'
p4336
asbag69
(g90
g71
NtRp4337
(dp4338
g74
(dp4339
g101
g102
ssg83
g4328
sg76
(lp4340
S':'
asbag69
(g90
g71
NtRp4341
(dp4342
g74
(dp4343
sg83
g4328
sg76
(lp4344
g69
(g70
g71
NtRp4345
(dp4346
g74
(dp4347
g82
I5
ssg83
g4341
sg76
(lp4348
g293
asbasbasbag69
(g85
g71
NtRp4349
(dp4350
g74
(dp4351
sg83
g2865
sg76
(lp4352
g69
(g90
g71
NtRp4353
(dp4354
g74
(dp4355
g94
g95
ssg83
g4349
sg76
(lp4356
S'session_id_name'
p4357
asbag69
(g90
g71
NtRp4358
(dp4359
g74
(dp4360
g101
g102
ssg83
g4349
sg76
(lp4361
S':'
asbag69
(g90
g71
NtRp4362
(dp4363
g74
(dp4364
sg83
g4349
sg76
(lp4365
g69
(g70
g71
NtRp4366
(dp4367
g74
(dp4368
g82
I5
ssg83
g4362
sg76
(lp4369
g2922
asbasbasbag69
(g85
g71
NtRp4370
(dp4371
g74
(dp4372
sg83
g2865
sg76
(lp4373
g69
(g90
g71
NtRp4374
(dp4375
g74
(dp4376
g94
g95
ssg83
g4370
sg76
(lp4377
S'session_locked'
p4378
asbag69
(g90
g71
NtRp4379
(dp4380
g74
(dp4381
g101
g102
ssg83
g4370
sg76
(lp4382
S':'
asbag69
(g90
g71
NtRp4383
(dp4384
g74
(dp4385
sg83
g4370
sg76
(lp4386
g69
(g70
g71
NtRp4387
(dp4388
g74
(dp4389
g82
I5
ssg83
g4383
sg76
(lp4390
g1340
asbasbasbag69
(g85
g71
NtRp4391
(dp4392
g74
(dp4393
sg83
g2865
sg76
(lp4394
g69
(g90
g71
NtRp4395
(dp4396
g74
(dp4397
g94
g95
ssg83
g4391
sg76
(lp4398
S'session_new'
p4399
asbag69
(g90
g71
NtRp4400
(dp4401
g74
(dp4402
g101
g102
ssg83
g4391
sg76
(lp4403
S':'
asbag69
(g90
g71
NtRp4404
(dp4405
g74
(dp4406
sg83
g4391
sg76
(lp4407
g69
(g70
g71
NtRp4408
(dp4409
g74
(dp4410
g82
I5
ssg83
g4404
sg76
(lp4411
g112
asbasbasbag69
(g85
g71
NtRp4412
(dp4413
g74
(dp4414
sg83
g2865
sg76
(lp4415
g69
(g90
g71
NtRp4416
(dp4417
g74
(dp4418
g94
g95
ssg83
g4412
sg76
(lp4419
S'session_storage_type'
p4420
asbag69
(g90
g71
NtRp4421
(dp4422
g74
(dp4423
g101
g102
ssg83
g4412
sg76
(lp4424
S':'
asbag69
(g90
g71
NtRp4425
(dp4426
g74
(dp4427
sg83
g4412
sg76
(lp4428
g69
(g70
g71
NtRp4429
(dp4430
g74
(dp4431
g82
I5
ssg83
g4425
sg76
(lp4432
g2742
asbasbasbag69
(g85
g71
NtRp4433
(dp4434
g74
(dp4435
sg83
g2865
sg76
(lp4436
g69
(g90
g71
NtRp4437
(dp4438
g74
(dp4439
g94
g95
ssg83
g4433
sg76
(lp4440
S'status'
p4441
asbag69
(g90
g71
NtRp4442
(dp4443
g74
(dp4444
g101
g102
ssg83
g4433
sg76
(lp4445
S':'
asbag69
(g90
g71
NtRp4446
(dp4447
g74
(dp4448
sg83
g4433
sg76
(lp4449
g69
(g70
g71
NtRp4450
(dp4451
g74
(dp4452
g82
I5
ssg83
g4446
sg76
(lp4453
S'200'
p4454
asbasbasbag69
(g85
g71
NtRp4455
(dp4456
g74
(dp4457
sg83
g2865
sg76
(lp4458
g69
(g90
g71
NtRp4459
(dp4460
g74
(dp4461
g94
g95
ssg83
g4455
sg76
(lp4462
S'subtitle'
p4463
asbag69
(g90
g71
NtRp4464
(dp4465
g74
(dp4466
g101
g102
ssg83
g4455
sg76
(lp4467
S':'
asbag69
(g90
g71
NtRp4468
(dp4469
g74
(dp4470
sg83
g4455
sg76
(lp4471
g69
(g70
g71
NtRp4472
(dp4473
g74
(dp4474
g82
I5
ssg83
g4468
sg76
(lp4475
g3397
(S's\r\x00\x00\x00customize me!'
tRp4476
asbasbasbag69
(g85
g71
NtRp4477
(dp4478
g74
(dp4479
sg83
g2865
sg76
(lp4480
g69
(g90
g71
NtRp4481
(dp4482
g74
(dp4483
g94
g95
ssg83
g4477
sg76
(lp4484
S'title'
p4485
asbag69
(g90
g71
NtRp4486
(dp4487
g74
(dp4488
g101
g102
ssg83
g4477
sg76
(lp4489
S':'
asbag69
(g90
g71
NtRp4490
(dp4491
g74
(dp4492
sg83
g4477
sg76
(lp4493
g69
(g70
g71
NtRp4494
(dp4495
g74
(dp4496
g82
I5
ssg83
g4490
sg76
(lp4497
S'Projeto'
p4498
asbasbasbag69
(g85
g71
NtRp4499
(dp4500
g74
(dp4501
sg83
g2865
sg76
(lp4502
g69
(g90
g71
NtRp4503
(dp4504
g74
(dp4505
g94
g95
ssg83
g4499
sg76
(lp4506
S'view'
p4507
asbag69
(g90
g71
NtRp4508
(dp4509
g74
(dp4510
g101
g102
ssg83
g4499
sg76
(lp4511
S':'
asbag69
(g90
g71
NtRp4512
(dp4513
g74
(dp4514
sg83
g4499
sg76
(lp4515
g69
(g70
g71
NtRp4516
(dp4517
g74
(dp4518
g82
I5
ssg83
g4512
sg76
(lp4519
S'initial/principal.html'
p4520
asbasbasbasbasbsS'locals'
p4521
(dp4522
S'self'
p4523
S'<DAL uri="postgres:pg8000://******:123456@127.0.0.1/conferencia">'
p4524
sS'name'
p4525
S"'user'"
p4526
sS'backend'
p4527
S"'all'"
p4528
sssS'traceback'
p4529
S'Traceback (most recent call last):\n  File "/var/www/conferencia/gluon/restricted.py", line 212, in restricted\n    exec ccode in environment\n  File "/var/www/conferencia/applications/projeto/models/models.py", line 6, in <module>\n    format="%(nome)s")\n  File "/var/www/conferencia/gluon/dal.py", line 7176, in define_table\n    self.check_reserved_keyword(tablename)\n  File "/var/www/conferencia/gluon/dal.py", line 6930, in check_reserved_keyword\n    \'invalid table/column name "%s" is a "%s" reserved SQL keyword\' % (name, backend.upper()))\nSyntaxError: invalid table/column name "user" is a "ALL" reserved SQL keyword\n'
p4530
s.