(dp1
S'output'
p2
S'<class \'gluon.contrib.pg8000.errors.ProgrammingError\'> (\'ERROR\', \'42P16\', \'multiple primary keys for table "meetme" are not allowed\')'
p3
sS'layer'
p4
S'/var/www/conferencia/applications/projeto/models/models.py'
p5
sS'code'
p6
S'usuario = db.define_table("usuario",\n      Field("nome", notnull=True, unique=True),\n      Field("pin"),\n      Field("email"),\n      #auth.signature\n      format="%(nome)s")\n\n\nmeetme = db.define_table("meetme",\n      Field("confno", "id"), \n      Field("starttime", "datetime"),\n      Field("endtime", "datetime"),\n      Field("membros_user", \'list:reference usuario\'),\n      primarykey=[\'confno\']\n      )\n\n\n\n'
p7
sS'snapshot'
p8
(dp9
S'exception'
p10
(dp11
S'__module__'
p12
S"'gluon.contrib.pg8000.errors'"
p13
sS'__getslice__'
p14
S"<method-wrapper '__getslice__' of ProgrammingError object>"
p15
sS'__str__'
p16
S"<method-wrapper '__str__' of ProgrammingError object>"
p17
sS'__reduce__'
p18
S'<built-in method __reduce__ of ProgrammingError object>'
p19
sS'__dict__'
p20
S'{}'
p21
sS'__sizeof__'
p22
S'<built-in method __sizeof__ of ProgrammingError object>'
p23
sS'__weakref__'
p24
S'None'
p25
sS'__init__'
p26
S"<method-wrapper '__init__' of ProgrammingError object>"
p27
sS'__setattr__'
p28
S"<method-wrapper '__setattr__' of ProgrammingError object>"
p29
sS'__reduce_ex__'
p30
S'<built-in method __reduce_ex__ of ProgrammingError object>'
p31
sS'__new__'
p32
S'<built-in method __new__ of type object>'
p33
sS'__format__'
p34
S'<built-in method __format__ of ProgrammingError object>'
p35
sS'__class__'
p36
S"<class 'gluon.contrib.pg8000.errors.ProgrammingError'>"
p37
sS'__doc__'
p38
S'None'
p39
sS'__getitem__'
p40
S"<method-wrapper '__getitem__' of ProgrammingError object>"
p41
sS'__setstate__'
p42
S'<built-in method __setstate__ of ProgrammingError object>'
p43
sS'__getattribute__'
p44
S"<method-wrapper '__getattribute__' of ProgrammingError object>"
p45
sS'args'
p46
S'(\'ERROR\', \'42P16\', \'multiple primary keys for table "meetme" are not allowed\')'
p47
sS'__subclasshook__'
p48
S'<built-in method __subclasshook__ of type object>'
p49
sS'__unicode__'
p50
S'<built-in method __unicode__ of ProgrammingError object>'
p51
sS'__delattr__'
p52
S"<method-wrapper '__delattr__' of ProgrammingError object>"
p53
sS'__repr__'
p54
S"<method-wrapper '__repr__' of ProgrammingError object>"
p55
sS'__hash__'
p56
S"<method-wrapper '__hash__' of ProgrammingError object>"
p57
ssS'evalue'
p58
S'(\'ERROR\', \'42P16\', \'multiple primary keys for table "meetme" are not allowed\')'
p59
sS'request'
p60
ccopy_reg
_reconstructor
p61
(cgluon.html
BEAUTIFY
p62
c__builtin__
object
p63
NtRp64
(dp65
S'attributes'
p66
(dp67
sS'components'
p68
(lp69
g61
(cgluon.html
TABLE
p70
g63
NtRp71
(dp72
g66
(dp73
S'level'
p74
I5
ssS'parent'
p75
Nsg68
(lp76
g61
(cgluon.html
TR
p77
g63
NtRp78
(dp79
g66
(dp80
sg75
g71
sg68
(lp81
g61
(cgluon.html
TD
p82
g63
NtRp83
(dp84
g66
(dp85
S'_style'
p86
S'font-weight:bold;vertical-align:top'
p87
ssg75
g78
sg68
(lp88
S'ajax'
p89
asbag61
(g82
g63
NtRp90
(dp91
g66
(dp92
S'_valign'
p93
S'top'
p94
ssg75
g78
sg68
(lp95
S':'
asbag61
(g82
g63
NtRp96
(dp97
g66
(dp98
sg75
g78
sg68
(lp99
g61
(g62
g63
NtRp100
(dp101
g66
(dp102
g74
I5
ssg75
g96
sg68
(lp103
S'False'
p104
asbasbasbag61
(g77
g63
NtRp105
(dp106
g66
(dp107
sg75
g71
sg68
(lp108
g61
(g82
g63
NtRp109
(dp110
g66
(dp111
g86
g87
ssg75
g105
sg68
(lp112
S'application'
p113
asbag61
(g82
g63
NtRp114
(dp115
g66
(dp116
g93
g94
ssg75
g105
sg68
(lp117
S':'
asbag61
(g82
g63
NtRp118
(dp119
g66
(dp120
sg75
g105
sg68
(lp121
g61
(g62
g63
NtRp122
(dp123
g66
(dp124
g74
I5
ssg75
g118
sg68
(lp125
S'projeto'
p126
asbasbasbag61
(g77
g63
NtRp127
(dp128
g66
(dp129
sg75
g71
sg68
(lp130
g61
(g82
g63
NtRp131
(dp132
g66
(dp133
g86
g87
ssg75
g127
sg68
(lp134
g46
asbag61
(g82
g63
NtRp135
(dp136
g66
(dp137
g93
g94
ssg75
g127
sg68
(lp138
S':'
asbag61
(g82
g63
NtRp139
(dp140
g66
(dp141
sg75
g127
sg68
(lp142
g61
(g62
g63
NtRp143
(dp144
g66
(dp145
g74
I5
ssg75
g139
sg68
(lp146
g61
(g70
g63
NtRp147
(dp148
g66
(dp149
g74
I4
ssg75
Nsg68
(lp150
sbasbasbasbag61
(g77
g63
NtRp151
(dp152
g66
(dp153
sg75
g71
sg68
(lp154
g61
(g82
g63
NtRp155
(dp156
g66
(dp157
g86
g87
ssg75
g151
sg68
(lp158
S'body'
p159
asbag61
(g82
g63
NtRp160
(dp161
g66
(dp162
g93
g94
ssg75
g151
sg68
(lp163
S':'
asbag61
(g82
g63
NtRp164
(dp165
g66
(dp166
sg75
g151
sg68
(lp167
g61
(g62
g63
NtRp168
(dp169
g66
(dp170
g74
I5
ssg75
g164
sg68
(lp171
S'<cStringIO.StringO object at 0x271a308>'
p172
asbasbasbag61
(g77
g63
NtRp173
(dp174
g66
(dp175
sg75
g71
sg68
(lp176
g61
(g82
g63
NtRp177
(dp178
g66
(dp179
g86
g87
ssg75
g173
sg68
(lp180
S'cid'
p181
asbag61
(g82
g63
NtRp182
(dp183
g66
(dp184
g93
g94
ssg75
g173
sg68
(lp185
S':'
asbag61
(g82
g63
NtRp186
(dp187
g66
(dp188
sg75
g173
sg68
(lp189
g61
(g62
g63
NtRp190
(dp191
g66
(dp192
g74
I5
ssg75
g186
sg68
(lp193
S'None'
p194
asbasbasbag61
(g77
g63
NtRp195
(dp196
g66
(dp197
sg75
g71
sg68
(lp198
g61
(g82
g63
NtRp199
(dp200
g66
(dp201
g86
g87
ssg75
g195
sg68
(lp202
S'client'
p203
asbag61
(g82
g63
NtRp204
(dp205
g66
(dp206
g93
g94
ssg75
g195
sg68
(lp207
S':'
asbag61
(g82
g63
NtRp208
(dp209
g66
(dp210
sg75
g195
sg68
(lp211
g61
(g62
g63
NtRp212
(dp213
g66
(dp214
g74
I5
ssg75
g208
sg68
(lp215
S'127.0.0.1'
p216
asbasbasbag61
(g77
g63
NtRp217
(dp218
g66
(dp219
sg75
g71
sg68
(lp220
g61
(g82
g63
NtRp221
(dp222
g66
(dp223
g86
g87
ssg75
g217
sg68
(lp224
S'controller'
p225
asbag61
(g82
g63
NtRp226
(dp227
g66
(dp228
g93
g94
ssg75
g217
sg68
(lp229
S':'
asbag61
(g82
g63
NtRp230
(dp231
g66
(dp232
sg75
g217
sg68
(lp233
g61
(g62
g63
NtRp234
(dp235
g66
(dp236
g74
I5
ssg75
g230
sg68
(lp237
S'initial'
p238
asbasbasbag61
(g77
g63
NtRp239
(dp240
g66
(dp241
sg75
g71
sg68
(lp242
g61
(g82
g63
NtRp243
(dp244
g66
(dp245
g86
g87
ssg75
g239
sg68
(lp246
S'cookies'
p247
asbag61
(g82
g63
NtRp248
(dp249
g66
(dp250
g93
g94
ssg75
g239
sg68
(lp251
S':'
asbag61
(g82
g63
NtRp252
(dp253
g66
(dp254
sg75
g239
sg68
(lp255
g61
(g62
g63
NtRp256
(dp257
g66
(dp258
g74
I5
ssg75
g252
sg68
(lp259
g61
(g70
g63
NtRp260
(dp261
g66
(dp262
g74
I4
ssg75
Nsg68
(lp263
g61
(g77
g63
NtRp264
(dp265
g66
(dp266
sg75
g260
sg68
(lp267
g61
(g82
g63
NtRp268
(dp269
g66
(dp270
g86
g87
ssg75
g264
sg68
(lp271
S'session_id_admin'
p272
asbag61
(g82
g63
NtRp273
(dp274
g66
(dp275
g93
g94
ssg75
g264
sg68
(lp276
S':'
asbag61
(g82
g63
NtRp277
(dp278
g66
(dp279
sg75
g264
sg68
(lp280
g61
(g62
g63
NtRp281
(dp282
g66
(dp283
g74
I4
ssg75
g277
sg68
(lp284
S'127.0.0.1-f08163e7-63a0-4e97-8334-13b9dc892d78'
p285
ag61
(g70
g63
NtRp286
(dp287
g66
(dp288
g74
I3
ssg75
Nsg68
(lp289
g61
(g77
g63
NtRp290
(dp291
g66
(dp292
sg75
g286
sg68
(lp293
g61
(g82
g63
NtRp294
(dp295
g66
(dp296
g86
g87
ssg75
g290
sg68
(lp297
S'comment'
p298
asbag61
(g82
g63
NtRp299
(dp300
g66
(dp301
g93
g94
ssg75
g290
sg68
(lp302
S':'
asbag61
(g82
g63
NtRp303
(dp304
g66
(dp305
sg75
g290
sg68
(lp306
g61
(g62
g63
NtRp307
(dp308
g66
(dp309
g74
I3
ssg75
g303
sg68
(lp310
S''
asbasbasbag61
(g77
g63
NtRp311
(dp312
g66
(dp313
sg75
g286
sg68
(lp314
g61
(g82
g63
NtRp315
(dp316
g66
(dp317
g86
g87
ssg75
g311
sg68
(lp318
S'domain'
p319
asbag61
(g82
g63
NtRp320
(dp321
g66
(dp322
g93
g94
ssg75
g311
sg68
(lp323
S':'
asbag61
(g82
g63
NtRp324
(dp325
g66
(dp326
sg75
g311
sg68
(lp327
g61
(g62
g63
NtRp328
(dp329
g66
(dp330
g74
I3
ssg75
g324
sg68
(lp331
S''
asbasbasbag61
(g77
g63
NtRp332
(dp333
g66
(dp334
sg75
g286
sg68
(lp335
g61
(g82
g63
NtRp336
(dp337
g66
(dp338
g86
g87
ssg75
g332
sg68
(lp339
S'expires'
p340
asbag61
(g82
g63
NtRp341
(dp342
g66
(dp343
g93
g94
ssg75
g332
sg68
(lp344
S':'
asbag61
(g82
g63
NtRp345
(dp346
g66
(dp347
sg75
g332
sg68
(lp348
g61
(g62
g63
NtRp349
(dp350
g66
(dp351
g74
I3
ssg75
g345
sg68
(lp352
S''
asbasbasbag61
(g77
g63
NtRp353
(dp354
g66
(dp355
sg75
g286
sg68
(lp356
g61
(g82
g63
NtRp357
(dp358
g66
(dp359
g86
g87
ssg75
g353
sg68
(lp360
S'httponly'
p361
asbag61
(g82
g63
NtRp362
(dp363
g66
(dp364
g93
g94
ssg75
g353
sg68
(lp365
S':'
asbag61
(g82
g63
NtRp366
(dp367
g66
(dp368
sg75
g353
sg68
(lp369
g61
(g62
g63
NtRp370
(dp371
g66
(dp372
g74
I3
ssg75
g366
sg68
(lp373
S''
asbasbasbag61
(g77
g63
NtRp374
(dp375
g66
(dp376
sg75
g286
sg68
(lp377
g61
(g82
g63
NtRp378
(dp379
g66
(dp380
g86
g87
ssg75
g374
sg68
(lp381
S'max-age'
p382
asbag61
(g82
g63
NtRp383
(dp384
g66
(dp385
g93
g94
ssg75
g374
sg68
(lp386
S':'
asbag61
(g82
g63
NtRp387
(dp388
g66
(dp389
sg75
g374
sg68
(lp390
g61
(g62
g63
NtRp391
(dp392
g66
(dp393
g74
I3
ssg75
g387
sg68
(lp394
S''
asbasbasbag61
(g77
g63
NtRp395
(dp396
g66
(dp397
sg75
g286
sg68
(lp398
g61
(g82
g63
NtRp399
(dp400
g66
(dp401
g86
g87
ssg75
g395
sg68
(lp402
S'path'
p403
asbag61
(g82
g63
NtRp404
(dp405
g66
(dp406
g93
g94
ssg75
g395
sg68
(lp407
S':'
asbag61
(g82
g63
NtRp408
(dp409
g66
(dp410
sg75
g395
sg68
(lp411
g61
(g62
g63
NtRp412
(dp413
g66
(dp414
g74
I3
ssg75
g408
sg68
(lp415
S''
asbasbasbag61
(g77
g63
NtRp416
(dp417
g66
(dp418
sg75
g286
sg68
(lp419
g61
(g82
g63
NtRp420
(dp421
g66
(dp422
g86
g87
ssg75
g416
sg68
(lp423
S'secure'
p424
asbag61
(g82
g63
NtRp425
(dp426
g66
(dp427
g93
g94
ssg75
g416
sg68
(lp428
S':'
asbag61
(g82
g63
NtRp429
(dp430
g66
(dp431
sg75
g416
sg68
(lp432
g61
(g62
g63
NtRp433
(dp434
g66
(dp435
g74
I3
ssg75
g429
sg68
(lp436
S''
asbasbasbag61
(g77
g63
NtRp437
(dp438
g66
(dp439
sg75
g286
sg68
(lp440
g61
(g82
g63
NtRp441
(dp442
g66
(dp443
g86
g87
ssg75
g437
sg68
(lp444
S'version'
p445
asbag61
(g82
g63
NtRp446
(dp447
g66
(dp448
g93
g94
ssg75
g437
sg68
(lp449
S':'
asbag61
(g82
g63
NtRp450
(dp451
g66
(dp452
sg75
g437
sg68
(lp453
g61
(g62
g63
NtRp454
(dp455
g66
(dp456
g74
I3
ssg75
g450
sg68
(lp457
S''
asbasbasbasbasbasbasbag61
(g77
g63
NtRp458
(dp459
g66
(dp460
sg75
g260
sg68
(lp461
g61
(g82
g63
NtRp462
(dp463
g66
(dp464
g86
g87
ssg75
g458
sg68
(lp465
S'session_id_projeto'
p466
asbag61
(g82
g63
NtRp467
(dp468
g66
(dp469
g93
g94
ssg75
g458
sg68
(lp470
S':'
asbag61
(g82
g63
NtRp471
(dp472
g66
(dp473
sg75
g458
sg68
(lp474
g61
(g62
g63
NtRp475
(dp476
g66
(dp477
g74
I4
ssg75
g471
sg68
(lp478
S'127.0.0.1-0fe02c32-0739-4f06-a369-3bba6377da8b'
p479
ag61
(g70
g63
NtRp480
(dp481
g66
(dp482
g74
I3
ssg75
Nsg68
(lp483
g61
(g77
g63
NtRp484
(dp485
g66
(dp486
sg75
g480
sg68
(lp487
g61
(g82
g63
NtRp488
(dp489
g66
(dp490
g86
g87
ssg75
g484
sg68
(lp491
g298
asbag61
(g82
g63
NtRp492
(dp493
g66
(dp494
g93
g94
ssg75
g484
sg68
(lp495
S':'
asbag61
(g82
g63
NtRp496
(dp497
g66
(dp498
sg75
g484
sg68
(lp499
g61
(g62
g63
NtRp500
(dp501
g66
(dp502
g74
I3
ssg75
g496
sg68
(lp503
S''
asbasbasbag61
(g77
g63
NtRp504
(dp505
g66
(dp506
sg75
g480
sg68
(lp507
g61
(g82
g63
NtRp508
(dp509
g66
(dp510
g86
g87
ssg75
g504
sg68
(lp511
g319
asbag61
(g82
g63
NtRp512
(dp513
g66
(dp514
g93
g94
ssg75
g504
sg68
(lp515
S':'
asbag61
(g82
g63
NtRp516
(dp517
g66
(dp518
sg75
g504
sg68
(lp519
g61
(g62
g63
NtRp520
(dp521
g66
(dp522
g74
I3
ssg75
g516
sg68
(lp523
S''
asbasbasbag61
(g77
g63
NtRp524
(dp525
g66
(dp526
sg75
g480
sg68
(lp527
g61
(g82
g63
NtRp528
(dp529
g66
(dp530
g86
g87
ssg75
g524
sg68
(lp531
g340
asbag61
(g82
g63
NtRp532
(dp533
g66
(dp534
g93
g94
ssg75
g524
sg68
(lp535
S':'
asbag61
(g82
g63
NtRp536
(dp537
g66
(dp538
sg75
g524
sg68
(lp539
g61
(g62
g63
NtRp540
(dp541
g66
(dp542
g74
I3
ssg75
g536
sg68
(lp543
S''
asbasbasbag61
(g77
g63
NtRp544
(dp545
g66
(dp546
sg75
g480
sg68
(lp547
g61
(g82
g63
NtRp548
(dp549
g66
(dp550
g86
g87
ssg75
g544
sg68
(lp551
g361
asbag61
(g82
g63
NtRp552
(dp553
g66
(dp554
g93
g94
ssg75
g544
sg68
(lp555
S':'
asbag61
(g82
g63
NtRp556
(dp557
g66
(dp558
sg75
g544
sg68
(lp559
g61
(g62
g63
NtRp560
(dp561
g66
(dp562
g74
I3
ssg75
g556
sg68
(lp563
S''
asbasbasbag61
(g77
g63
NtRp564
(dp565
g66
(dp566
sg75
g480
sg68
(lp567
g61
(g82
g63
NtRp568
(dp569
g66
(dp570
g86
g87
ssg75
g564
sg68
(lp571
g382
asbag61
(g82
g63
NtRp572
(dp573
g66
(dp574
g93
g94
ssg75
g564
sg68
(lp575
S':'
asbag61
(g82
g63
NtRp576
(dp577
g66
(dp578
sg75
g564
sg68
(lp579
g61
(g62
g63
NtRp580
(dp581
g66
(dp582
g74
I3
ssg75
g576
sg68
(lp583
S''
asbasbasbag61
(g77
g63
NtRp584
(dp585
g66
(dp586
sg75
g480
sg68
(lp587
g61
(g82
g63
NtRp588
(dp589
g66
(dp590
g86
g87
ssg75
g584
sg68
(lp591
g403
asbag61
(g82
g63
NtRp592
(dp593
g66
(dp594
g93
g94
ssg75
g584
sg68
(lp595
S':'
asbag61
(g82
g63
NtRp596
(dp597
g66
(dp598
sg75
g584
sg68
(lp599
g61
(g62
g63
NtRp600
(dp601
g66
(dp602
g74
I3
ssg75
g596
sg68
(lp603
S''
asbasbasbag61
(g77
g63
NtRp604
(dp605
g66
(dp606
sg75
g480
sg68
(lp607
g61
(g82
g63
NtRp608
(dp609
g66
(dp610
g86
g87
ssg75
g604
sg68
(lp611
g424
asbag61
(g82
g63
NtRp612
(dp613
g66
(dp614
g93
g94
ssg75
g604
sg68
(lp615
S':'
asbag61
(g82
g63
NtRp616
(dp617
g66
(dp618
sg75
g604
sg68
(lp619
g61
(g62
g63
NtRp620
(dp621
g66
(dp622
g74
I3
ssg75
g616
sg68
(lp623
S''
asbasbasbag61
(g77
g63
NtRp624
(dp625
g66
(dp626
sg75
g480
sg68
(lp627
g61
(g82
g63
NtRp628
(dp629
g66
(dp630
g86
g87
ssg75
g624
sg68
(lp631
g445
asbag61
(g82
g63
NtRp632
(dp633
g66
(dp634
g93
g94
ssg75
g624
sg68
(lp635
S':'
asbag61
(g82
g63
NtRp636
(dp637
g66
(dp638
sg75
g624
sg68
(lp639
g61
(g62
g63
NtRp640
(dp641
g66
(dp642
g74
I3
ssg75
g636
sg68
(lp643
S''
asbasbasbasbasbasbasbasbasbasbasbag61
(g77
g63
NtRp644
(dp645
g66
(dp646
sg75
g71
sg68
(lp647
g61
(g82
g63
NtRp648
(dp649
g66
(dp650
g86
g87
ssg75
g644
sg68
(lp651
S'env'
p652
asbag61
(g82
g63
NtRp653
(dp654
g66
(dp655
g93
g94
ssg75
g644
sg68
(lp656
S':'
asbag61
(g82
g63
NtRp657
(dp658
g66
(dp659
sg75
g644
sg68
(lp660
g61
(g62
g63
NtRp661
(dp662
g66
(dp663
g74
I5
ssg75
g657
sg68
(lp664
g61
(g70
g63
NtRp665
(dp666
g66
(dp667
g74
I4
ssg75
Nsg68
(lp668
g61
(g77
g63
NtRp669
(dp670
g66
(dp671
sg75
g665
sg68
(lp672
g61
(g82
g63
NtRp673
(dp674
g66
(dp675
g86
g87
ssg75
g669
sg68
(lp676
S'app_folders'
p677
asbag61
(g82
g63
NtRp678
(dp679
g66
(dp680
g93
g94
ssg75
g669
sg68
(lp681
S':'
asbag61
(g82
g63
NtRp682
(dp683
g66
(dp684
sg75
g669
sg68
(lp685
g61
(g62
g63
NtRp686
(dp687
g66
(dp688
g74
I4
ssg75
g682
sg68
(lp689
S"set(['/var/www/conferencia/applications/projeto/'])"
p690
asbasbasbag61
(g77
g63
NtRp691
(dp692
g66
(dp693
sg75
g665
sg68
(lp694
g61
(g82
g63
NtRp695
(dp696
g66
(dp697
g86
g87
ssg75
g691
sg68
(lp698
S'applications_parent'
p699
asbag61
(g82
g63
NtRp700
(dp701
g66
(dp702
g93
g94
ssg75
g691
sg68
(lp703
S':'
asbag61
(g82
g63
NtRp704
(dp705
g66
(dp706
sg75
g691
sg68
(lp707
g61
(g62
g63
NtRp708
(dp709
g66
(dp710
g74
I4
ssg75
g704
sg68
(lp711
S'/var/www/conferencia'
p712
asbasbasbag61
(g77
g63
NtRp713
(dp714
g66
(dp715
sg75
g665
sg68
(lp716
g61
(g82
g63
NtRp717
(dp718
g66
(dp719
g86
g87
ssg75
g713
sg68
(lp720
S'cmd_args'
p721
asbag61
(g82
g63
NtRp722
(dp723
g66
(dp724
g93
g94
ssg75
g713
sg68
(lp725
S':'
asbag61
(g82
g63
NtRp726
(dp727
g66
(dp728
sg75
g713
sg68
(lp729
g61
(g62
g63
NtRp730
(dp731
g66
(dp732
g74
I4
ssg75
g726
sg68
(lp733
g61
(g70
g63
NtRp734
(dp735
g66
(dp736
g74
I3
ssg75
Nsg68
(lp737
sbasbasbasbag61
(g77
g63
NtRp738
(dp739
g66
(dp740
sg75
g665
sg68
(lp741
g61
(g82
g63
NtRp742
(dp743
g66
(dp744
g86
g87
ssg75
g738
sg68
(lp745
S'cmd_options'
p746
asbag61
(g82
g63
NtRp747
(dp748
g66
(dp749
g93
g94
ssg75
g738
sg68
(lp750
S':'
asbag61
(g82
g63
NtRp751
(dp752
g66
(dp753
sg75
g738
sg68
(lp754
g61
(g62
g63
NtRp755
(dp756
g66
(dp757
g74
I4
ssg75
g751
sg68
(lp758
S"<Values at 0x26de248: {'verbose': False, 'ip': '127.0.0.1', 'with_scheduler': False, 'ips': [], 'shutdown_timeout': 5, 'taskbar': False, 'port': 8000, 'maxthreads': None, 'softcron': False, 'server_name': 'fernando-workstation', 'bpython': False, 'nogui': False, 'pid_filename': 'httpserver.pid', 'extcron': False, 'runcron': False, 'run_system_tests': False, 'test': None, 'folder': '/var/www/conferencia', 'config': '', 'minthreads': None, 'winservice': '', 'shell': None, 'run': '', 'log_filename': 'httpserver.log', 'debuglevel': 30, 'args': [''], 'socket_timeout': 5, 'ssl_ca_certificate': None, 'scheduler': None, 'profiler_filename': None, 'ssl_private_key': '', 'scheduler_groups': None, 'password': '123456', 'request_queue_size': 5, 'ssl_certificate': '', 'cronjob': False, 'numthreads': None, 'quiet': False, 'interfaces': None, 'import_models': False, 'timeout': 10, 'plain': False, 'nobanner': False}>"
p759
asbasbasbag61
(g77
g63
NtRp760
(dp761
g66
(dp762
sg75
g665
sg68
(lp763
g61
(g82
g63
NtRp764
(dp765
g66
(dp766
g86
g87
ssg75
g760
sg68
(lp767
S'db_sessions'
p768
asbag61
(g82
g63
NtRp769
(dp770
g66
(dp771
g93
g94
ssg75
g760
sg68
(lp772
S':'
asbag61
(g82
g63
NtRp773
(dp774
g66
(dp775
sg75
g760
sg68
(lp776
g61
(g62
g63
NtRp777
(dp778
g66
(dp779
g74
I4
ssg75
g773
sg68
(lp780
S'set([])'
p781
asbasbasbag61
(g77
g63
NtRp782
(dp783
g66
(dp784
sg75
g665
sg68
(lp785
g61
(g82
g63
NtRp786
(dp787
g66
(dp788
g86
g87
ssg75
g782
sg68
(lp789
S'debugging'
p790
asbag61
(g82
g63
NtRp791
(dp792
g66
(dp793
g93
g94
ssg75
g782
sg68
(lp794
S':'
asbag61
(g82
g63
NtRp795
(dp796
g66
(dp797
sg75
g782
sg68
(lp798
g61
(g62
g63
NtRp799
(dp800
g66
(dp801
g74
I4
ssg75
g795
sg68
(lp802
g104
asbasbasbag61
(g77
g63
NtRp803
(dp804
g66
(dp805
sg75
g665
sg68
(lp806
g61
(g82
g63
NtRp807
(dp808
g66
(dp809
g86
g87
ssg75
g803
sg68
(lp810
S'gluon_parent'
p811
asbag61
(g82
g63
NtRp812
(dp813
g66
(dp814
g93
g94
ssg75
g803
sg68
(lp815
S':'
asbag61
(g82
g63
NtRp816
(dp817
g66
(dp818
sg75
g803
sg68
(lp819
g61
(g62
g63
NtRp820
(dp821
g66
(dp822
g74
I4
ssg75
g816
sg68
(lp823
S'/var/www/conferencia'
p824
asbasbasbag61
(g77
g63
NtRp825
(dp826
g66
(dp827
sg75
g665
sg68
(lp828
g61
(g82
g63
NtRp829
(dp830
g66
(dp831
g86
g87
ssg75
g825
sg68
(lp832
S'http_accept'
p833
asbag61
(g82
g63
NtRp834
(dp835
g66
(dp836
g93
g94
ssg75
g825
sg68
(lp837
S':'
asbag61
(g82
g63
NtRp838
(dp839
g66
(dp840
sg75
g825
sg68
(lp841
g61
(g62
g63
NtRp842
(dp843
g66
(dp844
g74
I4
ssg75
g838
sg68
(lp845
S'text/html,application/xhtml+xml,application/xml;q=0.9,*/*;q=0.8'
p846
asbasbasbag61
(g77
g63
NtRp847
(dp848
g66
(dp849
sg75
g665
sg68
(lp850
g61
(g82
g63
NtRp851
(dp852
g66
(dp853
g86
g87
ssg75
g847
sg68
(lp854
S'http_accept_charset'
p855
asbag61
(g82
g63
NtRp856
(dp857
g66
(dp858
g93
g94
ssg75
g847
sg68
(lp859
S':'
asbag61
(g82
g63
NtRp860
(dp861
g66
(dp862
sg75
g847
sg68
(lp863
g61
(g62
g63
NtRp864
(dp865
g66
(dp866
g74
I4
ssg75
g860
sg68
(lp867
S'ISO-8859-1,utf-8;q=0.7,*;q=0.3'
p868
asbasbasbag61
(g77
g63
NtRp869
(dp870
g66
(dp871
sg75
g665
sg68
(lp872
g61
(g82
g63
NtRp873
(dp874
g66
(dp875
g86
g87
ssg75
g869
sg68
(lp876
S'http_accept_encoding'
p877
asbag61
(g82
g63
NtRp878
(dp879
g66
(dp880
g93
g94
ssg75
g869
sg68
(lp881
S':'
asbag61
(g82
g63
NtRp882
(dp883
g66
(dp884
sg75
g869
sg68
(lp885
g61
(g62
g63
NtRp886
(dp887
g66
(dp888
g74
I4
ssg75
g882
sg68
(lp889
S'gzip,deflate,sdch'
p890
asbasbasbag61
(g77
g63
NtRp891
(dp892
g66
(dp893
sg75
g665
sg68
(lp894
g61
(g82
g63
NtRp895
(dp896
g66
(dp897
g86
g87
ssg75
g891
sg68
(lp898
S'http_accept_language'
p899
asbag61
(g82
g63
NtRp900
(dp901
g66
(dp902
g93
g94
ssg75
g891
sg68
(lp903
S':'
asbag61
(g82
g63
NtRp904
(dp905
g66
(dp906
sg75
g891
sg68
(lp907
g61
(g62
g63
NtRp908
(dp909
g66
(dp910
g74
I4
ssg75
g904
sg68
(lp911
S'pt-BR,pt;q=0.8,en-US;q=0.6,en;q=0.4'
p912
asbasbasbag61
(g77
g63
NtRp913
(dp914
g66
(dp915
sg75
g665
sg68
(lp916
g61
(g82
g63
NtRp917
(dp918
g66
(dp919
g86
g87
ssg75
g913
sg68
(lp920
S'http_cache_control'
p921
asbag61
(g82
g63
NtRp922
(dp923
g66
(dp924
g93
g94
ssg75
g913
sg68
(lp925
S':'
asbag61
(g82
g63
NtRp926
(dp927
g66
(dp928
sg75
g913
sg68
(lp929
g61
(g62
g63
NtRp930
(dp931
g66
(dp932
g74
I4
ssg75
g926
sg68
(lp933
S'max-age=0'
p934
asbasbasbag61
(g77
g63
NtRp935
(dp936
g66
(dp937
sg75
g665
sg68
(lp938
g61
(g82
g63
NtRp939
(dp940
g66
(dp941
g86
g87
ssg75
g935
sg68
(lp942
S'http_connection'
p943
asbag61
(g82
g63
NtRp944
(dp945
g66
(dp946
g93
g94
ssg75
g935
sg68
(lp947
S':'
asbag61
(g82
g63
NtRp948
(dp949
g66
(dp950
sg75
g935
sg68
(lp951
g61
(g62
g63
NtRp952
(dp953
g66
(dp954
g74
I4
ssg75
g948
sg68
(lp955
S'keep-alive'
p956
asbasbasbag61
(g77
g63
NtRp957
(dp958
g66
(dp959
sg75
g665
sg68
(lp960
g61
(g82
g63
NtRp961
(dp962
g66
(dp963
g86
g87
ssg75
g957
sg68
(lp964
S'http_cookie'
p965
asbag61
(g82
g63
NtRp966
(dp967
g66
(dp968
g93
g94
ssg75
g957
sg68
(lp969
S':'
asbag61
(g82
g63
NtRp970
(dp971
g66
(dp972
sg75
g957
sg68
(lp973
g61
(g62
g63
NtRp974
(dp975
g66
(dp976
g74
I4
ssg75
g970
sg68
(lp977
S'session_id_admin=127.0.0.1-f08163e7-63a0-4e97-8334-13b9dc892d78; session_id_projeto=127.0.0.1-0fe02c32-0739-4f06-a369-3bba6377da8b'
p978
asbasbasbag61
(g77
g63
NtRp979
(dp980
g66
(dp981
sg75
g665
sg68
(lp982
g61
(g82
g63
NtRp983
(dp984
g66
(dp985
g86
g87
ssg75
g979
sg68
(lp986
S'http_host'
p987
asbag61
(g82
g63
NtRp988
(dp989
g66
(dp990
g93
g94
ssg75
g979
sg68
(lp991
S':'
asbag61
(g82
g63
NtRp992
(dp993
g66
(dp994
sg75
g979
sg68
(lp995
g61
(g62
g63
NtRp996
(dp997
g66
(dp998
g74
I4
ssg75
g992
sg68
(lp999
S'127.0.0.1:8000'
p1000
asbasbasbag61
(g77
g63
NtRp1001
(dp1002
g66
(dp1003
sg75
g665
sg68
(lp1004
g61
(g82
g63
NtRp1005
(dp1006
g66
(dp1007
g86
g87
ssg75
g1001
sg68
(lp1008
S'http_user_agent'
p1009
asbag61
(g82
g63
NtRp1010
(dp1011
g66
(dp1012
g93
g94
ssg75
g1001
sg68
(lp1013
S':'
asbag61
(g82
g63
NtRp1014
(dp1015
g66
(dp1016
sg75
g1001
sg68
(lp1017
g61
(g62
g63
NtRp1018
(dp1019
g66
(dp1020
g74
I4
ssg75
g1014
sg68
(lp1021
S'Mozilla/5.0 (X11; Linux x86_64) AppleWebKit/537.4 (KHTML, like Gecko) Ubuntu/12.10 Chromium/22.0.1229.94 Chrome/22.0.1229.94 Safari/537.4'
p1022
asbasbasbag61
(g77
g63
NtRp1023
(dp1024
g66
(dp1025
sg75
g665
sg68
(lp1026
g61
(g82
g63
NtRp1027
(dp1028
g66
(dp1029
g86
g87
ssg75
g1023
sg68
(lp1030
S'is_jython'
p1031
asbag61
(g82
g63
NtRp1032
(dp1033
g66
(dp1034
g93
g94
ssg75
g1023
sg68
(lp1035
S':'
asbag61
(g82
g63
NtRp1036
(dp1037
g66
(dp1038
sg75
g1023
sg68
(lp1039
g61
(g62
g63
NtRp1040
(dp1041
g66
(dp1042
g74
I4
ssg75
g1036
sg68
(lp1043
g104
asbasbasbag61
(g77
g63
NtRp1044
(dp1045
g66
(dp1046
sg75
g665
sg68
(lp1047
g61
(g82
g63
NtRp1048
(dp1049
g66
(dp1050
g86
g87
ssg75
g1044
sg68
(lp1051
S'is_pypy'
p1052
asbag61
(g82
g63
NtRp1053
(dp1054
g66
(dp1055
g93
g94
ssg75
g1044
sg68
(lp1056
S':'
asbag61
(g82
g63
NtRp1057
(dp1058
g66
(dp1059
sg75
g1044
sg68
(lp1060
g61
(g62
g63
NtRp1061
(dp1062
g66
(dp1063
g74
I4
ssg75
g1057
sg68
(lp1064
g104
asbasbasbag61
(g77
g63
NtRp1065
(dp1066
g66
(dp1067
sg75
g665
sg68
(lp1068
g61
(g82
g63
NtRp1069
(dp1070
g66
(dp1071
g86
g87
ssg75
g1065
sg68
(lp1072
S'path_info'
p1073
asbag61
(g82
g63
NtRp1074
(dp1075
g66
(dp1076
g93
g94
ssg75
g1065
sg68
(lp1077
S':'
asbag61
(g82
g63
NtRp1078
(dp1079
g66
(dp1080
sg75
g1065
sg68
(lp1081
g61
(g62
g63
NtRp1082
(dp1083
g66
(dp1084
g74
I4
ssg75
g1078
sg68
(lp1085
S'/show_cliente'
p1086
asbasbasbag61
(g77
g63
NtRp1087
(dp1088
g66
(dp1089
sg75
g665
sg68
(lp1090
g61
(g82
g63
NtRp1091
(dp1092
g66
(dp1093
g86
g87
ssg75
g1087
sg68
(lp1094
S'query_string'
p1095
asbag61
(g82
g63
NtRp1096
(dp1097
g66
(dp1098
g93
g94
ssg75
g1087
sg68
(lp1099
S':'
asbag61
(g82
g63
NtRp1100
(dp1101
g66
(dp1102
sg75
g1087
sg68
(lp1103
g61
(g62
g63
NtRp1104
(dp1105
g66
(dp1106
g74
I4
ssg75
g1100
sg68
(lp1107
S''
asbasbasbag61
(g77
g63
NtRp1108
(dp1109
g66
(dp1110
sg75
g665
sg68
(lp1111
g61
(g82
g63
NtRp1112
(dp1113
g66
(dp1114
g86
g87
ssg75
g1108
sg68
(lp1115
S'remote_addr'
p1116
asbag61
(g82
g63
NtRp1117
(dp1118
g66
(dp1119
g93
g94
ssg75
g1108
sg68
(lp1120
S':'
asbag61
(g82
g63
NtRp1121
(dp1122
g66
(dp1123
sg75
g1108
sg68
(lp1124
g61
(g62
g63
NtRp1125
(dp1126
g66
(dp1127
g74
I4
ssg75
g1121
sg68
(lp1128
g216
asbasbasbag61
(g77
g63
NtRp1129
(dp1130
g66
(dp1131
sg75
g665
sg68
(lp1132
g61
(g82
g63
NtRp1133
(dp1134
g66
(dp1135
g86
g87
ssg75
g1129
sg68
(lp1136
S'remote_port'
p1137
asbag61
(g82
g63
NtRp1138
(dp1139
g66
(dp1140
g93
g94
ssg75
g1129
sg68
(lp1141
S':'
asbag61
(g82
g63
NtRp1142
(dp1143
g66
(dp1144
sg75
g1129
sg68
(lp1145
g61
(g62
g63
NtRp1146
(dp1147
g66
(dp1148
g74
I4
ssg75
g1142
sg68
(lp1149
S'45432'
p1150
asbasbasbag61
(g77
g63
NtRp1151
(dp1152
g66
(dp1153
sg75
g665
sg68
(lp1154
g61
(g82
g63
NtRp1155
(dp1156
g66
(dp1157
g86
g87
ssg75
g1151
sg68
(lp1158
S'request_method'
p1159
asbag61
(g82
g63
NtRp1160
(dp1161
g66
(dp1162
g93
g94
ssg75
g1151
sg68
(lp1163
S':'
asbag61
(g82
g63
NtRp1164
(dp1165
g66
(dp1166
sg75
g1151
sg68
(lp1167
g61
(g62
g63
NtRp1168
(dp1169
g66
(dp1170
g74
I4
ssg75
g1164
sg68
(lp1171
S'GET'
p1172
asbasbasbag61
(g77
g63
NtRp1173
(dp1174
g66
(dp1175
sg75
g665
sg68
(lp1176
g61
(g82
g63
NtRp1177
(dp1178
g66
(dp1179
g86
g87
ssg75
g1173
sg68
(lp1180
S'request_uri'
p1181
asbag61
(g82
g63
NtRp1182
(dp1183
g66
(dp1184
g93
g94
ssg75
g1173
sg68
(lp1185
S':'
asbag61
(g82
g63
NtRp1186
(dp1187
g66
(dp1188
sg75
g1173
sg68
(lp1189
g61
(g62
g63
NtRp1190
(dp1191
g66
(dp1192
g74
I4
ssg75
g1186
sg68
(lp1193
S'/projeto/initial/show_cliente'
p1194
asbasbasbag61
(g77
g63
NtRp1195
(dp1196
g66
(dp1197
sg75
g665
sg68
(lp1198
g61
(g82
g63
NtRp1199
(dp1200
g66
(dp1201
g86
g87
ssg75
g1195
sg68
(lp1202
S'script_name'
p1203
asbag61
(g82
g63
NtRp1204
(dp1205
g66
(dp1206
g93
g94
ssg75
g1195
sg68
(lp1207
S':'
asbag61
(g82
g63
NtRp1208
(dp1209
g66
(dp1210
sg75
g1195
sg68
(lp1211
g61
(g62
g63
NtRp1212
(dp1213
g66
(dp1214
g74
I4
ssg75
g1208
sg68
(lp1215
S''
asbasbasbag61
(g77
g63
NtRp1216
(dp1217
g66
(dp1218
sg75
g665
sg68
(lp1219
g61
(g82
g63
NtRp1220
(dp1221
g66
(dp1222
g86
g87
ssg75
g1216
sg68
(lp1223
S'server_name'
p1224
asbag61
(g82
g63
NtRp1225
(dp1226
g66
(dp1227
g93
g94
ssg75
g1216
sg68
(lp1228
S':'
asbag61
(g82
g63
NtRp1229
(dp1230
g66
(dp1231
sg75
g1216
sg68
(lp1232
g61
(g62
g63
NtRp1233
(dp1234
g66
(dp1235
g74
I4
ssg75
g1229
sg68
(lp1236
S'fernando-workstation'
p1237
asbasbasbag61
(g77
g63
NtRp1238
(dp1239
g66
(dp1240
sg75
g665
sg68
(lp1241
g61
(g82
g63
NtRp1242
(dp1243
g66
(dp1244
g86
g87
ssg75
g1238
sg68
(lp1245
S'server_port'
p1246
asbag61
(g82
g63
NtRp1247
(dp1248
g66
(dp1249
g93
g94
ssg75
g1238
sg68
(lp1250
S':'
asbag61
(g82
g63
NtRp1251
(dp1252
g66
(dp1253
sg75
g1238
sg68
(lp1254
g61
(g62
g63
NtRp1255
(dp1256
g66
(dp1257
g74
I4
ssg75
g1251
sg68
(lp1258
S'8000'
p1259
asbasbasbag61
(g77
g63
NtRp1260
(dp1261
g66
(dp1262
sg75
g665
sg68
(lp1263
g61
(g82
g63
NtRp1264
(dp1265
g66
(dp1266
g86
g87
ssg75
g1260
sg68
(lp1267
S'server_protocol'
p1268
asbag61
(g82
g63
NtRp1269
(dp1270
g66
(dp1271
g93
g94
ssg75
g1260
sg68
(lp1272
S':'
asbag61
(g82
g63
NtRp1273
(dp1274
g66
(dp1275
sg75
g1260
sg68
(lp1276
g61
(g62
g63
NtRp1277
(dp1278
g66
(dp1279
g74
I4
ssg75
g1273
sg68
(lp1280
S'HTTP/1.1'
p1281
asbasbasbag61
(g77
g63
NtRp1282
(dp1283
g66
(dp1284
sg75
g665
sg68
(lp1285
g61
(g82
g63
NtRp1286
(dp1287
g66
(dp1288
g86
g87
ssg75
g1282
sg68
(lp1289
S'server_software'
p1290
asbag61
(g82
g63
NtRp1291
(dp1292
g66
(dp1293
g93
g94
ssg75
g1282
sg68
(lp1294
S':'
asbag61
(g82
g63
NtRp1295
(dp1296
g66
(dp1297
sg75
g1282
sg68
(lp1298
g61
(g62
g63
NtRp1299
(dp1300
g66
(dp1301
g74
I4
ssg75
g1295
sg68
(lp1302
S'Rocket 1.2.6'
p1303
asbasbasbag61
(g77
g63
NtRp1304
(dp1305
g66
(dp1306
sg75
g665
sg68
(lp1307
g61
(g82
g63
NtRp1308
(dp1309
g66
(dp1310
g86
g87
ssg75
g1304
sg68
(lp1311
S'web2py_original_uri'
p1312
asbag61
(g82
g63
NtRp1313
(dp1314
g66
(dp1315
g93
g94
ssg75
g1304
sg68
(lp1316
S':'
asbag61
(g82
g63
NtRp1317
(dp1318
g66
(dp1319
sg75
g1304
sg68
(lp1320
g61
(g62
g63
NtRp1321
(dp1322
g66
(dp1323
g74
I4
ssg75
g1317
sg68
(lp1324
g1086
asbasbasbag61
(g77
g63
NtRp1325
(dp1326
g66
(dp1327
sg75
g665
sg68
(lp1328
g61
(g82
g63
NtRp1329
(dp1330
g66
(dp1331
g86
g87
ssg75
g1325
sg68
(lp1332
S'web2py_path'
p1333
asbag61
(g82
g63
NtRp1334
(dp1335
g66
(dp1336
g93
g94
ssg75
g1325
sg68
(lp1337
S':'
asbag61
(g82
g63
NtRp1338
(dp1339
g66
(dp1340
sg75
g1325
sg68
(lp1341
g61
(g62
g63
NtRp1342
(dp1343
g66
(dp1344
g74
I4
ssg75
g1338
sg68
(lp1345
g712
asbasbasbag61
(g77
g63
NtRp1346
(dp1347
g66
(dp1348
sg75
g665
sg68
(lp1349
g61
(g82
g63
NtRp1350
(dp1351
g66
(dp1352
g86
g87
ssg75
g1346
sg68
(lp1353
S'web2py_version'
p1354
asbag61
(g82
g63
NtRp1355
(dp1356
g66
(dp1357
g93
g94
ssg75
g1346
sg68
(lp1358
S':'
asbag61
(g82
g63
NtRp1359
(dp1360
g66
(dp1361
sg75
g1346
sg68
(lp1362
g61
(g62
g63
NtRp1363
(dp1364
g66
(dp1365
g74
I4
ssg75
g1359
sg68
(lp1366
g61
(g70
g63
NtRp1367
(dp1368
g66
(dp1369
g74
I3
ssg75
Nsg68
(lp1370
g61
(g77
g63
NtRp1371
(dp1372
g66
(dp1373
sg75
g1367
sg68
(lp1374
g61
(g82
g63
NtRp1375
(dp1376
g66
(dp1377
sg75
g1371
sg68
(lp1378
g61
(g62
g63
NtRp1379
(dp1380
g66
(dp1381
g74
I3
ssg75
g1375
sg68
(lp1382
S'2'
asbasbasbag61
(g77
g63
NtRp1383
(dp1384
g66
(dp1385
sg75
g1367
sg68
(lp1386
g61
(g82
g63
NtRp1387
(dp1388
g66
(dp1389
sg75
g1383
sg68
(lp1390
g61
(g62
g63
NtRp1391
(dp1392
g66
(dp1393
g74
I3
ssg75
g1387
sg68
(lp1394
S'3'
asbasbasbag61
(g77
g63
NtRp1395
(dp1396
g66
(dp1397
sg75
g1367
sg68
(lp1398
g61
(g82
g63
NtRp1399
(dp1400
g66
(dp1401
sg75
g1395
sg68
(lp1402
g61
(g62
g63
NtRp1403
(dp1404
g66
(dp1405
g74
I3
ssg75
g1399
sg68
(lp1406
S'2'
asbasbasbag61
(g77
g63
NtRp1407
(dp1408
g66
(dp1409
sg75
g1367
sg68
(lp1410
g61
(g82
g63
NtRp1411
(dp1412
g66
(dp1413
sg75
g1407
sg68
(lp1414
g61
(g62
g63
NtRp1415
(dp1416
g66
(dp1417
g74
I3
ssg75
g1411
sg68
(lp1418
S'datetime.datetime(2012, 12, 17, 15, 3, 30)'
p1419
asbasbasbag61
(g77
g63
NtRp1420
(dp1421
g66
(dp1422
sg75
g1367
sg68
(lp1423
g61
(g82
g63
NtRp1424
(dp1425
g66
(dp1426
sg75
g1420
sg68
(lp1427
g61
(g62
g63
NtRp1428
(dp1429
g66
(dp1430
g74
I3
ssg75
g1424
sg68
(lp1431
S'stable'
p1432
asbasbasbasbasbasbasbag61
(g77
g63
NtRp1433
(dp1434
g66
(dp1435
sg75
g665
sg68
(lp1436
g61
(g82
g63
NtRp1437
(dp1438
g66
(dp1439
g86
g87
ssg75
g1433
sg68
(lp1440
S'wsgi_errors'
p1441
asbag61
(g82
g63
NtRp1442
(dp1443
g66
(dp1444
g93
g94
ssg75
g1433
sg68
(lp1445
S':'
asbag61
(g82
g63
NtRp1446
(dp1447
g66
(dp1448
sg75
g1433
sg68
(lp1449
g61
(g62
g63
NtRp1450
(dp1451
g66
(dp1452
g74
I4
ssg75
g1446
sg68
(lp1453
S"<open file '<stderr>', mode 'w' at 0x7f4aa448f270>"
p1454
asbasbasbag61
(g77
g63
NtRp1455
(dp1456
g66
(dp1457
sg75
g665
sg68
(lp1458
g61
(g82
g63
NtRp1459
(dp1460
g66
(dp1461
g86
g87
ssg75
g1455
sg68
(lp1462
S'wsgi_file_wrapper'
p1463
asbag61
(g82
g63
NtRp1464
(dp1465
g66
(dp1466
g93
g94
ssg75
g1455
sg68
(lp1467
S':'
asbag61
(g82
g63
NtRp1468
(dp1469
g66
(dp1470
sg75
g1455
sg68
(lp1471
g61
(g62
g63
NtRp1472
(dp1473
g66
(dp1474
g74
I4
ssg75
g1468
sg68
(lp1475
S'<class wsgiref.util.FileWrapper at 0x2655598>'
p1476
asbasbasbag61
(g77
g63
NtRp1477
(dp1478
g66
(dp1479
sg75
g665
sg68
(lp1480
g61
(g82
g63
NtRp1481
(dp1482
g66
(dp1483
g86
g87
ssg75
g1477
sg68
(lp1484
S'wsgi_input'
p1485
asbag61
(g82
g63
NtRp1486
(dp1487
g66
(dp1488
g93
g94
ssg75
g1477
sg68
(lp1489
S':'
asbag61
(g82
g63
NtRp1490
(dp1491
g66
(dp1492
sg75
g1477
sg68
(lp1493
g61
(g62
g63
NtRp1494
(dp1495
g66
(dp1496
g74
I4
ssg75
g1490
sg68
(lp1497
S'<socket._fileobject object at 0x1a99350>'
p1498
asbasbasbag61
(g77
g63
NtRp1499
(dp1500
g66
(dp1501
sg75
g665
sg68
(lp1502
g61
(g82
g63
NtRp1503
(dp1504
g66
(dp1505
g86
g87
ssg75
g1499
sg68
(lp1506
S'wsgi_multiprocess'
p1507
asbag61
(g82
g63
NtRp1508
(dp1509
g66
(dp1510
g93
g94
ssg75
g1499
sg68
(lp1511
S':'
asbag61
(g82
g63
NtRp1512
(dp1513
g66
(dp1514
sg75
g1499
sg68
(lp1515
g61
(g62
g63
NtRp1516
(dp1517
g66
(dp1518
g74
I4
ssg75
g1512
sg68
(lp1519
g104
asbasbasbag61
(g77
g63
NtRp1520
(dp1521
g66
(dp1522
sg75
g665
sg68
(lp1523
g61
(g82
g63
NtRp1524
(dp1525
g66
(dp1526
g86
g87
ssg75
g1520
sg68
(lp1527
S'wsgi_multithread'
p1528
asbag61
(g82
g63
NtRp1529
(dp1530
g66
(dp1531
g93
g94
ssg75
g1520
sg68
(lp1532
S':'
asbag61
(g82
g63
NtRp1533
(dp1534
g66
(dp1535
sg75
g1520
sg68
(lp1536
g61
(g62
g63
NtRp1537
(dp1538
g66
(dp1539
g74
I4
ssg75
g1533
sg68
(lp1540
S'True'
p1541
asbasbasbag61
(g77
g63
NtRp1542
(dp1543
g66
(dp1544
sg75
g665
sg68
(lp1545
g61
(g82
g63
NtRp1546
(dp1547
g66
(dp1548
g86
g87
ssg75
g1542
sg68
(lp1549
S'wsgi_run_once'
p1550
asbag61
(g82
g63
NtRp1551
(dp1552
g66
(dp1553
g93
g94
ssg75
g1542
sg68
(lp1554
S':'
asbag61
(g82
g63
NtRp1555
(dp1556
g66
(dp1557
sg75
g1542
sg68
(lp1558
g61
(g62
g63
NtRp1559
(dp1560
g66
(dp1561
g74
I4
ssg75
g1555
sg68
(lp1562
g104
asbasbasbag61
(g77
g63
NtRp1563
(dp1564
g66
(dp1565
sg75
g665
sg68
(lp1566
g61
(g82
g63
NtRp1567
(dp1568
g66
(dp1569
g86
g87
ssg75
g1563
sg68
(lp1570
S'wsgi_url_scheme'
p1571
asbag61
(g82
g63
NtRp1572
(dp1573
g66
(dp1574
g93
g94
ssg75
g1563
sg68
(lp1575
S':'
asbag61
(g82
g63
NtRp1576
(dp1577
g66
(dp1578
sg75
g1563
sg68
(lp1579
g61
(g62
g63
NtRp1580
(dp1581
g66
(dp1582
g74
I4
ssg75
g1576
sg68
(lp1583
S'http'
p1584
asbasbasbag61
(g77
g63
NtRp1585
(dp1586
g66
(dp1587
sg75
g665
sg68
(lp1588
g61
(g82
g63
NtRp1589
(dp1590
g66
(dp1591
g86
g87
ssg75
g1585
sg68
(lp1592
S'wsgi_version'
p1593
asbag61
(g82
g63
NtRp1594
(dp1595
g66
(dp1596
g93
g94
ssg75
g1585
sg68
(lp1597
S':'
asbag61
(g82
g63
NtRp1598
(dp1599
g66
(dp1600
sg75
g1585
sg68
(lp1601
g61
(g62
g63
NtRp1602
(dp1603
g66
(dp1604
g74
I4
ssg75
g1598
sg68
(lp1605
g61
(g70
g63
NtRp1606
(dp1607
g66
(dp1608
g74
I3
ssg75
Nsg68
(lp1609
g61
(g77
g63
NtRp1610
(dp1611
g66
(dp1612
sg75
g1606
sg68
(lp1613
g61
(g82
g63
NtRp1614
(dp1615
g66
(dp1616
sg75
g1610
sg68
(lp1617
g61
(g62
g63
NtRp1618
(dp1619
g66
(dp1620
g74
I3
ssg75
g1614
sg68
(lp1621
S'1'
asbasbasbag61
(g77
g63
NtRp1622
(dp1623
g66
(dp1624
sg75
g1606
sg68
(lp1625
g61
(g82
g63
NtRp1626
(dp1627
g66
(dp1628
sg75
g1622
sg68
(lp1629
g61
(g62
g63
NtRp1630
(dp1631
g66
(dp1632
g74
I3
ssg75
g1626
sg68
(lp1633
S'0'
asbasbasbasbasbasbasbasbasbasbasbag61
(g77
g63
NtRp1634
(dp1635
g66
(dp1636
sg75
g71
sg68
(lp1637
g61
(g82
g63
NtRp1638
(dp1639
g66
(dp1640
g86
g87
ssg75
g1634
sg68
(lp1641
S'extension'
p1642
asbag61
(g82
g63
NtRp1643
(dp1644
g66
(dp1645
g93
g94
ssg75
g1634
sg68
(lp1646
S':'
asbag61
(g82
g63
NtRp1647
(dp1648
g66
(dp1649
sg75
g1634
sg68
(lp1650
g61
(g62
g63
NtRp1651
(dp1652
g66
(dp1653
g74
I5
ssg75
g1647
sg68
(lp1654
S'html'
p1655
asbasbasbag61
(g77
g63
NtRp1656
(dp1657
g66
(dp1658
sg75
g71
sg68
(lp1659
g61
(g82
g63
NtRp1660
(dp1661
g66
(dp1662
g86
g87
ssg75
g1656
sg68
(lp1663
S'folder'
p1664
asbag61
(g82
g63
NtRp1665
(dp1666
g66
(dp1667
g93
g94
ssg75
g1656
sg68
(lp1668
S':'
asbag61
(g82
g63
NtRp1669
(dp1670
g66
(dp1671
sg75
g1656
sg68
(lp1672
g61
(g62
g63
NtRp1673
(dp1674
g66
(dp1675
g74
I5
ssg75
g1669
sg68
(lp1676
S'/var/www/conferencia/applications/projeto/'
p1677
asbasbasbag61
(g77
g63
NtRp1678
(dp1679
g66
(dp1680
sg75
g71
sg68
(lp1681
g61
(g82
g63
NtRp1682
(dp1683
g66
(dp1684
g86
g87
ssg75
g1678
sg68
(lp1685
S'function'
p1686
asbag61
(g82
g63
NtRp1687
(dp1688
g66
(dp1689
g93
g94
ssg75
g1678
sg68
(lp1690
S':'
asbag61
(g82
g63
NtRp1691
(dp1692
g66
(dp1693
sg75
g1678
sg68
(lp1694
g61
(g62
g63
NtRp1695
(dp1696
g66
(dp1697
g74
I5
ssg75
g1691
sg68
(lp1698
S'show_cliente'
p1699
asbasbasbag61
(g77
g63
NtRp1700
(dp1701
g66
(dp1702
sg75
g71
sg68
(lp1703
g61
(g82
g63
NtRp1704
(dp1705
g66
(dp1706
g86
g87
ssg75
g1700
sg68
(lp1707
S'get_vars'
p1708
asbag61
(g82
g63
NtRp1709
(dp1710
g66
(dp1711
g93
g94
ssg75
g1700
sg68
(lp1712
S':'
asbag61
(g82
g63
NtRp1713
(dp1714
g66
(dp1715
sg75
g1700
sg68
(lp1716
g61
(g62
g63
NtRp1717
(dp1718
g66
(dp1719
g74
I5
ssg75
g1713
sg68
(lp1720
g61
(g70
g63
NtRp1721
(dp1722
g66
(dp1723
g74
I4
ssg75
Nsg68
(lp1724
sbasbasbasbag61
(g77
g63
NtRp1725
(dp1726
g66
(dp1727
sg75
g71
sg68
(lp1728
g61
(g82
g63
NtRp1729
(dp1730
g66
(dp1731
g86
g87
ssg75
g1725
sg68
(lp1732
S'global_settings'
p1733
asbag61
(g82
g63
NtRp1734
(dp1735
g66
(dp1736
g93
g94
ssg75
g1725
sg68
(lp1737
S':'
asbag61
(g82
g63
NtRp1738
(dp1739
g66
(dp1740
sg75
g1725
sg68
(lp1741
g61
(g62
g63
NtRp1742
(dp1743
g66
(dp1744
g74
I5
ssg75
g1738
sg68
(lp1745
g61
(g70
g63
NtRp1746
(dp1747
g66
(dp1748
g74
I4
ssg75
Nsg68
(lp1749
g61
(g77
g63
NtRp1750
(dp1751
g66
(dp1752
sg75
g1746
sg68
(lp1753
g61
(g82
g63
NtRp1754
(dp1755
g66
(dp1756
g86
g87
ssg75
g1750
sg68
(lp1757
g677
asbag61
(g82
g63
NtRp1758
(dp1759
g66
(dp1760
g93
g94
ssg75
g1750
sg68
(lp1761
S':'
asbag61
(g82
g63
NtRp1762
(dp1763
g66
(dp1764
sg75
g1750
sg68
(lp1765
g61
(g62
g63
NtRp1766
(dp1767
g66
(dp1768
g74
I4
ssg75
g1762
sg68
(lp1769
S"set(['/var/www/conferencia/applications/projeto/'])"
p1770
asbasbasbag61
(g77
g63
NtRp1771
(dp1772
g66
(dp1773
sg75
g1746
sg68
(lp1774
g61
(g82
g63
NtRp1775
(dp1776
g66
(dp1777
g86
g87
ssg75
g1771
sg68
(lp1778
g699
asbag61
(g82
g63
NtRp1779
(dp1780
g66
(dp1781
g93
g94
ssg75
g1771
sg68
(lp1782
S':'
asbag61
(g82
g63
NtRp1783
(dp1784
g66
(dp1785
sg75
g1771
sg68
(lp1786
g61
(g62
g63
NtRp1787
(dp1788
g66
(dp1789
g74
I4
ssg75
g1783
sg68
(lp1790
g712
asbasbasbag61
(g77
g63
NtRp1791
(dp1792
g66
(dp1793
sg75
g1746
sg68
(lp1794
g61
(g82
g63
NtRp1795
(dp1796
g66
(dp1797
g86
g87
ssg75
g1791
sg68
(lp1798
g721
asbag61
(g82
g63
NtRp1799
(dp1800
g66
(dp1801
g93
g94
ssg75
g1791
sg68
(lp1802
S':'
asbag61
(g82
g63
NtRp1803
(dp1804
g66
(dp1805
sg75
g1791
sg68
(lp1806
g61
(g62
g63
NtRp1807
(dp1808
g66
(dp1809
g74
I4
ssg75
g1803
sg68
(lp1810
g61
(g70
g63
NtRp1811
(dp1812
g66
(dp1813
g74
I3
ssg75
Nsg68
(lp1814
sbasbasbasbag61
(g77
g63
NtRp1815
(dp1816
g66
(dp1817
sg75
g1746
sg68
(lp1818
g61
(g82
g63
NtRp1819
(dp1820
g66
(dp1821
g86
g87
ssg75
g1815
sg68
(lp1822
g746
asbag61
(g82
g63
NtRp1823
(dp1824
g66
(dp1825
g93
g94
ssg75
g1815
sg68
(lp1826
S':'
asbag61
(g82
g63
NtRp1827
(dp1828
g66
(dp1829
sg75
g1815
sg68
(lp1830
g61
(g62
g63
NtRp1831
(dp1832
g66
(dp1833
g74
I4
ssg75
g1827
sg68
(lp1834
S"<Values at 0x26de248: {'verbose': False, 'ip': '127.0.0.1', 'with_scheduler': False, 'ips': [], 'shutdown_timeout': 5, 'taskbar': False, 'port': 8000, 'maxthreads': None, 'softcron': False, 'server_name': 'fernando-workstation', 'bpython': False, 'nogui': False, 'pid_filename': 'httpserver.pid', 'extcron': False, 'runcron': False, 'run_system_tests': False, 'test': None, 'folder': '/var/www/conferencia', 'config': '', 'minthreads': None, 'winservice': '', 'shell': None, 'run': '', 'log_filename': 'httpserver.log', 'debuglevel': 30, 'args': [''], 'socket_timeout': 5, 'ssl_ca_certificate': None, 'scheduler': None, 'profiler_filename': None, 'ssl_private_key': '', 'scheduler_groups': None, 'password': '123456', 'request_queue_size': 5, 'ssl_certificate': '', 'cronjob': False, 'numthreads': None, 'quiet': False, 'interfaces': None, 'import_models': False, 'timeout': 10, 'plain': False, 'nobanner': False}>"
p1835
asbasbasbag61
(g77
g63
NtRp1836
(dp1837
g66
(dp1838
sg75
g1746
sg68
(lp1839
g61
(g82
g63
NtRp1840
(dp1841
g66
(dp1842
g86
g87
ssg75
g1836
sg68
(lp1843
g768
asbag61
(g82
g63
NtRp1844
(dp1845
g66
(dp1846
g93
g94
ssg75
g1836
sg68
(lp1847
S':'
asbag61
(g82
g63
NtRp1848
(dp1849
g66
(dp1850
sg75
g1836
sg68
(lp1851
g61
(g62
g63
NtRp1852
(dp1853
g66
(dp1854
g74
I4
ssg75
g1848
sg68
(lp1855
S'set([])'
p1856
asbasbasbag61
(g77
g63
NtRp1857
(dp1858
g66
(dp1859
sg75
g1746
sg68
(lp1860
g61
(g82
g63
NtRp1861
(dp1862
g66
(dp1863
g86
g87
ssg75
g1857
sg68
(lp1864
g790
asbag61
(g82
g63
NtRp1865
(dp1866
g66
(dp1867
g93
g94
ssg75
g1857
sg68
(lp1868
S':'
asbag61
(g82
g63
NtRp1869
(dp1870
g66
(dp1871
sg75
g1857
sg68
(lp1872
g61
(g62
g63
NtRp1873
(dp1874
g66
(dp1875
g74
I4
ssg75
g1869
sg68
(lp1876
g104
asbasbasbag61
(g77
g63
NtRp1877
(dp1878
g66
(dp1879
sg75
g1746
sg68
(lp1880
g61
(g82
g63
NtRp1881
(dp1882
g66
(dp1883
g86
g87
ssg75
g1877
sg68
(lp1884
g811
asbag61
(g82
g63
NtRp1885
(dp1886
g66
(dp1887
g93
g94
ssg75
g1877
sg68
(lp1888
S':'
asbag61
(g82
g63
NtRp1889
(dp1890
g66
(dp1891
sg75
g1877
sg68
(lp1892
g61
(g62
g63
NtRp1893
(dp1894
g66
(dp1895
g74
I4
ssg75
g1889
sg68
(lp1896
g824
asbasbasbag61
(g77
g63
NtRp1897
(dp1898
g66
(dp1899
sg75
g1746
sg68
(lp1900
g61
(g82
g63
NtRp1901
(dp1902
g66
(dp1903
g86
g87
ssg75
g1897
sg68
(lp1904
g1031
asbag61
(g82
g63
NtRp1905
(dp1906
g66
(dp1907
g93
g94
ssg75
g1897
sg68
(lp1908
S':'
asbag61
(g82
g63
NtRp1909
(dp1910
g66
(dp1911
sg75
g1897
sg68
(lp1912
g61
(g62
g63
NtRp1913
(dp1914
g66
(dp1915
g74
I4
ssg75
g1909
sg68
(lp1916
g104
asbasbasbag61
(g77
g63
NtRp1917
(dp1918
g66
(dp1919
sg75
g1746
sg68
(lp1920
g61
(g82
g63
NtRp1921
(dp1922
g66
(dp1923
g86
g87
ssg75
g1917
sg68
(lp1924
g1052
asbag61
(g82
g63
NtRp1925
(dp1926
g66
(dp1927
g93
g94
ssg75
g1917
sg68
(lp1928
S':'
asbag61
(g82
g63
NtRp1929
(dp1930
g66
(dp1931
sg75
g1917
sg68
(lp1932
g61
(g62
g63
NtRp1933
(dp1934
g66
(dp1935
g74
I4
ssg75
g1929
sg68
(lp1936
g104
asbasbasbag61
(g77
g63
NtRp1937
(dp1938
g66
(dp1939
sg75
g1746
sg68
(lp1940
g61
(g82
g63
NtRp1941
(dp1942
g66
(dp1943
g86
g87
ssg75
g1937
sg68
(lp1944
S'local_hosts'
p1945
asbag61
(g82
g63
NtRp1946
(dp1947
g66
(dp1948
g93
g94
ssg75
g1937
sg68
(lp1949
S':'
asbag61
(g82
g63
NtRp1950
(dp1951
g66
(dp1952
sg75
g1937
sg68
(lp1953
g61
(g62
g63
NtRp1954
(dp1955
g66
(dp1956
g74
I4
ssg75
g1950
sg68
(lp1957
g61
(g70
g63
NtRp1958
(dp1959
g66
(dp1960
g74
I3
ssg75
Nsg68
(lp1961
g61
(g77
g63
NtRp1962
(dp1963
g66
(dp1964
sg75
g1958
sg68
(lp1965
g61
(g82
g63
NtRp1966
(dp1967
g66
(dp1968
sg75
g1962
sg68
(lp1969
g61
(g62
g63
NtRp1970
(dp1971
g66
(dp1972
g74
I3
ssg75
g1966
sg68
(lp1973
S'::1'
p1974
asbasbasbag61
(g77
g63
NtRp1975
(dp1976
g66
(dp1977
sg75
g1958
sg68
(lp1978
g61
(g82
g63
NtRp1979
(dp1980
g66
(dp1981
sg75
g1975
sg68
(lp1982
g61
(g62
g63
NtRp1983
(dp1984
g66
(dp1985
g74
I3
ssg75
g1979
sg68
(lp1986
S'::ffff:127.0.0.1'
p1987
asbasbasbag61
(g77
g63
NtRp1988
(dp1989
g66
(dp1990
sg75
g1958
sg68
(lp1991
g61
(g82
g63
NtRp1992
(dp1993
g66
(dp1994
sg75
g1988
sg68
(lp1995
g61
(g62
g63
NtRp1996
(dp1997
g66
(dp1998
g74
I3
ssg75
g1992
sg68
(lp1999
S'127.0.0.1'
p2000
asbasbasbag61
(g77
g63
NtRp2001
(dp2002
g66
(dp2003
sg75
g1958
sg68
(lp2004
g61
(g82
g63
NtRp2005
(dp2006
g66
(dp2007
sg75
g2001
sg68
(lp2008
g61
(g62
g63
NtRp2009
(dp2010
g66
(dp2011
g74
I3
ssg75
g2005
sg68
(lp2012
S'fernando-workstation'
p2013
asbasbasbasbasbasbasbag61
(g77
g63
NtRp2014
(dp2015
g66
(dp2016
sg75
g1746
sg68
(lp2017
g61
(g82
g63
NtRp2018
(dp2019
g66
(dp2020
g86
g87
ssg75
g2014
sg68
(lp2021
g1354
asbag61
(g82
g63
NtRp2022
(dp2023
g66
(dp2024
g93
g94
ssg75
g2014
sg68
(lp2025
S':'
asbag61
(g82
g63
NtRp2026
(dp2027
g66
(dp2028
sg75
g2014
sg68
(lp2029
g61
(g62
g63
NtRp2030
(dp2031
g66
(dp2032
g74
I4
ssg75
g2026
sg68
(lp2033
g61
(g70
g63
NtRp2034
(dp2035
g66
(dp2036
g74
I3
ssg75
Nsg68
(lp2037
g61
(g77
g63
NtRp2038
(dp2039
g66
(dp2040
sg75
g2034
sg68
(lp2041
g61
(g82
g63
NtRp2042
(dp2043
g66
(dp2044
sg75
g2038
sg68
(lp2045
g61
(g62
g63
NtRp2046
(dp2047
g66
(dp2048
g74
I3
ssg75
g2042
sg68
(lp2049
S'2'
asbasbasbag61
(g77
g63
NtRp2050
(dp2051
g66
(dp2052
sg75
g2034
sg68
(lp2053
g61
(g82
g63
NtRp2054
(dp2055
g66
(dp2056
sg75
g2050
sg68
(lp2057
g61
(g62
g63
NtRp2058
(dp2059
g66
(dp2060
g74
I3
ssg75
g2054
sg68
(lp2061
S'3'
asbasbasbag61
(g77
g63
NtRp2062
(dp2063
g66
(dp2064
sg75
g2034
sg68
(lp2065
g61
(g82
g63
NtRp2066
(dp2067
g66
(dp2068
sg75
g2062
sg68
(lp2069
g61
(g62
g63
NtRp2070
(dp2071
g66
(dp2072
g74
I3
ssg75
g2066
sg68
(lp2073
S'2'
asbasbasbag61
(g77
g63
NtRp2074
(dp2075
g66
(dp2076
sg75
g2034
sg68
(lp2077
g61
(g82
g63
NtRp2078
(dp2079
g66
(dp2080
sg75
g2074
sg68
(lp2081
g61
(g62
g63
NtRp2082
(dp2083
g66
(dp2084
g74
I3
ssg75
g2078
sg68
(lp2085
S'datetime.datetime(2012, 12, 17, 15, 3, 30)'
p2086
asbasbasbag61
(g77
g63
NtRp2087
(dp2088
g66
(dp2089
sg75
g2034
sg68
(lp2090
g61
(g82
g63
NtRp2091
(dp2092
g66
(dp2093
sg75
g2087
sg68
(lp2094
g61
(g62
g63
NtRp2095
(dp2096
g66
(dp2097
g74
I3
ssg75
g2091
sg68
(lp2098
g1432
asbasbasbasbasbasbasbasbasbasbasbag61
(g77
g63
NtRp2099
(dp2100
g66
(dp2101
sg75
g71
sg68
(lp2102
g61
(g82
g63
NtRp2103
(dp2104
g66
(dp2105
g86
g87
ssg75
g2099
sg68
(lp2106
S'is_https'
p2107
asbag61
(g82
g63
NtRp2108
(dp2109
g66
(dp2110
g93
g94
ssg75
g2099
sg68
(lp2111
S':'
asbag61
(g82
g63
NtRp2112
(dp2113
g66
(dp2114
sg75
g2099
sg68
(lp2115
g61
(g62
g63
NtRp2116
(dp2117
g66
(dp2118
g74
I5
ssg75
g2112
sg68
(lp2119
g104
asbasbasbag61
(g77
g63
NtRp2120
(dp2121
g66
(dp2122
sg75
g71
sg68
(lp2123
g61
(g82
g63
NtRp2124
(dp2125
g66
(dp2126
g86
g87
ssg75
g2120
sg68
(lp2127
S'is_local'
p2128
asbag61
(g82
g63
NtRp2129
(dp2130
g66
(dp2131
g93
g94
ssg75
g2120
sg68
(lp2132
S':'
asbag61
(g82
g63
NtRp2133
(dp2134
g66
(dp2135
sg75
g2120
sg68
(lp2136
g61
(g62
g63
NtRp2137
(dp2138
g66
(dp2139
g74
I5
ssg75
g2133
sg68
(lp2140
g1541
asbasbasbag61
(g77
g63
NtRp2141
(dp2142
g66
(dp2143
sg75
g71
sg68
(lp2144
g61
(g82
g63
NtRp2145
(dp2146
g66
(dp2147
g86
g87
ssg75
g2141
sg68
(lp2148
S'is_restful'
p2149
asbag61
(g82
g63
NtRp2150
(dp2151
g66
(dp2152
g93
g94
ssg75
g2141
sg68
(lp2153
S':'
asbag61
(g82
g63
NtRp2154
(dp2155
g66
(dp2156
sg75
g2141
sg68
(lp2157
g61
(g62
g63
NtRp2158
(dp2159
g66
(dp2160
g74
I5
ssg75
g2154
sg68
(lp2161
g104
asbasbasbag61
(g77
g63
NtRp2162
(dp2163
g66
(dp2164
sg75
g71
sg68
(lp2165
g61
(g82
g63
NtRp2166
(dp2167
g66
(dp2168
g86
g87
ssg75
g2162
sg68
(lp2169
S'now'
p2170
asbag61
(g82
g63
NtRp2171
(dp2172
g66
(dp2173
g93
g94
ssg75
g2162
sg68
(lp2174
S':'
asbag61
(g82
g63
NtRp2175
(dp2176
g66
(dp2177
sg75
g2162
sg68
(lp2178
g61
(g62
g63
NtRp2179
(dp2180
g66
(dp2181
g74
I5
ssg75
g2175
sg68
(lp2182
S'datetime.datetime(2013, 4, 2, 18, 49, 39, 992733)'
p2183
asbasbasbag61
(g77
g63
NtRp2184
(dp2185
g66
(dp2186
sg75
g71
sg68
(lp2187
g61
(g82
g63
NtRp2188
(dp2189
g66
(dp2190
g86
g87
ssg75
g2184
sg68
(lp2191
S'post_vars'
p2192
asbag61
(g82
g63
NtRp2193
(dp2194
g66
(dp2195
g93
g94
ssg75
g2184
sg68
(lp2196
S':'
asbag61
(g82
g63
NtRp2197
(dp2198
g66
(dp2199
sg75
g2184
sg68
(lp2200
g61
(g62
g63
NtRp2201
(dp2202
g66
(dp2203
g74
I5
ssg75
g2197
sg68
(lp2204
g61
(g70
g63
NtRp2205
(dp2206
g66
(dp2207
g74
I4
ssg75
Nsg68
(lp2208
sbasbasbasbag61
(g77
g63
NtRp2209
(dp2210
g66
(dp2211
sg75
g71
sg68
(lp2212
g61
(g82
g63
NtRp2213
(dp2214
g66
(dp2215
g86
g87
ssg75
g2209
sg68
(lp2216
S'url'
p2217
asbag61
(g82
g63
NtRp2218
(dp2219
g66
(dp2220
g93
g94
ssg75
g2209
sg68
(lp2221
S':'
asbag61
(g82
g63
NtRp2222
(dp2223
g66
(dp2224
sg75
g2209
sg68
(lp2225
g61
(g62
g63
NtRp2226
(dp2227
g66
(dp2228
g74
I5
ssg75
g2222
sg68
(lp2229
g1086
asbasbasbag61
(g77
g63
NtRp2230
(dp2231
g66
(dp2232
sg75
g71
sg68
(lp2233
g61
(g82
g63
NtRp2234
(dp2235
g66
(dp2236
g86
g87
ssg75
g2230
sg68
(lp2237
S'utcnow'
p2238
asbag61
(g82
g63
NtRp2239
(dp2240
g66
(dp2241
g93
g94
ssg75
g2230
sg68
(lp2242
S':'
asbag61
(g82
g63
NtRp2243
(dp2244
g66
(dp2245
sg75
g2230
sg68
(lp2246
g61
(g62
g63
NtRp2247
(dp2248
g66
(dp2249
g74
I5
ssg75
g2243
sg68
(lp2250
S'datetime.datetime(2013, 4, 2, 21, 49, 39, 992785)'
p2251
asbasbasbag61
(g77
g63
NtRp2252
(dp2253
g66
(dp2254
sg75
g71
sg68
(lp2255
g61
(g82
g63
NtRp2256
(dp2257
g66
(dp2258
g86
g87
ssg75
g2252
sg68
(lp2259
S'uuid'
p2260
asbag61
(g82
g63
NtRp2261
(dp2262
g66
(dp2263
g93
g94
ssg75
g2252
sg68
(lp2264
S':'
asbag61
(g82
g63
NtRp2265
(dp2266
g66
(dp2267
sg75
g2252
sg68
(lp2268
g61
(g62
g63
NtRp2269
(dp2270
g66
(dp2271
g74
I5
ssg75
g2265
sg68
(lp2272
S'projeto/127.0.0.1.2013-04-02.18-49-39.3a564ab8-38be-4742-a0d9-6d0174d46ccb'
p2273
asbasbasbag61
(g77
g63
NtRp2274
(dp2275
g66
(dp2276
sg75
g71
sg68
(lp2277
g61
(g82
g63
NtRp2278
(dp2279
g66
(dp2280
g86
g87
ssg75
g2274
sg68
(lp2281
S'vars'
p2282
asbag61
(g82
g63
NtRp2283
(dp2284
g66
(dp2285
g93
g94
ssg75
g2274
sg68
(lp2286
S':'
asbag61
(g82
g63
NtRp2287
(dp2288
g66
(dp2289
sg75
g2274
sg68
(lp2290
g61
(g62
g63
NtRp2291
(dp2292
g66
(dp2293
g74
I5
ssg75
g2287
sg68
(lp2294
g61
(g70
g63
NtRp2295
(dp2296
g66
(dp2297
g74
I4
ssg75
Nsg68
(lp2298
sbasbasbasbag61
(g77
g63
NtRp2299
(dp2300
g66
(dp2301
sg75
g71
sg68
(lp2302
g61
(g82
g63
NtRp2303
(dp2304
g66
(dp2305
g86
g87
ssg75
g2299
sg68
(lp2306
S'wsgi'
p2307
asbag61
(g82
g63
NtRp2308
(dp2309
g66
(dp2310
g93
g94
ssg75
g2299
sg68
(lp2311
S':'
asbag61
(g82
g63
NtRp2312
(dp2313
g66
(dp2314
sg75
g2299
sg68
(lp2315
g61
(g62
g63
NtRp2316
(dp2317
g66
(dp2318
g74
I5
ssg75
g2312
sg68
(lp2319
g61
(g70
g63
NtRp2320
(dp2321
g66
(dp2322
g74
I4
ssg75
Nsg68
(lp2323
g61
(g77
g63
NtRp2324
(dp2325
g66
(dp2326
sg75
g2320
sg68
(lp2327
g61
(g82
g63
NtRp2328
(dp2329
g66
(dp2330
g86
g87
ssg75
g2324
sg68
(lp2331
S'environ'
p2332
asbag61
(g82
g63
NtRp2333
(dp2334
g66
(dp2335
g93
g94
ssg75
g2324
sg68
(lp2336
S':'
asbag61
(g82
g63
NtRp2337
(dp2338
g66
(dp2339
sg75
g2324
sg68
(lp2340
g61
(g62
g63
NtRp2341
(dp2342
g66
(dp2343
g74
I4
ssg75
g2337
sg68
(lp2344
g61
(g70
g63
NtRp2345
(dp2346
g66
(dp2347
g74
I3
ssg75
Nsg68
(lp2348
g61
(g77
g63
NtRp2349
(dp2350
g66
(dp2351
sg75
g2345
sg68
(lp2352
g61
(g82
g63
NtRp2353
(dp2354
g66
(dp2355
g86
g87
ssg75
g2349
sg68
(lp2356
S'HTTP_ACCEPT'
p2357
asbag61
(g82
g63
NtRp2358
(dp2359
g66
(dp2360
g93
g94
ssg75
g2349
sg68
(lp2361
S':'
asbag61
(g82
g63
NtRp2362
(dp2363
g66
(dp2364
sg75
g2349
sg68
(lp2365
g61
(g62
g63
NtRp2366
(dp2367
g66
(dp2368
g74
I3
ssg75
g2362
sg68
(lp2369
g846
asbasbasbag61
(g77
g63
NtRp2370
(dp2371
g66
(dp2372
sg75
g2345
sg68
(lp2373
g61
(g82
g63
NtRp2374
(dp2375
g66
(dp2376
g86
g87
ssg75
g2370
sg68
(lp2377
S'HTTP_ACCEPT_CHARSET'
p2378
asbag61
(g82
g63
NtRp2379
(dp2380
g66
(dp2381
g93
g94
ssg75
g2370
sg68
(lp2382
S':'
asbag61
(g82
g63
NtRp2383
(dp2384
g66
(dp2385
sg75
g2370
sg68
(lp2386
g61
(g62
g63
NtRp2387
(dp2388
g66
(dp2389
g74
I3
ssg75
g2383
sg68
(lp2390
g868
asbasbasbag61
(g77
g63
NtRp2391
(dp2392
g66
(dp2393
sg75
g2345
sg68
(lp2394
g61
(g82
g63
NtRp2395
(dp2396
g66
(dp2397
g86
g87
ssg75
g2391
sg68
(lp2398
S'HTTP_ACCEPT_ENCODING'
p2399
asbag61
(g82
g63
NtRp2400
(dp2401
g66
(dp2402
g93
g94
ssg75
g2391
sg68
(lp2403
S':'
asbag61
(g82
g63
NtRp2404
(dp2405
g66
(dp2406
sg75
g2391
sg68
(lp2407
g61
(g62
g63
NtRp2408
(dp2409
g66
(dp2410
g74
I3
ssg75
g2404
sg68
(lp2411
g890
asbasbasbag61
(g77
g63
NtRp2412
(dp2413
g66
(dp2414
sg75
g2345
sg68
(lp2415
g61
(g82
g63
NtRp2416
(dp2417
g66
(dp2418
g86
g87
ssg75
g2412
sg68
(lp2419
S'HTTP_ACCEPT_LANGUAGE'
p2420
asbag61
(g82
g63
NtRp2421
(dp2422
g66
(dp2423
g93
g94
ssg75
g2412
sg68
(lp2424
S':'
asbag61
(g82
g63
NtRp2425
(dp2426
g66
(dp2427
sg75
g2412
sg68
(lp2428
g61
(g62
g63
NtRp2429
(dp2430
g66
(dp2431
g74
I3
ssg75
g2425
sg68
(lp2432
g912
asbasbasbag61
(g77
g63
NtRp2433
(dp2434
g66
(dp2435
sg75
g2345
sg68
(lp2436
g61
(g82
g63
NtRp2437
(dp2438
g66
(dp2439
g86
g87
ssg75
g2433
sg68
(lp2440
S'HTTP_CACHE_CONTROL'
p2441
asbag61
(g82
g63
NtRp2442
(dp2443
g66
(dp2444
g93
g94
ssg75
g2433
sg68
(lp2445
S':'
asbag61
(g82
g63
NtRp2446
(dp2447
g66
(dp2448
sg75
g2433
sg68
(lp2449
g61
(g62
g63
NtRp2450
(dp2451
g66
(dp2452
g74
I3
ssg75
g2446
sg68
(lp2453
g934
asbasbasbag61
(g77
g63
NtRp2454
(dp2455
g66
(dp2456
sg75
g2345
sg68
(lp2457
g61
(g82
g63
NtRp2458
(dp2459
g66
(dp2460
g86
g87
ssg75
g2454
sg68
(lp2461
S'HTTP_CONNECTION'
p2462
asbag61
(g82
g63
NtRp2463
(dp2464
g66
(dp2465
g93
g94
ssg75
g2454
sg68
(lp2466
S':'
asbag61
(g82
g63
NtRp2467
(dp2468
g66
(dp2469
sg75
g2454
sg68
(lp2470
g61
(g62
g63
NtRp2471
(dp2472
g66
(dp2473
g74
I3
ssg75
g2467
sg68
(lp2474
g956
asbasbasbag61
(g77
g63
NtRp2475
(dp2476
g66
(dp2477
sg75
g2345
sg68
(lp2478
g61
(g82
g63
NtRp2479
(dp2480
g66
(dp2481
g86
g87
ssg75
g2475
sg68
(lp2482
S'HTTP_COOKIE'
p2483
asbag61
(g82
g63
NtRp2484
(dp2485
g66
(dp2486
g93
g94
ssg75
g2475
sg68
(lp2487
S':'
asbag61
(g82
g63
NtRp2488
(dp2489
g66
(dp2490
sg75
g2475
sg68
(lp2491
g61
(g62
g63
NtRp2492
(dp2493
g66
(dp2494
g74
I3
ssg75
g2488
sg68
(lp2495
g978
asbasbasbag61
(g77
g63
NtRp2496
(dp2497
g66
(dp2498
sg75
g2345
sg68
(lp2499
g61
(g82
g63
NtRp2500
(dp2501
g66
(dp2502
g86
g87
ssg75
g2496
sg68
(lp2503
S'HTTP_HOST'
p2504
asbag61
(g82
g63
NtRp2505
(dp2506
g66
(dp2507
g93
g94
ssg75
g2496
sg68
(lp2508
S':'
asbag61
(g82
g63
NtRp2509
(dp2510
g66
(dp2511
sg75
g2496
sg68
(lp2512
g61
(g62
g63
NtRp2513
(dp2514
g66
(dp2515
g74
I3
ssg75
g2509
sg68
(lp2516
g1000
asbasbasbag61
(g77
g63
NtRp2517
(dp2518
g66
(dp2519
sg75
g2345
sg68
(lp2520
g61
(g82
g63
NtRp2521
(dp2522
g66
(dp2523
g86
g87
ssg75
g2517
sg68
(lp2524
S'HTTP_USER_AGENT'
p2525
asbag61
(g82
g63
NtRp2526
(dp2527
g66
(dp2528
g93
g94
ssg75
g2517
sg68
(lp2529
S':'
asbag61
(g82
g63
NtRp2530
(dp2531
g66
(dp2532
sg75
g2517
sg68
(lp2533
g61
(g62
g63
NtRp2534
(dp2535
g66
(dp2536
g74
I3
ssg75
g2530
sg68
(lp2537
g1022
asbasbasbag61
(g77
g63
NtRp2538
(dp2539
g66
(dp2540
sg75
g2345
sg68
(lp2541
g61
(g82
g63
NtRp2542
(dp2543
g66
(dp2544
g86
g87
ssg75
g2538
sg68
(lp2545
S'PATH_INFO'
p2546
asbag61
(g82
g63
NtRp2547
(dp2548
g66
(dp2549
g93
g94
ssg75
g2538
sg68
(lp2550
S':'
asbag61
(g82
g63
NtRp2551
(dp2552
g66
(dp2553
sg75
g2538
sg68
(lp2554
g61
(g62
g63
NtRp2555
(dp2556
g66
(dp2557
g74
I3
ssg75
g2551
sg68
(lp2558
g1086
asbasbasbag61
(g77
g63
NtRp2559
(dp2560
g66
(dp2561
sg75
g2345
sg68
(lp2562
g61
(g82
g63
NtRp2563
(dp2564
g66
(dp2565
g86
g87
ssg75
g2559
sg68
(lp2566
S'QUERY_STRING'
p2567
asbag61
(g82
g63
NtRp2568
(dp2569
g66
(dp2570
g93
g94
ssg75
g2559
sg68
(lp2571
S':'
asbag61
(g82
g63
NtRp2572
(dp2573
g66
(dp2574
sg75
g2559
sg68
(lp2575
g61
(g62
g63
NtRp2576
(dp2577
g66
(dp2578
g74
I3
ssg75
g2572
sg68
(lp2579
S''
asbasbasbag61
(g77
g63
NtRp2580
(dp2581
g66
(dp2582
sg75
g2345
sg68
(lp2583
g61
(g82
g63
NtRp2584
(dp2585
g66
(dp2586
g86
g87
ssg75
g2580
sg68
(lp2587
S'REMOTE_ADDR'
p2588
asbag61
(g82
g63
NtRp2589
(dp2590
g66
(dp2591
g93
g94
ssg75
g2580
sg68
(lp2592
S':'
asbag61
(g82
g63
NtRp2593
(dp2594
g66
(dp2595
sg75
g2580
sg68
(lp2596
g61
(g62
g63
NtRp2597
(dp2598
g66
(dp2599
g74
I3
ssg75
g2593
sg68
(lp2600
g216
asbasbasbag61
(g77
g63
NtRp2601
(dp2602
g66
(dp2603
sg75
g2345
sg68
(lp2604
g61
(g82
g63
NtRp2605
(dp2606
g66
(dp2607
g86
g87
ssg75
g2601
sg68
(lp2608
S'REMOTE_PORT'
p2609
asbag61
(g82
g63
NtRp2610
(dp2611
g66
(dp2612
g93
g94
ssg75
g2601
sg68
(lp2613
S':'
asbag61
(g82
g63
NtRp2614
(dp2615
g66
(dp2616
sg75
g2601
sg68
(lp2617
g61
(g62
g63
NtRp2618
(dp2619
g66
(dp2620
g74
I3
ssg75
g2614
sg68
(lp2621
g1150
asbasbasbag61
(g77
g63
NtRp2622
(dp2623
g66
(dp2624
sg75
g2345
sg68
(lp2625
g61
(g82
g63
NtRp2626
(dp2627
g66
(dp2628
g86
g87
ssg75
g2622
sg68
(lp2629
S'REQUEST_METHOD'
p2630
asbag61
(g82
g63
NtRp2631
(dp2632
g66
(dp2633
g93
g94
ssg75
g2622
sg68
(lp2634
S':'
asbag61
(g82
g63
NtRp2635
(dp2636
g66
(dp2637
sg75
g2622
sg68
(lp2638
g61
(g62
g63
NtRp2639
(dp2640
g66
(dp2641
g74
I3
ssg75
g2635
sg68
(lp2642
g1172
asbasbasbag61
(g77
g63
NtRp2643
(dp2644
g66
(dp2645
sg75
g2345
sg68
(lp2646
g61
(g82
g63
NtRp2647
(dp2648
g66
(dp2649
g86
g87
ssg75
g2643
sg68
(lp2650
S'REQUEST_URI'
p2651
asbag61
(g82
g63
NtRp2652
(dp2653
g66
(dp2654
g93
g94
ssg75
g2643
sg68
(lp2655
S':'
asbag61
(g82
g63
NtRp2656
(dp2657
g66
(dp2658
sg75
g2643
sg68
(lp2659
g61
(g62
g63
NtRp2660
(dp2661
g66
(dp2662
g74
I3
ssg75
g2656
sg68
(lp2663
g1194
asbasbasbag61
(g77
g63
NtRp2664
(dp2665
g66
(dp2666
sg75
g2345
sg68
(lp2667
g61
(g82
g63
NtRp2668
(dp2669
g66
(dp2670
g86
g87
ssg75
g2664
sg68
(lp2671
S'SCRIPT_NAME'
p2672
asbag61
(g82
g63
NtRp2673
(dp2674
g66
(dp2675
g93
g94
ssg75
g2664
sg68
(lp2676
S':'
asbag61
(g82
g63
NtRp2677
(dp2678
g66
(dp2679
sg75
g2664
sg68
(lp2680
g61
(g62
g63
NtRp2681
(dp2682
g66
(dp2683
g74
I3
ssg75
g2677
sg68
(lp2684
S''
asbasbasbag61
(g77
g63
NtRp2685
(dp2686
g66
(dp2687
sg75
g2345
sg68
(lp2688
g61
(g82
g63
NtRp2689
(dp2690
g66
(dp2691
g86
g87
ssg75
g2685
sg68
(lp2692
S'SERVER_NAME'
p2693
asbag61
(g82
g63
NtRp2694
(dp2695
g66
(dp2696
g93
g94
ssg75
g2685
sg68
(lp2697
S':'
asbag61
(g82
g63
NtRp2698
(dp2699
g66
(dp2700
sg75
g2685
sg68
(lp2701
g61
(g62
g63
NtRp2702
(dp2703
g66
(dp2704
g74
I3
ssg75
g2698
sg68
(lp2705
g1237
asbasbasbag61
(g77
g63
NtRp2706
(dp2707
g66
(dp2708
sg75
g2345
sg68
(lp2709
g61
(g82
g63
NtRp2710
(dp2711
g66
(dp2712
g86
g87
ssg75
g2706
sg68
(lp2713
S'SERVER_PORT'
p2714
asbag61
(g82
g63
NtRp2715
(dp2716
g66
(dp2717
g93
g94
ssg75
g2706
sg68
(lp2718
S':'
asbag61
(g82
g63
NtRp2719
(dp2720
g66
(dp2721
sg75
g2706
sg68
(lp2722
g61
(g62
g63
NtRp2723
(dp2724
g66
(dp2725
g74
I3
ssg75
g2719
sg68
(lp2726
g1259
asbasbasbag61
(g77
g63
NtRp2727
(dp2728
g66
(dp2729
sg75
g2345
sg68
(lp2730
g61
(g82
g63
NtRp2731
(dp2732
g66
(dp2733
g86
g87
ssg75
g2727
sg68
(lp2734
S'SERVER_PROTOCOL'
p2735
asbag61
(g82
g63
NtRp2736
(dp2737
g66
(dp2738
g93
g94
ssg75
g2727
sg68
(lp2739
S':'
asbag61
(g82
g63
NtRp2740
(dp2741
g66
(dp2742
sg75
g2727
sg68
(lp2743
g61
(g62
g63
NtRp2744
(dp2745
g66
(dp2746
g74
I3
ssg75
g2740
sg68
(lp2747
g1281
asbasbasbag61
(g77
g63
NtRp2748
(dp2749
g66
(dp2750
sg75
g2345
sg68
(lp2751
g61
(g82
g63
NtRp2752
(dp2753
g66
(dp2754
g86
g87
ssg75
g2748
sg68
(lp2755
S'SERVER_SOFTWARE'
p2756
asbag61
(g82
g63
NtRp2757
(dp2758
g66
(dp2759
g93
g94
ssg75
g2748
sg68
(lp2760
S':'
asbag61
(g82
g63
NtRp2761
(dp2762
g66
(dp2763
sg75
g2748
sg68
(lp2764
g61
(g62
g63
NtRp2765
(dp2766
g66
(dp2767
g74
I3
ssg75
g2761
sg68
(lp2768
g1303
asbasbasbag61
(g77
g63
NtRp2769
(dp2770
g66
(dp2771
sg75
g2345
sg68
(lp2772
g61
(g82
g63
NtRp2773
(dp2774
g66
(dp2775
g86
g87
ssg75
g2769
sg68
(lp2776
S'WEB2PY_ORIGINAL_URI'
p2777
asbag61
(g82
g63
NtRp2778
(dp2779
g66
(dp2780
g93
g94
ssg75
g2769
sg68
(lp2781
S':'
asbag61
(g82
g63
NtRp2782
(dp2783
g66
(dp2784
sg75
g2769
sg68
(lp2785
g61
(g62
g63
NtRp2786
(dp2787
g66
(dp2788
g74
I3
ssg75
g2782
sg68
(lp2789
g1086
asbasbasbag61
(g77
g63
NtRp2790
(dp2791
g66
(dp2792
sg75
g2345
sg68
(lp2793
g61
(g82
g63
NtRp2794
(dp2795
g66
(dp2796
g86
g87
ssg75
g2790
sg68
(lp2797
S'wsgi.errors'
p2798
asbag61
(g82
g63
NtRp2799
(dp2800
g66
(dp2801
g93
g94
ssg75
g2790
sg68
(lp2802
S':'
asbag61
(g82
g63
NtRp2803
(dp2804
g66
(dp2805
sg75
g2790
sg68
(lp2806
g61
(g62
g63
NtRp2807
(dp2808
g66
(dp2809
g74
I3
ssg75
g2803
sg68
(lp2810
S"<open file '<stderr>', mode 'w' at 0x7f4aa448f270>"
p2811
asbasbasbag61
(g77
g63
NtRp2812
(dp2813
g66
(dp2814
sg75
g2345
sg68
(lp2815
g61
(g82
g63
NtRp2816
(dp2817
g66
(dp2818
g86
g87
ssg75
g2812
sg68
(lp2819
S'wsgi.file_wrapper'
p2820
asbag61
(g82
g63
NtRp2821
(dp2822
g66
(dp2823
g93
g94
ssg75
g2812
sg68
(lp2824
S':'
asbag61
(g82
g63
NtRp2825
(dp2826
g66
(dp2827
sg75
g2812
sg68
(lp2828
g61
(g62
g63
NtRp2829
(dp2830
g66
(dp2831
g74
I3
ssg75
g2825
sg68
(lp2832
S'<class wsgiref.util.FileWrapper at 0x2655598>'
p2833
asbasbasbag61
(g77
g63
NtRp2834
(dp2835
g66
(dp2836
sg75
g2345
sg68
(lp2837
g61
(g82
g63
NtRp2838
(dp2839
g66
(dp2840
g86
g87
ssg75
g2834
sg68
(lp2841
S'wsgi.input'
p2842
asbag61
(g82
g63
NtRp2843
(dp2844
g66
(dp2845
g93
g94
ssg75
g2834
sg68
(lp2846
S':'
asbag61
(g82
g63
NtRp2847
(dp2848
g66
(dp2849
sg75
g2834
sg68
(lp2850
g61
(g62
g63
NtRp2851
(dp2852
g66
(dp2853
g74
I3
ssg75
g2847
sg68
(lp2854
S'<cStringIO.StringO object at 0x271a308>'
p2855
asbasbasbag61
(g77
g63
NtRp2856
(dp2857
g66
(dp2858
sg75
g2345
sg68
(lp2859
g61
(g82
g63
NtRp2860
(dp2861
g66
(dp2862
g86
g87
ssg75
g2856
sg68
(lp2863
S'wsgi.multiprocess'
p2864
asbag61
(g82
g63
NtRp2865
(dp2866
g66
(dp2867
g93
g94
ssg75
g2856
sg68
(lp2868
S':'
asbag61
(g82
g63
NtRp2869
(dp2870
g66
(dp2871
sg75
g2856
sg68
(lp2872
g61
(g62
g63
NtRp2873
(dp2874
g66
(dp2875
g74
I3
ssg75
g2869
sg68
(lp2876
g104
asbasbasbag61
(g77
g63
NtRp2877
(dp2878
g66
(dp2879
sg75
g2345
sg68
(lp2880
g61
(g82
g63
NtRp2881
(dp2882
g66
(dp2883
g86
g87
ssg75
g2877
sg68
(lp2884
S'wsgi.multithread'
p2885
asbag61
(g82
g63
NtRp2886
(dp2887
g66
(dp2888
g93
g94
ssg75
g2877
sg68
(lp2889
S':'
asbag61
(g82
g63
NtRp2890
(dp2891
g66
(dp2892
sg75
g2877
sg68
(lp2893
g61
(g62
g63
NtRp2894
(dp2895
g66
(dp2896
g74
I3
ssg75
g2890
sg68
(lp2897
g1541
asbasbasbag61
(g77
g63
NtRp2898
(dp2899
g66
(dp2900
sg75
g2345
sg68
(lp2901
g61
(g82
g63
NtRp2902
(dp2903
g66
(dp2904
g86
g87
ssg75
g2898
sg68
(lp2905
S'wsgi.run_once'
p2906
asbag61
(g82
g63
NtRp2907
(dp2908
g66
(dp2909
g93
g94
ssg75
g2898
sg68
(lp2910
S':'
asbag61
(g82
g63
NtRp2911
(dp2912
g66
(dp2913
sg75
g2898
sg68
(lp2914
g61
(g62
g63
NtRp2915
(dp2916
g66
(dp2917
g74
I3
ssg75
g2911
sg68
(lp2918
g104
asbasbasbag61
(g77
g63
NtRp2919
(dp2920
g66
(dp2921
sg75
g2345
sg68
(lp2922
g61
(g82
g63
NtRp2923
(dp2924
g66
(dp2925
g86
g87
ssg75
g2919
sg68
(lp2926
S'wsgi.url_scheme'
p2927
asbag61
(g82
g63
NtRp2928
(dp2929
g66
(dp2930
g93
g94
ssg75
g2919
sg68
(lp2931
S':'
asbag61
(g82
g63
NtRp2932
(dp2933
g66
(dp2934
sg75
g2919
sg68
(lp2935
g61
(g62
g63
NtRp2936
(dp2937
g66
(dp2938
g74
I3
ssg75
g2932
sg68
(lp2939
g1584
asbasbasbag61
(g77
g63
NtRp2940
(dp2941
g66
(dp2942
sg75
g2345
sg68
(lp2943
g61
(g82
g63
NtRp2944
(dp2945
g66
(dp2946
g86
g87
ssg75
g2940
sg68
(lp2947
S'wsgi.version'
p2948
asbag61
(g82
g63
NtRp2949
(dp2950
g66
(dp2951
g93
g94
ssg75
g2940
sg68
(lp2952
S':'
asbag61
(g82
g63
NtRp2953
(dp2954
g66
(dp2955
sg75
g2940
sg68
(lp2956
g61
(g62
g63
NtRp2957
(dp2958
g66
(dp2959
g74
I3
ssg75
g2953
sg68
(lp2960
S'1'
asbasbasbasbasbasbasbasbasbasbasbasbasbsS'frames'
p2961
(lp2962
(dp2963
S'file'
p2964
S'/var/www/conferencia/gluon/restricted.py'
p2965
sS'dump'
p2966
(dp2967
S'environment'
p2968
S"{'A': <class 'gluon.html.A'>, 'Auth': <class 'gluon.tools.Auth'>, 'B': <class 'gluon.html.B'>, 'BEAUTIFY': <class 'gluon.html.BEAUTIFY'>, 'BODY': <class 'gluon.html.BODY'>, 'BR': <class 'gluon.html.BR'>, 'BUTTON': <class 'gluon.html.BUTTON'>, 'CAT': <class 'gluon.html.CAT'>, 'CENTER': <class 'gluon.html.CENTER'>, 'CLEANUP': <class 'gluon.validators.CLEANUP'>, ...}"
p2969
sS'ccode'
p2970
S'<code object <module> at 0x2453030, file "/var/w...a/applications/projeto/models/models.py", line 1>'
p2971
ssS'lnum'
p2972
I212
sS'lines'
p2973
(dp2974
I207
S'    try:'
p2975
sI208
S'        if isinstance(code, types.CodeType):'
p2976
sI209
S'            ccode = code'
p2977
sI210
S'        else:'
p2978
sI211
S'            ccode = compile2(code, layer)'
p2979
sI212
S'        exec ccode in environment'
p2980
sI213
S'    except HTTP:'
p2981
sI214
S'        raise'
p2982
sI215
S'    except RestrictedError:'
p2983
sI216
S'        # do not encapsulate (obfuscate) the original RestrictedError'
p2984
ssS'call'
p2985
S'(code=\'usuario = db.define_table("usuario",\\n      Field...suario\\\'),\\n      primarykey=[\\\'confno\\\']\\n      )\\n\\n\\n\\n\', environment={\'A\': <class \'gluon.html.A\'>, \'Auth\': <class \'gluon.tools.Auth\'>, \'B\': <class \'gluon.html.B\'>, \'BEAUTIFY\': <class \'gluon.html.BEAUTIFY\'>, \'BODY\': <class \'gluon.html.BODY\'>, \'BR\': <class \'gluon.html.BR\'>, \'BUTTON\': <class \'gluon.html.BUTTON\'>, \'CAT\': <class \'gluon.html.CAT\'>, \'CENTER\': <class \'gluon.html.CENTER\'>, \'CLEANUP\': <class \'gluon.validators.CLEANUP\'>, ...}, layer=\'/var/www/conferencia/applications/projeto/models/models.py\')'
p2986
sS'func'
p2987
S'restricted'
p2988
sa(dp2989
g2964
S'/var/www/conferencia/applications/projeto/models/models.py'
p2990
sg2966
(dp2991
S'primarykey'
p2992
S'undefined'
p2993
ssg2972
I14
sg2973
(dp2994
I9
S'meetme = db.define_table("meetme",'
p2995
sI10
S'      Field("confno", "id"),'
p2996
sI11
S'      Field("starttime", "datetime"),'
p2997
sI12
S'      Field("endtime", "datetime"),'
p2998
sI13
S'      Field("membros_user", \'list:reference usuario\'),'
p2999
sI14
S"      primarykey=['confno']"
p3000
sI15
S'      )'
p3001
sI16
S''
sI17
S''
sI18
S''
ssg2985
S'()'
p3002
sg2987
S'<module>'
p3003
sa(dp3004
g2964
S'/var/www/conferencia/gluon/dal.py'
p3005
sg2966
(dp3006
S'fields'
p3007
S'(<gluon.dal.Field object>, <gluon.dal.Field object>, <gluon.dal.Field object>, <gluon.dal.Field object>)'
p3008
sS'self'
p3009
S'<DAL uri="postgres:pg8000://******:123456@127.0.0.1/conferencia">'
p3010
sS'args'
p3011
S"{'primarykey': ['confno']}"
p3012
sS'tablename'
p3013
S"'meetme'"
p3014
sS'table'
p3015
g2993
sS'self.lazy_define_table'
p3016
S'<bound method DAL.lazy_define_table of <DAL uri=...s:pg8000://******:123456@127.0.0.1/conferencia">>'
p3017
ssg2972
I7186
sg2973
(dp3018
I7181
S'                    % (tablename,invalid_args))'
p3019
sI7182
S'        if self._lazy_tables and not tablename in self._LAZY_TABLES:'
p3020
sI7183
S'            self._LAZY_TABLES[tablename] = (tablename,fields,args)'
p3021
sI7184
S'            table = None'
p3022
sI7185
S'        else:'
p3023
sI7186
S'            table = self.lazy_define_table(tablename,*fields,**args)'
p3024
sI7187
S'        if not tablename in self.tables:'
p3025
sI7188
S'            self.tables.append(tablename)'
p3026
sI7189
S'        return table'
p3027
sI7190
S''
ssg2985
S'(self=<DAL uri="postgres:pg8000://******:123456@127.0.0.1/conferencia">, tablename=\'meetme\', *fields=(<gluon.dal.Field object>, <gluon.dal.Field object>, <gluon.dal.Field object>, <gluon.dal.Field object>), **args={\'primarykey\': [\'confno\']})'
p3028
sg2987
S'define_table'
p3029
sa(dp3030
g2964
S'/var/www/conferencia/gluon/dal.py'
p3031
sg2966
(dp3032
S'polymodel'
p3033
S'None'
p3034
ssg2972
I7222
sg2973
(dp3035
I7217
S"            polymodel = args_get('polymodel',None)"
p3036
sI7218
S'            try:'
p3037
sI7219
S'                GLOBAL_LOCKER.acquire()'
p3038
sI7220
S'                self._adapter.create_table(table,migrate=migrate,'
p3039
sI7221
S'                                           fake_migrate=fake_migrate,'
p3040
sI7222
S'                                           polymodel=polymodel)'
p3041
sI7223
S'            finally:'
p3042
sI7224
S'                GLOBAL_LOCKER.release()'
p3043
sI7225
S'        else:'
p3044
sI7226
S'            table._dbt = None'
p3045
ssg2985
S'(self=<DAL uri="postgres:pg8000://******:123456@127.0.0.1/conferencia">, tablename=\'meetme\', *fields=(<gluon.dal.Field object>, <gluon.dal.Field object>, <gluon.dal.Field object>, <gluon.dal.Field object>), **args={\'primarykey\': [\'confno\']})'
p3046
sg2987
S'lazy_define_table'
p3047
sa(dp3048
g2964
S'/var/www/conferencia/gluon/dal.py'
p3049
sg2966
(dp3050
S'query'
p3051
S"'CREATE TABLE meetme(\\n    confno SERIAL PRIMARY K...    membros_user TEXT,\\n    PRIMARY KEY(confno)) ;'"
p3052
sS'self'
p3053
S'<gluon.dal.PostgreSQLAdapter object>'
p3054
sS'table'
p3055
S'<Table meetme (confno,starttime,endtime,membros_user)>'
p3056
sS'self.create_sequence_and_triggers'
p3057
S'<bound method PostgreSQLAdapter.create_sequence_...triggers of <gluon.dal.PostgreSQLAdapter object>>'
p3058
ssg2972
I935
sg2973
(dp3059
I930
S'            if table._dbt:'
p3060
sI931
S"                logfile.write('timestamp: %s\\n'"
p3061
sI932
S'                               % datetime.datetime.today().isoformat())'
p3062
sI933
S"                logfile.write(query + '\\n')"
p3063
sI934
S'            if not fake_migrate:'
p3064
sI935
S'                self.create_sequence_and_triggers(query,table)'
p3065
sI936
S'                table._db.commit()'
p3066
sI937
S'                # Postgres geom fields are added now,'
p3067
sI938
S'                # after the table has been created'
p3068
sI939
S'                for query in postcreation_fields:'
p3069
ssg2985
S'(self=<gluon.dal.PostgreSQLAdapter object>, table=<Table meetme (confno,starttime,endtime,membros_user)>, migrate=True, fake_migrate=False, polymodel=None)'
p3070
sg2987
S'create_table'
p3071
sa(dp3072
g2964
S'/var/www/conferencia/gluon/dal.py'
p3073
sg2966
(dp3074
S'query'
p3075
S"'CREATE TABLE meetme(\\n    confno SERIAL PRIMARY K...    membros_user TEXT,\\n    PRIMARY KEY(confno)) ;'"
p3076
sS'self'
p3077
S'<gluon.dal.PostgreSQLAdapter object>'
p3078
sS'self.execute'
p3079
S'<bound method PostgreSQLAdapter.execute of <gluon.dal.PostgreSQLAdapter object>>'
p3080
ssg2972
I2483
sg2973
(dp3081
I2478
S'    def create_sequence_and_triggers(self, query, table, **args):'
p3082
sI2479
S'        # following lines should only be executed if table._sequence_name does not exist'
p3083
sI2480
S"        # self.execute('CREATE SEQUENCE %s;' % table._sequence_name)"
p3084
sI2481
S'        # self.execute("ALTER TABLE %s ALTER COLUMN %s SET DEFAULT NEXTVAL(\'%s\');" \\'
p3085
sI2482
S'        #              % (table._tablename, table._fieldname, table._sequence_name))'
p3086
sI2483
S'        self.execute(query)'
p3087
sI2484
S''
sI2485
S"    REGEX_URI = re.compile('^(?P<user>[^:@]+)(\\:(?P<password>[^@]*))?@(?P<host>[^\\:@]+)(\\:(?P<port>[0-9]+))?/(?P<db>[^\\?]+)(\\?sslmode=(?P<sslmode>.+))?$')"
p3088
sI2486
S''
sI2487
S"    def __init__(self,db,uri,pool_size=0,folder=None,db_codec ='UTF-8',"
p3089
ssg2985
S"(self=<gluon.dal.PostgreSQLAdapter object>, query='CREATE TABLE meetme(\\n    confno SERIAL PRIMARY K...    membros_user TEXT,\\n    PRIMARY KEY(confno)) ;', table=<Table meetme (confno,starttime,endtime,membros_user)>, **args={})"
p3090
sg2987
S'create_sequence_and_triggers'
p3091
sa(dp3092
g2964
S'/var/www/conferencia/gluon/dal.py'
p3093
sg2966
(dp3094
S'a'
S"('CREATE TABLE meetme(\\n    confno SERIAL PRIMARY K...    membros_user TEXT,\\n    PRIMARY KEY(confno)) ;',)"
p3095
sS'self'
p3096
S'<gluon.dal.PostgreSQLAdapter object>'
p3097
sS'b'
g21
sS'self.log_execute'
p3098
S'<bound method PostgreSQLAdapter.log_execute of <gluon.dal.PostgreSQLAdapter object>>'
p3099
ssg2972
I1709
sg2973
(dp3100
I1704
S'        self.db._timings.append((command,time.time()-t0))'
p3101
sI1705
S'        del self.db._timings[:-TIMINGSSIZE]'
p3102
sI1706
S'        return ret'
p3103
sI1707
S''
sI1708
S'    def execute(self, *a, **b):'
p3104
sI1709
S'        return self.log_execute(*a, **b)'
p3105
sI1710
S''
sI1711
S'    def represent(self, obj, fieldtype):'
p3106
sI1712
S'        field_is_type = fieldtype.startswith'
p3107
sI1713
S'        if isinstance(obj, CALLABLETYPES):'
p3108
ssg2985
S"(self=<gluon.dal.PostgreSQLAdapter object>, *a=('CREATE TABLE meetme(\\n    confno SERIAL PRIMARY K...    membros_user TEXT,\\n    PRIMARY KEY(confno)) ;',), **b={})"
p3109
sg2987
S'execute'
p3110
sa(dp3111
g2964
S'/var/www/conferencia/gluon/dal.py'
p3112
sg2966
(dp3113
S'a'
S"('CREATE TABLE meetme(\\n    confno SERIAL PRIMARY K...    membros_user TEXT,\\n    PRIMARY KEY(confno)) ;',)"
p3114
sS'b'
g21
sS'self'
p3115
S'<gluon.dal.PostgreSQLAdapter object>'
p3116
sS'ret'
p3117
g2993
sS'self.cursor'
p3118
S'<gluon.contrib.pg8000.dbapi.CursorWrapper object>'
p3119
sS'self.cursor.execute'
p3120
S'<bound method CursorWrapper._fn of <gluon.contrib.pg8000.dbapi.CursorWrapper object>>'
p3121
ssg2972
I1703
sg2973
(dp3122
I1698
S'        command = a[0]'
p3123
sI1699
S'        if self.db._debug:'
p3124
sI1700
S"            LOGGER.debug('SQL: %s' % command)"
p3125
sI1701
S'        self.db._lastsql = command'
p3126
sI1702
S'        t0 = time.time()'
p3127
sI1703
S'        ret = self.cursor.execute(*a, **b)'
p3128
sI1704
S'        self.db._timings.append((command,time.time()-t0))'
p3129
sI1705
S'        del self.db._timings[:-TIMINGSSIZE]'
p3130
sI1706
S'        return ret'
p3131
sI1707
S''
ssg2985
S"(self=<gluon.dal.PostgreSQLAdapter object>, *a=('CREATE TABLE meetme(\\n    confno SERIAL PRIMARY K...    membros_user TEXT,\\n    PRIMARY KEY(confno)) ;',), **b={})"
p3132
sg2987
S'log_execute'
p3133
sa(dp3134
g2964
S'/var/www/conferencia/gluon/contrib/pg8000/dbapi.py'
p3135
sg2966
(dp3136
S'self'
p3137
S'<gluon.contrib.pg8000.dbapi.CursorWrapper object>'
p3138
sS'args'
p3139
S"('CREATE TABLE meetme(\\n    confno SERIAL PRIMARY K...    membros_user TEXT,\\n    PRIMARY KEY(confno)) ;',)"
p3140
sS'fn'
p3141
S'<function execute>'
p3142
sS'kwargs'
p3143
g21
ssg2972
I246
sg2973
(dp3144
I241
S''
sI242
S'def require_open_cursor(fn):'
p3145
sI243
S'    def _fn(self, *args, **kwargs):'
p3146
sI244
S'        if self.cursor == None:'
p3147
sI245
S'            raise CursorClosedError()'
p3148
sI246
S'        return fn(self, *args, **kwargs)'
p3149
sI247
S'    return _fn'
p3150
sI248
S''
sI249
S'##'
p3151
sI250
S'# The class of object returned by the {@link #ConnectionWrapper.cursor cursor method}.'
p3152
ssg2985
S"(self=<gluon.contrib.pg8000.dbapi.CursorWrapper object>, *args=('CREATE TABLE meetme(\\n    confno SERIAL PRIMARY K...    membros_user TEXT,\\n    PRIMARY KEY(confno)) ;',), **kwargs={})"
p3153
sg2987
S'_fn'
p3154
sa(dp3155
g2964
S'/var/www/conferencia/gluon/contrib/pg8000/dbapi.py'
p3156
sg2966
(dp3157
S'self._execute'
p3158
S'<bound method CursorWrapper._execute of <gluon.contrib.pg8000.dbapi.CursorWrapper object>>'
p3159
sS'self'
p3160
S'<gluon.contrib.pg8000.dbapi.CursorWrapper object>'
p3161
sS'args'
p3162
S'()'
p3163
sS'operation'
p3164
S"'CREATE TABLE meetme(\\n    confno SERIAL PRIMARY K...    membros_user TEXT,\\n    PRIMARY KEY(confno)) ;'"
p3165
ssg2972
I317
sg2973
(dp3166
I320
S'        new_query, new_args = convert_paramstyle(paramstyle, operation, args)'
p3167
sI321
S'        try:'
p3168
sI312
S'    @require_open_cursor'
p3169
sI313
S'    def execute(self, operation, args=()):'
p3170
sI314
S'        if not self._connection.in_transaction:'
p3171
sI315
S'            self._connection.begin()'
p3172
sI316
S'        self._override_rowcount = None'
p3173
sI317
S'        self._execute(operation, args)'
p3174
sI318
S''
sI319
S'    def _execute(self, operation, args=()):'
p3175
ssg2985
S"(self=<gluon.contrib.pg8000.dbapi.CursorWrapper object>, operation='CREATE TABLE meetme(\\n    confno SERIAL PRIMARY K...    membros_user TEXT,\\n    PRIMARY KEY(confno)) ;', args=())"
p3176
sg2987
g3110
sa(dp3177
g2964
S'/var/www/conferencia/gluon/contrib/pg8000/dbapi.py'
p3178
sg2966
(dp3179
S'new_args'
p3180
S'()'
p3181
sS'self.cursor'
p3182
S'<gluon.contrib.pg8000.interface.Cursor object>'
p3183
sS'self'
p3184
S'<gluon.contrib.pg8000.dbapi.CursorWrapper object>'
p3185
sS'new_query'
p3186
S"'CREATE TABLE meetme(\\n    confno SERIAL PRIMARY K...    membros_user TEXT,\\n    PRIMARY KEY(confno)) ;'"
p3187
sS'self.cursor.execute'
p3188
S'<bound method Cursor.execute of <gluon.contrib.pg8000.interface.Cursor object>>'
p3189
ssg2972
I322
sg2973
(dp3190
I320
S'        new_query, new_args = convert_paramstyle(paramstyle, operation, args)'
p3191
sI321
S'        try:'
p3192
sI322
S'            self.cursor.execute(new_query, *new_args)'
p3193
sI323
S'        except ConnectionClosedError:'
p3194
sI324
S"            # can't rollback in this case"
p3195
sI325
S'            raise'
p3196
sI326
S'        except:'
p3197
sI317
S'        self._execute(operation, args)'
p3198
sI318
S''
sI319
S'    def _execute(self, operation, args=()):'
p3199
ssg2985
S"(self=<gluon.contrib.pg8000.dbapi.CursorWrapper object>, operation='CREATE TABLE meetme(\\n    confno SERIAL PRIMARY K...    membros_user TEXT,\\n    PRIMARY KEY(confno)) ;', args=())"
p3200
sg2987
S'_execute'
p3201
sa(dp3202
g2964
S'/var/www/conferencia/gluon/contrib/pg8000/interface.py'
p3203
sg2966
(dp3204
S'self._stmt.execute'
p3205
S'<bound method PreparedStatement.execute of <gluo...ntrib.pg8000.interface.PreparedStatement object>>'
p3206
sS'kwargs'
p3207
g21
sS'self'
p3208
S'<gluon.contrib.pg8000.interface.Cursor object>'
p3209
sS'args'
p3210
S'()'
p3211
sS'self._stmt'
p3212
S'<gluon.contrib.pg8000.interface.PreparedStatement object>'
p3213
ssg2972
I399
sg2973
(dp3214
I394
S'                ## print "SimpleQuery:", query'
p3215
sI395
S'                self._stmt = SimpleStatement(self.connection, query)'
p3216
sI396
S'            else:'
p3217
sI397
S'                # use PostgreSQL Extended Query Protocol'
p3218
sI398
S'                self._stmt = PreparedStatement(self.connection, query, statement_name="", *[{"type": type(x), "value": x} for x in args])'
p3219
sI399
S'            self._stmt.execute(*args, **kwargs)'
p3220
sI400
S'        finally:'
p3221
sI401
S'            self.connection._unnamed_prepared_statement_lock.release()'
p3222
sI402
S''
sI403
S'    ##'
p3223
ssg2985
S"(self=<gluon.contrib.pg8000.interface.Cursor object>, query='CREATE TABLE meetme(\\n    confno SERIAL PRIMARY K...    membros_user TEXT,\\n    PRIMARY KEY(confno)) ;', *args=(), **kwargs={})"
p3224
sg2987
g3110
sa(dp3225
g2964
S'/var/www/conferencia/gluon/contrib/pg8000/interface.py'
p3226
sg2966
(dp3227
S'kwargs.get'
p3228
S'<built-in method get of dict object>'
p3229
sS'args'
p3230
S'()'
p3231
sS'self.c'
p3232
S'<gluon.contrib.pg8000.protocol.Connection object>'
p3233
sS'self'
p3234
S'<gluon.contrib.pg8000.interface.PreparedStatement object>'
p3235
sS'cmd'
p3236
g2993
sS'self._row_desc'
p3237
S'None'
p3238
sS'self.c.bind'
p3239
S'<bound method Connection._fn of <gluon.contrib.pg8000.protocol.Connection object>>'
p3240
sS'self._statement_name'
p3241
S"''"
p3242
sS'self._parse_row_desc'
p3243
S'(None, [])'
p3244
sS'kwargs'
p3245
g21
sS'self._portal_name'
p3246
S"'pg8000_portal_11'"
p3247
ssg2972
I169
sg2973
(dp3248
I164
S'                self._ongoing_row_count = 0'
p3249
sI165
S'            if self._portal_name != None:'
p3250
sI166
S'                self.c.close_portal(self._portal_name)'
p3251
sI167
S'            self._command_complete = False'
p3252
sI168
S'            self._portal_name = "pg8000_portal_%s" % self._statement_number'
p3253
sI169
S'            self._row_desc, cmd = self.c.bind(self._portal_name, self._statement_name, args, self._parse_row_desc, kwargs.get("stream"))'
p3254
sI170
S'            if self._row_desc:'
p3255
sI171
S'                # We execute our cursor right away to fill up our cache.  This'
p3256
sI172
S'                # prevents the cursor from being destroyed, apparently, by a rogue'
p3257
sI173
S'                # Sync between Bind and Execute.  Since it is quite likely that'
p3258
ssg2985
S'(self=<gluon.contrib.pg8000.interface.PreparedStatement object>, *args=(), **kwargs={})'
p3259
sg2987
g3110
sa(dp3260
g2964
S'/var/www/conferencia/gluon/contrib/pg8000/protocol.py'
p3261
sg2966
(dp3262
S'self'
p3263
S'<gluon.contrib.pg8000.protocol.Connection object>'
p3264
sS'args'
p3265
S"('pg8000_portal_11', '', (), (None, []), None)"
p3266
sS'fn'
p3267
S'<function bind>'
p3268
sS'kwargs'
p3269
g21
ssg2972
I943
sg2973
(dp3270
I938
S''
sI939
S'def sync_on_error(fn):'
p3271
sI940
S'    def _fn(self, *args, **kwargs):'
p3272
sI941
S'        try:'
p3273
sI942
S'            self._sock_lock.acquire()'
p3274
sI943
S'            return fn(self, *args, **kwargs)'
p3275
sI944
S'        except:'
p3276
sI945
S'            self._sync()'
p3277
sI946
S'            raise'
p3278
sI947
S'        finally:'
p3279
ssg2985
S"(self=<gluon.contrib.pg8000.protocol.Connection object>, *args=('pg8000_portal_11', '', (), (None, []), None), **kwargs={})"
p3280
sg2987
g3154
sa(dp3281
g2964
S'/var/www/conferencia/gluon/contrib/pg8000/protocol.py'
p3282
sg2966
(dp3283
S'reader.handle_messages'
p3284
S'<bound method MessageReader.handle_messages of <gluon.contrib.pg8000.protocol.MessageReader object>>'
p3285
sS'reader'
p3286
S'<gluon.contrib.pg8000.protocol.MessageReader object>'
p3287
ssg2972
I1142
sg2973
(dp3288
I1137
S''
sI1138
S'        # Return the new row desc, since it will have the format types we'
p3289
sI1139
S'        # asked the server for'
p3290
sI1140
S'        reader.add_message(RowDescription, lambda msg: (msg, None))'
p3291
sI1141
S''
sI1142
S'        return reader.handle_messages()'
p3292
sI1143
S''
sI1144
S'    def _copy_in_response(self, copyin, fileobj, old_reader):'
p3293
sI1145
S'        if fileobj == None:'
p3294
sI1146
S'            raise CopyQueryWithoutStreamError()'
p3295
ssg2985
S"(self=<gluon.contrib.pg8000.protocol.Connection object>, portal='pg8000_portal_11', statement='', params=(), parse_data=(None, []), copy_stream=None)"
p3296
sg2987
S'bind'
p3297
sa(dp3298
g2964
S'/var/www/conferencia/gluon/contrib/pg8000/protocol.py'
p3299
sg2966
(dp3300
S'msg'
p3301
S'<gluon.contrib.pg8000.protocol.NoData object>'
p3302
sS'handler'
p3303
S'<bound method Connection._bind_nodata of <gluon.contrib.pg8000.protocol.Connection object>>'
p3304
sS'retval'
p3305
S'0'
sS'args'
p3306
S"('pg8000_portal_11', <gluon.contrib.pg8000.protocol.MessageReader object>, None)"
p3307
sS'kwargs'
p3308
g21
ssg2972
I911
sg2973
(dp3309
I906
S'            msg = self._conn._read_message()'
p3310
sI907
S'            msg_handled = False'
p3311
sI908
S'            for (msg_class, handler, args, kwargs) in self._msgs:'
p3312
sI909
S'                if isinstance(msg, msg_class):'
p3313
sI910
S'                    msg_handled = True'
p3314
sI911
S'                    retval = handler(msg, *args, **kwargs)'
p3315
sI912
S'                    if retval:'
p3316
sI913
S'                        # The handler returned a true value, meaning that the'
p3317
sI914
S'                        # message loop should be aborted.'
p3318
sI915
S'                        if exc != None:'
p3319
ssg2985
S'(self=<gluon.contrib.pg8000.protocol.MessageReader object>)'
p3320
sg2987
S'handle_messages'
p3321
sa(dp3322
g2964
S'/var/www/conferencia/gluon/contrib/pg8000/protocol.py'
p3323
sg2966
(dp3324
S'reader.handle_messages'
p3325
S'<bound method MessageReader.handle_messages of <gluon.contrib.pg8000.protocol.MessageReader object>>'
p3326
sS'reader'
p3327
S'<gluon.contrib.pg8000.protocol.MessageReader object>'
p3328
ssg2972
I1181
sg2973
(dp3329
I1184
S''
sI1185
S'    @sync_on_error'
p3330
sI1176
S'        reader.add_message(CopyOutResponse, self._copy_out_response, copy_stream, reader)'
p3331
sI1177
S'        reader.add_message(CopyInResponse, self._copy_in_response, copy_stream, reader)'
p3332
sI1178
S"        reader.add_message(CommandComplete, lambda msg, out: out.setdefault('msg', msg) and False, output)"
p3333
sI1179
S'        reader.add_message(ReadyForQuery, lambda msg: 1)'
p3334
sI1180
S'        reader.delay_raising_exception = True'
p3335
sI1181
S'        reader.handle_messages()'
p3336
sI1182
S''
sI1183
S"        old_reader.return_value((None, output['msg']))"
p3337
ssg2985
S"(self=<gluon.contrib.pg8000.protocol.Connection object>, msg=<gluon.contrib.pg8000.protocol.NoData object>, portal='pg8000_portal_11', old_reader=<gluon.contrib.pg8000.protocol.MessageReader object>, copy_stream=None)"
p3338
sg2987
S'_bind_nodata'
p3339
sa(dp3340
g2964
S'/var/www/conferencia/gluon/contrib/pg8000/protocol.py'
p3341
sg2966
(dp3342
S'exc'
p3343
S'ProgrammingError(\'ERROR\', \'42P16\', \'multiple primary keys for table "meetme" are not allowed\')'
p3344
ssg2972
I916
sg2973
(dp3345
I911
S'                    retval = handler(msg, *args, **kwargs)'
p3346
sI912
S'                    if retval:'
p3347
sI913
S'                        # The handler returned a true value, meaning that the'
p3348
sI914
S'                        # message loop should be aborted.'
p3349
sI915
S'                        if exc != None:'
p3350
sI916
S'                            raise exc'
p3351
sI917
S'                        return retval'
p3352
sI918
S'                    elif hasattr(self, "_retval"):'
p3353
sI919
S'                        # The handler told us to return -- used for non-true'
p3354
sI920
S'                        # return values'
p3355
ssg2985
S'(self=<gluon.contrib.pg8000.protocol.MessageReader object>)'
p3356
sg2987
g3321
sasS'pyver'
p3357
S'Python 2.7.3: /usr/bin/python'
p3358
sS'session'
p3359
g61
(g62
g63
NtRp3360
(dp3361
g66
(dp3362
sg68
(lp3363
g61
(g70
g63
NtRp3364
(dp3365
g66
(dp3366
g74
I5
ssg75
Nsg68
(lp3367
g61
(g77
g63
NtRp3368
(dp3369
g66
(dp3370
sg75
g3364
sg68
(lp3371
g61
(g82
g63
NtRp3372
(dp3373
g66
(dp3374
g86
g87
ssg75
g3368
sg68
(lp3375
S'flash'
p3376
asbag61
(g82
g63
NtRp3377
(dp3378
g66
(dp3379
g93
g94
ssg75
g3368
sg68
(lp3380
S':'
asbag61
(g82
g63
NtRp3381
(dp3382
g66
(dp3383
sg75
g3368
sg68
(lp3384
g61
(g62
g63
NtRp3385
(dp3386
g66
(dp3387
g74
I5
ssg75
g3381
sg68
(lp3388
S'None'
p3389
asbasbasbasbasbsS'etype'
p3390
S"<class 'gluon.contrib.pg8000.errors.ProgrammingError'>"
p3391
sS'date'
p3392
S'Tue Apr  2 18:49:41 2013'
p3393
sS'response'
p3394
g61
(g62
g63
NtRp3395
(dp3396
g66
(dp3397
sg68
(lp3398
g61
(g70
g63
NtRp3399
(dp3400
g66
(dp3401
g74
I5
ssg75
Nsg68
(lp3402
g61
(g77
g63
NtRp3403
(dp3404
g66
(dp3405
sg75
g3399
sg68
(lp3406
g61
(g82
g63
NtRp3407
(dp3408
g66
(dp3409
g86
g87
ssg75
g3403
sg68
(lp3410
g159
asbag61
(g82
g63
NtRp3411
(dp3412
g66
(dp3413
g93
g94
ssg75
g3403
sg68
(lp3414
S':'
asbag61
(g82
g63
NtRp3415
(dp3416
g66
(dp3417
sg75
g3403
sg68
(lp3418
g61
(g62
g63
NtRp3419
(dp3420
g66
(dp3421
g74
I5
ssg75
g3415
sg68
(lp3422
S'<cStringIO.StringO object at 0x26f3fb8>'
p3423
asbasbasbag61
(g77
g63
NtRp3424
(dp3425
g66
(dp3426
sg75
g3399
sg68
(lp3427
g61
(g82
g63
NtRp3428
(dp3429
g66
(dp3430
g86
g87
ssg75
g3424
sg68
(lp3431
g247
asbag61
(g82
g63
NtRp3432
(dp3433
g66
(dp3434
g93
g94
ssg75
g3424
sg68
(lp3435
S':'
asbag61
(g82
g63
NtRp3436
(dp3437
g66
(dp3438
sg75
g3424
sg68
(lp3439
g61
(g62
g63
NtRp3440
(dp3441
g66
(dp3442
g74
I5
ssg75
g3436
sg68
(lp3443
g61
(g70
g63
NtRp3444
(dp3445
g66
(dp3446
g74
I4
ssg75
Nsg68
(lp3447
g61
(g77
g63
NtRp3448
(dp3449
g66
(dp3450
sg75
g3444
sg68
(lp3451
g61
(g82
g63
NtRp3452
(dp3453
g66
(dp3454
g86
g87
ssg75
g3448
sg68
(lp3455
S'session_id_projeto'
p3456
asbag61
(g82
g63
NtRp3457
(dp3458
g66
(dp3459
g93
g94
ssg75
g3448
sg68
(lp3460
S':'
asbag61
(g82
g63
NtRp3461
(dp3462
g66
(dp3463
sg75
g3448
sg68
(lp3464
g61
(g62
g63
NtRp3465
(dp3466
g66
(dp3467
g74
I4
ssg75
g3461
sg68
(lp3468
g479
ag61
(g70
g63
NtRp3469
(dp3470
g66
(dp3471
g74
I3
ssg75
Nsg68
(lp3472
g61
(g77
g63
NtRp3473
(dp3474
g66
(dp3475
sg75
g3469
sg68
(lp3476
g61
(g82
g63
NtRp3477
(dp3478
g66
(dp3479
g86
g87
ssg75
g3473
sg68
(lp3480
g298
asbag61
(g82
g63
NtRp3481
(dp3482
g66
(dp3483
g93
g94
ssg75
g3473
sg68
(lp3484
S':'
asbag61
(g82
g63
NtRp3485
(dp3486
g66
(dp3487
sg75
g3473
sg68
(lp3488
g61
(g62
g63
NtRp3489
(dp3490
g66
(dp3491
g74
I3
ssg75
g3485
sg68
(lp3492
S''
asbasbasbag61
(g77
g63
NtRp3493
(dp3494
g66
(dp3495
sg75
g3469
sg68
(lp3496
g61
(g82
g63
NtRp3497
(dp3498
g66
(dp3499
g86
g87
ssg75
g3493
sg68
(lp3500
g319
asbag61
(g82
g63
NtRp3501
(dp3502
g66
(dp3503
g93
g94
ssg75
g3493
sg68
(lp3504
S':'
asbag61
(g82
g63
NtRp3505
(dp3506
g66
(dp3507
sg75
g3493
sg68
(lp3508
g61
(g62
g63
NtRp3509
(dp3510
g66
(dp3511
g74
I3
ssg75
g3505
sg68
(lp3512
S''
asbasbasbag61
(g77
g63
NtRp3513
(dp3514
g66
(dp3515
sg75
g3469
sg68
(lp3516
g61
(g82
g63
NtRp3517
(dp3518
g66
(dp3519
g86
g87
ssg75
g3513
sg68
(lp3520
g340
asbag61
(g82
g63
NtRp3521
(dp3522
g66
(dp3523
g93
g94
ssg75
g3513
sg68
(lp3524
S':'
asbag61
(g82
g63
NtRp3525
(dp3526
g66
(dp3527
sg75
g3513
sg68
(lp3528
g61
(g62
g63
NtRp3529
(dp3530
g66
(dp3531
g74
I3
ssg75
g3525
sg68
(lp3532
S''
asbasbasbag61
(g77
g63
NtRp3533
(dp3534
g66
(dp3535
sg75
g3469
sg68
(lp3536
g61
(g82
g63
NtRp3537
(dp3538
g66
(dp3539
g86
g87
ssg75
g3533
sg68
(lp3540
g361
asbag61
(g82
g63
NtRp3541
(dp3542
g66
(dp3543
g93
g94
ssg75
g3533
sg68
(lp3544
S':'
asbag61
(g82
g63
NtRp3545
(dp3546
g66
(dp3547
sg75
g3533
sg68
(lp3548
g61
(g62
g63
NtRp3549
(dp3550
g66
(dp3551
g74
I3
ssg75
g3545
sg68
(lp3552
S''
asbasbasbag61
(g77
g63
NtRp3553
(dp3554
g66
(dp3555
sg75
g3469
sg68
(lp3556
g61
(g82
g63
NtRp3557
(dp3558
g66
(dp3559
g86
g87
ssg75
g3553
sg68
(lp3560
g382
asbag61
(g82
g63
NtRp3561
(dp3562
g66
(dp3563
g93
g94
ssg75
g3553
sg68
(lp3564
S':'
asbag61
(g82
g63
NtRp3565
(dp3566
g66
(dp3567
sg75
g3553
sg68
(lp3568
g61
(g62
g63
NtRp3569
(dp3570
g66
(dp3571
g74
I3
ssg75
g3565
sg68
(lp3572
S''
asbasbasbag61
(g77
g63
NtRp3573
(dp3574
g66
(dp3575
sg75
g3469
sg68
(lp3576
g61
(g82
g63
NtRp3577
(dp3578
g66
(dp3579
g86
g87
ssg75
g3573
sg68
(lp3580
g403
asbag61
(g82
g63
NtRp3581
(dp3582
g66
(dp3583
g93
g94
ssg75
g3573
sg68
(lp3584
S':'
asbag61
(g82
g63
NtRp3585
(dp3586
g66
(dp3587
sg75
g3573
sg68
(lp3588
g61
(g62
g63
NtRp3589
(dp3590
g66
(dp3591
g74
I3
ssg75
g3585
sg68
(lp3592
S'/'
asbasbasbag61
(g77
g63
NtRp3593
(dp3594
g66
(dp3595
sg75
g3469
sg68
(lp3596
g61
(g82
g63
NtRp3597
(dp3598
g66
(dp3599
g86
g87
ssg75
g3593
sg68
(lp3600
g424
asbag61
(g82
g63
NtRp3601
(dp3602
g66
(dp3603
g93
g94
ssg75
g3593
sg68
(lp3604
S':'
asbag61
(g82
g63
NtRp3605
(dp3606
g66
(dp3607
sg75
g3593
sg68
(lp3608
g61
(g62
g63
NtRp3609
(dp3610
g66
(dp3611
g74
I3
ssg75
g3605
sg68
(lp3612
S''
asbasbasbag61
(g77
g63
NtRp3613
(dp3614
g66
(dp3615
sg75
g3469
sg68
(lp3616
g61
(g82
g63
NtRp3617
(dp3618
g66
(dp3619
g86
g87
ssg75
g3613
sg68
(lp3620
g445
asbag61
(g82
g63
NtRp3621
(dp3622
g66
(dp3623
g93
g94
ssg75
g3613
sg68
(lp3624
S':'
asbag61
(g82
g63
NtRp3625
(dp3626
g66
(dp3627
sg75
g3613
sg68
(lp3628
g61
(g62
g63
NtRp3629
(dp3630
g66
(dp3631
g74
I3
ssg75
g3625
sg68
(lp3632
S''
asbasbasbasbasbasbasbasbasbasbasbag61
(g77
g63
NtRp3633
(dp3634
g66
(dp3635
sg75
g3399
sg68
(lp3636
g61
(g82
g63
NtRp3637
(dp3638
g66
(dp3639
g86
g87
ssg75
g3633
sg68
(lp3640
S'delimiters'
p3641
asbag61
(g82
g63
NtRp3642
(dp3643
g66
(dp3644
g93
g94
ssg75
g3633
sg68
(lp3645
S':'
asbag61
(g82
g63
NtRp3646
(dp3647
g66
(dp3648
sg75
g3633
sg68
(lp3649
g61
(g62
g63
NtRp3650
(dp3651
g66
(dp3652
g74
I5
ssg75
g3646
sg68
(lp3653
g61
(g70
g63
NtRp3654
(dp3655
g66
(dp3656
g74
I4
ssg75
Nsg68
(lp3657
g61
(g77
g63
NtRp3658
(dp3659
g66
(dp3660
sg75
g3654
sg68
(lp3661
g61
(g82
g63
NtRp3662
(dp3663
g66
(dp3664
sg75
g3658
sg68
(lp3665
g61
(g62
g63
NtRp3666
(dp3667
g66
(dp3668
g74
I4
ssg75
g3662
sg68
(lp3669
S'{{'
p3670
asbasbasbag61
(g77
g63
NtRp3671
(dp3672
g66
(dp3673
sg75
g3654
sg68
(lp3674
g61
(g82
g63
NtRp3675
(dp3676
g66
(dp3677
sg75
g3671
sg68
(lp3678
g61
(g62
g63
NtRp3679
(dp3680
g66
(dp3681
g74
I4
ssg75
g3675
sg68
(lp3682
S'}}'
p3683
asbasbasbasbasbasbasbag61
(g77
g63
NtRp3684
(dp3685
g66
(dp3686
sg75
g3399
sg68
(lp3687
g61
(g82
g63
NtRp3688
(dp3689
g66
(dp3690
g86
g87
ssg75
g3684
sg68
(lp3691
S'files'
p3692
asbag61
(g82
g63
NtRp3693
(dp3694
g66
(dp3695
g93
g94
ssg75
g3684
sg68
(lp3696
S':'
asbag61
(g82
g63
NtRp3697
(dp3698
g66
(dp3699
sg75
g3684
sg68
(lp3700
g61
(g62
g63
NtRp3701
(dp3702
g66
(dp3703
g74
I5
ssg75
g3697
sg68
(lp3704
g61
(g70
g63
NtRp3705
(dp3706
g66
(dp3707
g74
I4
ssg75
Nsg68
(lp3708
sbasbasbasbag61
(g77
g63
NtRp3709
(dp3710
g66
(dp3711
sg75
g3399
sg68
(lp3712
g61
(g82
g63
NtRp3713
(dp3714
g66
(dp3715
g86
g87
ssg75
g3709
sg68
(lp3716
S'flash'
p3717
asbag61
(g82
g63
NtRp3718
(dp3719
g66
(dp3720
g93
g94
ssg75
g3709
sg68
(lp3721
S':'
asbag61
(g82
g63
NtRp3722
(dp3723
g66
(dp3724
sg75
g3709
sg68
(lp3725
g61
(g62
g63
NtRp3726
(dp3727
g66
(dp3728
g74
I5
ssg75
g3722
sg68
(lp3729
S''
asbasbasbag61
(g77
g63
NtRp3730
(dp3731
g66
(dp3732
sg75
g3399
sg68
(lp3733
g61
(g82
g63
NtRp3734
(dp3735
g66
(dp3736
g86
g87
ssg75
g3730
sg68
(lp3737
S'generic_patterns'
p3738
asbag61
(g82
g63
NtRp3739
(dp3740
g66
(dp3741
g93
g94
ssg75
g3730
sg68
(lp3742
S':'
asbag61
(g82
g63
NtRp3743
(dp3744
g66
(dp3745
sg75
g3730
sg68
(lp3746
g61
(g62
g63
NtRp3747
(dp3748
g66
(dp3749
g74
I5
ssg75
g3743
sg68
(lp3750
g61
(g70
g63
NtRp3751
(dp3752
g66
(dp3753
g74
I4
ssg75
Nsg68
(lp3754
g61
(g77
g63
NtRp3755
(dp3756
g66
(dp3757
sg75
g3751
sg68
(lp3758
g61
(g82
g63
NtRp3759
(dp3760
g66
(dp3761
sg75
g3755
sg68
(lp3762
g61
(g62
g63
NtRp3763
(dp3764
g66
(dp3765
g74
I4
ssg75
g3759
sg68
(lp3766
S'*'
asbasbasbasbasbasbasbag61
(g77
g63
NtRp3767
(dp3768
g66
(dp3769
sg75
g3399
sg68
(lp3770
g61
(g82
g63
NtRp3771
(dp3772
g66
(dp3773
g86
g87
ssg75
g3767
sg68
(lp3774
S'google_analytics_id'
p3775
asbag61
(g82
g63
NtRp3776
(dp3777
g66
(dp3778
g93
g94
ssg75
g3767
sg68
(lp3779
S':'
asbag61
(g82
g63
NtRp3780
(dp3781
g66
(dp3782
sg75
g3767
sg68
(lp3783
g61
(g62
g63
NtRp3784
(dp3785
g66
(dp3786
g74
I5
ssg75
g3780
sg68
(lp3787
S'None'
p3788
asbasbasbag61
(g77
g63
NtRp3789
(dp3790
g66
(dp3791
sg75
g3399
sg68
(lp3792
g61
(g82
g63
NtRp3793
(dp3794
g66
(dp3795
g86
g87
ssg75
g3789
sg68
(lp3796
S'headers'
p3797
asbag61
(g82
g63
NtRp3798
(dp3799
g66
(dp3800
g93
g94
ssg75
g3789
sg68
(lp3801
S':'
asbag61
(g82
g63
NtRp3802
(dp3803
g66
(dp3804
sg75
g3789
sg68
(lp3805
g61
(g62
g63
NtRp3806
(dp3807
g66
(dp3808
g74
I5
ssg75
g3802
sg68
(lp3809
g61
(g70
g63
NtRp3810
(dp3811
g66
(dp3812
g74
I4
ssg75
Nsg68
(lp3813
g61
(g77
g63
NtRp3814
(dp3815
g66
(dp3816
sg75
g3810
sg68
(lp3817
g61
(g82
g63
NtRp3818
(dp3819
g66
(dp3820
g86
g87
ssg75
g3814
sg68
(lp3821
S'X-Powered-By'
p3822
asbag61
(g82
g63
NtRp3823
(dp3824
g66
(dp3825
g93
g94
ssg75
g3814
sg68
(lp3826
S':'
asbag61
(g82
g63
NtRp3827
(dp3828
g66
(dp3829
sg75
g3814
sg68
(lp3830
g61
(g62
g63
NtRp3831
(dp3832
g66
(dp3833
g74
I4
ssg75
g3827
sg68
(lp3834
S'web2py'
p3835
asbasbasbasbasbasbasbag61
(g77
g63
NtRp3836
(dp3837
g66
(dp3838
sg75
g3399
sg68
(lp3839
g61
(g82
g63
NtRp3840
(dp3841
g66
(dp3842
g86
g87
ssg75
g3836
sg68
(lp3843
S'logo'
p3844
asbag61
(g82
g63
NtRp3845
(dp3846
g66
(dp3847
g93
g94
ssg75
g3836
sg68
(lp3848
S':'
asbag61
(g82
g63
NtRp3849
(dp3850
g66
(dp3851
sg75
g3836
sg68
(lp3852
g61
(g62
g63
NtRp3853
(dp3854
g66
(dp3855
g74
I5
ssg75
g3849
sg68
(lp3856
g61
(cgluon.html
A
p3857
g63
NtRp3858
(dp3859
g66
(dp3860
S'_class'
p3861
S'brand'
p3862
sS'_href'
p3863
S'principal'
p3864
ssg75
Nsg68
(lp3865
g61
(cgluon.html
B
p3866
g63
NtRp3867
(dp3868
g66
(dp3869
sg75
g3858
sg68
(lp3870
S'hosts'
p3871
ag61
(cgluon.html
SPAN
p3872
g63
NtRp3873
(dp3874
g66
(dp3875
sg75
g3867
sg68
(lp3876
S'3'
asbaS''
asbacgluon.html
XML_unpickle
p3877
(S's\r\x00\x00\x00&trade;&nbsp;'
tRp3878
asbasbasbasbag61
(g77
g63
NtRp3879
(dp3880
g66
(dp3881
sg75
g3399
sg68
(lp3882
g61
(g82
g63
NtRp3883
(dp3884
g66
(dp3885
g86
g87
ssg75
g3879
sg68
(lp3886
S'menu'
p3887
asbag61
(g82
g63
NtRp3888
(dp3889
g66
(dp3890
g93
g94
ssg75
g3879
sg68
(lp3891
S':'
asbag61
(g82
g63
NtRp3892
(dp3893
g66
(dp3894
sg75
g3879
sg68
(lp3895
g61
(g62
g63
NtRp3896
(dp3897
g66
(dp3898
g74
I5
ssg75
g3892
sg68
(lp3899
g61
(g70
g63
NtRp3900
(dp3901
g66
(dp3902
g74
I4
ssg75
Nsg68
(lp3903
g61
(g77
g63
NtRp3904
(dp3905
g66
(dp3906
sg75
g3900
sg68
(lp3907
g61
(g82
g63
NtRp3908
(dp3909
g66
(dp3910
sg75
g3904
sg68
(lp3911
g61
(g62
g63
NtRp3912
(dp3913
g66
(dp3914
g74
I4
ssg75
g3908
sg68
(lp3915
g61
(g70
g63
NtRp3916
(dp3917
g66
(dp3918
g74
I3
ssg75
Nsg68
(lp3919
g61
(g77
g63
NtRp3920
(dp3921
g66
(dp3922
sg75
g3916
sg68
(lp3923
g61
(g82
g63
NtRp3924
(dp3925
g66
(dp3926
sg75
g3920
sg68
(lp3927
g61
(g62
g63
NtRp3928
(dp3929
g66
(dp3930
g74
I3
ssg75
g3924
sg68
(lp3931
cgluon.languages
lazyT_unpickle
p3932
(S't\x08\x00\x00\x00Clientes'
tRp3933
asbasbasbag61
(g77
g63
NtRp3934
(dp3935
g66
(dp3936
sg75
g3916
sg68
(lp3937
g61
(g82
g63
NtRp3938
(dp3939
g66
(dp3940
sg75
g3934
sg68
(lp3941
g61
(g62
g63
NtRp3942
(dp3943
g66
(dp3944
g74
I3
ssg75
g3938
sg68
(lp3945
g104
asbasbasbag61
(g77
g63
NtRp3946
(dp3947
g66
(dp3948
sg75
g3916
sg68
(lp3949
g61
(g82
g63
NtRp3950
(dp3951
g66
(dp3952
sg75
g3946
sg68
(lp3953
g61
(g62
g63
NtRp3954
(dp3955
g66
(dp3956
g74
I3
ssg75
g3950
sg68
(lp3957
S'/show_cliente'
p3958
asbasbasbag61
(g77
g63
NtRp3959
(dp3960
g66
(dp3961
sg75
g3916
sg68
(lp3962
g61
(g82
g63
NtRp3963
(dp3964
g66
(dp3965
sg75
g3959
sg68
(lp3966
g61
(g62
g63
NtRp3967
(dp3968
g66
(dp3969
g74
I3
ssg75
g3963
sg68
(lp3970
g61
(g70
g63
NtRp3971
(dp3972
g66
(dp3973
g74
I2
ssg75
Nsg68
(lp3974
sbasbasbasbasbasbasbasbag61
(g77
g63
NtRp3975
(dp3976
g66
(dp3977
sg75
g3900
sg68
(lp3978
g61
(g82
g63
NtRp3979
(dp3980
g66
(dp3981
sg75
g3975
sg68
(lp3982
g61
(g62
g63
NtRp3983
(dp3984
g66
(dp3985
g74
I4
ssg75
g3979
sg68
(lp3986
g61
(g70
g63
NtRp3987
(dp3988
g66
(dp3989
g74
I3
ssg75
Nsg68
(lp3990
g61
(g77
g63
NtRp3991
(dp3992
g66
(dp3993
sg75
g3987
sg68
(lp3994
g61
(g82
g63
NtRp3995
(dp3996
g66
(dp3997
sg75
g3991
sg68
(lp3998
g61
(g62
g63
NtRp3999
(dp4000
g66
(dp4001
g74
I3
ssg75
g3995
sg68
(lp4002
g3932
(S't\n\x00\x00\x00Servidores'
tRp4003
asbasbasbag61
(g77
g63
NtRp4004
(dp4005
g66
(dp4006
sg75
g3987
sg68
(lp4007
g61
(g82
g63
NtRp4008
(dp4009
g66
(dp4010
sg75
g4004
sg68
(lp4011
g61
(g62
g63
NtRp4012
(dp4013
g66
(dp4014
g74
I3
ssg75
g4008
sg68
(lp4015
g104
asbasbasbag61
(g77
g63
NtRp4016
(dp4017
g66
(dp4018
sg75
g3987
sg68
(lp4019
g61
(g82
g63
NtRp4020
(dp4021
g66
(dp4022
sg75
g4016
sg68
(lp4023
g61
(g62
g63
NtRp4024
(dp4025
g66
(dp4026
g74
I3
ssg75
g4020
sg68
(lp4027
S'/show_servidor'
p4028
asbasbasbag61
(g77
g63
NtRp4029
(dp4030
g66
(dp4031
sg75
g3987
sg68
(lp4032
g61
(g82
g63
NtRp4033
(dp4034
g66
(dp4035
sg75
g4029
sg68
(lp4036
g61
(g62
g63
NtRp4037
(dp4038
g66
(dp4039
g74
I3
ssg75
g4033
sg68
(lp4040
g61
(g70
g63
NtRp4041
(dp4042
g66
(dp4043
g74
I2
ssg75
Nsg68
(lp4044
sbasbasbasbasbasbasbasbag61
(g77
g63
NtRp4045
(dp4046
g66
(dp4047
sg75
g3900
sg68
(lp4048
g61
(g82
g63
NtRp4049
(dp4050
g66
(dp4051
sg75
g4045
sg68
(lp4052
g61
(g62
g63
NtRp4053
(dp4054
g66
(dp4055
g74
I4
ssg75
g4049
sg68
(lp4056
g61
(g70
g63
NtRp4057
(dp4058
g66
(dp4059
g74
I3
ssg75
Nsg68
(lp4060
g61
(g77
g63
NtRp4061
(dp4062
g66
(dp4063
sg75
g4057
sg68
(lp4064
g61
(g82
g63
NtRp4065
(dp4066
g66
(dp4067
sg75
g4061
sg68
(lp4068
g61
(g62
g63
NtRp4069
(dp4070
g66
(dp4071
g74
I3
ssg75
g4065
sg68
(lp4072
g3932
(S't\x07\x00\x00\x00Distros'
tRp4073
asbasbasbag61
(g77
g63
NtRp4074
(dp4075
g66
(dp4076
sg75
g4057
sg68
(lp4077
g61
(g82
g63
NtRp4078
(dp4079
g66
(dp4080
sg75
g4074
sg68
(lp4081
g61
(g62
g63
NtRp4082
(dp4083
g66
(dp4084
g74
I3
ssg75
g4078
sg68
(lp4085
g104
asbasbasbag61
(g77
g63
NtRp4086
(dp4087
g66
(dp4088
sg75
g4057
sg68
(lp4089
g61
(g82
g63
NtRp4090
(dp4091
g66
(dp4092
sg75
g4086
sg68
(lp4093
g61
(g62
g63
NtRp4094
(dp4095
g66
(dp4096
g74
I3
ssg75
g4090
sg68
(lp4097
S'/show_distro'
p4098
asbasbasbag61
(g77
g63
NtRp4099
(dp4100
g66
(dp4101
sg75
g4057
sg68
(lp4102
g61
(g82
g63
NtRp4103
(dp4104
g66
(dp4105
sg75
g4099
sg68
(lp4106
g61
(g62
g63
NtRp4107
(dp4108
g66
(dp4109
g74
I3
ssg75
g4103
sg68
(lp4110
g61
(g70
g63
NtRp4111
(dp4112
g66
(dp4113
g74
I2
ssg75
Nsg68
(lp4114
sbasbasbasbasbasbasbasbag61
(g77
g63
NtRp4115
(dp4116
g66
(dp4117
sg75
g3900
sg68
(lp4118
g61
(g82
g63
NtRp4119
(dp4120
g66
(dp4121
sg75
g4115
sg68
(lp4122
g61
(g62
g63
NtRp4123
(dp4124
g66
(dp4125
g74
I4
ssg75
g4119
sg68
(lp4126
g61
(g70
g63
NtRp4127
(dp4128
g66
(dp4129
g74
I3
ssg75
Nsg68
(lp4130
g61
(g77
g63
NtRp4131
(dp4132
g66
(dp4133
sg75
g4127
sg68
(lp4134
g61
(g82
g63
NtRp4135
(dp4136
g66
(dp4137
sg75
g4131
sg68
(lp4138
g61
(g62
g63
NtRp4139
(dp4140
g66
(dp4141
g74
I3
ssg75
g4135
sg68
(lp4142
g3932
(S's\x05\x00\x00\x00+host'
tRp4143
asbasbasbag61
(g77
g63
NtRp4144
(dp4145
g66
(dp4146
sg75
g4127
sg68
(lp4147
g61
(g82
g63
NtRp4148
(dp4149
g66
(dp4150
sg75
g4144
sg68
(lp4151
g61
(g62
g63
NtRp4152
(dp4153
g66
(dp4154
g74
I3
ssg75
g4148
sg68
(lp4155
g104
asbasbasbag61
(g77
g63
NtRp4156
(dp4157
g66
(dp4158
sg75
g4127
sg68
(lp4159
g61
(g82
g63
NtRp4160
(dp4161
g66
(dp4162
sg75
g4156
sg68
(lp4163
g61
(g62
g63
NtRp4164
(dp4165
g66
(dp4166
g74
I3
ssg75
g4160
sg68
(lp4167
S'/interface'
p4168
asbasbasbag61
(g77
g63
NtRp4169
(dp4170
g66
(dp4171
sg75
g4127
sg68
(lp4172
g61
(g82
g63
NtRp4173
(dp4174
g66
(dp4175
sg75
g4169
sg68
(lp4176
g61
(g62
g63
NtRp4177
(dp4178
g66
(dp4179
g74
I3
ssg75
g4173
sg68
(lp4180
g61
(g70
g63
NtRp4181
(dp4182
g66
(dp4183
g74
I2
ssg75
Nsg68
(lp4184
sbasbasbasbasbasbasbasbasbasbasbasbag61
(g77
g63
NtRp4185
(dp4186
g66
(dp4187
sg75
g3399
sg68
(lp4188
g61
(g82
g63
NtRp4189
(dp4190
g66
(dp4191
g86
g87
ssg75
g4185
sg68
(lp4192
S'menu2'
p4193
asbag61
(g82
g63
NtRp4194
(dp4195
g66
(dp4196
g93
g94
ssg75
g4185
sg68
(lp4197
S':'
asbag61
(g82
g63
NtRp4198
(dp4199
g66
(dp4200
sg75
g4185
sg68
(lp4201
g61
(g62
g63
NtRp4202
(dp4203
g66
(dp4204
g74
I5
ssg75
g4198
sg68
(lp4205
g61
(g70
g63
NtRp4206
(dp4207
g66
(dp4208
g74
I4
ssg75
Nsg68
(lp4209
g61
(g77
g63
NtRp4210
(dp4211
g66
(dp4212
sg75
g4206
sg68
(lp4213
g61
(g82
g63
NtRp4214
(dp4215
g66
(dp4216
sg75
g4210
sg68
(lp4217
g61
(g62
g63
NtRp4218
(dp4219
g66
(dp4220
g74
I4
ssg75
g4214
sg68
(lp4221
g61
(g70
g63
NtRp4222
(dp4223
g66
(dp4224
g74
I3
ssg75
Nsg68
(lp4225
g61
(g77
g63
NtRp4226
(dp4227
g66
(dp4228
sg75
g4222
sg68
(lp4229
g61
(g82
g63
NtRp4230
(dp4231
g66
(dp4232
sg75
g4226
sg68
(lp4233
g61
(g62
g63
NtRp4234
(dp4235
g66
(dp4236
g74
I3
ssg75
g4230
sg68
(lp4237
g61
(g3872
g63
NtRp4238
(dp4239
g66
(dp4240
g3861
S'dropdown-toggle'
p4241
ssg75
Nsg68
(lp4242
S'Admin'
p4243
asbasbasbasbag61
(g77
g63
NtRp4244
(dp4245
g66
(dp4246
sg75
g4222
sg68
(lp4247
g61
(g82
g63
NtRp4248
(dp4249
g66
(dp4250
sg75
g4244
sg68
(lp4251
g61
(g62
g63
NtRp4252
(dp4253
g66
(dp4254
g74
I3
ssg75
g4248
sg68
(lp4255
g104
asbasbasbag61
(g77
g63
NtRp4256
(dp4257
g66
(dp4258
sg75
g4222
sg68
(lp4259
g61
(g82
g63
NtRp4260
(dp4261
g66
(dp4262
sg75
g4256
sg68
(lp4263
g61
(g62
g63
NtRp4264
(dp4265
g66
(dp4266
g74
I3
ssg75
g4260
sg68
(lp4267
S'#'
asbasbasbag61
(g77
g63
NtRp4268
(dp4269
g66
(dp4270
sg75
g4222
sg68
(lp4271
g61
(g82
g63
NtRp4272
(dp4273
g66
(dp4274
sg75
g4268
sg68
(lp4275
g61
(g62
g63
NtRp4276
(dp4277
g66
(dp4278
g74
I3
ssg75
g4272
sg68
(lp4279
g61
(g70
g63
NtRp4280
(dp4281
g66
(dp4282
g74
I2
ssg75
Nsg68
(lp4283
g61
(g77
g63
NtRp4284
(dp4285
g66
(dp4286
sg75
g4280
sg68
(lp4287
g61
(g82
g63
NtRp4288
(dp4289
g66
(dp4290
sg75
g4284
sg68
(lp4291
g61
(g62
g63
NtRp4292
(dp4293
g66
(dp4294
g74
I2
ssg75
g4288
sg68
(lp4295
g61
(g70
g63
NtRp4296
(dp4297
g66
(dp4298
g74
I1
ssg75
Nsg68
(lp4299
g61
(g77
g63
NtRp4300
(dp4301
g66
(dp4302
sg75
g4296
sg68
(lp4303
g61
(g82
g63
NtRp4304
(dp4305
g66
(dp4306
sg75
g4300
sg68
(lp4307
g61
(g62
g63
NtRp4308
(dp4309
g66
(dp4310
g74
I1
ssg75
g4304
sg68
(lp4311
g3932
(S's\t\x00\x00\x00Usu\xc3\xa1rios'
tRp4312
asbasbasbag61
(g77
g63
NtRp4313
(dp4314
g66
(dp4315
sg75
g4296
sg68
(lp4316
g61
(g82
g63
NtRp4317
(dp4318
g66
(dp4319
sg75
g4313
sg68
(lp4320
g61
(g62
g63
NtRp4321
(dp4322
g66
(dp4323
g74
I1
ssg75
g4317
sg68
(lp4324
I00
asbasbasbag61
(g77
g63
NtRp4325
(dp4326
g66
(dp4327
sg75
g4296
sg68
(lp4328
g61
(g82
g63
NtRp4329
(dp4330
g66
(dp4331
sg75
g4325
sg68
(lp4332
g61
(g62
g63
NtRp4333
(dp4334
g66
(dp4335
g74
I1
ssg75
g4329
sg68
(lp4336
S'/manager/users'
p4337
asbasbasbasbasbasbasbag61
(g77
g63
NtRp4338
(dp4339
g66
(dp4340
sg75
g4280
sg68
(lp4341
g61
(g82
g63
NtRp4342
(dp4343
g66
(dp4344
sg75
g4338
sg68
(lp4345
g61
(g62
g63
NtRp4346
(dp4347
g66
(dp4348
g74
I2
ssg75
g4342
sg68
(lp4349
g61
(g70
g63
NtRp4350
(dp4351
g66
(dp4352
g74
I1
ssg75
Nsg68
(lp4353
g61
(g77
g63
NtRp4354
(dp4355
g66
(dp4356
sg75
g4350
sg68
(lp4357
g61
(g82
g63
NtRp4358
(dp4359
g66
(dp4360
sg75
g4354
sg68
(lp4361
g61
(g62
g63
NtRp4362
(dp4363
g66
(dp4364
g74
I1
ssg75
g4358
sg68
(lp4365
g3932
(S't\x06\x00\x00\x00Grupos'
tRp4366
asbasbasbag61
(g77
g63
NtRp4367
(dp4368
g66
(dp4369
sg75
g4350
sg68
(lp4370
g61
(g82
g63
NtRp4371
(dp4372
g66
(dp4373
sg75
g4367
sg68
(lp4374
g61
(g62
g63
NtRp4375
(dp4376
g66
(dp4377
g74
I1
ssg75
g4371
sg68
(lp4378
I00
asbasbasbag61
(g77
g63
NtRp4379
(dp4380
g66
(dp4381
sg75
g4350
sg68
(lp4382
g61
(g82
g63
NtRp4383
(dp4384
g66
(dp4385
sg75
g4379
sg68
(lp4386
g61
(g62
g63
NtRp4387
(dp4388
g66
(dp4389
g74
I1
ssg75
g4383
sg68
(lp4390
S'/manager/groups'
p4391
asbasbasbasbasbasbasbag61
(g77
g63
NtRp4392
(dp4393
g66
(dp4394
sg75
g4280
sg68
(lp4395
g61
(g82
g63
NtRp4396
(dp4397
g66
(dp4398
sg75
g4392
sg68
(lp4399
g61
(g62
g63
NtRp4400
(dp4401
g66
(dp4402
g74
I2
ssg75
g4396
sg68
(lp4403
g61
(g70
g63
NtRp4404
(dp4405
g66
(dp4406
g74
I1
ssg75
Nsg68
(lp4407
g61
(g77
g63
NtRp4408
(dp4409
g66
(dp4410
sg75
g4404
sg68
(lp4411
g61
(g82
g63
NtRp4412
(dp4413
g66
(dp4414
sg75
g4408
sg68
(lp4415
g61
(g62
g63
NtRp4416
(dp4417
g66
(dp4418
g74
I1
ssg75
g4412
sg68
(lp4419
g3932
(S't\x07\x00\x00\x00Membros'
tRp4420
asbasbasbag61
(g77
g63
NtRp4421
(dp4422
g66
(dp4423
sg75
g4404
sg68
(lp4424
g61
(g82
g63
NtRp4425
(dp4426
g66
(dp4427
sg75
g4421
sg68
(lp4428
g61
(g62
g63
NtRp4429
(dp4430
g66
(dp4431
g74
I1
ssg75
g4425
sg68
(lp4432
I00
asbasbasbag61
(g77
g63
NtRp4433
(dp4434
g66
(dp4435
sg75
g4404
sg68
(lp4436
g61
(g82
g63
NtRp4437
(dp4438
g66
(dp4439
sg75
g4433
sg68
(lp4440
g61
(g62
g63
NtRp4441
(dp4442
g66
(dp4443
g74
I1
ssg75
g4437
sg68
(lp4444
S'/manager/membership'
p4445
asbasbasbasbasbasbasbasbasbasbasbasbasbasbasbag61
(g77
g63
NtRp4446
(dp4447
g66
(dp4448
sg75
g4206
sg68
(lp4449
g61
(g82
g63
NtRp4450
(dp4451
g66
(dp4452
sg75
g4446
sg68
(lp4453
g61
(g62
g63
NtRp4454
(dp4455
g66
(dp4456
g74
I4
ssg75
g4450
sg68
(lp4457
g61
(g70
g63
NtRp4458
(dp4459
g66
(dp4460
g74
I3
ssg75
Nsg68
(lp4461
g61
(g77
g63
NtRp4462
(dp4463
g66
(dp4464
sg75
g4458
sg68
(lp4465
g61
(g82
g63
NtRp4466
(dp4467
g66
(dp4468
sg75
g4462
sg68
(lp4469
g61
(g62
g63
NtRp4470
(dp4471
g66
(dp4472
g74
I3
ssg75
g4466
sg68
(lp4473
g61
(g3872
g63
NtRp4474
(dp4475
g66
(dp4476
g3861
g4241
ssg75
Nsg68
(lp4477
S'Login'
p4478
asbasbasbasbag61
(g77
g63
NtRp4479
(dp4480
g66
(dp4481
sg75
g4458
sg68
(lp4482
g61
(g82
g63
NtRp4483
(dp4484
g66
(dp4485
sg75
g4479
sg68
(lp4486
g61
(g62
g63
NtRp4487
(dp4488
g66
(dp4489
g74
I3
ssg75
g4483
sg68
(lp4490
g104
asbasbasbag61
(g77
g63
NtRp4491
(dp4492
g66
(dp4493
sg75
g4458
sg68
(lp4494
g61
(g82
g63
NtRp4495
(dp4496
g66
(dp4497
sg75
g4491
sg68
(lp4498
g61
(g62
g63
NtRp4499
(dp4500
g66
(dp4501
g74
I3
ssg75
g4495
sg68
(lp4502
S'#'
asbasbasbag61
(g77
g63
NtRp4503
(dp4504
g66
(dp4505
sg75
g4458
sg68
(lp4506
g61
(g82
g63
NtRp4507
(dp4508
g66
(dp4509
sg75
g4503
sg68
(lp4510
g61
(g62
g63
NtRp4511
(dp4512
g66
(dp4513
g74
I3
ssg75
g4507
sg68
(lp4514
g61
(g70
g63
NtRp4515
(dp4516
g66
(dp4517
g74
I2
ssg75
Nsg68
(lp4518
g61
(g77
g63
NtRp4519
(dp4520
g66
(dp4521
sg75
g4515
sg68
(lp4522
g61
(g82
g63
NtRp4523
(dp4524
g66
(dp4525
sg75
g4519
sg68
(lp4526
g61
(g62
g63
NtRp4527
(dp4528
g66
(dp4529
g74
I2
ssg75
g4523
sg68
(lp4530
g61
(g70
g63
NtRp4531
(dp4532
g66
(dp4533
g74
I1
ssg75
Nsg68
(lp4534
g61
(g77
g63
NtRp4535
(dp4536
g66
(dp4537
sg75
g4531
sg68
(lp4538
g61
(g82
g63
NtRp4539
(dp4540
g66
(dp4541
sg75
g4535
sg68
(lp4542
g61
(g62
g63
NtRp4543
(dp4544
g66
(dp4545
g74
I1
ssg75
g4539
sg68
(lp4546
g3932
(S't\x06\x00\x00\x00Logout'
tRp4547
asbasbasbag61
(g77
g63
NtRp4548
(dp4549
g66
(dp4550
sg75
g4531
sg68
(lp4551
g61
(g82
g63
NtRp4552
(dp4553
g66
(dp4554
sg75
g4548
sg68
(lp4555
g61
(g62
g63
NtRp4556
(dp4557
g66
(dp4558
g74
I1
ssg75
g4552
sg68
(lp4559
I00
asbasbasbag61
(g77
g63
NtRp4560
(dp4561
g66
(dp4562
sg75
g4531
sg68
(lp4563
g61
(g82
g63
NtRp4564
(dp4565
g66
(dp4566
sg75
g4560
sg68
(lp4567
g61
(g62
g63
NtRp4568
(dp4569
g66
(dp4570
g74
I1
ssg75
g4564
sg68
(lp4571
S'/initial/user/logout'
p4572
asbasbasbasbasbasbasbasbasbasbasbasbasbasbasbasbasbasbasbag61
(g77
g63
NtRp4573
(dp4574
g66
(dp4575
sg75
g3399
sg68
(lp4576
g61
(g82
g63
NtRp4577
(dp4578
g66
(dp4579
g86
g87
ssg75
g4573
sg68
(lp4580
S'meta'
p4581
asbag61
(g82
g63
NtRp4582
(dp4583
g66
(dp4584
g93
g94
ssg75
g4573
sg68
(lp4585
S':'
asbag61
(g82
g63
NtRp4586
(dp4587
g66
(dp4588
sg75
g4573
sg68
(lp4589
g61
(g62
g63
NtRp4590
(dp4591
g66
(dp4592
g74
I5
ssg75
g4586
sg68
(lp4593
g61
(g70
g63
NtRp4594
(dp4595
g66
(dp4596
g74
I4
ssg75
Nsg68
(lp4597
g61
(g77
g63
NtRp4598
(dp4599
g66
(dp4600
sg75
g4594
sg68
(lp4601
g61
(g82
g63
NtRp4602
(dp4603
g66
(dp4604
g86
g87
ssg75
g4598
sg68
(lp4605
S'author'
p4606
asbag61
(g82
g63
NtRp4607
(dp4608
g66
(dp4609
g93
g94
ssg75
g4598
sg68
(lp4610
S':'
asbag61
(g82
g63
NtRp4611
(dp4612
g66
(dp4613
sg75
g4598
sg68
(lp4614
g61
(g62
g63
NtRp4615
(dp4616
g66
(dp4617
g74
I4
ssg75
g4611
sg68
(lp4618
S'Your Name <you@example.com>'
p4619
asbasbasbag61
(g77
g63
NtRp4620
(dp4621
g66
(dp4622
sg75
g4594
sg68
(lp4623
g61
(g82
g63
NtRp4624
(dp4625
g66
(dp4626
g86
g87
ssg75
g4620
sg68
(lp4627
S'description'
p4628
asbag61
(g82
g63
NtRp4629
(dp4630
g66
(dp4631
g93
g94
ssg75
g4620
sg68
(lp4632
S':'
asbag61
(g82
g63
NtRp4633
(dp4634
g66
(dp4635
sg75
g4620
sg68
(lp4636
g61
(g62
g63
NtRp4637
(dp4638
g66
(dp4639
g74
I4
ssg75
g4633
sg68
(lp4640
S'a cool new app'
p4641
asbasbasbag61
(g77
g63
NtRp4642
(dp4643
g66
(dp4644
sg75
g4594
sg68
(lp4645
g61
(g82
g63
NtRp4646
(dp4647
g66
(dp4648
g86
g87
ssg75
g4642
sg68
(lp4649
S'generator'
p4650
asbag61
(g82
g63
NtRp4651
(dp4652
g66
(dp4653
g93
g94
ssg75
g4642
sg68
(lp4654
S':'
asbag61
(g82
g63
NtRp4655
(dp4656
g66
(dp4657
sg75
g4642
sg68
(lp4658
g61
(g62
g63
NtRp4659
(dp4660
g66
(dp4661
g74
I4
ssg75
g4655
sg68
(lp4662
S'Web2py Web Framework'
p4663
asbasbasbag61
(g77
g63
NtRp4664
(dp4665
g66
(dp4666
sg75
g4594
sg68
(lp4667
g61
(g82
g63
NtRp4668
(dp4669
g66
(dp4670
g86
g87
ssg75
g4664
sg68
(lp4671
S'keywords'
p4672
asbag61
(g82
g63
NtRp4673
(dp4674
g66
(dp4675
g93
g94
ssg75
g4664
sg68
(lp4676
S':'
asbag61
(g82
g63
NtRp4677
(dp4678
g66
(dp4679
sg75
g4664
sg68
(lp4680
g61
(g62
g63
NtRp4681
(dp4682
g66
(dp4683
g74
I4
ssg75
g4677
sg68
(lp4684
S'web2py, python, framework'
p4685
asbasbasbasbasbasbasbag61
(g77
g63
NtRp4686
(dp4687
g66
(dp4688
sg75
g3399
sg68
(lp4689
g61
(g82
g63
NtRp4690
(dp4691
g66
(dp4692
g86
g87
ssg75
g4686
sg68
(lp4693
S'models_to_run'
p4694
asbag61
(g82
g63
NtRp4695
(dp4696
g66
(dp4697
g93
g94
ssg75
g4686
sg68
(lp4698
S':'
asbag61
(g82
g63
NtRp4699
(dp4700
g66
(dp4701
sg75
g4686
sg68
(lp4702
g61
(g62
g63
NtRp4703
(dp4704
g66
(dp4705
g74
I5
ssg75
g4699
sg68
(lp4706
g61
(g70
g63
NtRp4707
(dp4708
g66
(dp4709
g74
I4
ssg75
Nsg68
(lp4710
g61
(g77
g63
NtRp4711
(dp4712
g66
(dp4713
sg75
g4707
sg68
(lp4714
g61
(g82
g63
NtRp4715
(dp4716
g66
(dp4717
sg75
g4711
sg68
(lp4718
g61
(g62
g63
NtRp4719
(dp4720
g66
(dp4721
g74
I4
ssg75
g4715
sg68
(lp4722
S'^\\w+\\.py$'
p4723
asbasbasbag61
(g77
g63
NtRp4724
(dp4725
g66
(dp4726
sg75
g4707
sg68
(lp4727
g61
(g82
g63
NtRp4728
(dp4729
g66
(dp4730
sg75
g4724
sg68
(lp4731
g61
(g62
g63
NtRp4732
(dp4733
g66
(dp4734
g74
I4
ssg75
g4728
sg68
(lp4735
S'^initial/\\w+\\.py$'
p4736
asbasbasbag61
(g77
g63
NtRp4737
(dp4738
g66
(dp4739
sg75
g4707
sg68
(lp4740
g61
(g82
g63
NtRp4741
(dp4742
g66
(dp4743
sg75
g4737
sg68
(lp4744
g61
(g62
g63
NtRp4745
(dp4746
g66
(dp4747
g74
I4
ssg75
g4741
sg68
(lp4748
S'^initial/show_cliente/\\w+\\.py$'
p4749
asbasbasbasbasbasbasbag61
(g77
g63
NtRp4750
(dp4751
g66
(dp4752
sg75
g3399
sg68
(lp4753
g61
(g82
g63
NtRp4754
(dp4755
g66
(dp4756
g86
g87
ssg75
g4750
sg68
(lp4757
S'postprocessing'
p4758
asbag61
(g82
g63
NtRp4759
(dp4760
g66
(dp4761
g93
g94
ssg75
g4750
sg68
(lp4762
S':'
asbag61
(g82
g63
NtRp4763
(dp4764
g66
(dp4765
sg75
g4750
sg68
(lp4766
g61
(g62
g63
NtRp4767
(dp4768
g66
(dp4769
g74
I5
ssg75
g4763
sg68
(lp4770
g61
(g70
g63
NtRp4771
(dp4772
g66
(dp4773
g74
I4
ssg75
Nsg68
(lp4774
sbasbasbasbag61
(g77
g63
NtRp4775
(dp4776
g66
(dp4777
sg75
g3399
sg68
(lp4778
g61
(g82
g63
NtRp4779
(dp4780
g66
(dp4781
g86
g87
ssg75
g4775
sg68
(lp4782
S'session_cookie_expires'
p4783
asbag61
(g82
g63
NtRp4784
(dp4785
g66
(dp4786
g93
g94
ssg75
g4775
sg68
(lp4787
S':'
asbag61
(g82
g63
NtRp4788
(dp4789
g66
(dp4790
sg75
g4775
sg68
(lp4791
g61
(g62
g63
NtRp4792
(dp4793
g66
(dp4794
g74
I5
ssg75
g4788
sg68
(lp4795
S'None'
p4796
asbasbasbag61
(g77
g63
NtRp4797
(dp4798
g66
(dp4799
sg75
g3399
sg68
(lp4800
g61
(g82
g63
NtRp4801
(dp4802
g66
(dp4803
g86
g87
ssg75
g4797
sg68
(lp4804
S'session_data_name'
p4805
asbag61
(g82
g63
NtRp4806
(dp4807
g66
(dp4808
g93
g94
ssg75
g4797
sg68
(lp4809
S':'
asbag61
(g82
g63
NtRp4810
(dp4811
g66
(dp4812
sg75
g4797
sg68
(lp4813
g61
(g62
g63
NtRp4814
(dp4815
g66
(dp4816
g74
I5
ssg75
g4810
sg68
(lp4817
S'session_data_projeto'
p4818
asbasbasbag61
(g77
g63
NtRp4819
(dp4820
g66
(dp4821
sg75
g3399
sg68
(lp4822
g61
(g82
g63
NtRp4823
(dp4824
g66
(dp4825
g86
g87
ssg75
g4819
sg68
(lp4826
S'session_file'
p4827
asbag61
(g82
g63
NtRp4828
(dp4829
g66
(dp4830
g93
g94
ssg75
g4819
sg68
(lp4831
S':'
asbag61
(g82
g63
NtRp4832
(dp4833
g66
(dp4834
sg75
g4819
sg68
(lp4835
g61
(g62
g63
NtRp4836
(dp4837
g66
(dp4838
g74
I5
ssg75
g4832
sg68
(lp4839
S"<open file '/var/www/conferencia/applications/projeto/sessions/127.0.0.1-0fe02c32-0739-4f06-a369-3bba6377da8b', mode 'rb+' at 0x25be660>"
p4840
asbasbasbag61
(g77
g63
NtRp4841
(dp4842
g66
(dp4843
sg75
g3399
sg68
(lp4844
g61
(g82
g63
NtRp4845
(dp4846
g66
(dp4847
g86
g87
ssg75
g4841
sg68
(lp4848
S'session_filename'
p4849
asbag61
(g82
g63
NtRp4850
(dp4851
g66
(dp4852
g93
g94
ssg75
g4841
sg68
(lp4853
S':'
asbag61
(g82
g63
NtRp4854
(dp4855
g66
(dp4856
sg75
g4841
sg68
(lp4857
g61
(g62
g63
NtRp4858
(dp4859
g66
(dp4860
g74
I5
ssg75
g4854
sg68
(lp4861
S'/var/www/conferencia/applications/projeto/sessions/127.0.0.1-0fe02c32-0739-4f06-a369-3bba6377da8b'
p4862
asbasbasbag61
(g77
g63
NtRp4863
(dp4864
g66
(dp4865
sg75
g3399
sg68
(lp4866
g61
(g82
g63
NtRp4867
(dp4868
g66
(dp4869
g86
g87
ssg75
g4863
sg68
(lp4870
S'session_id'
p4871
asbag61
(g82
g63
NtRp4872
(dp4873
g66
(dp4874
g93
g94
ssg75
g4863
sg68
(lp4875
S':'
asbag61
(g82
g63
NtRp4876
(dp4877
g66
(dp4878
sg75
g4863
sg68
(lp4879
g61
(g62
g63
NtRp4880
(dp4881
g66
(dp4882
g74
I5
ssg75
g4876
sg68
(lp4883
g479
asbasbasbag61
(g77
g63
NtRp4884
(dp4885
g66
(dp4886
sg75
g3399
sg68
(lp4887
g61
(g82
g63
NtRp4888
(dp4889
g66
(dp4890
g86
g87
ssg75
g4884
sg68
(lp4891
S'session_id_name'
p4892
asbag61
(g82
g63
NtRp4893
(dp4894
g66
(dp4895
g93
g94
ssg75
g4884
sg68
(lp4896
S':'
asbag61
(g82
g63
NtRp4897
(dp4898
g66
(dp4899
sg75
g4884
sg68
(lp4900
g61
(g62
g63
NtRp4901
(dp4902
g66
(dp4903
g74
I5
ssg75
g4897
sg68
(lp4904
g3456
asbasbasbag61
(g77
g63
NtRp4905
(dp4906
g66
(dp4907
sg75
g3399
sg68
(lp4908
g61
(g82
g63
NtRp4909
(dp4910
g66
(dp4911
g86
g87
ssg75
g4905
sg68
(lp4912
S'session_locked'
p4913
asbag61
(g82
g63
NtRp4914
(dp4915
g66
(dp4916
g93
g94
ssg75
g4905
sg68
(lp4917
S':'
asbag61
(g82
g63
NtRp4918
(dp4919
g66
(dp4920
sg75
g4905
sg68
(lp4921
g61
(g62
g63
NtRp4922
(dp4923
g66
(dp4924
g74
I5
ssg75
g4918
sg68
(lp4925
g1541
asbasbasbag61
(g77
g63
NtRp4926
(dp4927
g66
(dp4928
sg75
g3399
sg68
(lp4929
g61
(g82
g63
NtRp4930
(dp4931
g66
(dp4932
g86
g87
ssg75
g4926
sg68
(lp4933
S'session_new'
p4934
asbag61
(g82
g63
NtRp4935
(dp4936
g66
(dp4937
g93
g94
ssg75
g4926
sg68
(lp4938
S':'
asbag61
(g82
g63
NtRp4939
(dp4940
g66
(dp4941
sg75
g4926
sg68
(lp4942
g61
(g62
g63
NtRp4943
(dp4944
g66
(dp4945
g74
I5
ssg75
g4939
sg68
(lp4946
g104
asbasbasbag61
(g77
g63
NtRp4947
(dp4948
g66
(dp4949
sg75
g3399
sg68
(lp4950
g61
(g82
g63
NtRp4951
(dp4952
g66
(dp4953
g86
g87
ssg75
g4947
sg68
(lp4954
S'session_storage_type'
p4955
asbag61
(g82
g63
NtRp4956
(dp4957
g66
(dp4958
g93
g94
ssg75
g4947
sg68
(lp4959
S':'
asbag61
(g82
g63
NtRp4960
(dp4961
g66
(dp4962
sg75
g4947
sg68
(lp4963
g61
(g62
g63
NtRp4964
(dp4965
g66
(dp4966
g74
I5
ssg75
g4960
sg68
(lp4967
g2964
asbasbasbag61
(g77
g63
NtRp4968
(dp4969
g66
(dp4970
sg75
g3399
sg68
(lp4971
g61
(g82
g63
NtRp4972
(dp4973
g66
(dp4974
g86
g87
ssg75
g4968
sg68
(lp4975
S'status'
p4976
asbag61
(g82
g63
NtRp4977
(dp4978
g66
(dp4979
g93
g94
ssg75
g4968
sg68
(lp4980
S':'
asbag61
(g82
g63
NtRp4981
(dp4982
g66
(dp4983
sg75
g4968
sg68
(lp4984
g61
(g62
g63
NtRp4985
(dp4986
g66
(dp4987
g74
I5
ssg75
g4981
sg68
(lp4988
S'200'
p4989
asbasbasbag61
(g77
g63
NtRp4990
(dp4991
g66
(dp4992
sg75
g3399
sg68
(lp4993
g61
(g82
g63
NtRp4994
(dp4995
g66
(dp4996
g86
g87
ssg75
g4990
sg68
(lp4997
S'subtitle'
p4998
asbag61
(g82
g63
NtRp4999
(dp5000
g66
(dp5001
g93
g94
ssg75
g4990
sg68
(lp5002
S':'
asbag61
(g82
g63
NtRp5003
(dp5004
g66
(dp5005
sg75
g4990
sg68
(lp5006
g61
(g62
g63
NtRp5007
(dp5008
g66
(dp5009
g74
I5
ssg75
g5003
sg68
(lp5010
g3932
(S's\r\x00\x00\x00customize me!'
tRp5011
asbasbasbag61
(g77
g63
NtRp5012
(dp5013
g66
(dp5014
sg75
g3399
sg68
(lp5015
g61
(g82
g63
NtRp5016
(dp5017
g66
(dp5018
g86
g87
ssg75
g5012
sg68
(lp5019
S'title'
p5020
asbag61
(g82
g63
NtRp5021
(dp5022
g66
(dp5023
g93
g94
ssg75
g5012
sg68
(lp5024
S':'
asbag61
(g82
g63
NtRp5025
(dp5026
g66
(dp5027
sg75
g5012
sg68
(lp5028
g61
(g62
g63
NtRp5029
(dp5030
g66
(dp5031
g74
I5
ssg75
g5025
sg68
(lp5032
S'Projeto'
p5033
asbasbasbag61
(g77
g63
NtRp5034
(dp5035
g66
(dp5036
sg75
g3399
sg68
(lp5037
g61
(g82
g63
NtRp5038
(dp5039
g66
(dp5040
g86
g87
ssg75
g5034
sg68
(lp5041
S'view'
p5042
asbag61
(g82
g63
NtRp5043
(dp5044
g66
(dp5045
g93
g94
ssg75
g5034
sg68
(lp5046
S':'
asbag61
(g82
g63
NtRp5047
(dp5048
g66
(dp5049
sg75
g5034
sg68
(lp5050
g61
(g62
g63
NtRp5051
(dp5052
g66
(dp5053
g74
I5
ssg75
g5047
sg68
(lp5054
S'initial/show_cliente.html'
p5055
asbasbasbasbasbsS'locals'
p5056
(dp5057
S'exc'
p5058
S'ProgrammingError(\'ERROR\', \'42P16\', \'multiple primary keys for table "meetme" are not allowed\')'
p5059
sS'msg_class'
p5060
S"<class 'gluon.contrib.pg8000.protocol.ReadyForQuery'>"
p5061
sS'self'
p5062
S'<gluon.contrib.pg8000.protocol.MessageReader object>'
p5063
sg46
S'()'
p5064
sS'handler'
p5065
S'<function <lambda>>'
p5066
sS'kwargs'
p5067
g21
sS'msg'
p5068
S'<ReadyForQuery Idle in Failed Transaction>'
p5069
sS'msg_handled'
p5070
g1541
sS'retval'
p5071
S'1'
sssS'traceback'
p5072
S'Traceback (most recent call last):\n  File "/var/www/conferencia/gluon/restricted.py", line 212, in restricted\n    exec ccode in environment\n  File "/var/www/conferencia/applications/projeto/models/models.py", line 14, in <module>\n    primarykey=[\'confno\']\n  File "/var/www/conferencia/gluon/dal.py", line 7186, in define_table\n    table = self.lazy_define_table(tablename,*fields,**args)\n  File "/var/www/conferencia/gluon/dal.py", line 7222, in lazy_define_table\n    polymodel=polymodel)\n  File "/var/www/conferencia/gluon/dal.py", line 935, in create_table\n    self.create_sequence_and_triggers(query,table)\n  File "/var/www/conferencia/gluon/dal.py", line 2483, in create_sequence_and_triggers\n    self.execute(query)\n  File "/var/www/conferencia/gluon/dal.py", line 1709, in execute\n    return self.log_execute(*a, **b)\n  File "/var/www/conferencia/gluon/dal.py", line 1703, in log_execute\n    ret = self.cursor.execute(*a, **b)\n  File "/var/www/conferencia/gluon/contrib/pg8000/dbapi.py", line 246, in _fn\n    return fn(self, *args, **kwargs)\n  File "/var/www/conferencia/gluon/contrib/pg8000/dbapi.py", line 317, in execute\n    self._execute(operation, args)\n  File "/var/www/conferencia/gluon/contrib/pg8000/dbapi.py", line 322, in _execute\n    self.cursor.execute(new_query, *new_args)\n  File "/var/www/conferencia/gluon/contrib/pg8000/interface.py", line 399, in execute\n    self._stmt.execute(*args, **kwargs)\n  File "/var/www/conferencia/gluon/contrib/pg8000/interface.py", line 169, in execute\n    self._row_desc, cmd = self.c.bind(self._portal_name, self._statement_name, args, self._parse_row_desc, kwargs.get("stream"))\n  File "/var/www/conferencia/gluon/contrib/pg8000/protocol.py", line 943, in _fn\n    return fn(self, *args, **kwargs)\n  File "/var/www/conferencia/gluon/contrib/pg8000/protocol.py", line 1142, in bind\n    return reader.handle_messages()\n  File "/var/www/conferencia/gluon/contrib/pg8000/protocol.py", line 911, in handle_messages\n    retval = handler(msg, *args, **kwargs)\n  File "/var/www/conferencia/gluon/contrib/pg8000/protocol.py", line 1181, in _bind_nodata\n    reader.handle_messages()\n  File "/var/www/conferencia/gluon/contrib/pg8000/protocol.py", line 916, in handle_messages\n    raise exc\nProgrammingError: (\'ERROR\', \'42P16\', \'multiple primary keys for table "meetme" are not allowed\')\n'
p5073
s.