(dp1
S'output'
p2
S"<type 'exceptions.AttributeError'> 'Row' object has no attribute 'hosts'"
p3
sS'layer'
p4
S'/var/www/conferencia/applications/projeto/controllers/initial.py'
p5
sS'code'
p6
S'# coding: utf-8\n\ndef show_cliente():\n\tresponse.title="Eventos"\n\tprint request.now\n\n\n\n\n\tgrid = SQLFORM.grid(db.meetme, orderby=db.meetme.endtime,\n\t\tuser_signature=False, searchable=True, csv=False, \n\t\tpaginate=50, details=False,  \n\t\tignore_rw = True, maxtextlength=36,\n\t\tlinks=[lambda row: A(\'Editar\', \n    \t\t      _class=\'btn\', \n    \t\t      _title=\'Editar\', \n    \t\t      _href=URL("initial", "/edit_host", \n    \t\t      vars=dict(f=row.hosts.id)))] \n    \t)\n\treturn response.render("initial/show_grid.html", grid=grid)\n\ndef show_servidor():\n\tresponse.title="Eventos"\n\tdata = request.now\n\n\tquery=(db.meetme.endtime > \'2013-04-03 09:38:17.902532\') \n\tquery2=(\'SELECT * from meetme order by id desc LIMIT 4;\')\n\tprint query\n\n\tgrid = SQLFORM.grid(query=query, orderby=db.meetme.endtime,\n\t\tuser_signature=False, searchable=True, csv=False, \n\t\tpaginate=50, details=False,  \n\t\tignore_rw = True, maxtextlength=36, \n    \t)\n\treturn response.render("initial/show_grid.html", grid=grid)\n\n\n@auth.requires_login()\ndef show_distro():\n\tresponse.title="Distribui\xc3\xa7\xc3\xb5es"\n\n\tdb.args=Distro.id.readable=False\n\tdb.args=Distro.img.readable=False\n\tgrid = SQLFORM.grid(Distro,\n\t\tuser_signature=True, searchable=True, csv=False,\n\t\tpaginate=50, details=False, ignore_rw = True, \n\t\tmaxtextlength=26, links_placement=\'left\',\n\t\tcreate=auth.has_membership("admin"),\n\t\teditable=auth.has_membership("admin"),\n\t\tdeletable=auth.has_membership("admin"),  \n    \tlinks = [lambda row: A(\'hosts\', \n    \t\t_class=\'btn\', \n    \t\t_title=\'ver servidores\', \n    \t\t_href=URL("initial", "/distro_host", \n    \t\tvars=dict(f=row.id, n1=\'Distros\', p1=\'show_distro\'))), \n    \tdict(header=\'\',body=lambda row: A( IMG(_src=URL("static", "images", args=(row.img) ))))]\n\t\t)\n\treturn response.render("initial/show_grid.html", grid=grid)\n\n\n@auth.requires_login()\ndef cliente_host():\n\tfiltro = request.vars[\'f\']\n\tqueryset = db(db.cliente.id == filtro)\n\trows = queryset.select()\n\tcliente = rows[0]\n\tresponse.title = cliente.nome\n\tprint cliente\n\n\tnome_ant1 = request.vars[\'n1\']\n\tfuncao_ant1 = request.vars[\'p1\']\n\tnome_atual = cliente.nome\n\n\tquery = ((db.hosts.id_cliente == filtro) & (db.distro.id == db.hosts.id_distro))\n\tlinks = [dict(header=\'\',body=lambda row: A( IMG(_src=URL("static", "images", args=(row.distro.img)) ))), \n\t lambda row: A(\'Detalhes\', \n    \t\t      _class=\'btn\', \n    \t\t      _title=\'Detalhes\', \n    \t\t      _href=URL("initial", "/detalhes_nav", \n    \t\t      vars=dict(f=row.hosts.id, c=filtro, n=cliente.nome, \n    \t\t      \t\t\tn1=\'Clientes\', p1=\'show_cliente\', p=\'cliente_host\'))),\n\t lambda row: A(\'Editar\', \n    \t\t      _class=\'btn\', \n    \t\t      _title=\'Editar\', \n    \t\t      _href=URL("initial", "/edit_host", \n    \t\t      vars=dict(f=row.hosts.id, c=filtro, n=cliente.nome, \n    \t\t      \t\tn1=\'Clientes\', p1=\'show_cliente\', p=\'cliente_host\')))]\n\tdb.hosts.id.readable=False\n\tdb.distro.img.readable=False\n\t\n\tfields = (db.hosts.id, db.hosts.id_servidor, db.hosts.id_distro, db.distro.img, \n\t\t\t  db.hosts.ip_chegada, db.hosts.porta_ssh, db.hosts.gateway)\n\theaders = {\'hosts.id\':   \'ID\',\n\t\t\t   \'hosts.id_cliente\': \'Cliente\',\n               \'hosts.id_servidor\': \'Servidor\',\n               \'hosts.id_distro\': \'Distro\',\n               \'hosts.nome\': \'Nome\',\n\t           \'hosts.servicos\': \'Servicos\'}\n\tgrid = SQLFORM.grid(query=query, fields=fields, headers=headers, csv=False,\n\t\t\t\t\t\tdetails=False, searchable=False, maxtextlength=23, links=links, \n\t\t\t\t\t\tlinks_placement=\'left\', editable=False, create=False)\n\n\treturn response.render("initial/show_grid2.html", grid=grid, nome_ant1=nome_ant1, \n\t\t\t\t\t\tfuncao_ant1=funcao_ant1, nome_atual=nome_atual)\n\n@auth.requires_login()\ndef servidor_host():\n\tfiltro = request.vars[\'f\']\n\tqueryset = db(db.servidor.id == filtro)\n\trows = queryset.select()\n\tservidor = rows[0]\n\tresponse.title = servidor.nome\n\n\tnome_ant1 = request.vars[\'n1\']\n\tfuncao_ant1 = request.vars[\'p1\']\n\tnome_atual = servidor.nome\t\n\n\tdb.distro.img.readable=False\n\tdb.hosts.id.readable=False\n\tquery = ((db.hosts.id_servidor == filtro) & (db.distro.id == db.hosts.id_distro))\n\n\tlinks = [dict(header=\'\',body=lambda row: A( IMG(_src=URL("static", "images", args=(row.distro.img)) ))), \n\t lambda row: A(\'Detalhes\', \n    \t\t      _class=\'btn\', \n    \t\t      _title=\'Detalhes\', \n    \t\t      _href=URL("initial", "/detalhes_nav", \n    \t\t      vars=dict(f=row.hosts.id, c=filtro, n=servidor.nome, \n    \t\t      \t\tn1=\'Servidores\', p1=\'show_servidor\', p=\'servidor_host\'))),\n\t lambda row: A(\'Editar\', \n    \t\t      _class=\'btn\', \n    \t\t      _title=\'Editar\', \n    \t\t      _href=URL("initial", "/edit_host", \n    \t\t      vars=dict(f=row.hosts.id, c=filtro, n=servidor.nome, \n    \t\t      \t\tn1=\'Servidores\', p1=\'show_servidor\', p=\'servidor_host\')))]\n\n\tfields = (db.hosts.id, db.hosts.id_cliente, db.hosts.id_distro, db.distro.img, \n\t\t\t\tdb.hosts.ip_chegada, db.hosts.porta_ssh, db.hosts.gateway)\n\theaders = {\'hosts.id\':   \'ID\',\n\t\t\t   \'hosts.id_cliente\': \'Cliente\',\n               \'hosts.id_servidor\': \'Servidor\',\n               \'hosts.id_distro\': \'Distro\',\n               \'hosts.nome\': \'Nome\',\n\t           \'hosts.servicos\': \'Servicos\'}\n\tgrid = SQLFORM.grid(query=query, fields=fields, headers=headers, csv=False,\n\t\t\t\t\t\tdetails=False, searchable=False, maxtextlength=23, links=links, \n\t\t\t\t\t\tlinks_placement=\'left\', editable=False, create=False)\n\n\treturn response.render("initial/show_grid2.html", grid=grid, nome_ant1=nome_ant1, \n\t\t\t\t\t\tfuncao_ant1=funcao_ant1, nome_atual=nome_atual)\n\n@auth.requires_login()\ndef distro_host():\n\tfiltro = request.vars[\'f\']\n\tqueryset = db(db.distro.id == filtro)\n\trows = queryset.select()\n\tdistro = rows[0]\n\tresponse.title = distro.nome\n\n\tnome_ant1 = request.vars[\'n1\']\n\tfuncao_ant1 = request.vars[\'p1\']\n\tnome_atual = distro.nome\t\n\t\n\tdb.hosts.id.readable=False\n\tdb.distro.img.readable=False\n\tquery = ((db.hosts.id_distro == filtro) & (db.distro.id == db.hosts.id_distro))\n\tlinks = [dict(header=\'\',body=lambda row: A( IMG(_src=URL("static", "images", args=(row.distro.img)) ))), \n\t lambda row: A(\'Detalhes\', \n    \t\t      _class=\'btn\', \n    \t\t      _title=\'Detalhes\', \n    \t\t      _href=URL("initial", "/detalhes_nav", \n    \t\t      vars=dict(f=row.hosts.id, c=filtro, n=distro.nome, \n    \t\t      \t\tn1=\'Distros\', p1=\'show_distro\', p=\'distro_host\'))),\n\t lambda row: A(\'Editar\', \n    \t\t      _class=\'btn\', \n    \t\t      _title=\'Editar\', \n    \t\t      _href=URL("initial", "/edit_host", \n    \t\t      vars=dict(f=row.hosts.id, c=filtro, n=distro.nome, \n    \t\t      \t\tn1=\'Distros\', p1=\'show_distro\', p=\'distro_host\')))]\n\n\tfields = (db.hosts.id, db.hosts.id_cliente, db.hosts.id_servidor, db.distro.img, \n\t\t\t  db.hosts.ip_chegada, db.hosts.porta_ssh, db.hosts.gateway)\n\theaders = {\'hosts.id\':   \'ID\',\n\t\t\t\t\'hosts.id_cliente\': \'Cliente\',\n               \'hosts.id_servidor\': \'Servidor\',\n               \'hosts.id_distro\': \'Distro\',\n               \'hosts.nome\': \'Nome\',\n\t           \'hosts.servicos\': \'Servicos\'}\n\tgrid = SQLFORM.grid(query=query, fields=fields, headers=headers, csv=False,\n\t\t\t\t\t\tdetails=False, searchable=False, maxtextlength=23, links=links, \n\t\t\t\t\t\tlinks_placement=\'left\', editable=False, create=False)\n\n\treturn response.render("initial/show_grid2.html", grid=grid, nome_ant1=nome_ant1, \n\t\t\t\t\t\tfuncao_ant1=funcao_ant1, nome_atual=nome_atual)\n\ndef detalhes_nav():\n\t#detalhes\n\tfiltro = request.vars[\'f\'] #id_host\n\tid_cliente = request.vars[\'c\'] #id_cliente\n\tnome_ant = request.vars[\'n\'] #nome (asterisk ou agronelli ou debian)\n\tnome_ant1 = request.vars[\'n1\'] #nome (servidores ou clientes ou distros)\n\tfuncao_ant = request.vars[\'p\'] #funcao(host_servidores)\n\tfuncao_ant1 = request.vars[\'p1\'] #funcao(show_servidores)\n\t\n\n\tquery = ((db.hosts.id == filtro) & (db.hosts.id_cliente == db.cliente.id)\n\t \t    & (db.hosts.id_servidor == db.servidor.id) \n\t \t    & (db.hosts.id_distro == db.distro.id)) \n\tdetalhes = db.hosts(query)\n\t\n\t\n\treturn response.render("initial/detalhes_host.html", detalhes=detalhes, \n\t\t\t\tid_cliente=id_cliente, funcao_ant=funcao_ant, funcao_ant1=funcao_ant1, \n\t\t\t\tnome_ant=nome_ant, nome_ant1=nome_ant1, filtro=filtro)\n\n\ndef edit_host():\n    form = SQLFORM(db.hosts, request.vars[\'f\'], submit_button=\'Editar\')\n\n    if form.process().accepted:\n       response.flash = \'Editado com sucesso\'\n    elif form.errors:\n       response.flash = \'Ops, algo n\xc3\xa3o est\xc3\xa1 correto\'\n    else:\n       response.flash = \'Edite os dados do host\'\n\n    return response.render("initial/show_form2.html", form=form)\n\n\n@auth.requires_login()\ndef interface():\n\t#adicionar\n    form = SQLFORM(db.hosts, submit_button=\'Adicionar\', \n    \t\t\tfields = [\'id_cliente\', \'id_servidor\', \'id_distro\', \'servicos\',\n\t\t\t\t\'if1\', \'ip1\', \'masc1\', \'obs1\', \'if2\', \'ip2\', \'masc2\', \'obs2\',\n\t\t\t\t\'if3\', \'ip3\', \'masc3\', \'obs3\', \'if4\', \'ip4\', \'masc4\', \'obs4\',\n\t\t\t\t\'nome\', \'ip_chegada\', \'porta_ssh\', \'gateway\', \'rotas\', \'obs_gerais\'], \n\t\t\t\tlabels = {\'id_cliente\':\'Cliente\', \'id_servidor\':\'Servidor\', \'id_distro\':\'Distro\',\n\t\t\t\t\'if1\':\'Interface 1\', \'ip1\':\'IP\', \'masc1\':\'M\xc3\xa1scara\', \'obs1\':\'Obs\',\n\t\t\t\t\'if2\':\'Interface 2\', \'ip2\':\'IP\', \'masc2\':\'M\xc3\xa1scara\', \'obs2\':\'Obs\',\n\t\t\t\t\'if3\':\'Interface 3\', \'ip3\':\'IP\', \'masc3\':\'M\xc3\xa1scara\', \'obs3\':\'Obs\',\n\t\t\t\t\'if4\':\'Interface 4\', \'ip4\':\'IP\', \'masc4\':\'M\xc3\xa1scara\', \'obs4\':\'Obs\'})\n   \n    if form.process().accepted:\n    \thost = request.vars\n    \temail(host)\n    \tresponse.flash = \'Inserido com sucesso\'\t\t\n    elif form.errors:\n       response.flash = \'Ops, algo n\xc3\xa3o est\xc3\xa1 correto\'\n    else:\n       response.flash = \'Insira os dados do novo host\'\n    return response.render("initial/show_form2.html", form=form)\n\ndef about():\n\tfiltro = request.vars[\'f\']\n\tquery = ((db.hosts.id_servidor == filtro) & (db.distro.id == db.hosts.id_distro))\n\tfields = (db.hosts.id, db.hosts.id_cliente, db.hosts.id_distro, db.distro.img, \n\t\t\t\tdb.hosts.ip_chegada, db.hosts.porta_ssh, db.hosts.gateway)\n\theaders = {\'host.id\':   \'ID\',\n               \'host.id_servidor\': \'Servidor\',\n               \'host.id_distro\': \'Distro\',\n               \'host.nome\': \'Nome\',\n\t           \'host.servicos\': \'Servicos\'}\n\tgrid = SQLFORM.grid(query=query, fields=fields, headers=headers, csv=False,\n\t\t\t\t\t\tdetails=False, maxtextlength=23, searchable=True, editable=False, create=False)\n\n\treturn response.render("initial/teste.html", grid=grid,)\n\ndef user():\n\t#if request.args(0) == \'register\':\n    #    \tdb.auth_user.bio.writable = db.auth_user.bio.readable = False\n\treturn response.render("initial/user.html", user=auth())\n\ndef register():\n\treturn auth.register()\n\ndef login():\n        return auth.login()\n\ndef account():\n    return dict(register=auth.register(),\n                login=auth.login())\n\t\ndef download():\n\treturn response.download(request, db)\n\n\ndef principal():\n\tresponse.title="Usu\xc3\xa1rios"\n\n\tgrid = SQLFORM.grid(db.usuario,\n\t\tuser_signature=False, searchable=True, csv=False, \n\t\tpaginate=50, details=False,  \n\t\tignore_rw = True, maxtextlength=36, \n    \t)\n\treturn response.render("initial/show_grid.html", grid=grid)\n\n\t\ndef detalhes_clean():\n\tfiltro = request.vars[\'f\'] #id_host\n\t\t\n\n\tquery = ((db.hosts.id == filtro) & (db.hosts.id_cliente == db.cliente.id)\n\t \t    & (db.hosts.id_servidor == db.servidor.id) \n\t \t    & (db.hosts.id_distro == db.distro.id)) \n\tdetalhes = db.hosts(query)\n\n\t\n\treturn response.render("initial/detalhes_host_clean.html", detalhes=detalhes)\n\ndef email(host):\n\tif auth.has_membership(\'voip\'):\n\t\tmail.send(\n\t\t\tto="fndiaz02@gmail.com",\n\t\t\tsubject="host adicionado",\n\t\t\tmessage="<html>Um novo host foi adicionado pelo usu\xc3\xa1rio %s <br>nome: %s <br>vpn: %s<br><br>\xc3\x89 preciso fazer a instala\xc3\xa7\xc3\xa3o do client zabbix e bacula</html>" % (auth.user.first_name, host.nome, host.ip_chegada,)\n\t\t\t)\n\telif auth.has_membership(\'internet\'):\n\t\tmail.send(\n\t\t\tto="fernando@ad2.com.br",\n\t\t\tsubject="host adicionado",\n\t\t\tmessage="<html>Um novo host foi adicionado pelo usu\xc3\xa1rio %s <br>nome: %s <br>vpn: %s<br><br>\xc3\x89 preciso fazer a instala\xc3\xa7\xc3\xa3o do client zabbix e bacula</html>" % (auth.user.first_name, host.nome, host.ip_chegada,)\n\t\t\t)\n\nresponse._vars=response._caller(show_cliente)\n'
p7
sS'snapshot'
p8
(dp9
S'exception'
p10
(dp11
S'__hash__'
p12
S"<method-wrapper '__hash__' of exceptions.AttributeError object>"
p13
sS'__setattr__'
p14
S"<method-wrapper '__setattr__' of exceptions.AttributeError object>"
p15
sS'__reduce_ex__'
p16
S'<built-in method __reduce_ex__ of exceptions.AttributeError object>'
p17
sS'__getslice__'
p18
S"<method-wrapper '__getslice__' of exceptions.AttributeError object>"
p19
sS'__getitem__'
p20
S"<method-wrapper '__getitem__' of exceptions.AttributeError object>"
p21
sS'__setstate__'
p22
S'<built-in method __setstate__ of exceptions.AttributeError object>'
p23
sS'args'
p24
S'("\'Row\' object has no attribute \'hosts\'",)'
p25
sS'__reduce__'
p26
S'<built-in method __reduce__ of exceptions.AttributeError object>'
p27
sS'__str__'
p28
S"<method-wrapper '__str__' of exceptions.AttributeError object>"
p29
sS'__format__'
p30
S'<built-in method __format__ of exceptions.AttributeError object>'
p31
sS'__getattribute__'
p32
S"<method-wrapper '__getattribute__' of exceptions.AttributeError object>"
p33
sS'__class__'
p34
S"<type 'exceptions.AttributeError'>"
p35
sS'__unicode__'
p36
S'<built-in method __unicode__ of exceptions.AttributeError object>'
p37
sS'__delattr__'
p38
S"<method-wrapper '__delattr__' of exceptions.AttributeError object>"
p39
sS'__subclasshook__'
p40
S'<built-in method __subclasshook__ of type object>'
p41
sS'__repr__'
p42
S"<method-wrapper '__repr__' of exceptions.AttributeError object>"
p43
sS'__dict__'
p44
S'{}'
p45
sS'__sizeof__'
p46
S'<built-in method __sizeof__ of exceptions.AttributeError object>'
p47
sS'__doc__'
p48
S"'Attribute not found.'"
p49
sS'__init__'
p50
S"<method-wrapper '__init__' of exceptions.AttributeError object>"
p51
sS'__new__'
p52
S'<built-in method __new__ of type object>'
p53
ssS'evalue'
p54
S"'Row' object has no attribute 'hosts'"
p55
sS'request'
p56
ccopy_reg
_reconstructor
p57
(cgluon.html
BEAUTIFY
p58
c__builtin__
object
p59
NtRp60
(dp61
S'attributes'
p62
(dp63
sS'components'
p64
(lp65
g57
(cgluon.html
TABLE
p66
g59
NtRp67
(dp68
g62
(dp69
S'level'
p70
I5
ssS'parent'
p71
Nsg64
(lp72
g57
(cgluon.html
TR
p73
g59
NtRp74
(dp75
g62
(dp76
sg71
g67
sg64
(lp77
g57
(cgluon.html
TD
p78
g59
NtRp79
(dp80
g62
(dp81
S'_style'
p82
S'font-weight:bold;vertical-align:top'
p83
ssg71
g74
sg64
(lp84
S'ajax'
p85
asbag57
(g78
g59
NtRp86
(dp87
g62
(dp88
S'_valign'
p89
S'top'
p90
ssg71
g74
sg64
(lp91
S':'
asbag57
(g78
g59
NtRp92
(dp93
g62
(dp94
sg71
g74
sg64
(lp95
g57
(g58
g59
NtRp96
(dp97
g62
(dp98
g70
I5
ssg71
g92
sg64
(lp99
S'False'
p100
asbasbasbag57
(g73
g59
NtRp101
(dp102
g62
(dp103
sg71
g67
sg64
(lp104
g57
(g78
g59
NtRp105
(dp106
g62
(dp107
g82
g83
ssg71
g101
sg64
(lp108
S'application'
p109
asbag57
(g78
g59
NtRp110
(dp111
g62
(dp112
g89
g90
ssg71
g101
sg64
(lp113
S':'
asbag57
(g78
g59
NtRp114
(dp115
g62
(dp116
sg71
g101
sg64
(lp117
g57
(g58
g59
NtRp118
(dp119
g62
(dp120
g70
I5
ssg71
g114
sg64
(lp121
S'projeto'
p122
asbasbasbag57
(g73
g59
NtRp123
(dp124
g62
(dp125
sg71
g67
sg64
(lp126
g57
(g78
g59
NtRp127
(dp128
g62
(dp129
g82
g83
ssg71
g123
sg64
(lp130
g24
asbag57
(g78
g59
NtRp131
(dp132
g62
(dp133
g89
g90
ssg71
g123
sg64
(lp134
S':'
asbag57
(g78
g59
NtRp135
(dp136
g62
(dp137
sg71
g123
sg64
(lp138
g57
(g58
g59
NtRp139
(dp140
g62
(dp141
g70
I5
ssg71
g135
sg64
(lp142
g57
(g66
g59
NtRp143
(dp144
g62
(dp145
g70
I4
ssg71
Nsg64
(lp146
sbasbasbasbag57
(g73
g59
NtRp147
(dp148
g62
(dp149
sg71
g67
sg64
(lp150
g57
(g78
g59
NtRp151
(dp152
g62
(dp153
g82
g83
ssg71
g147
sg64
(lp154
S'body'
p155
asbag57
(g78
g59
NtRp156
(dp157
g62
(dp158
g89
g90
ssg71
g147
sg64
(lp159
S':'
asbag57
(g78
g59
NtRp160
(dp161
g62
(dp162
sg71
g147
sg64
(lp163
g57
(g58
g59
NtRp164
(dp165
g62
(dp166
g70
I5
ssg71
g160
sg64
(lp167
S'<cStringIO.StringO object at 0x7f634c874c00>'
p168
asbasbasbag57
(g73
g59
NtRp169
(dp170
g62
(dp171
sg71
g67
sg64
(lp172
g57
(g78
g59
NtRp173
(dp174
g62
(dp175
g82
g83
ssg71
g169
sg64
(lp176
S'cid'
p177
asbag57
(g78
g59
NtRp178
(dp179
g62
(dp180
g89
g90
ssg71
g169
sg64
(lp181
S':'
asbag57
(g78
g59
NtRp182
(dp183
g62
(dp184
sg71
g169
sg64
(lp185
g57
(g58
g59
NtRp186
(dp187
g62
(dp188
g70
I5
ssg71
g182
sg64
(lp189
S'None'
p190
asbasbasbag57
(g73
g59
NtRp191
(dp192
g62
(dp193
sg71
g67
sg64
(lp194
g57
(g78
g59
NtRp195
(dp196
g62
(dp197
g82
g83
ssg71
g191
sg64
(lp198
S'client'
p199
asbag57
(g78
g59
NtRp200
(dp201
g62
(dp202
g89
g90
ssg71
g191
sg64
(lp203
S':'
asbag57
(g78
g59
NtRp204
(dp205
g62
(dp206
sg71
g191
sg64
(lp207
g57
(g58
g59
NtRp208
(dp209
g62
(dp210
g70
I5
ssg71
g204
sg64
(lp211
S'127.0.0.1'
p212
asbasbasbag57
(g73
g59
NtRp213
(dp214
g62
(dp215
sg71
g67
sg64
(lp216
g57
(g78
g59
NtRp217
(dp218
g62
(dp219
g82
g83
ssg71
g213
sg64
(lp220
S'controller'
p221
asbag57
(g78
g59
NtRp222
(dp223
g62
(dp224
g89
g90
ssg71
g213
sg64
(lp225
S':'
asbag57
(g78
g59
NtRp226
(dp227
g62
(dp228
sg71
g213
sg64
(lp229
g57
(g58
g59
NtRp230
(dp231
g62
(dp232
g70
I5
ssg71
g226
sg64
(lp233
S'initial'
p234
asbasbasbag57
(g73
g59
NtRp235
(dp236
g62
(dp237
sg71
g67
sg64
(lp238
g57
(g78
g59
NtRp239
(dp240
g62
(dp241
g82
g83
ssg71
g235
sg64
(lp242
S'cookies'
p243
asbag57
(g78
g59
NtRp244
(dp245
g62
(dp246
g89
g90
ssg71
g235
sg64
(lp247
S':'
asbag57
(g78
g59
NtRp248
(dp249
g62
(dp250
sg71
g235
sg64
(lp251
g57
(g58
g59
NtRp252
(dp253
g62
(dp254
g70
I5
ssg71
g248
sg64
(lp255
g57
(g66
g59
NtRp256
(dp257
g62
(dp258
g70
I4
ssg71
Nsg64
(lp259
g57
(g73
g59
NtRp260
(dp261
g62
(dp262
sg71
g256
sg64
(lp263
g57
(g78
g59
NtRp264
(dp265
g62
(dp266
g82
g83
ssg71
g260
sg64
(lp267
S'session_id_admin'
p268
asbag57
(g78
g59
NtRp269
(dp270
g62
(dp271
g89
g90
ssg71
g260
sg64
(lp272
S':'
asbag57
(g78
g59
NtRp273
(dp274
g62
(dp275
sg71
g260
sg64
(lp276
g57
(g58
g59
NtRp277
(dp278
g62
(dp279
g70
I4
ssg71
g273
sg64
(lp280
S'127.0.0.1-9ca8fc56-3213-4881-b103-95238a337326'
p281
ag57
(g66
g59
NtRp282
(dp283
g62
(dp284
g70
I3
ssg71
Nsg64
(lp285
g57
(g73
g59
NtRp286
(dp287
g62
(dp288
sg71
g282
sg64
(lp289
g57
(g78
g59
NtRp290
(dp291
g62
(dp292
g82
g83
ssg71
g286
sg64
(lp293
S'comment'
p294
asbag57
(g78
g59
NtRp295
(dp296
g62
(dp297
g89
g90
ssg71
g286
sg64
(lp298
S':'
asbag57
(g78
g59
NtRp299
(dp300
g62
(dp301
sg71
g286
sg64
(lp302
g57
(g58
g59
NtRp303
(dp304
g62
(dp305
g70
I3
ssg71
g299
sg64
(lp306
S''
asbasbasbag57
(g73
g59
NtRp307
(dp308
g62
(dp309
sg71
g282
sg64
(lp310
g57
(g78
g59
NtRp311
(dp312
g62
(dp313
g82
g83
ssg71
g307
sg64
(lp314
S'domain'
p315
asbag57
(g78
g59
NtRp316
(dp317
g62
(dp318
g89
g90
ssg71
g307
sg64
(lp319
S':'
asbag57
(g78
g59
NtRp320
(dp321
g62
(dp322
sg71
g307
sg64
(lp323
g57
(g58
g59
NtRp324
(dp325
g62
(dp326
g70
I3
ssg71
g320
sg64
(lp327
S''
asbasbasbag57
(g73
g59
NtRp328
(dp329
g62
(dp330
sg71
g282
sg64
(lp331
g57
(g78
g59
NtRp332
(dp333
g62
(dp334
g82
g83
ssg71
g328
sg64
(lp335
S'expires'
p336
asbag57
(g78
g59
NtRp337
(dp338
g62
(dp339
g89
g90
ssg71
g328
sg64
(lp340
S':'
asbag57
(g78
g59
NtRp341
(dp342
g62
(dp343
sg71
g328
sg64
(lp344
g57
(g58
g59
NtRp345
(dp346
g62
(dp347
g70
I3
ssg71
g341
sg64
(lp348
S''
asbasbasbag57
(g73
g59
NtRp349
(dp350
g62
(dp351
sg71
g282
sg64
(lp352
g57
(g78
g59
NtRp353
(dp354
g62
(dp355
g82
g83
ssg71
g349
sg64
(lp356
S'httponly'
p357
asbag57
(g78
g59
NtRp358
(dp359
g62
(dp360
g89
g90
ssg71
g349
sg64
(lp361
S':'
asbag57
(g78
g59
NtRp362
(dp363
g62
(dp364
sg71
g349
sg64
(lp365
g57
(g58
g59
NtRp366
(dp367
g62
(dp368
g70
I3
ssg71
g362
sg64
(lp369
S''
asbasbasbag57
(g73
g59
NtRp370
(dp371
g62
(dp372
sg71
g282
sg64
(lp373
g57
(g78
g59
NtRp374
(dp375
g62
(dp376
g82
g83
ssg71
g370
sg64
(lp377
S'max-age'
p378
asbag57
(g78
g59
NtRp379
(dp380
g62
(dp381
g89
g90
ssg71
g370
sg64
(lp382
S':'
asbag57
(g78
g59
NtRp383
(dp384
g62
(dp385
sg71
g370
sg64
(lp386
g57
(g58
g59
NtRp387
(dp388
g62
(dp389
g70
I3
ssg71
g383
sg64
(lp390
S''
asbasbasbag57
(g73
g59
NtRp391
(dp392
g62
(dp393
sg71
g282
sg64
(lp394
g57
(g78
g59
NtRp395
(dp396
g62
(dp397
g82
g83
ssg71
g391
sg64
(lp398
S'path'
p399
asbag57
(g78
g59
NtRp400
(dp401
g62
(dp402
g89
g90
ssg71
g391
sg64
(lp403
S':'
asbag57
(g78
g59
NtRp404
(dp405
g62
(dp406
sg71
g391
sg64
(lp407
g57
(g58
g59
NtRp408
(dp409
g62
(dp410
g70
I3
ssg71
g404
sg64
(lp411
S''
asbasbasbag57
(g73
g59
NtRp412
(dp413
g62
(dp414
sg71
g282
sg64
(lp415
g57
(g78
g59
NtRp416
(dp417
g62
(dp418
g82
g83
ssg71
g412
sg64
(lp419
S'secure'
p420
asbag57
(g78
g59
NtRp421
(dp422
g62
(dp423
g89
g90
ssg71
g412
sg64
(lp424
S':'
asbag57
(g78
g59
NtRp425
(dp426
g62
(dp427
sg71
g412
sg64
(lp428
g57
(g58
g59
NtRp429
(dp430
g62
(dp431
g70
I3
ssg71
g425
sg64
(lp432
S''
asbasbasbag57
(g73
g59
NtRp433
(dp434
g62
(dp435
sg71
g282
sg64
(lp436
g57
(g78
g59
NtRp437
(dp438
g62
(dp439
g82
g83
ssg71
g433
sg64
(lp440
S'version'
p441
asbag57
(g78
g59
NtRp442
(dp443
g62
(dp444
g89
g90
ssg71
g433
sg64
(lp445
S':'
asbag57
(g78
g59
NtRp446
(dp447
g62
(dp448
sg71
g433
sg64
(lp449
g57
(g58
g59
NtRp450
(dp451
g62
(dp452
g70
I3
ssg71
g446
sg64
(lp453
S''
asbasbasbasbasbasbasbag57
(g73
g59
NtRp454
(dp455
g62
(dp456
sg71
g256
sg64
(lp457
g57
(g78
g59
NtRp458
(dp459
g62
(dp460
g82
g83
ssg71
g454
sg64
(lp461
S'session_id_projeto'
p462
asbag57
(g78
g59
NtRp463
(dp464
g62
(dp465
g89
g90
ssg71
g454
sg64
(lp466
S':'
asbag57
(g78
g59
NtRp467
(dp468
g62
(dp469
sg71
g454
sg64
(lp470
g57
(g58
g59
NtRp471
(dp472
g62
(dp473
g70
I4
ssg71
g467
sg64
(lp474
S'127.0.0.1-001edd4c-cc9d-40b6-92aa-d3bbbc6019b5'
p475
ag57
(g66
g59
NtRp476
(dp477
g62
(dp478
g70
I3
ssg71
Nsg64
(lp479
g57
(g73
g59
NtRp480
(dp481
g62
(dp482
sg71
g476
sg64
(lp483
g57
(g78
g59
NtRp484
(dp485
g62
(dp486
g82
g83
ssg71
g480
sg64
(lp487
g294
asbag57
(g78
g59
NtRp488
(dp489
g62
(dp490
g89
g90
ssg71
g480
sg64
(lp491
S':'
asbag57
(g78
g59
NtRp492
(dp493
g62
(dp494
sg71
g480
sg64
(lp495
g57
(g58
g59
NtRp496
(dp497
g62
(dp498
g70
I3
ssg71
g492
sg64
(lp499
S''
asbasbasbag57
(g73
g59
NtRp500
(dp501
g62
(dp502
sg71
g476
sg64
(lp503
g57
(g78
g59
NtRp504
(dp505
g62
(dp506
g82
g83
ssg71
g500
sg64
(lp507
g315
asbag57
(g78
g59
NtRp508
(dp509
g62
(dp510
g89
g90
ssg71
g500
sg64
(lp511
S':'
asbag57
(g78
g59
NtRp512
(dp513
g62
(dp514
sg71
g500
sg64
(lp515
g57
(g58
g59
NtRp516
(dp517
g62
(dp518
g70
I3
ssg71
g512
sg64
(lp519
S''
asbasbasbag57
(g73
g59
NtRp520
(dp521
g62
(dp522
sg71
g476
sg64
(lp523
g57
(g78
g59
NtRp524
(dp525
g62
(dp526
g82
g83
ssg71
g520
sg64
(lp527
g336
asbag57
(g78
g59
NtRp528
(dp529
g62
(dp530
g89
g90
ssg71
g520
sg64
(lp531
S':'
asbag57
(g78
g59
NtRp532
(dp533
g62
(dp534
sg71
g520
sg64
(lp535
g57
(g58
g59
NtRp536
(dp537
g62
(dp538
g70
I3
ssg71
g532
sg64
(lp539
S''
asbasbasbag57
(g73
g59
NtRp540
(dp541
g62
(dp542
sg71
g476
sg64
(lp543
g57
(g78
g59
NtRp544
(dp545
g62
(dp546
g82
g83
ssg71
g540
sg64
(lp547
g357
asbag57
(g78
g59
NtRp548
(dp549
g62
(dp550
g89
g90
ssg71
g540
sg64
(lp551
S':'
asbag57
(g78
g59
NtRp552
(dp553
g62
(dp554
sg71
g540
sg64
(lp555
g57
(g58
g59
NtRp556
(dp557
g62
(dp558
g70
I3
ssg71
g552
sg64
(lp559
S''
asbasbasbag57
(g73
g59
NtRp560
(dp561
g62
(dp562
sg71
g476
sg64
(lp563
g57
(g78
g59
NtRp564
(dp565
g62
(dp566
g82
g83
ssg71
g560
sg64
(lp567
g378
asbag57
(g78
g59
NtRp568
(dp569
g62
(dp570
g89
g90
ssg71
g560
sg64
(lp571
S':'
asbag57
(g78
g59
NtRp572
(dp573
g62
(dp574
sg71
g560
sg64
(lp575
g57
(g58
g59
NtRp576
(dp577
g62
(dp578
g70
I3
ssg71
g572
sg64
(lp579
S''
asbasbasbag57
(g73
g59
NtRp580
(dp581
g62
(dp582
sg71
g476
sg64
(lp583
g57
(g78
g59
NtRp584
(dp585
g62
(dp586
g82
g83
ssg71
g580
sg64
(lp587
g399
asbag57
(g78
g59
NtRp588
(dp589
g62
(dp590
g89
g90
ssg71
g580
sg64
(lp591
S':'
asbag57
(g78
g59
NtRp592
(dp593
g62
(dp594
sg71
g580
sg64
(lp595
g57
(g58
g59
NtRp596
(dp597
g62
(dp598
g70
I3
ssg71
g592
sg64
(lp599
S''
asbasbasbag57
(g73
g59
NtRp600
(dp601
g62
(dp602
sg71
g476
sg64
(lp603
g57
(g78
g59
NtRp604
(dp605
g62
(dp606
g82
g83
ssg71
g600
sg64
(lp607
g420
asbag57
(g78
g59
NtRp608
(dp609
g62
(dp610
g89
g90
ssg71
g600
sg64
(lp611
S':'
asbag57
(g78
g59
NtRp612
(dp613
g62
(dp614
sg71
g600
sg64
(lp615
g57
(g58
g59
NtRp616
(dp617
g62
(dp618
g70
I3
ssg71
g612
sg64
(lp619
S''
asbasbasbag57
(g73
g59
NtRp620
(dp621
g62
(dp622
sg71
g476
sg64
(lp623
g57
(g78
g59
NtRp624
(dp625
g62
(dp626
g82
g83
ssg71
g620
sg64
(lp627
g441
asbag57
(g78
g59
NtRp628
(dp629
g62
(dp630
g89
g90
ssg71
g620
sg64
(lp631
S':'
asbag57
(g78
g59
NtRp632
(dp633
g62
(dp634
sg71
g620
sg64
(lp635
g57
(g58
g59
NtRp636
(dp637
g62
(dp638
g70
I3
ssg71
g632
sg64
(lp639
S''
asbasbasbasbasbasbasbasbasbasbasbag57
(g73
g59
NtRp640
(dp641
g62
(dp642
sg71
g67
sg64
(lp643
g57
(g78
g59
NtRp644
(dp645
g62
(dp646
g82
g83
ssg71
g640
sg64
(lp647
S'env'
p648
asbag57
(g78
g59
NtRp649
(dp650
g62
(dp651
g89
g90
ssg71
g640
sg64
(lp652
S':'
asbag57
(g78
g59
NtRp653
(dp654
g62
(dp655
sg71
g640
sg64
(lp656
g57
(g58
g59
NtRp657
(dp658
g62
(dp659
g70
I5
ssg71
g653
sg64
(lp660
g57
(g66
g59
NtRp661
(dp662
g62
(dp663
g70
I4
ssg71
Nsg64
(lp664
g57
(g73
g59
NtRp665
(dp666
g62
(dp667
sg71
g661
sg64
(lp668
g57
(g78
g59
NtRp669
(dp670
g62
(dp671
g82
g83
ssg71
g665
sg64
(lp672
S'app_folders'
p673
asbag57
(g78
g59
NtRp674
(dp675
g62
(dp676
g89
g90
ssg71
g665
sg64
(lp677
S':'
asbag57
(g78
g59
NtRp678
(dp679
g62
(dp680
sg71
g665
sg64
(lp681
g57
(g58
g59
NtRp682
(dp683
g62
(dp684
g70
I4
ssg71
g678
sg64
(lp685
S"set(['/var/www/conferencia/applications/admin/', '/var/www/conferencia/applications/projeto/'])"
p686
asbasbasbag57
(g73
g59
NtRp687
(dp688
g62
(dp689
sg71
g661
sg64
(lp690
g57
(g78
g59
NtRp691
(dp692
g62
(dp693
g82
g83
ssg71
g687
sg64
(lp694
S'applications_parent'
p695
asbag57
(g78
g59
NtRp696
(dp697
g62
(dp698
g89
g90
ssg71
g687
sg64
(lp699
S':'
asbag57
(g78
g59
NtRp700
(dp701
g62
(dp702
sg71
g687
sg64
(lp703
g57
(g58
g59
NtRp704
(dp705
g62
(dp706
g70
I4
ssg71
g700
sg64
(lp707
S'/var/www/conferencia'
p708
asbasbasbag57
(g73
g59
NtRp709
(dp710
g62
(dp711
sg71
g661
sg64
(lp712
g57
(g78
g59
NtRp713
(dp714
g62
(dp715
g82
g83
ssg71
g709
sg64
(lp716
S'cmd_args'
p717
asbag57
(g78
g59
NtRp718
(dp719
g62
(dp720
g89
g90
ssg71
g709
sg64
(lp721
S':'
asbag57
(g78
g59
NtRp722
(dp723
g62
(dp724
sg71
g709
sg64
(lp725
g57
(g58
g59
NtRp726
(dp727
g62
(dp728
g70
I4
ssg71
g722
sg64
(lp729
g57
(g66
g59
NtRp730
(dp731
g62
(dp732
g70
I3
ssg71
Nsg64
(lp733
sbasbasbasbag57
(g73
g59
NtRp734
(dp735
g62
(dp736
sg71
g661
sg64
(lp737
g57
(g78
g59
NtRp738
(dp739
g62
(dp740
g82
g83
ssg71
g734
sg64
(lp741
S'cmd_options'
p742
asbag57
(g78
g59
NtRp743
(dp744
g62
(dp745
g89
g90
ssg71
g734
sg64
(lp746
S':'
asbag57
(g78
g59
NtRp747
(dp748
g62
(dp749
sg71
g734
sg64
(lp750
g57
(g58
g59
NtRp751
(dp752
g62
(dp753
g70
I4
ssg71
g747
sg64
(lp754
S"<Values at 0x2c3b248: {'verbose': False, 'ip': '127.0.0.1', 'with_scheduler': False, 'ips': [], 'shutdown_timeout': 5, 'taskbar': False, 'port': 8000, 'maxthreads': None, 'softcron': False, 'server_name': 'fernando-workstation', 'bpython': False, 'nogui': False, 'pid_filename': 'httpserver.pid', 'extcron': False, 'runcron': False, 'run_system_tests': False, 'test': None, 'folder': '/var/www/conferencia', 'config': '', 'minthreads': None, 'winservice': '', 'shell': None, 'run': '', 'log_filename': 'httpserver.log', 'debuglevel': 30, 'args': [''], 'socket_timeout': 5, 'ssl_ca_certificate': None, 'scheduler': None, 'profiler_filename': None, 'ssl_private_key': '', 'scheduler_groups': None, 'password': '123456', 'request_queue_size': 5, 'ssl_certificate': '', 'cronjob': False, 'numthreads': None, 'quiet': False, 'interfaces': None, 'import_models': False, 'timeout': 10, 'plain': False, 'nobanner': False}>"
p755
asbasbasbag57
(g73
g59
NtRp756
(dp757
g62
(dp758
sg71
g661
sg64
(lp759
g57
(g78
g59
NtRp760
(dp761
g62
(dp762
g82
g83
ssg71
g756
sg64
(lp763
S'db_sessions'
p764
asbag57
(g78
g59
NtRp765
(dp766
g62
(dp767
g89
g90
ssg71
g756
sg64
(lp768
S':'
asbag57
(g78
g59
NtRp769
(dp770
g62
(dp771
sg71
g756
sg64
(lp772
g57
(g58
g59
NtRp773
(dp774
g62
(dp775
g70
I4
ssg71
g769
sg64
(lp776
S'set([])'
p777
asbasbasbag57
(g73
g59
NtRp778
(dp779
g62
(dp780
sg71
g661
sg64
(lp781
g57
(g78
g59
NtRp782
(dp783
g62
(dp784
g82
g83
ssg71
g778
sg64
(lp785
S'debugging'
p786
asbag57
(g78
g59
NtRp787
(dp788
g62
(dp789
g89
g90
ssg71
g778
sg64
(lp790
S':'
asbag57
(g78
g59
NtRp791
(dp792
g62
(dp793
sg71
g778
sg64
(lp794
g57
(g58
g59
NtRp795
(dp796
g62
(dp797
g70
I4
ssg71
g791
sg64
(lp798
g100
asbasbasbag57
(g73
g59
NtRp799
(dp800
g62
(dp801
sg71
g661
sg64
(lp802
g57
(g78
g59
NtRp803
(dp804
g62
(dp805
g82
g83
ssg71
g799
sg64
(lp806
S'gluon_parent'
p807
asbag57
(g78
g59
NtRp808
(dp809
g62
(dp810
g89
g90
ssg71
g799
sg64
(lp811
S':'
asbag57
(g78
g59
NtRp812
(dp813
g62
(dp814
sg71
g799
sg64
(lp815
g57
(g58
g59
NtRp816
(dp817
g62
(dp818
g70
I4
ssg71
g812
sg64
(lp819
S'/var/www/conferencia'
p820
asbasbasbag57
(g73
g59
NtRp821
(dp822
g62
(dp823
sg71
g661
sg64
(lp824
g57
(g78
g59
NtRp825
(dp826
g62
(dp827
g82
g83
ssg71
g821
sg64
(lp828
S'http_accept'
p829
asbag57
(g78
g59
NtRp830
(dp831
g62
(dp832
g89
g90
ssg71
g821
sg64
(lp833
S':'
asbag57
(g78
g59
NtRp834
(dp835
g62
(dp836
sg71
g821
sg64
(lp837
g57
(g58
g59
NtRp838
(dp839
g62
(dp840
g70
I4
ssg71
g834
sg64
(lp841
S'text/html,application/xhtml+xml,application/xml;q=0.9,*/*;q=0.8'
p842
asbasbasbag57
(g73
g59
NtRp843
(dp844
g62
(dp845
sg71
g661
sg64
(lp846
g57
(g78
g59
NtRp847
(dp848
g62
(dp849
g82
g83
ssg71
g843
sg64
(lp850
S'http_accept_charset'
p851
asbag57
(g78
g59
NtRp852
(dp853
g62
(dp854
g89
g90
ssg71
g843
sg64
(lp855
S':'
asbag57
(g78
g59
NtRp856
(dp857
g62
(dp858
sg71
g843
sg64
(lp859
g57
(g58
g59
NtRp860
(dp861
g62
(dp862
g70
I4
ssg71
g856
sg64
(lp863
S'ISO-8859-1,utf-8;q=0.7,*;q=0.3'
p864
asbasbasbag57
(g73
g59
NtRp865
(dp866
g62
(dp867
sg71
g661
sg64
(lp868
g57
(g78
g59
NtRp869
(dp870
g62
(dp871
g82
g83
ssg71
g865
sg64
(lp872
S'http_accept_encoding'
p873
asbag57
(g78
g59
NtRp874
(dp875
g62
(dp876
g89
g90
ssg71
g865
sg64
(lp877
S':'
asbag57
(g78
g59
NtRp878
(dp879
g62
(dp880
sg71
g865
sg64
(lp881
g57
(g58
g59
NtRp882
(dp883
g62
(dp884
g70
I4
ssg71
g878
sg64
(lp885
S'gzip,deflate,sdch'
p886
asbasbasbag57
(g73
g59
NtRp887
(dp888
g62
(dp889
sg71
g661
sg64
(lp890
g57
(g78
g59
NtRp891
(dp892
g62
(dp893
g82
g83
ssg71
g887
sg64
(lp894
S'http_accept_language'
p895
asbag57
(g78
g59
NtRp896
(dp897
g62
(dp898
g89
g90
ssg71
g887
sg64
(lp899
S':'
asbag57
(g78
g59
NtRp900
(dp901
g62
(dp902
sg71
g887
sg64
(lp903
g57
(g58
g59
NtRp904
(dp905
g62
(dp906
g70
I4
ssg71
g900
sg64
(lp907
S'pt-BR,pt;q=0.8,en-US;q=0.6,en;q=0.4'
p908
asbasbasbag57
(g73
g59
NtRp909
(dp910
g62
(dp911
sg71
g661
sg64
(lp912
g57
(g78
g59
NtRp913
(dp914
g62
(dp915
g82
g83
ssg71
g909
sg64
(lp916
S'http_connection'
p917
asbag57
(g78
g59
NtRp918
(dp919
g62
(dp920
g89
g90
ssg71
g909
sg64
(lp921
S':'
asbag57
(g78
g59
NtRp922
(dp923
g62
(dp924
sg71
g909
sg64
(lp925
g57
(g58
g59
NtRp926
(dp927
g62
(dp928
g70
I4
ssg71
g922
sg64
(lp929
S'keep-alive'
p930
asbasbasbag57
(g73
g59
NtRp931
(dp932
g62
(dp933
sg71
g661
sg64
(lp934
g57
(g78
g59
NtRp935
(dp936
g62
(dp937
g82
g83
ssg71
g931
sg64
(lp938
S'http_cookie'
p939
asbag57
(g78
g59
NtRp940
(dp941
g62
(dp942
g89
g90
ssg71
g931
sg64
(lp943
S':'
asbag57
(g78
g59
NtRp944
(dp945
g62
(dp946
sg71
g931
sg64
(lp947
g57
(g58
g59
NtRp948
(dp949
g62
(dp950
g70
I4
ssg71
g944
sg64
(lp951
S'session_id_admin=127.0.0.1-9ca8fc56-3213-4881-b103-95238a337326; session_id_projeto=127.0.0.1-001edd4c-cc9d-40b6-92aa-d3bbbc6019b5'
p952
asbasbasbag57
(g73
g59
NtRp953
(dp954
g62
(dp955
sg71
g661
sg64
(lp956
g57
(g78
g59
NtRp957
(dp958
g62
(dp959
g82
g83
ssg71
g953
sg64
(lp960
S'http_host'
p961
asbag57
(g78
g59
NtRp962
(dp963
g62
(dp964
g89
g90
ssg71
g953
sg64
(lp965
S':'
asbag57
(g78
g59
NtRp966
(dp967
g62
(dp968
sg71
g953
sg64
(lp969
g57
(g58
g59
NtRp970
(dp971
g62
(dp972
g70
I4
ssg71
g966
sg64
(lp973
S'127.0.0.1:8000'
p974
asbasbasbag57
(g73
g59
NtRp975
(dp976
g62
(dp977
sg71
g661
sg64
(lp978
g57
(g78
g59
NtRp979
(dp980
g62
(dp981
g82
g83
ssg71
g975
sg64
(lp982
S'http_referer'
p983
asbag57
(g78
g59
NtRp984
(dp985
g62
(dp986
g89
g90
ssg71
g975
sg64
(lp987
S':'
asbag57
(g78
g59
NtRp988
(dp989
g62
(dp990
sg71
g975
sg64
(lp991
g57
(g58
g59
NtRp992
(dp993
g62
(dp994
g70
I4
ssg71
g988
sg64
(lp995
S'http://127.0.0.1:8000/show_servidor'
p996
asbasbasbag57
(g73
g59
NtRp997
(dp998
g62
(dp999
sg71
g661
sg64
(lp1000
g57
(g78
g59
NtRp1001
(dp1002
g62
(dp1003
g82
g83
ssg71
g997
sg64
(lp1004
S'http_user_agent'
p1005
asbag57
(g78
g59
NtRp1006
(dp1007
g62
(dp1008
g89
g90
ssg71
g997
sg64
(lp1009
S':'
asbag57
(g78
g59
NtRp1010
(dp1011
g62
(dp1012
sg71
g997
sg64
(lp1013
g57
(g58
g59
NtRp1014
(dp1015
g62
(dp1016
g70
I4
ssg71
g1010
sg64
(lp1017
S'Mozilla/5.0 (X11; Linux x86_64) AppleWebKit/537.4 (KHTML, like Gecko) Ubuntu/12.10 Chromium/22.0.1229.94 Chrome/22.0.1229.94 Safari/537.4'
p1018
asbasbasbag57
(g73
g59
NtRp1019
(dp1020
g62
(dp1021
sg71
g661
sg64
(lp1022
g57
(g78
g59
NtRp1023
(dp1024
g62
(dp1025
g82
g83
ssg71
g1019
sg64
(lp1026
S'is_jython'
p1027
asbag57
(g78
g59
NtRp1028
(dp1029
g62
(dp1030
g89
g90
ssg71
g1019
sg64
(lp1031
S':'
asbag57
(g78
g59
NtRp1032
(dp1033
g62
(dp1034
sg71
g1019
sg64
(lp1035
g57
(g58
g59
NtRp1036
(dp1037
g62
(dp1038
g70
I4
ssg71
g1032
sg64
(lp1039
g100
asbasbasbag57
(g73
g59
NtRp1040
(dp1041
g62
(dp1042
sg71
g661
sg64
(lp1043
g57
(g78
g59
NtRp1044
(dp1045
g62
(dp1046
g82
g83
ssg71
g1040
sg64
(lp1047
S'is_pypy'
p1048
asbag57
(g78
g59
NtRp1049
(dp1050
g62
(dp1051
g89
g90
ssg71
g1040
sg64
(lp1052
S':'
asbag57
(g78
g59
NtRp1053
(dp1054
g62
(dp1055
sg71
g1040
sg64
(lp1056
g57
(g58
g59
NtRp1057
(dp1058
g62
(dp1059
g70
I4
ssg71
g1053
sg64
(lp1060
g100
asbasbasbag57
(g73
g59
NtRp1061
(dp1062
g62
(dp1063
sg71
g661
sg64
(lp1064
g57
(g78
g59
NtRp1065
(dp1066
g62
(dp1067
g82
g83
ssg71
g1061
sg64
(lp1068
S'local_hosts'
p1069
asbag57
(g78
g59
NtRp1070
(dp1071
g62
(dp1072
g89
g90
ssg71
g1061
sg64
(lp1073
S':'
asbag57
(g78
g59
NtRp1074
(dp1075
g62
(dp1076
sg71
g1061
sg64
(lp1077
g57
(g58
g59
NtRp1078
(dp1079
g62
(dp1080
g70
I4
ssg71
g1074
sg64
(lp1081
g57
(g66
g59
NtRp1082
(dp1083
g62
(dp1084
g70
I3
ssg71
Nsg64
(lp1085
g57
(g73
g59
NtRp1086
(dp1087
g62
(dp1088
sg71
g1082
sg64
(lp1089
g57
(g78
g59
NtRp1090
(dp1091
g62
(dp1092
sg71
g1086
sg64
(lp1093
g57
(g58
g59
NtRp1094
(dp1095
g62
(dp1096
g70
I3
ssg71
g1090
sg64
(lp1097
S'::1'
p1098
asbasbasbag57
(g73
g59
NtRp1099
(dp1100
g62
(dp1101
sg71
g1082
sg64
(lp1102
g57
(g78
g59
NtRp1103
(dp1104
g62
(dp1105
sg71
g1099
sg64
(lp1106
g57
(g58
g59
NtRp1107
(dp1108
g62
(dp1109
g70
I3
ssg71
g1103
sg64
(lp1110
S'::ffff:127.0.0.1'
p1111
asbasbasbag57
(g73
g59
NtRp1112
(dp1113
g62
(dp1114
sg71
g1082
sg64
(lp1115
g57
(g78
g59
NtRp1116
(dp1117
g62
(dp1118
sg71
g1112
sg64
(lp1119
g57
(g58
g59
NtRp1120
(dp1121
g62
(dp1122
g70
I3
ssg71
g1116
sg64
(lp1123
S'127.0.0.1'
p1124
asbasbasbag57
(g73
g59
NtRp1125
(dp1126
g62
(dp1127
sg71
g1082
sg64
(lp1128
g57
(g78
g59
NtRp1129
(dp1130
g62
(dp1131
sg71
g1125
sg64
(lp1132
g57
(g58
g59
NtRp1133
(dp1134
g62
(dp1135
g70
I3
ssg71
g1129
sg64
(lp1136
S'fernando-workstation'
p1137
asbasbasbasbasbasbasbag57
(g73
g59
NtRp1138
(dp1139
g62
(dp1140
sg71
g661
sg64
(lp1141
g57
(g78
g59
NtRp1142
(dp1143
g62
(dp1144
g82
g83
ssg71
g1138
sg64
(lp1145
S'path_info'
p1146
asbag57
(g78
g59
NtRp1147
(dp1148
g62
(dp1149
g89
g90
ssg71
g1138
sg64
(lp1150
S':'
asbag57
(g78
g59
NtRp1151
(dp1152
g62
(dp1153
sg71
g1138
sg64
(lp1154
g57
(g58
g59
NtRp1155
(dp1156
g62
(dp1157
g70
I4
ssg71
g1151
sg64
(lp1158
S'/show_cliente'
p1159
asbasbasbag57
(g73
g59
NtRp1160
(dp1161
g62
(dp1162
sg71
g661
sg64
(lp1163
g57
(g78
g59
NtRp1164
(dp1165
g62
(dp1166
g82
g83
ssg71
g1160
sg64
(lp1167
S'query_string'
p1168
asbag57
(g78
g59
NtRp1169
(dp1170
g62
(dp1171
g89
g90
ssg71
g1160
sg64
(lp1172
S':'
asbag57
(g78
g59
NtRp1173
(dp1174
g62
(dp1175
sg71
g1160
sg64
(lp1176
g57
(g58
g59
NtRp1177
(dp1178
g62
(dp1179
g70
I4
ssg71
g1173
sg64
(lp1180
S''
asbasbasbag57
(g73
g59
NtRp1181
(dp1182
g62
(dp1183
sg71
g661
sg64
(lp1184
g57
(g78
g59
NtRp1185
(dp1186
g62
(dp1187
g82
g83
ssg71
g1181
sg64
(lp1188
S'remote_addr'
p1189
asbag57
(g78
g59
NtRp1190
(dp1191
g62
(dp1192
g89
g90
ssg71
g1181
sg64
(lp1193
S':'
asbag57
(g78
g59
NtRp1194
(dp1195
g62
(dp1196
sg71
g1181
sg64
(lp1197
g57
(g58
g59
NtRp1198
(dp1199
g62
(dp1200
g70
I4
ssg71
g1194
sg64
(lp1201
g212
asbasbasbag57
(g73
g59
NtRp1202
(dp1203
g62
(dp1204
sg71
g661
sg64
(lp1205
g57
(g78
g59
NtRp1206
(dp1207
g62
(dp1208
g82
g83
ssg71
g1202
sg64
(lp1209
S'remote_port'
p1210
asbag57
(g78
g59
NtRp1211
(dp1212
g62
(dp1213
g89
g90
ssg71
g1202
sg64
(lp1214
S':'
asbag57
(g78
g59
NtRp1215
(dp1216
g62
(dp1217
sg71
g1202
sg64
(lp1218
g57
(g58
g59
NtRp1219
(dp1220
g62
(dp1221
g70
I4
ssg71
g1215
sg64
(lp1222
S'38682'
p1223
asbasbasbag57
(g73
g59
NtRp1224
(dp1225
g62
(dp1226
sg71
g661
sg64
(lp1227
g57
(g78
g59
NtRp1228
(dp1229
g62
(dp1230
g82
g83
ssg71
g1224
sg64
(lp1231
S'request_method'
p1232
asbag57
(g78
g59
NtRp1233
(dp1234
g62
(dp1235
g89
g90
ssg71
g1224
sg64
(lp1236
S':'
asbag57
(g78
g59
NtRp1237
(dp1238
g62
(dp1239
sg71
g1224
sg64
(lp1240
g57
(g58
g59
NtRp1241
(dp1242
g62
(dp1243
g70
I4
ssg71
g1237
sg64
(lp1244
S'GET'
p1245
asbasbasbag57
(g73
g59
NtRp1246
(dp1247
g62
(dp1248
sg71
g661
sg64
(lp1249
g57
(g78
g59
NtRp1250
(dp1251
g62
(dp1252
g82
g83
ssg71
g1246
sg64
(lp1253
S'request_uri'
p1254
asbag57
(g78
g59
NtRp1255
(dp1256
g62
(dp1257
g89
g90
ssg71
g1246
sg64
(lp1258
S':'
asbag57
(g78
g59
NtRp1259
(dp1260
g62
(dp1261
sg71
g1246
sg64
(lp1262
g57
(g58
g59
NtRp1263
(dp1264
g62
(dp1265
g70
I4
ssg71
g1259
sg64
(lp1266
S'/projeto/initial/show_cliente'
p1267
asbasbasbag57
(g73
g59
NtRp1268
(dp1269
g62
(dp1270
sg71
g661
sg64
(lp1271
g57
(g78
g59
NtRp1272
(dp1273
g62
(dp1274
g82
g83
ssg71
g1268
sg64
(lp1275
S'script_name'
p1276
asbag57
(g78
g59
NtRp1277
(dp1278
g62
(dp1279
g89
g90
ssg71
g1268
sg64
(lp1280
S':'
asbag57
(g78
g59
NtRp1281
(dp1282
g62
(dp1283
sg71
g1268
sg64
(lp1284
g57
(g58
g59
NtRp1285
(dp1286
g62
(dp1287
g70
I4
ssg71
g1281
sg64
(lp1288
S''
asbasbasbag57
(g73
g59
NtRp1289
(dp1290
g62
(dp1291
sg71
g661
sg64
(lp1292
g57
(g78
g59
NtRp1293
(dp1294
g62
(dp1295
g82
g83
ssg71
g1289
sg64
(lp1296
S'server_name'
p1297
asbag57
(g78
g59
NtRp1298
(dp1299
g62
(dp1300
g89
g90
ssg71
g1289
sg64
(lp1301
S':'
asbag57
(g78
g59
NtRp1302
(dp1303
g62
(dp1304
sg71
g1289
sg64
(lp1305
g57
(g58
g59
NtRp1306
(dp1307
g62
(dp1308
g70
I4
ssg71
g1302
sg64
(lp1309
S'fernando-workstation'
p1310
asbasbasbag57
(g73
g59
NtRp1311
(dp1312
g62
(dp1313
sg71
g661
sg64
(lp1314
g57
(g78
g59
NtRp1315
(dp1316
g62
(dp1317
g82
g83
ssg71
g1311
sg64
(lp1318
S'server_port'
p1319
asbag57
(g78
g59
NtRp1320
(dp1321
g62
(dp1322
g89
g90
ssg71
g1311
sg64
(lp1323
S':'
asbag57
(g78
g59
NtRp1324
(dp1325
g62
(dp1326
sg71
g1311
sg64
(lp1327
g57
(g58
g59
NtRp1328
(dp1329
g62
(dp1330
g70
I4
ssg71
g1324
sg64
(lp1331
S'8000'
p1332
asbasbasbag57
(g73
g59
NtRp1333
(dp1334
g62
(dp1335
sg71
g661
sg64
(lp1336
g57
(g78
g59
NtRp1337
(dp1338
g62
(dp1339
g82
g83
ssg71
g1333
sg64
(lp1340
S'server_protocol'
p1341
asbag57
(g78
g59
NtRp1342
(dp1343
g62
(dp1344
g89
g90
ssg71
g1333
sg64
(lp1345
S':'
asbag57
(g78
g59
NtRp1346
(dp1347
g62
(dp1348
sg71
g1333
sg64
(lp1349
g57
(g58
g59
NtRp1350
(dp1351
g62
(dp1352
g70
I4
ssg71
g1346
sg64
(lp1353
S'HTTP/1.1'
p1354
asbasbasbag57
(g73
g59
NtRp1355
(dp1356
g62
(dp1357
sg71
g661
sg64
(lp1358
g57
(g78
g59
NtRp1359
(dp1360
g62
(dp1361
g82
g83
ssg71
g1355
sg64
(lp1362
S'server_software'
p1363
asbag57
(g78
g59
NtRp1364
(dp1365
g62
(dp1366
g89
g90
ssg71
g1355
sg64
(lp1367
S':'
asbag57
(g78
g59
NtRp1368
(dp1369
g62
(dp1370
sg71
g1355
sg64
(lp1371
g57
(g58
g59
NtRp1372
(dp1373
g62
(dp1374
g70
I4
ssg71
g1368
sg64
(lp1375
S'Rocket 1.2.6'
p1376
asbasbasbag57
(g73
g59
NtRp1377
(dp1378
g62
(dp1379
sg71
g661
sg64
(lp1380
g57
(g78
g59
NtRp1381
(dp1382
g62
(dp1383
g82
g83
ssg71
g1377
sg64
(lp1384
S'web2py_original_uri'
p1385
asbag57
(g78
g59
NtRp1386
(dp1387
g62
(dp1388
g89
g90
ssg71
g1377
sg64
(lp1389
S':'
asbag57
(g78
g59
NtRp1390
(dp1391
g62
(dp1392
sg71
g1377
sg64
(lp1393
g57
(g58
g59
NtRp1394
(dp1395
g62
(dp1396
g70
I4
ssg71
g1390
sg64
(lp1397
g1159
asbasbasbag57
(g73
g59
NtRp1398
(dp1399
g62
(dp1400
sg71
g661
sg64
(lp1401
g57
(g78
g59
NtRp1402
(dp1403
g62
(dp1404
g82
g83
ssg71
g1398
sg64
(lp1405
S'web2py_path'
p1406
asbag57
(g78
g59
NtRp1407
(dp1408
g62
(dp1409
g89
g90
ssg71
g1398
sg64
(lp1410
S':'
asbag57
(g78
g59
NtRp1411
(dp1412
g62
(dp1413
sg71
g1398
sg64
(lp1414
g57
(g58
g59
NtRp1415
(dp1416
g62
(dp1417
g70
I4
ssg71
g1411
sg64
(lp1418
g708
asbasbasbag57
(g73
g59
NtRp1419
(dp1420
g62
(dp1421
sg71
g661
sg64
(lp1422
g57
(g78
g59
NtRp1423
(dp1424
g62
(dp1425
g82
g83
ssg71
g1419
sg64
(lp1426
S'web2py_version'
p1427
asbag57
(g78
g59
NtRp1428
(dp1429
g62
(dp1430
g89
g90
ssg71
g1419
sg64
(lp1431
S':'
asbag57
(g78
g59
NtRp1432
(dp1433
g62
(dp1434
sg71
g1419
sg64
(lp1435
g57
(g58
g59
NtRp1436
(dp1437
g62
(dp1438
g70
I4
ssg71
g1432
sg64
(lp1439
g57
(g66
g59
NtRp1440
(dp1441
g62
(dp1442
g70
I3
ssg71
Nsg64
(lp1443
g57
(g73
g59
NtRp1444
(dp1445
g62
(dp1446
sg71
g1440
sg64
(lp1447
g57
(g78
g59
NtRp1448
(dp1449
g62
(dp1450
sg71
g1444
sg64
(lp1451
g57
(g58
g59
NtRp1452
(dp1453
g62
(dp1454
g70
I3
ssg71
g1448
sg64
(lp1455
S'2'
asbasbasbag57
(g73
g59
NtRp1456
(dp1457
g62
(dp1458
sg71
g1440
sg64
(lp1459
g57
(g78
g59
NtRp1460
(dp1461
g62
(dp1462
sg71
g1456
sg64
(lp1463
g57
(g58
g59
NtRp1464
(dp1465
g62
(dp1466
g70
I3
ssg71
g1460
sg64
(lp1467
S'3'
asbasbasbag57
(g73
g59
NtRp1468
(dp1469
g62
(dp1470
sg71
g1440
sg64
(lp1471
g57
(g78
g59
NtRp1472
(dp1473
g62
(dp1474
sg71
g1468
sg64
(lp1475
g57
(g58
g59
NtRp1476
(dp1477
g62
(dp1478
g70
I3
ssg71
g1472
sg64
(lp1479
S'2'
asbasbasbag57
(g73
g59
NtRp1480
(dp1481
g62
(dp1482
sg71
g1440
sg64
(lp1483
g57
(g78
g59
NtRp1484
(dp1485
g62
(dp1486
sg71
g1480
sg64
(lp1487
g57
(g58
g59
NtRp1488
(dp1489
g62
(dp1490
g70
I3
ssg71
g1484
sg64
(lp1491
S'datetime.datetime(2012, 12, 17, 15, 3, 30)'
p1492
asbasbasbag57
(g73
g59
NtRp1493
(dp1494
g62
(dp1495
sg71
g1440
sg64
(lp1496
g57
(g78
g59
NtRp1497
(dp1498
g62
(dp1499
sg71
g1493
sg64
(lp1500
g57
(g58
g59
NtRp1501
(dp1502
g62
(dp1503
g70
I3
ssg71
g1497
sg64
(lp1504
S'stable'
p1505
asbasbasbasbasbasbasbag57
(g73
g59
NtRp1506
(dp1507
g62
(dp1508
sg71
g661
sg64
(lp1509
g57
(g78
g59
NtRp1510
(dp1511
g62
(dp1512
g82
g83
ssg71
g1506
sg64
(lp1513
S'wsgi_errors'
p1514
asbag57
(g78
g59
NtRp1515
(dp1516
g62
(dp1517
g89
g90
ssg71
g1506
sg64
(lp1518
S':'
asbag57
(g78
g59
NtRp1519
(dp1520
g62
(dp1521
sg71
g1506
sg64
(lp1522
g57
(g58
g59
NtRp1523
(dp1524
g62
(dp1525
g70
I4
ssg71
g1519
sg64
(lp1526
S"<open file '<stderr>', mode 'w' at 0x7f635a603270>"
p1527
asbasbasbag57
(g73
g59
NtRp1528
(dp1529
g62
(dp1530
sg71
g661
sg64
(lp1531
g57
(g78
g59
NtRp1532
(dp1533
g62
(dp1534
g82
g83
ssg71
g1528
sg64
(lp1535
S'wsgi_file_wrapper'
p1536
asbag57
(g78
g59
NtRp1537
(dp1538
g62
(dp1539
g89
g90
ssg71
g1528
sg64
(lp1540
S':'
asbag57
(g78
g59
NtRp1541
(dp1542
g62
(dp1543
sg71
g1528
sg64
(lp1544
g57
(g58
g59
NtRp1545
(dp1546
g62
(dp1547
g70
I4
ssg71
g1541
sg64
(lp1548
S'<class wsgiref.util.FileWrapper at 0x2bb2598>'
p1549
asbasbasbag57
(g73
g59
NtRp1550
(dp1551
g62
(dp1552
sg71
g661
sg64
(lp1553
g57
(g78
g59
NtRp1554
(dp1555
g62
(dp1556
g82
g83
ssg71
g1550
sg64
(lp1557
S'wsgi_input'
p1558
asbag57
(g78
g59
NtRp1559
(dp1560
g62
(dp1561
g89
g90
ssg71
g1550
sg64
(lp1562
S':'
asbag57
(g78
g59
NtRp1563
(dp1564
g62
(dp1565
sg71
g1550
sg64
(lp1566
g57
(g58
g59
NtRp1567
(dp1568
g62
(dp1569
g70
I4
ssg71
g1563
sg64
(lp1570
S'<socket._fileobject object at 0x7f632832f6d0>'
p1571
asbasbasbag57
(g73
g59
NtRp1572
(dp1573
g62
(dp1574
sg71
g661
sg64
(lp1575
g57
(g78
g59
NtRp1576
(dp1577
g62
(dp1578
g82
g83
ssg71
g1572
sg64
(lp1579
S'wsgi_multiprocess'
p1580
asbag57
(g78
g59
NtRp1581
(dp1582
g62
(dp1583
g89
g90
ssg71
g1572
sg64
(lp1584
S':'
asbag57
(g78
g59
NtRp1585
(dp1586
g62
(dp1587
sg71
g1572
sg64
(lp1588
g57
(g58
g59
NtRp1589
(dp1590
g62
(dp1591
g70
I4
ssg71
g1585
sg64
(lp1592
g100
asbasbasbag57
(g73
g59
NtRp1593
(dp1594
g62
(dp1595
sg71
g661
sg64
(lp1596
g57
(g78
g59
NtRp1597
(dp1598
g62
(dp1599
g82
g83
ssg71
g1593
sg64
(lp1600
S'wsgi_multithread'
p1601
asbag57
(g78
g59
NtRp1602
(dp1603
g62
(dp1604
g89
g90
ssg71
g1593
sg64
(lp1605
S':'
asbag57
(g78
g59
NtRp1606
(dp1607
g62
(dp1608
sg71
g1593
sg64
(lp1609
g57
(g58
g59
NtRp1610
(dp1611
g62
(dp1612
g70
I4
ssg71
g1606
sg64
(lp1613
S'True'
p1614
asbasbasbag57
(g73
g59
NtRp1615
(dp1616
g62
(dp1617
sg71
g661
sg64
(lp1618
g57
(g78
g59
NtRp1619
(dp1620
g62
(dp1621
g82
g83
ssg71
g1615
sg64
(lp1622
S'wsgi_run_once'
p1623
asbag57
(g78
g59
NtRp1624
(dp1625
g62
(dp1626
g89
g90
ssg71
g1615
sg64
(lp1627
S':'
asbag57
(g78
g59
NtRp1628
(dp1629
g62
(dp1630
sg71
g1615
sg64
(lp1631
g57
(g58
g59
NtRp1632
(dp1633
g62
(dp1634
g70
I4
ssg71
g1628
sg64
(lp1635
g100
asbasbasbag57
(g73
g59
NtRp1636
(dp1637
g62
(dp1638
sg71
g661
sg64
(lp1639
g57
(g78
g59
NtRp1640
(dp1641
g62
(dp1642
g82
g83
ssg71
g1636
sg64
(lp1643
S'wsgi_url_scheme'
p1644
asbag57
(g78
g59
NtRp1645
(dp1646
g62
(dp1647
g89
g90
ssg71
g1636
sg64
(lp1648
S':'
asbag57
(g78
g59
NtRp1649
(dp1650
g62
(dp1651
sg71
g1636
sg64
(lp1652
g57
(g58
g59
NtRp1653
(dp1654
g62
(dp1655
g70
I4
ssg71
g1649
sg64
(lp1656
S'http'
p1657
asbasbasbag57
(g73
g59
NtRp1658
(dp1659
g62
(dp1660
sg71
g661
sg64
(lp1661
g57
(g78
g59
NtRp1662
(dp1663
g62
(dp1664
g82
g83
ssg71
g1658
sg64
(lp1665
S'wsgi_version'
p1666
asbag57
(g78
g59
NtRp1667
(dp1668
g62
(dp1669
g89
g90
ssg71
g1658
sg64
(lp1670
S':'
asbag57
(g78
g59
NtRp1671
(dp1672
g62
(dp1673
sg71
g1658
sg64
(lp1674
g57
(g58
g59
NtRp1675
(dp1676
g62
(dp1677
g70
I4
ssg71
g1671
sg64
(lp1678
g57
(g66
g59
NtRp1679
(dp1680
g62
(dp1681
g70
I3
ssg71
Nsg64
(lp1682
g57
(g73
g59
NtRp1683
(dp1684
g62
(dp1685
sg71
g1679
sg64
(lp1686
g57
(g78
g59
NtRp1687
(dp1688
g62
(dp1689
sg71
g1683
sg64
(lp1690
g57
(g58
g59
NtRp1691
(dp1692
g62
(dp1693
g70
I3
ssg71
g1687
sg64
(lp1694
S'1'
asbasbasbag57
(g73
g59
NtRp1695
(dp1696
g62
(dp1697
sg71
g1679
sg64
(lp1698
g57
(g78
g59
NtRp1699
(dp1700
g62
(dp1701
sg71
g1695
sg64
(lp1702
g57
(g58
g59
NtRp1703
(dp1704
g62
(dp1705
g70
I3
ssg71
g1699
sg64
(lp1706
S'0'
asbasbasbasbasbasbasbasbasbasbasbag57
(g73
g59
NtRp1707
(dp1708
g62
(dp1709
sg71
g67
sg64
(lp1710
g57
(g78
g59
NtRp1711
(dp1712
g62
(dp1713
g82
g83
ssg71
g1707
sg64
(lp1714
S'extension'
p1715
asbag57
(g78
g59
NtRp1716
(dp1717
g62
(dp1718
g89
g90
ssg71
g1707
sg64
(lp1719
S':'
asbag57
(g78
g59
NtRp1720
(dp1721
g62
(dp1722
sg71
g1707
sg64
(lp1723
g57
(g58
g59
NtRp1724
(dp1725
g62
(dp1726
g70
I5
ssg71
g1720
sg64
(lp1727
S'html'
p1728
asbasbasbag57
(g73
g59
NtRp1729
(dp1730
g62
(dp1731
sg71
g67
sg64
(lp1732
g57
(g78
g59
NtRp1733
(dp1734
g62
(dp1735
g82
g83
ssg71
g1729
sg64
(lp1736
S'folder'
p1737
asbag57
(g78
g59
NtRp1738
(dp1739
g62
(dp1740
g89
g90
ssg71
g1729
sg64
(lp1741
S':'
asbag57
(g78
g59
NtRp1742
(dp1743
g62
(dp1744
sg71
g1729
sg64
(lp1745
g57
(g58
g59
NtRp1746
(dp1747
g62
(dp1748
g70
I5
ssg71
g1742
sg64
(lp1749
S'/var/www/conferencia/applications/projeto/'
p1750
asbasbasbag57
(g73
g59
NtRp1751
(dp1752
g62
(dp1753
sg71
g67
sg64
(lp1754
g57
(g78
g59
NtRp1755
(dp1756
g62
(dp1757
g82
g83
ssg71
g1751
sg64
(lp1758
S'function'
p1759
asbag57
(g78
g59
NtRp1760
(dp1761
g62
(dp1762
g89
g90
ssg71
g1751
sg64
(lp1763
S':'
asbag57
(g78
g59
NtRp1764
(dp1765
g62
(dp1766
sg71
g1751
sg64
(lp1767
g57
(g58
g59
NtRp1768
(dp1769
g62
(dp1770
g70
I5
ssg71
g1764
sg64
(lp1771
S'show_cliente'
p1772
asbasbasbag57
(g73
g59
NtRp1773
(dp1774
g62
(dp1775
sg71
g67
sg64
(lp1776
g57
(g78
g59
NtRp1777
(dp1778
g62
(dp1779
g82
g83
ssg71
g1773
sg64
(lp1780
S'get_vars'
p1781
asbag57
(g78
g59
NtRp1782
(dp1783
g62
(dp1784
g89
g90
ssg71
g1773
sg64
(lp1785
S':'
asbag57
(g78
g59
NtRp1786
(dp1787
g62
(dp1788
sg71
g1773
sg64
(lp1789
g57
(g58
g59
NtRp1790
(dp1791
g62
(dp1792
g70
I5
ssg71
g1786
sg64
(lp1793
g57
(g66
g59
NtRp1794
(dp1795
g62
(dp1796
g70
I4
ssg71
Nsg64
(lp1797
sbasbasbasbag57
(g73
g59
NtRp1798
(dp1799
g62
(dp1800
sg71
g67
sg64
(lp1801
g57
(g78
g59
NtRp1802
(dp1803
g62
(dp1804
g82
g83
ssg71
g1798
sg64
(lp1805
S'global_settings'
p1806
asbag57
(g78
g59
NtRp1807
(dp1808
g62
(dp1809
g89
g90
ssg71
g1798
sg64
(lp1810
S':'
asbag57
(g78
g59
NtRp1811
(dp1812
g62
(dp1813
sg71
g1798
sg64
(lp1814
g57
(g58
g59
NtRp1815
(dp1816
g62
(dp1817
g70
I5
ssg71
g1811
sg64
(lp1818
g57
(g66
g59
NtRp1819
(dp1820
g62
(dp1821
g70
I4
ssg71
Nsg64
(lp1822
g57
(g73
g59
NtRp1823
(dp1824
g62
(dp1825
sg71
g1819
sg64
(lp1826
g57
(g78
g59
NtRp1827
(dp1828
g62
(dp1829
g82
g83
ssg71
g1823
sg64
(lp1830
g673
asbag57
(g78
g59
NtRp1831
(dp1832
g62
(dp1833
g89
g90
ssg71
g1823
sg64
(lp1834
S':'
asbag57
(g78
g59
NtRp1835
(dp1836
g62
(dp1837
sg71
g1823
sg64
(lp1838
g57
(g58
g59
NtRp1839
(dp1840
g62
(dp1841
g70
I4
ssg71
g1835
sg64
(lp1842
S"set(['/var/www/conferencia/applications/admin/', '/var/www/conferencia/applications/projeto/'])"
p1843
asbasbasbag57
(g73
g59
NtRp1844
(dp1845
g62
(dp1846
sg71
g1819
sg64
(lp1847
g57
(g78
g59
NtRp1848
(dp1849
g62
(dp1850
g82
g83
ssg71
g1844
sg64
(lp1851
g695
asbag57
(g78
g59
NtRp1852
(dp1853
g62
(dp1854
g89
g90
ssg71
g1844
sg64
(lp1855
S':'
asbag57
(g78
g59
NtRp1856
(dp1857
g62
(dp1858
sg71
g1844
sg64
(lp1859
g57
(g58
g59
NtRp1860
(dp1861
g62
(dp1862
g70
I4
ssg71
g1856
sg64
(lp1863
g708
asbasbasbag57
(g73
g59
NtRp1864
(dp1865
g62
(dp1866
sg71
g1819
sg64
(lp1867
g57
(g78
g59
NtRp1868
(dp1869
g62
(dp1870
g82
g83
ssg71
g1864
sg64
(lp1871
g717
asbag57
(g78
g59
NtRp1872
(dp1873
g62
(dp1874
g89
g90
ssg71
g1864
sg64
(lp1875
S':'
asbag57
(g78
g59
NtRp1876
(dp1877
g62
(dp1878
sg71
g1864
sg64
(lp1879
g57
(g58
g59
NtRp1880
(dp1881
g62
(dp1882
g70
I4
ssg71
g1876
sg64
(lp1883
g57
(g66
g59
NtRp1884
(dp1885
g62
(dp1886
g70
I3
ssg71
Nsg64
(lp1887
sbasbasbasbag57
(g73
g59
NtRp1888
(dp1889
g62
(dp1890
sg71
g1819
sg64
(lp1891
g57
(g78
g59
NtRp1892
(dp1893
g62
(dp1894
g82
g83
ssg71
g1888
sg64
(lp1895
g742
asbag57
(g78
g59
NtRp1896
(dp1897
g62
(dp1898
g89
g90
ssg71
g1888
sg64
(lp1899
S':'
asbag57
(g78
g59
NtRp1900
(dp1901
g62
(dp1902
sg71
g1888
sg64
(lp1903
g57
(g58
g59
NtRp1904
(dp1905
g62
(dp1906
g70
I4
ssg71
g1900
sg64
(lp1907
S"<Values at 0x2c3b248: {'verbose': False, 'ip': '127.0.0.1', 'with_scheduler': False, 'ips': [], 'shutdown_timeout': 5, 'taskbar': False, 'port': 8000, 'maxthreads': None, 'softcron': False, 'server_name': 'fernando-workstation', 'bpython': False, 'nogui': False, 'pid_filename': 'httpserver.pid', 'extcron': False, 'runcron': False, 'run_system_tests': False, 'test': None, 'folder': '/var/www/conferencia', 'config': '', 'minthreads': None, 'winservice': '', 'shell': None, 'run': '', 'log_filename': 'httpserver.log', 'debuglevel': 30, 'args': [''], 'socket_timeout': 5, 'ssl_ca_certificate': None, 'scheduler': None, 'profiler_filename': None, 'ssl_private_key': '', 'scheduler_groups': None, 'password': '123456', 'request_queue_size': 5, 'ssl_certificate': '', 'cronjob': False, 'numthreads': None, 'quiet': False, 'interfaces': None, 'import_models': False, 'timeout': 10, 'plain': False, 'nobanner': False}>"
p1908
asbasbasbag57
(g73
g59
NtRp1909
(dp1910
g62
(dp1911
sg71
g1819
sg64
(lp1912
g57
(g78
g59
NtRp1913
(dp1914
g62
(dp1915
g82
g83
ssg71
g1909
sg64
(lp1916
g764
asbag57
(g78
g59
NtRp1917
(dp1918
g62
(dp1919
g89
g90
ssg71
g1909
sg64
(lp1920
S':'
asbag57
(g78
g59
NtRp1921
(dp1922
g62
(dp1923
sg71
g1909
sg64
(lp1924
g57
(g58
g59
NtRp1925
(dp1926
g62
(dp1927
g70
I4
ssg71
g1921
sg64
(lp1928
S'set([])'
p1929
asbasbasbag57
(g73
g59
NtRp1930
(dp1931
g62
(dp1932
sg71
g1819
sg64
(lp1933
g57
(g78
g59
NtRp1934
(dp1935
g62
(dp1936
g82
g83
ssg71
g1930
sg64
(lp1937
g786
asbag57
(g78
g59
NtRp1938
(dp1939
g62
(dp1940
g89
g90
ssg71
g1930
sg64
(lp1941
S':'
asbag57
(g78
g59
NtRp1942
(dp1943
g62
(dp1944
sg71
g1930
sg64
(lp1945
g57
(g58
g59
NtRp1946
(dp1947
g62
(dp1948
g70
I4
ssg71
g1942
sg64
(lp1949
g100
asbasbasbag57
(g73
g59
NtRp1950
(dp1951
g62
(dp1952
sg71
g1819
sg64
(lp1953
g57
(g78
g59
NtRp1954
(dp1955
g62
(dp1956
g82
g83
ssg71
g1950
sg64
(lp1957
g807
asbag57
(g78
g59
NtRp1958
(dp1959
g62
(dp1960
g89
g90
ssg71
g1950
sg64
(lp1961
S':'
asbag57
(g78
g59
NtRp1962
(dp1963
g62
(dp1964
sg71
g1950
sg64
(lp1965
g57
(g58
g59
NtRp1966
(dp1967
g62
(dp1968
g70
I4
ssg71
g1962
sg64
(lp1969
g820
asbasbasbag57
(g73
g59
NtRp1970
(dp1971
g62
(dp1972
sg71
g1819
sg64
(lp1973
g57
(g78
g59
NtRp1974
(dp1975
g62
(dp1976
g82
g83
ssg71
g1970
sg64
(lp1977
g1027
asbag57
(g78
g59
NtRp1978
(dp1979
g62
(dp1980
g89
g90
ssg71
g1970
sg64
(lp1981
S':'
asbag57
(g78
g59
NtRp1982
(dp1983
g62
(dp1984
sg71
g1970
sg64
(lp1985
g57
(g58
g59
NtRp1986
(dp1987
g62
(dp1988
g70
I4
ssg71
g1982
sg64
(lp1989
g100
asbasbasbag57
(g73
g59
NtRp1990
(dp1991
g62
(dp1992
sg71
g1819
sg64
(lp1993
g57
(g78
g59
NtRp1994
(dp1995
g62
(dp1996
g82
g83
ssg71
g1990
sg64
(lp1997
g1048
asbag57
(g78
g59
NtRp1998
(dp1999
g62
(dp2000
g89
g90
ssg71
g1990
sg64
(lp2001
S':'
asbag57
(g78
g59
NtRp2002
(dp2003
g62
(dp2004
sg71
g1990
sg64
(lp2005
g57
(g58
g59
NtRp2006
(dp2007
g62
(dp2008
g70
I4
ssg71
g2002
sg64
(lp2009
g100
asbasbasbag57
(g73
g59
NtRp2010
(dp2011
g62
(dp2012
sg71
g1819
sg64
(lp2013
g57
(g78
g59
NtRp2014
(dp2015
g62
(dp2016
g82
g83
ssg71
g2010
sg64
(lp2017
g1069
asbag57
(g78
g59
NtRp2018
(dp2019
g62
(dp2020
g89
g90
ssg71
g2010
sg64
(lp2021
S':'
asbag57
(g78
g59
NtRp2022
(dp2023
g62
(dp2024
sg71
g2010
sg64
(lp2025
g57
(g58
g59
NtRp2026
(dp2027
g62
(dp2028
g70
I4
ssg71
g2022
sg64
(lp2029
g57
(g66
g59
NtRp2030
(dp2031
g62
(dp2032
g70
I3
ssg71
Nsg64
(lp2033
g57
(g73
g59
NtRp2034
(dp2035
g62
(dp2036
sg71
g2030
sg64
(lp2037
g57
(g78
g59
NtRp2038
(dp2039
g62
(dp2040
sg71
g2034
sg64
(lp2041
g57
(g58
g59
NtRp2042
(dp2043
g62
(dp2044
g70
I3
ssg71
g2038
sg64
(lp2045
g1098
asbasbasbag57
(g73
g59
NtRp2046
(dp2047
g62
(dp2048
sg71
g2030
sg64
(lp2049
g57
(g78
g59
NtRp2050
(dp2051
g62
(dp2052
sg71
g2046
sg64
(lp2053
g57
(g58
g59
NtRp2054
(dp2055
g62
(dp2056
g70
I3
ssg71
g2050
sg64
(lp2057
g1111
asbasbasbag57
(g73
g59
NtRp2058
(dp2059
g62
(dp2060
sg71
g2030
sg64
(lp2061
g57
(g78
g59
NtRp2062
(dp2063
g62
(dp2064
sg71
g2058
sg64
(lp2065
g57
(g58
g59
NtRp2066
(dp2067
g62
(dp2068
g70
I3
ssg71
g2062
sg64
(lp2069
g1124
asbasbasbag57
(g73
g59
NtRp2070
(dp2071
g62
(dp2072
sg71
g2030
sg64
(lp2073
g57
(g78
g59
NtRp2074
(dp2075
g62
(dp2076
sg71
g2070
sg64
(lp2077
g57
(g58
g59
NtRp2078
(dp2079
g62
(dp2080
g70
I3
ssg71
g2074
sg64
(lp2081
g1137
asbasbasbasbasbasbasbag57
(g73
g59
NtRp2082
(dp2083
g62
(dp2084
sg71
g1819
sg64
(lp2085
g57
(g78
g59
NtRp2086
(dp2087
g62
(dp2088
g82
g83
ssg71
g2082
sg64
(lp2089
g1427
asbag57
(g78
g59
NtRp2090
(dp2091
g62
(dp2092
g89
g90
ssg71
g2082
sg64
(lp2093
S':'
asbag57
(g78
g59
NtRp2094
(dp2095
g62
(dp2096
sg71
g2082
sg64
(lp2097
g57
(g58
g59
NtRp2098
(dp2099
g62
(dp2100
g70
I4
ssg71
g2094
sg64
(lp2101
g57
(g66
g59
NtRp2102
(dp2103
g62
(dp2104
g70
I3
ssg71
Nsg64
(lp2105
g57
(g73
g59
NtRp2106
(dp2107
g62
(dp2108
sg71
g2102
sg64
(lp2109
g57
(g78
g59
NtRp2110
(dp2111
g62
(dp2112
sg71
g2106
sg64
(lp2113
g57
(g58
g59
NtRp2114
(dp2115
g62
(dp2116
g70
I3
ssg71
g2110
sg64
(lp2117
S'2'
asbasbasbag57
(g73
g59
NtRp2118
(dp2119
g62
(dp2120
sg71
g2102
sg64
(lp2121
g57
(g78
g59
NtRp2122
(dp2123
g62
(dp2124
sg71
g2118
sg64
(lp2125
g57
(g58
g59
NtRp2126
(dp2127
g62
(dp2128
g70
I3
ssg71
g2122
sg64
(lp2129
S'3'
asbasbasbag57
(g73
g59
NtRp2130
(dp2131
g62
(dp2132
sg71
g2102
sg64
(lp2133
g57
(g78
g59
NtRp2134
(dp2135
g62
(dp2136
sg71
g2130
sg64
(lp2137
g57
(g58
g59
NtRp2138
(dp2139
g62
(dp2140
g70
I3
ssg71
g2134
sg64
(lp2141
S'2'
asbasbasbag57
(g73
g59
NtRp2142
(dp2143
g62
(dp2144
sg71
g2102
sg64
(lp2145
g57
(g78
g59
NtRp2146
(dp2147
g62
(dp2148
sg71
g2142
sg64
(lp2149
g57
(g58
g59
NtRp2150
(dp2151
g62
(dp2152
g70
I3
ssg71
g2146
sg64
(lp2153
S'datetime.datetime(2012, 12, 17, 15, 3, 30)'
p2154
asbasbasbag57
(g73
g59
NtRp2155
(dp2156
g62
(dp2157
sg71
g2102
sg64
(lp2158
g57
(g78
g59
NtRp2159
(dp2160
g62
(dp2161
sg71
g2155
sg64
(lp2162
g57
(g58
g59
NtRp2163
(dp2164
g62
(dp2165
g70
I3
ssg71
g2159
sg64
(lp2166
g1505
asbasbasbasbasbasbasbasbasbasbasbag57
(g73
g59
NtRp2167
(dp2168
g62
(dp2169
sg71
g67
sg64
(lp2170
g57
(g78
g59
NtRp2171
(dp2172
g62
(dp2173
g82
g83
ssg71
g2167
sg64
(lp2174
S'is_https'
p2175
asbag57
(g78
g59
NtRp2176
(dp2177
g62
(dp2178
g89
g90
ssg71
g2167
sg64
(lp2179
S':'
asbag57
(g78
g59
NtRp2180
(dp2181
g62
(dp2182
sg71
g2167
sg64
(lp2183
g57
(g58
g59
NtRp2184
(dp2185
g62
(dp2186
g70
I5
ssg71
g2180
sg64
(lp2187
g100
asbasbasbag57
(g73
g59
NtRp2188
(dp2189
g62
(dp2190
sg71
g67
sg64
(lp2191
g57
(g78
g59
NtRp2192
(dp2193
g62
(dp2194
g82
g83
ssg71
g2188
sg64
(lp2195
S'is_local'
p2196
asbag57
(g78
g59
NtRp2197
(dp2198
g62
(dp2199
g89
g90
ssg71
g2188
sg64
(lp2200
S':'
asbag57
(g78
g59
NtRp2201
(dp2202
g62
(dp2203
sg71
g2188
sg64
(lp2204
g57
(g58
g59
NtRp2205
(dp2206
g62
(dp2207
g70
I5
ssg71
g2201
sg64
(lp2208
g1614
asbasbasbag57
(g73
g59
NtRp2209
(dp2210
g62
(dp2211
sg71
g67
sg64
(lp2212
g57
(g78
g59
NtRp2213
(dp2214
g62
(dp2215
g82
g83
ssg71
g2209
sg64
(lp2216
S'is_restful'
p2217
asbag57
(g78
g59
NtRp2218
(dp2219
g62
(dp2220
g89
g90
ssg71
g2209
sg64
(lp2221
S':'
asbag57
(g78
g59
NtRp2222
(dp2223
g62
(dp2224
sg71
g2209
sg64
(lp2225
g57
(g58
g59
NtRp2226
(dp2227
g62
(dp2228
g70
I5
ssg71
g2222
sg64
(lp2229
g100
asbasbasbag57
(g73
g59
NtRp2230
(dp2231
g62
(dp2232
sg71
g67
sg64
(lp2233
g57
(g78
g59
NtRp2234
(dp2235
g62
(dp2236
g82
g83
ssg71
g2230
sg64
(lp2237
S'now'
p2238
asbag57
(g78
g59
NtRp2239
(dp2240
g62
(dp2241
g89
g90
ssg71
g2230
sg64
(lp2242
S':'
asbag57
(g78
g59
NtRp2243
(dp2244
g62
(dp2245
sg71
g2230
sg64
(lp2246
g57
(g58
g59
NtRp2247
(dp2248
g62
(dp2249
g70
I5
ssg71
g2243
sg64
(lp2250
S'datetime.datetime(2013, 4, 3, 14, 36, 56, 760147)'
p2251
asbasbasbag57
(g73
g59
NtRp2252
(dp2253
g62
(dp2254
sg71
g67
sg64
(lp2255
g57
(g78
g59
NtRp2256
(dp2257
g62
(dp2258
g82
g83
ssg71
g2252
sg64
(lp2259
S'post_vars'
p2260
asbag57
(g78
g59
NtRp2261
(dp2262
g62
(dp2263
g89
g90
ssg71
g2252
sg64
(lp2264
S':'
asbag57
(g78
g59
NtRp2265
(dp2266
g62
(dp2267
sg71
g2252
sg64
(lp2268
g57
(g58
g59
NtRp2269
(dp2270
g62
(dp2271
g70
I5
ssg71
g2265
sg64
(lp2272
g57
(g66
g59
NtRp2273
(dp2274
g62
(dp2275
g70
I4
ssg71
Nsg64
(lp2276
sbasbasbasbag57
(g73
g59
NtRp2277
(dp2278
g62
(dp2279
sg71
g67
sg64
(lp2280
g57
(g78
g59
NtRp2281
(dp2282
g62
(dp2283
g82
g83
ssg71
g2277
sg64
(lp2284
S'url'
p2285
asbag57
(g78
g59
NtRp2286
(dp2287
g62
(dp2288
g89
g90
ssg71
g2277
sg64
(lp2289
S':'
asbag57
(g78
g59
NtRp2290
(dp2291
g62
(dp2292
sg71
g2277
sg64
(lp2293
g57
(g58
g59
NtRp2294
(dp2295
g62
(dp2296
g70
I5
ssg71
g2290
sg64
(lp2297
g1159
asbasbasbag57
(g73
g59
NtRp2298
(dp2299
g62
(dp2300
sg71
g67
sg64
(lp2301
g57
(g78
g59
NtRp2302
(dp2303
g62
(dp2304
g82
g83
ssg71
g2298
sg64
(lp2305
S'utcnow'
p2306
asbag57
(g78
g59
NtRp2307
(dp2308
g62
(dp2309
g89
g90
ssg71
g2298
sg64
(lp2310
S':'
asbag57
(g78
g59
NtRp2311
(dp2312
g62
(dp2313
sg71
g2298
sg64
(lp2314
g57
(g58
g59
NtRp2315
(dp2316
g62
(dp2317
g70
I5
ssg71
g2311
sg64
(lp2318
S'datetime.datetime(2013, 4, 3, 17, 36, 56, 760200)'
p2319
asbasbasbag57
(g73
g59
NtRp2320
(dp2321
g62
(dp2322
sg71
g67
sg64
(lp2323
g57
(g78
g59
NtRp2324
(dp2325
g62
(dp2326
g82
g83
ssg71
g2320
sg64
(lp2327
S'uuid'
p2328
asbag57
(g78
g59
NtRp2329
(dp2330
g62
(dp2331
g89
g90
ssg71
g2320
sg64
(lp2332
S':'
asbag57
(g78
g59
NtRp2333
(dp2334
g62
(dp2335
sg71
g2320
sg64
(lp2336
g57
(g58
g59
NtRp2337
(dp2338
g62
(dp2339
g70
I5
ssg71
g2333
sg64
(lp2340
S'projeto/127.0.0.1.2013-04-03.14-36-56.01a9b9c1-447f-4904-9a6f-217cc6b3dad4'
p2341
asbasbasbag57
(g73
g59
NtRp2342
(dp2343
g62
(dp2344
sg71
g67
sg64
(lp2345
g57
(g78
g59
NtRp2346
(dp2347
g62
(dp2348
g82
g83
ssg71
g2342
sg64
(lp2349
S'vars'
p2350
asbag57
(g78
g59
NtRp2351
(dp2352
g62
(dp2353
g89
g90
ssg71
g2342
sg64
(lp2354
S':'
asbag57
(g78
g59
NtRp2355
(dp2356
g62
(dp2357
sg71
g2342
sg64
(lp2358
g57
(g58
g59
NtRp2359
(dp2360
g62
(dp2361
g70
I5
ssg71
g2355
sg64
(lp2362
g57
(g66
g59
NtRp2363
(dp2364
g62
(dp2365
g70
I4
ssg71
Nsg64
(lp2366
g57
(g73
g59
NtRp2367
(dp2368
g62
(dp2369
sg71
g2363
sg64
(lp2370
g57
(g78
g59
NtRp2371
(dp2372
g62
(dp2373
g82
g83
ssg71
g2367
sg64
(lp2374
S'records'
p2375
asbag57
(g78
g59
NtRp2376
(dp2377
g62
(dp2378
g89
g90
ssg71
g2367
sg64
(lp2379
S':'
asbag57
(g78
g59
NtRp2380
(dp2381
g62
(dp2382
sg71
g2367
sg64
(lp2383
g57
(g58
g59
NtRp2384
(dp2385
g62
(dp2386
g70
I4
ssg71
g2380
sg64
(lp2387
g57
(g66
g59
NtRp2388
(dp2389
g62
(dp2390
g70
I3
ssg71
Nsg64
(lp2391
sbasbasbasbasbasbasbasbag57
(g73
g59
NtRp2392
(dp2393
g62
(dp2394
sg71
g67
sg64
(lp2395
g57
(g78
g59
NtRp2396
(dp2397
g62
(dp2398
g82
g83
ssg71
g2392
sg64
(lp2399
S'wsgi'
p2400
asbag57
(g78
g59
NtRp2401
(dp2402
g62
(dp2403
g89
g90
ssg71
g2392
sg64
(lp2404
S':'
asbag57
(g78
g59
NtRp2405
(dp2406
g62
(dp2407
sg71
g2392
sg64
(lp2408
g57
(g58
g59
NtRp2409
(dp2410
g62
(dp2411
g70
I5
ssg71
g2405
sg64
(lp2412
g57
(g66
g59
NtRp2413
(dp2414
g62
(dp2415
g70
I4
ssg71
Nsg64
(lp2416
g57
(g73
g59
NtRp2417
(dp2418
g62
(dp2419
sg71
g2413
sg64
(lp2420
g57
(g78
g59
NtRp2421
(dp2422
g62
(dp2423
g82
g83
ssg71
g2417
sg64
(lp2424
S'environ'
p2425
asbag57
(g78
g59
NtRp2426
(dp2427
g62
(dp2428
g89
g90
ssg71
g2417
sg64
(lp2429
S':'
asbag57
(g78
g59
NtRp2430
(dp2431
g62
(dp2432
sg71
g2417
sg64
(lp2433
g57
(g58
g59
NtRp2434
(dp2435
g62
(dp2436
g70
I4
ssg71
g2430
sg64
(lp2437
g57
(g66
g59
NtRp2438
(dp2439
g62
(dp2440
g70
I3
ssg71
Nsg64
(lp2441
g57
(g73
g59
NtRp2442
(dp2443
g62
(dp2444
sg71
g2438
sg64
(lp2445
g57
(g78
g59
NtRp2446
(dp2447
g62
(dp2448
g82
g83
ssg71
g2442
sg64
(lp2449
S'HTTP_ACCEPT'
p2450
asbag57
(g78
g59
NtRp2451
(dp2452
g62
(dp2453
g89
g90
ssg71
g2442
sg64
(lp2454
S':'
asbag57
(g78
g59
NtRp2455
(dp2456
g62
(dp2457
sg71
g2442
sg64
(lp2458
g57
(g58
g59
NtRp2459
(dp2460
g62
(dp2461
g70
I3
ssg71
g2455
sg64
(lp2462
g842
asbasbasbag57
(g73
g59
NtRp2463
(dp2464
g62
(dp2465
sg71
g2438
sg64
(lp2466
g57
(g78
g59
NtRp2467
(dp2468
g62
(dp2469
g82
g83
ssg71
g2463
sg64
(lp2470
S'HTTP_ACCEPT_CHARSET'
p2471
asbag57
(g78
g59
NtRp2472
(dp2473
g62
(dp2474
g89
g90
ssg71
g2463
sg64
(lp2475
S':'
asbag57
(g78
g59
NtRp2476
(dp2477
g62
(dp2478
sg71
g2463
sg64
(lp2479
g57
(g58
g59
NtRp2480
(dp2481
g62
(dp2482
g70
I3
ssg71
g2476
sg64
(lp2483
g864
asbasbasbag57
(g73
g59
NtRp2484
(dp2485
g62
(dp2486
sg71
g2438
sg64
(lp2487
g57
(g78
g59
NtRp2488
(dp2489
g62
(dp2490
g82
g83
ssg71
g2484
sg64
(lp2491
S'HTTP_ACCEPT_ENCODING'
p2492
asbag57
(g78
g59
NtRp2493
(dp2494
g62
(dp2495
g89
g90
ssg71
g2484
sg64
(lp2496
S':'
asbag57
(g78
g59
NtRp2497
(dp2498
g62
(dp2499
sg71
g2484
sg64
(lp2500
g57
(g58
g59
NtRp2501
(dp2502
g62
(dp2503
g70
I3
ssg71
g2497
sg64
(lp2504
g886
asbasbasbag57
(g73
g59
NtRp2505
(dp2506
g62
(dp2507
sg71
g2438
sg64
(lp2508
g57
(g78
g59
NtRp2509
(dp2510
g62
(dp2511
g82
g83
ssg71
g2505
sg64
(lp2512
S'HTTP_ACCEPT_LANGUAGE'
p2513
asbag57
(g78
g59
NtRp2514
(dp2515
g62
(dp2516
g89
g90
ssg71
g2505
sg64
(lp2517
S':'
asbag57
(g78
g59
NtRp2518
(dp2519
g62
(dp2520
sg71
g2505
sg64
(lp2521
g57
(g58
g59
NtRp2522
(dp2523
g62
(dp2524
g70
I3
ssg71
g2518
sg64
(lp2525
g908
asbasbasbag57
(g73
g59
NtRp2526
(dp2527
g62
(dp2528
sg71
g2438
sg64
(lp2529
g57
(g78
g59
NtRp2530
(dp2531
g62
(dp2532
g82
g83
ssg71
g2526
sg64
(lp2533
S'HTTP_CONNECTION'
p2534
asbag57
(g78
g59
NtRp2535
(dp2536
g62
(dp2537
g89
g90
ssg71
g2526
sg64
(lp2538
S':'
asbag57
(g78
g59
NtRp2539
(dp2540
g62
(dp2541
sg71
g2526
sg64
(lp2542
g57
(g58
g59
NtRp2543
(dp2544
g62
(dp2545
g70
I3
ssg71
g2539
sg64
(lp2546
g930
asbasbasbag57
(g73
g59
NtRp2547
(dp2548
g62
(dp2549
sg71
g2438
sg64
(lp2550
g57
(g78
g59
NtRp2551
(dp2552
g62
(dp2553
g82
g83
ssg71
g2547
sg64
(lp2554
S'HTTP_COOKIE'
p2555
asbag57
(g78
g59
NtRp2556
(dp2557
g62
(dp2558
g89
g90
ssg71
g2547
sg64
(lp2559
S':'
asbag57
(g78
g59
NtRp2560
(dp2561
g62
(dp2562
sg71
g2547
sg64
(lp2563
g57
(g58
g59
NtRp2564
(dp2565
g62
(dp2566
g70
I3
ssg71
g2560
sg64
(lp2567
g952
asbasbasbag57
(g73
g59
NtRp2568
(dp2569
g62
(dp2570
sg71
g2438
sg64
(lp2571
g57
(g78
g59
NtRp2572
(dp2573
g62
(dp2574
g82
g83
ssg71
g2568
sg64
(lp2575
S'HTTP_HOST'
p2576
asbag57
(g78
g59
NtRp2577
(dp2578
g62
(dp2579
g89
g90
ssg71
g2568
sg64
(lp2580
S':'
asbag57
(g78
g59
NtRp2581
(dp2582
g62
(dp2583
sg71
g2568
sg64
(lp2584
g57
(g58
g59
NtRp2585
(dp2586
g62
(dp2587
g70
I3
ssg71
g2581
sg64
(lp2588
g974
asbasbasbag57
(g73
g59
NtRp2589
(dp2590
g62
(dp2591
sg71
g2438
sg64
(lp2592
g57
(g78
g59
NtRp2593
(dp2594
g62
(dp2595
g82
g83
ssg71
g2589
sg64
(lp2596
S'HTTP_REFERER'
p2597
asbag57
(g78
g59
NtRp2598
(dp2599
g62
(dp2600
g89
g90
ssg71
g2589
sg64
(lp2601
S':'
asbag57
(g78
g59
NtRp2602
(dp2603
g62
(dp2604
sg71
g2589
sg64
(lp2605
g57
(g58
g59
NtRp2606
(dp2607
g62
(dp2608
g70
I3
ssg71
g2602
sg64
(lp2609
g996
asbasbasbag57
(g73
g59
NtRp2610
(dp2611
g62
(dp2612
sg71
g2438
sg64
(lp2613
g57
(g78
g59
NtRp2614
(dp2615
g62
(dp2616
g82
g83
ssg71
g2610
sg64
(lp2617
S'HTTP_USER_AGENT'
p2618
asbag57
(g78
g59
NtRp2619
(dp2620
g62
(dp2621
g89
g90
ssg71
g2610
sg64
(lp2622
S':'
asbag57
(g78
g59
NtRp2623
(dp2624
g62
(dp2625
sg71
g2610
sg64
(lp2626
g57
(g58
g59
NtRp2627
(dp2628
g62
(dp2629
g70
I3
ssg71
g2623
sg64
(lp2630
g1018
asbasbasbag57
(g73
g59
NtRp2631
(dp2632
g62
(dp2633
sg71
g2438
sg64
(lp2634
g57
(g78
g59
NtRp2635
(dp2636
g62
(dp2637
g82
g83
ssg71
g2631
sg64
(lp2638
S'PATH_INFO'
p2639
asbag57
(g78
g59
NtRp2640
(dp2641
g62
(dp2642
g89
g90
ssg71
g2631
sg64
(lp2643
S':'
asbag57
(g78
g59
NtRp2644
(dp2645
g62
(dp2646
sg71
g2631
sg64
(lp2647
g57
(g58
g59
NtRp2648
(dp2649
g62
(dp2650
g70
I3
ssg71
g2644
sg64
(lp2651
g1159
asbasbasbag57
(g73
g59
NtRp2652
(dp2653
g62
(dp2654
sg71
g2438
sg64
(lp2655
g57
(g78
g59
NtRp2656
(dp2657
g62
(dp2658
g82
g83
ssg71
g2652
sg64
(lp2659
S'QUERY_STRING'
p2660
asbag57
(g78
g59
NtRp2661
(dp2662
g62
(dp2663
g89
g90
ssg71
g2652
sg64
(lp2664
S':'
asbag57
(g78
g59
NtRp2665
(dp2666
g62
(dp2667
sg71
g2652
sg64
(lp2668
g57
(g58
g59
NtRp2669
(dp2670
g62
(dp2671
g70
I3
ssg71
g2665
sg64
(lp2672
S''
asbasbasbag57
(g73
g59
NtRp2673
(dp2674
g62
(dp2675
sg71
g2438
sg64
(lp2676
g57
(g78
g59
NtRp2677
(dp2678
g62
(dp2679
g82
g83
ssg71
g2673
sg64
(lp2680
S'REMOTE_ADDR'
p2681
asbag57
(g78
g59
NtRp2682
(dp2683
g62
(dp2684
g89
g90
ssg71
g2673
sg64
(lp2685
S':'
asbag57
(g78
g59
NtRp2686
(dp2687
g62
(dp2688
sg71
g2673
sg64
(lp2689
g57
(g58
g59
NtRp2690
(dp2691
g62
(dp2692
g70
I3
ssg71
g2686
sg64
(lp2693
g212
asbasbasbag57
(g73
g59
NtRp2694
(dp2695
g62
(dp2696
sg71
g2438
sg64
(lp2697
g57
(g78
g59
NtRp2698
(dp2699
g62
(dp2700
g82
g83
ssg71
g2694
sg64
(lp2701
S'REMOTE_PORT'
p2702
asbag57
(g78
g59
NtRp2703
(dp2704
g62
(dp2705
g89
g90
ssg71
g2694
sg64
(lp2706
S':'
asbag57
(g78
g59
NtRp2707
(dp2708
g62
(dp2709
sg71
g2694
sg64
(lp2710
g57
(g58
g59
NtRp2711
(dp2712
g62
(dp2713
g70
I3
ssg71
g2707
sg64
(lp2714
g1223
asbasbasbag57
(g73
g59
NtRp2715
(dp2716
g62
(dp2717
sg71
g2438
sg64
(lp2718
g57
(g78
g59
NtRp2719
(dp2720
g62
(dp2721
g82
g83
ssg71
g2715
sg64
(lp2722
S'REQUEST_METHOD'
p2723
asbag57
(g78
g59
NtRp2724
(dp2725
g62
(dp2726
g89
g90
ssg71
g2715
sg64
(lp2727
S':'
asbag57
(g78
g59
NtRp2728
(dp2729
g62
(dp2730
sg71
g2715
sg64
(lp2731
g57
(g58
g59
NtRp2732
(dp2733
g62
(dp2734
g70
I3
ssg71
g2728
sg64
(lp2735
g1245
asbasbasbag57
(g73
g59
NtRp2736
(dp2737
g62
(dp2738
sg71
g2438
sg64
(lp2739
g57
(g78
g59
NtRp2740
(dp2741
g62
(dp2742
g82
g83
ssg71
g2736
sg64
(lp2743
S'REQUEST_URI'
p2744
asbag57
(g78
g59
NtRp2745
(dp2746
g62
(dp2747
g89
g90
ssg71
g2736
sg64
(lp2748
S':'
asbag57
(g78
g59
NtRp2749
(dp2750
g62
(dp2751
sg71
g2736
sg64
(lp2752
g57
(g58
g59
NtRp2753
(dp2754
g62
(dp2755
g70
I3
ssg71
g2749
sg64
(lp2756
g1267
asbasbasbag57
(g73
g59
NtRp2757
(dp2758
g62
(dp2759
sg71
g2438
sg64
(lp2760
g57
(g78
g59
NtRp2761
(dp2762
g62
(dp2763
g82
g83
ssg71
g2757
sg64
(lp2764
S'SCRIPT_NAME'
p2765
asbag57
(g78
g59
NtRp2766
(dp2767
g62
(dp2768
g89
g90
ssg71
g2757
sg64
(lp2769
S':'
asbag57
(g78
g59
NtRp2770
(dp2771
g62
(dp2772
sg71
g2757
sg64
(lp2773
g57
(g58
g59
NtRp2774
(dp2775
g62
(dp2776
g70
I3
ssg71
g2770
sg64
(lp2777
S''
asbasbasbag57
(g73
g59
NtRp2778
(dp2779
g62
(dp2780
sg71
g2438
sg64
(lp2781
g57
(g78
g59
NtRp2782
(dp2783
g62
(dp2784
g82
g83
ssg71
g2778
sg64
(lp2785
S'SERVER_NAME'
p2786
asbag57
(g78
g59
NtRp2787
(dp2788
g62
(dp2789
g89
g90
ssg71
g2778
sg64
(lp2790
S':'
asbag57
(g78
g59
NtRp2791
(dp2792
g62
(dp2793
sg71
g2778
sg64
(lp2794
g57
(g58
g59
NtRp2795
(dp2796
g62
(dp2797
g70
I3
ssg71
g2791
sg64
(lp2798
g1310
asbasbasbag57
(g73
g59
NtRp2799
(dp2800
g62
(dp2801
sg71
g2438
sg64
(lp2802
g57
(g78
g59
NtRp2803
(dp2804
g62
(dp2805
g82
g83
ssg71
g2799
sg64
(lp2806
S'SERVER_PORT'
p2807
asbag57
(g78
g59
NtRp2808
(dp2809
g62
(dp2810
g89
g90
ssg71
g2799
sg64
(lp2811
S':'
asbag57
(g78
g59
NtRp2812
(dp2813
g62
(dp2814
sg71
g2799
sg64
(lp2815
g57
(g58
g59
NtRp2816
(dp2817
g62
(dp2818
g70
I3
ssg71
g2812
sg64
(lp2819
g1332
asbasbasbag57
(g73
g59
NtRp2820
(dp2821
g62
(dp2822
sg71
g2438
sg64
(lp2823
g57
(g78
g59
NtRp2824
(dp2825
g62
(dp2826
g82
g83
ssg71
g2820
sg64
(lp2827
S'SERVER_PROTOCOL'
p2828
asbag57
(g78
g59
NtRp2829
(dp2830
g62
(dp2831
g89
g90
ssg71
g2820
sg64
(lp2832
S':'
asbag57
(g78
g59
NtRp2833
(dp2834
g62
(dp2835
sg71
g2820
sg64
(lp2836
g57
(g58
g59
NtRp2837
(dp2838
g62
(dp2839
g70
I3
ssg71
g2833
sg64
(lp2840
g1354
asbasbasbag57
(g73
g59
NtRp2841
(dp2842
g62
(dp2843
sg71
g2438
sg64
(lp2844
g57
(g78
g59
NtRp2845
(dp2846
g62
(dp2847
g82
g83
ssg71
g2841
sg64
(lp2848
S'SERVER_SOFTWARE'
p2849
asbag57
(g78
g59
NtRp2850
(dp2851
g62
(dp2852
g89
g90
ssg71
g2841
sg64
(lp2853
S':'
asbag57
(g78
g59
NtRp2854
(dp2855
g62
(dp2856
sg71
g2841
sg64
(lp2857
g57
(g58
g59
NtRp2858
(dp2859
g62
(dp2860
g70
I3
ssg71
g2854
sg64
(lp2861
g1376
asbasbasbag57
(g73
g59
NtRp2862
(dp2863
g62
(dp2864
sg71
g2438
sg64
(lp2865
g57
(g78
g59
NtRp2866
(dp2867
g62
(dp2868
g82
g83
ssg71
g2862
sg64
(lp2869
S'WEB2PY_ORIGINAL_URI'
p2870
asbag57
(g78
g59
NtRp2871
(dp2872
g62
(dp2873
g89
g90
ssg71
g2862
sg64
(lp2874
S':'
asbag57
(g78
g59
NtRp2875
(dp2876
g62
(dp2877
sg71
g2862
sg64
(lp2878
g57
(g58
g59
NtRp2879
(dp2880
g62
(dp2881
g70
I3
ssg71
g2875
sg64
(lp2882
g1159
asbasbasbag57
(g73
g59
NtRp2883
(dp2884
g62
(dp2885
sg71
g2438
sg64
(lp2886
g57
(g78
g59
NtRp2887
(dp2888
g62
(dp2889
g82
g83
ssg71
g2883
sg64
(lp2890
S'wsgi.errors'
p2891
asbag57
(g78
g59
NtRp2892
(dp2893
g62
(dp2894
g89
g90
ssg71
g2883
sg64
(lp2895
S':'
asbag57
(g78
g59
NtRp2896
(dp2897
g62
(dp2898
sg71
g2883
sg64
(lp2899
g57
(g58
g59
NtRp2900
(dp2901
g62
(dp2902
g70
I3
ssg71
g2896
sg64
(lp2903
S"<open file '<stderr>', mode 'w' at 0x7f635a603270>"
p2904
asbasbasbag57
(g73
g59
NtRp2905
(dp2906
g62
(dp2907
sg71
g2438
sg64
(lp2908
g57
(g78
g59
NtRp2909
(dp2910
g62
(dp2911
g82
g83
ssg71
g2905
sg64
(lp2912
S'wsgi.file_wrapper'
p2913
asbag57
(g78
g59
NtRp2914
(dp2915
g62
(dp2916
g89
g90
ssg71
g2905
sg64
(lp2917
S':'
asbag57
(g78
g59
NtRp2918
(dp2919
g62
(dp2920
sg71
g2905
sg64
(lp2921
g57
(g58
g59
NtRp2922
(dp2923
g62
(dp2924
g70
I3
ssg71
g2918
sg64
(lp2925
S'<class wsgiref.util.FileWrapper at 0x2bb2598>'
p2926
asbasbasbag57
(g73
g59
NtRp2927
(dp2928
g62
(dp2929
sg71
g2438
sg64
(lp2930
g57
(g78
g59
NtRp2931
(dp2932
g62
(dp2933
g82
g83
ssg71
g2927
sg64
(lp2934
S'wsgi.input'
p2935
asbag57
(g78
g59
NtRp2936
(dp2937
g62
(dp2938
g89
g90
ssg71
g2927
sg64
(lp2939
S':'
asbag57
(g78
g59
NtRp2940
(dp2941
g62
(dp2942
sg71
g2927
sg64
(lp2943
g57
(g58
g59
NtRp2944
(dp2945
g62
(dp2946
g70
I3
ssg71
g2940
sg64
(lp2947
S'<cStringIO.StringO object at 0x7f634c874c00>'
p2948
asbasbasbag57
(g73
g59
NtRp2949
(dp2950
g62
(dp2951
sg71
g2438
sg64
(lp2952
g57
(g78
g59
NtRp2953
(dp2954
g62
(dp2955
g82
g83
ssg71
g2949
sg64
(lp2956
S'wsgi.multiprocess'
p2957
asbag57
(g78
g59
NtRp2958
(dp2959
g62
(dp2960
g89
g90
ssg71
g2949
sg64
(lp2961
S':'
asbag57
(g78
g59
NtRp2962
(dp2963
g62
(dp2964
sg71
g2949
sg64
(lp2965
g57
(g58
g59
NtRp2966
(dp2967
g62
(dp2968
g70
I3
ssg71
g2962
sg64
(lp2969
g100
asbasbasbag57
(g73
g59
NtRp2970
(dp2971
g62
(dp2972
sg71
g2438
sg64
(lp2973
g57
(g78
g59
NtRp2974
(dp2975
g62
(dp2976
g82
g83
ssg71
g2970
sg64
(lp2977
S'wsgi.multithread'
p2978
asbag57
(g78
g59
NtRp2979
(dp2980
g62
(dp2981
g89
g90
ssg71
g2970
sg64
(lp2982
S':'
asbag57
(g78
g59
NtRp2983
(dp2984
g62
(dp2985
sg71
g2970
sg64
(lp2986
g57
(g58
g59
NtRp2987
(dp2988
g62
(dp2989
g70
I3
ssg71
g2983
sg64
(lp2990
g1614
asbasbasbag57
(g73
g59
NtRp2991
(dp2992
g62
(dp2993
sg71
g2438
sg64
(lp2994
g57
(g78
g59
NtRp2995
(dp2996
g62
(dp2997
g82
g83
ssg71
g2991
sg64
(lp2998
S'wsgi.run_once'
p2999
asbag57
(g78
g59
NtRp3000
(dp3001
g62
(dp3002
g89
g90
ssg71
g2991
sg64
(lp3003
S':'
asbag57
(g78
g59
NtRp3004
(dp3005
g62
(dp3006
sg71
g2991
sg64
(lp3007
g57
(g58
g59
NtRp3008
(dp3009
g62
(dp3010
g70
I3
ssg71
g3004
sg64
(lp3011
g100
asbasbasbag57
(g73
g59
NtRp3012
(dp3013
g62
(dp3014
sg71
g2438
sg64
(lp3015
g57
(g78
g59
NtRp3016
(dp3017
g62
(dp3018
g82
g83
ssg71
g3012
sg64
(lp3019
S'wsgi.url_scheme'
p3020
asbag57
(g78
g59
NtRp3021
(dp3022
g62
(dp3023
g89
g90
ssg71
g3012
sg64
(lp3024
S':'
asbag57
(g78
g59
NtRp3025
(dp3026
g62
(dp3027
sg71
g3012
sg64
(lp3028
g57
(g58
g59
NtRp3029
(dp3030
g62
(dp3031
g70
I3
ssg71
g3025
sg64
(lp3032
g1657
asbasbasbag57
(g73
g59
NtRp3033
(dp3034
g62
(dp3035
sg71
g2438
sg64
(lp3036
g57
(g78
g59
NtRp3037
(dp3038
g62
(dp3039
g82
g83
ssg71
g3033
sg64
(lp3040
S'wsgi.version'
p3041
asbag57
(g78
g59
NtRp3042
(dp3043
g62
(dp3044
g89
g90
ssg71
g3033
sg64
(lp3045
S':'
asbag57
(g78
g59
NtRp3046
(dp3047
g62
(dp3048
sg71
g3033
sg64
(lp3049
g57
(g58
g59
NtRp3050
(dp3051
g62
(dp3052
g70
I3
ssg71
g3046
sg64
(lp3053
S'1'
asbasbasbasbasbasbasbasbasbasbasbasbasbsS'frames'
p3054
(lp3055
(dp3056
S'file'
p3057
S'/var/www/conferencia/gluon/restricted.py'
p3058
sS'dump'
p3059
(dp3060
S'environment'
p3061
S"{'A': <class 'gluon.html.A'>, 'Auth': <class 'gluon.tools.Auth'>, 'B': <class 'gluon.html.B'>, 'BEAUTIFY': <class 'gluon.html.BEAUTIFY'>, 'BODY': <class 'gluon.html.BODY'>, 'BR': <class 'gluon.html.BR'>, 'BUTTON': <class 'gluon.html.BUTTON'>, 'CAT': <class 'gluon.html.CAT'>, 'CENTER': <class 'gluon.html.CENTER'>, 'CLEANUP': <class 'gluon.validators.CLEANUP'>, ...}"
p3062
sS'ccode'
p3063
S'<code object <module> at 0x7f63480fe230, file "/...ications/projeto/controllers/initial.py", line 3>'
p3064
ssS'lnum'
p3065
I212
sS'lines'
p3066
(dp3067
I207
S'    try:'
p3068
sI208
S'        if isinstance(code, types.CodeType):'
p3069
sI209
S'            ccode = code'
p3070
sI210
S'        else:'
p3071
sI211
S'            ccode = compile2(code, layer)'
p3072
sI212
S'        exec ccode in environment'
p3073
sI213
S'    except HTTP:'
p3074
sI214
S'        raise'
p3075
sI215
S'    except RestrictedError:'
p3076
sI216
S'        # do not encapsulate (obfuscate) the original RestrictedError'
p3077
ssS'call'
p3078
S"(code='# coding: utf-8\\n\\ndef show_cliente():\\n\\tresponse.t...)\\n\\nresponse._vars=response._caller(show_cliente)\\n', environment={'A': <class 'gluon.html.A'>, 'Auth': <class 'gluon.tools.Auth'>, 'B': <class 'gluon.html.B'>, 'BEAUTIFY': <class 'gluon.html.BEAUTIFY'>, 'BODY': <class 'gluon.html.BODY'>, 'BR': <class 'gluon.html.BR'>, 'BUTTON': <class 'gluon.html.BUTTON'>, 'CAT': <class 'gluon.html.CAT'>, 'CENTER': <class 'gluon.html.CENTER'>, 'CLEANUP': <class 'gluon.validators.CLEANUP'>, ...}, layer='/var/www/conferencia/applications/projeto/controllers/initial.py')"
p3079
sS'func'
p3080
S'restricted'
p3081
sa(dp3082
g3057
S'/var/www/conferencia/applications/projeto/controllers/initial.py'
p3083
sg3059
(dp3084
sg3065
I324
sg3066
(dp3085
I320
S'\t\t\tsubject="host adicionado",'
p3086
sI321
S'\t\t\tmessage="<html>Um novo host foi adicionado pelo usu\xc3\xa1rio %s <br>nome: %s <br>vpn: %s<br><br>\xc3\x89 preciso fazer a instala\xc3\xa7\xc3\xa3o do client zabbix e bacula</html>" % (auth.user.first_name, host.nome, host.ip_chegada,)'
p3087
sI322
S'\t\t\t)'
p3088
sI313
S'\t\t\tto="fndiaz02@gmail.com",'
p3089
sI314
S'\t\t\tsubject="host adicionado",'
p3090
sI315
S'\t\t\tmessage="<html>Um novo host foi adicionado pelo usu\xc3\xa1rio %s <br>nome: %s <br>vpn: %s<br><br>\xc3\x89 preciso fazer a instala\xc3\xa7\xc3\xa3o do client zabbix e bacula</html>" % (auth.user.first_name, host.nome, host.ip_chegada,)'
p3091
sI316
S'\t\t\t)'
p3092
sI317
S"\telif auth.has_membership('internet'):"
p3093
sI318
S'\t\tmail.send('
p3094
sI319
S'\t\t\tto="fernando@ad2.com.br",'
p3095
ssg3078
S'()'
p3096
sg3080
S'<module>'
p3097
sa(dp3098
g3057
S'/var/www/conferencia/gluon/globals.py'
p3099
sg3059
(dp3100
S'self'
p3101
S'undefined'
p3102
sS'f'
S'<function show_cliente>'
p3103
ssg3065
I193
sg3066
(dp3104
I192
S'        self._vars = None'
p3105
sI193
S'        self._caller = lambda f: f()'
p3106
sI194
S'        self._view_environment = None'
p3107
sI195
S'        self._custom_commit = None'
p3108
sI196
S'        self._custom_rollback = None'
p3109
sI197
S''
sI188
S'        self.menu = []             # used by the default view layout'
p3110
sI189
S'        self.files = []            # used by web2py_ajax.html'
p3111
sI190
S'        self.generic_patterns = []  # patterns to allow generic views'
p3112
sI191
S"        self.delimiters = ('{{', '}}')"
p3113
ssg3078
S'(f=<function show_cliente>)'
p3114
sg3080
S'<lambda>'
p3115
sa(dp3116
g3057
S'/var/www/conferencia/applications/projeto/controllers/initial.py'
p3117
sg3059
(dp3118
S'_href'
p3119
g3102
sS'links'
p3120
g3102
sS'f'
g3102
sS'builtinvars'
p3121
S'<built-in function vars>'
p3122
sS'global URL'
p3123
S'<function URL>'
p3124
sS'_class'
p3125
g3102
sS'global A'
p3126
S"<class 'gluon.html.A'>"
p3127
sS'_title'
p3128
g3102
sS'builtindict'
p3129
S"<type 'dict'>"
p3130
sS'row'
p3131
g3102
ssg3065
I14
sg3066
(dp3132
I9
S''
sI10
S'\tgrid = SQLFORM.grid(db.meetme, orderby=db.meetme.endtime,'
p3133
sI11
S'\t\tuser_signature=False, searchable=True, csv=False,'
p3134
sI12
S'\t\tpaginate=50, details=False,'
p3135
sI13
S'\t\tignore_rw = True, maxtextlength=36,'
p3136
sI14
S"\t\tlinks=[lambda row: A('Editar',"
p3137
sI15
S"    \t\t      _class='btn',"
p3138
sI16
S"    \t\t      _title='Editar',"
p3139
sI17
S'    \t\t      _href=URL("initial", "/edit_host",'
p3140
sI18
S'    \t\t      vars=dict(f=row.hosts.id)))]'
p3141
ssg3078
S'()'
p3142
sg3080
S'show_cliente'
p3143
sa(dp3144
g3057
S'/var/www/conferencia/gluon/sqlhtml.py'
p3145
sg3059
(dp3146
S'link'
p3147
S'<function <lambda>>'
p3148
sS'row'
p3149
S"<Row {'confno': 1013, 'admin_user': [2], 'gravac...e.datetime(2013, 4, 11, 12, 26, 40), 'id': 1013}>"
p3150
ssg3065
I2258
sg3066
(dp3151
I2253
S'                    toadd = []'
p3152
sI2254
S'                    for link in links:'
p3153
sI2255
S'                        if isinstance(link, dict):'
p3154
sI2256
S"                            toadd.append(TD(link['body'](row)))"
p3155
sI2257
S'                        else:'
p3156
sI2258
S'                            if link(row):'
p3157
sI2259
S'                                row_buttons.append(link(row))'
p3158
sI2260
S"                    if links_placement in ['right', 'both']:"
p3159
sI2261
S'                        trcols.extend(toadd)'
p3160
sI2262
S"                    if links_placement in ['left', 'both']:"
p3161
ssg3078
S"(query=<Table meetme (confno,starttime,endtime,membros_user,admin_user,gravacao)>, fields=[<gluon.dal.Field object>, <gluon.dal.Field object>, <gluon.dal.Field object>, <gluon.dal.Field object>, <gluon.dal.Field object>, <gluon.dal.Field object>], field_id=<gluon.dal.Field object>, left=None, headers={}, orderby=<gluon.dal.Field object>, groupby=None, searchable=True, sortable=True, paginate=50, deletable=True, editable=True, details=False, selectable=None, create=True, csv=False, links=[<function <lambda>>], links_in_grid=True, upload=<function <lambda>>, args=[], user_signature=False, maxtextlengths={}, maxtextlength=36, onvalidation=None, oncreate=None, onupdate=None, ondelete=None, sorter_icons=(<gluon.html.XML object>, <gluon.html.XML object>), ui={'button': 'button btn', 'buttonadd': 'icon plus icon-plus', 'buttonback': 'icon leftarrow icon-arrow-left', 'buttondelete': 'icon trash icon-trash', 'buttonedit': 'icon pen icon-pencil', 'buttonexport': 'icon downarrow icon-download', 'buttontable': 'icon rightarrow icon-arrow-right', 'buttontext': 'buttontext button', 'buttonview': 'icon magnifier icon-zoom-in', 'content': '', ...}, showbuttontext=True, _class='web2py_grid', formname='web2py_grid', search_widget=<function <lambda>>, ignore_rw=True, formstyle='table3cols', exportclasses=None, formargs={}, createargs={}, editargs={}, viewargs={}, buttons_placement='right', links_placement='right')"
p3162
sg3080
S'grid'
p3163
sa(dp3164
g3057
S'/var/www/conferencia/applications/projeto/controllers/initial.py'
p3165
sg3059
(dp3166
S'row.hosts'
p3167
g3102
sS'row'
p3168
S"<Row {'confno': 1013, 'admin_user': [2], 'gravac...e.datetime(2013, 4, 11, 12, 26, 40), 'id': 1013}>"
p3169
sS'builtinvars'
p3170
S'<built-in function vars>'
p3171
sS'builtindict'
p3172
S"<type 'dict'>"
p3173
sS'f'
g3102
ssg3065
I18
sg3066
(dp3174
I13
S'\t\tignore_rw = True, maxtextlength=36,'
p3175
sI14
S"\t\tlinks=[lambda row: A('Editar',"
p3176
sI15
S"    \t\t      _class='btn',"
p3177
sI16
S"    \t\t      _title='Editar',"
p3178
sI17
S'    \t\t      _href=URL("initial", "/edit_host",'
p3179
sI18
S'    \t\t      vars=dict(f=row.hosts.id)))]'
p3180
sI19
S'    \t)'
p3181
sI20
S'\treturn response.render("initial/show_grid.html", grid=grid)'
p3182
sI21
S''
sI22
S'def show_servidor():'
p3183
ssg3078
S"(row=<Row {'confno': 1013, 'admin_user': [2], 'gravac...e.datetime(2013, 4, 11, 12, 26, 40), 'id': 1013}>)"
p3184
sg3080
g3115
sasS'pyver'
p3185
S'Python 2.7.3: /usr/bin/python'
p3186
sS'session'
p3187
g57
(g58
g59
NtRp3188
(dp3189
g62
(dp3190
sg64
(lp3191
g57
(g66
g59
NtRp3192
(dp3193
g62
(dp3194
g70
I5
ssg71
Nsg64
(lp3195
sbasbsS'etype'
p3196
S"<type 'exceptions.AttributeError'>"
p3197
sS'date'
p3198
S'Wed Apr  3 14:36:56 2013'
p3199
sS'response'
p3200
g57
(g58
g59
NtRp3201
(dp3202
g62
(dp3203
sg64
(lp3204
g57
(g66
g59
NtRp3205
(dp3206
g62
(dp3207
g70
I5
ssg71
Nsg64
(lp3208
g57
(g73
g59
NtRp3209
(dp3210
g62
(dp3211
sg71
g3205
sg64
(lp3212
g57
(g78
g59
NtRp3213
(dp3214
g62
(dp3215
g82
g83
ssg71
g3209
sg64
(lp3216
g155
asbag57
(g78
g59
NtRp3217
(dp3218
g62
(dp3219
g89
g90
ssg71
g3209
sg64
(lp3220
S':'
asbag57
(g78
g59
NtRp3221
(dp3222
g62
(dp3223
sg71
g3209
sg64
(lp3224
g57
(g58
g59
NtRp3225
(dp3226
g62
(dp3227
g70
I5
ssg71
g3221
sg64
(lp3228
S'<cStringIO.StringO object at 0x7f6328386110>'
p3229
asbasbasbag57
(g73
g59
NtRp3230
(dp3231
g62
(dp3232
sg71
g3205
sg64
(lp3233
g57
(g78
g59
NtRp3234
(dp3235
g62
(dp3236
g82
g83
ssg71
g3230
sg64
(lp3237
g243
asbag57
(g78
g59
NtRp3238
(dp3239
g62
(dp3240
g89
g90
ssg71
g3230
sg64
(lp3241
S':'
asbag57
(g78
g59
NtRp3242
(dp3243
g62
(dp3244
sg71
g3230
sg64
(lp3245
g57
(g58
g59
NtRp3246
(dp3247
g62
(dp3248
g70
I5
ssg71
g3242
sg64
(lp3249
g57
(g66
g59
NtRp3250
(dp3251
g62
(dp3252
g70
I4
ssg71
Nsg64
(lp3253
g57
(g73
g59
NtRp3254
(dp3255
g62
(dp3256
sg71
g3250
sg64
(lp3257
g57
(g78
g59
NtRp3258
(dp3259
g62
(dp3260
g82
g83
ssg71
g3254
sg64
(lp3261
S'session_id_projeto'
p3262
asbag57
(g78
g59
NtRp3263
(dp3264
g62
(dp3265
g89
g90
ssg71
g3254
sg64
(lp3266
S':'
asbag57
(g78
g59
NtRp3267
(dp3268
g62
(dp3269
sg71
g3254
sg64
(lp3270
g57
(g58
g59
NtRp3271
(dp3272
g62
(dp3273
g70
I4
ssg71
g3267
sg64
(lp3274
g475
ag57
(g66
g59
NtRp3275
(dp3276
g62
(dp3277
g70
I3
ssg71
Nsg64
(lp3278
g57
(g73
g59
NtRp3279
(dp3280
g62
(dp3281
sg71
g3275
sg64
(lp3282
g57
(g78
g59
NtRp3283
(dp3284
g62
(dp3285
g82
g83
ssg71
g3279
sg64
(lp3286
g294
asbag57
(g78
g59
NtRp3287
(dp3288
g62
(dp3289
g89
g90
ssg71
g3279
sg64
(lp3290
S':'
asbag57
(g78
g59
NtRp3291
(dp3292
g62
(dp3293
sg71
g3279
sg64
(lp3294
g57
(g58
g59
NtRp3295
(dp3296
g62
(dp3297
g70
I3
ssg71
g3291
sg64
(lp3298
S''
asbasbasbag57
(g73
g59
NtRp3299
(dp3300
g62
(dp3301
sg71
g3275
sg64
(lp3302
g57
(g78
g59
NtRp3303
(dp3304
g62
(dp3305
g82
g83
ssg71
g3299
sg64
(lp3306
g315
asbag57
(g78
g59
NtRp3307
(dp3308
g62
(dp3309
g89
g90
ssg71
g3299
sg64
(lp3310
S':'
asbag57
(g78
g59
NtRp3311
(dp3312
g62
(dp3313
sg71
g3299
sg64
(lp3314
g57
(g58
g59
NtRp3315
(dp3316
g62
(dp3317
g70
I3
ssg71
g3311
sg64
(lp3318
S''
asbasbasbag57
(g73
g59
NtRp3319
(dp3320
g62
(dp3321
sg71
g3275
sg64
(lp3322
g57
(g78
g59
NtRp3323
(dp3324
g62
(dp3325
g82
g83
ssg71
g3319
sg64
(lp3326
g336
asbag57
(g78
g59
NtRp3327
(dp3328
g62
(dp3329
g89
g90
ssg71
g3319
sg64
(lp3330
S':'
asbag57
(g78
g59
NtRp3331
(dp3332
g62
(dp3333
sg71
g3319
sg64
(lp3334
g57
(g58
g59
NtRp3335
(dp3336
g62
(dp3337
g70
I3
ssg71
g3331
sg64
(lp3338
S''
asbasbasbag57
(g73
g59
NtRp3339
(dp3340
g62
(dp3341
sg71
g3275
sg64
(lp3342
g57
(g78
g59
NtRp3343
(dp3344
g62
(dp3345
g82
g83
ssg71
g3339
sg64
(lp3346
g357
asbag57
(g78
g59
NtRp3347
(dp3348
g62
(dp3349
g89
g90
ssg71
g3339
sg64
(lp3350
S':'
asbag57
(g78
g59
NtRp3351
(dp3352
g62
(dp3353
sg71
g3339
sg64
(lp3354
g57
(g58
g59
NtRp3355
(dp3356
g62
(dp3357
g70
I3
ssg71
g3351
sg64
(lp3358
S''
asbasbasbag57
(g73
g59
NtRp3359
(dp3360
g62
(dp3361
sg71
g3275
sg64
(lp3362
g57
(g78
g59
NtRp3363
(dp3364
g62
(dp3365
g82
g83
ssg71
g3359
sg64
(lp3366
g378
asbag57
(g78
g59
NtRp3367
(dp3368
g62
(dp3369
g89
g90
ssg71
g3359
sg64
(lp3370
S':'
asbag57
(g78
g59
NtRp3371
(dp3372
g62
(dp3373
sg71
g3359
sg64
(lp3374
g57
(g58
g59
NtRp3375
(dp3376
g62
(dp3377
g70
I3
ssg71
g3371
sg64
(lp3378
S''
asbasbasbag57
(g73
g59
NtRp3379
(dp3380
g62
(dp3381
sg71
g3275
sg64
(lp3382
g57
(g78
g59
NtRp3383
(dp3384
g62
(dp3385
g82
g83
ssg71
g3379
sg64
(lp3386
g399
asbag57
(g78
g59
NtRp3387
(dp3388
g62
(dp3389
g89
g90
ssg71
g3379
sg64
(lp3390
S':'
asbag57
(g78
g59
NtRp3391
(dp3392
g62
(dp3393
sg71
g3379
sg64
(lp3394
g57
(g58
g59
NtRp3395
(dp3396
g62
(dp3397
g70
I3
ssg71
g3391
sg64
(lp3398
S'/'
asbasbasbag57
(g73
g59
NtRp3399
(dp3400
g62
(dp3401
sg71
g3275
sg64
(lp3402
g57
(g78
g59
NtRp3403
(dp3404
g62
(dp3405
g82
g83
ssg71
g3399
sg64
(lp3406
g420
asbag57
(g78
g59
NtRp3407
(dp3408
g62
(dp3409
g89
g90
ssg71
g3399
sg64
(lp3410
S':'
asbag57
(g78
g59
NtRp3411
(dp3412
g62
(dp3413
sg71
g3399
sg64
(lp3414
g57
(g58
g59
NtRp3415
(dp3416
g62
(dp3417
g70
I3
ssg71
g3411
sg64
(lp3418
S''
asbasbasbag57
(g73
g59
NtRp3419
(dp3420
g62
(dp3421
sg71
g3275
sg64
(lp3422
g57
(g78
g59
NtRp3423
(dp3424
g62
(dp3425
g82
g83
ssg71
g3419
sg64
(lp3426
g441
asbag57
(g78
g59
NtRp3427
(dp3428
g62
(dp3429
g89
g90
ssg71
g3419
sg64
(lp3430
S':'
asbag57
(g78
g59
NtRp3431
(dp3432
g62
(dp3433
sg71
g3419
sg64
(lp3434
g57
(g58
g59
NtRp3435
(dp3436
g62
(dp3437
g70
I3
ssg71
g3431
sg64
(lp3438
S''
asbasbasbasbasbasbasbasbasbasbasbag57
(g73
g59
NtRp3439
(dp3440
g62
(dp3441
sg71
g3205
sg64
(lp3442
g57
(g78
g59
NtRp3443
(dp3444
g62
(dp3445
g82
g83
ssg71
g3439
sg64
(lp3446
S'delimiters'
p3447
asbag57
(g78
g59
NtRp3448
(dp3449
g62
(dp3450
g89
g90
ssg71
g3439
sg64
(lp3451
S':'
asbag57
(g78
g59
NtRp3452
(dp3453
g62
(dp3454
sg71
g3439
sg64
(lp3455
g57
(g58
g59
NtRp3456
(dp3457
g62
(dp3458
g70
I5
ssg71
g3452
sg64
(lp3459
g57
(g66
g59
NtRp3460
(dp3461
g62
(dp3462
g70
I4
ssg71
Nsg64
(lp3463
g57
(g73
g59
NtRp3464
(dp3465
g62
(dp3466
sg71
g3460
sg64
(lp3467
g57
(g78
g59
NtRp3468
(dp3469
g62
(dp3470
sg71
g3464
sg64
(lp3471
g57
(g58
g59
NtRp3472
(dp3473
g62
(dp3474
g70
I4
ssg71
g3468
sg64
(lp3475
S'{{'
p3476
asbasbasbag57
(g73
g59
NtRp3477
(dp3478
g62
(dp3479
sg71
g3460
sg64
(lp3480
g57
(g78
g59
NtRp3481
(dp3482
g62
(dp3483
sg71
g3477
sg64
(lp3484
g57
(g58
g59
NtRp3485
(dp3486
g62
(dp3487
g70
I4
ssg71
g3481
sg64
(lp3488
S'}}'
p3489
asbasbasbasbasbasbasbag57
(g73
g59
NtRp3490
(dp3491
g62
(dp3492
sg71
g3205
sg64
(lp3493
g57
(g78
g59
NtRp3494
(dp3495
g62
(dp3496
g82
g83
ssg71
g3490
sg64
(lp3497
S'files'
p3498
asbag57
(g78
g59
NtRp3499
(dp3500
g62
(dp3501
g89
g90
ssg71
g3490
sg64
(lp3502
S':'
asbag57
(g78
g59
NtRp3503
(dp3504
g62
(dp3505
sg71
g3490
sg64
(lp3506
g57
(g58
g59
NtRp3507
(dp3508
g62
(dp3509
g70
I5
ssg71
g3503
sg64
(lp3510
g57
(g66
g59
NtRp3511
(dp3512
g62
(dp3513
g70
I4
ssg71
Nsg64
(lp3514
sbasbasbasbag57
(g73
g59
NtRp3515
(dp3516
g62
(dp3517
sg71
g3205
sg64
(lp3518
g57
(g78
g59
NtRp3519
(dp3520
g62
(dp3521
g82
g83
ssg71
g3515
sg64
(lp3522
S'flash'
p3523
asbag57
(g78
g59
NtRp3524
(dp3525
g62
(dp3526
g89
g90
ssg71
g3515
sg64
(lp3527
S':'
asbag57
(g78
g59
NtRp3528
(dp3529
g62
(dp3530
sg71
g3515
sg64
(lp3531
g57
(g58
g59
NtRp3532
(dp3533
g62
(dp3534
g70
I5
ssg71
g3528
sg64
(lp3535
S''
asbasbasbag57
(g73
g59
NtRp3536
(dp3537
g62
(dp3538
sg71
g3205
sg64
(lp3539
g57
(g78
g59
NtRp3540
(dp3541
g62
(dp3542
g82
g83
ssg71
g3536
sg64
(lp3543
S'generic_patterns'
p3544
asbag57
(g78
g59
NtRp3545
(dp3546
g62
(dp3547
g89
g90
ssg71
g3536
sg64
(lp3548
S':'
asbag57
(g78
g59
NtRp3549
(dp3550
g62
(dp3551
sg71
g3536
sg64
(lp3552
g57
(g58
g59
NtRp3553
(dp3554
g62
(dp3555
g70
I5
ssg71
g3549
sg64
(lp3556
g57
(g66
g59
NtRp3557
(dp3558
g62
(dp3559
g70
I4
ssg71
Nsg64
(lp3560
g57
(g73
g59
NtRp3561
(dp3562
g62
(dp3563
sg71
g3557
sg64
(lp3564
g57
(g78
g59
NtRp3565
(dp3566
g62
(dp3567
sg71
g3561
sg64
(lp3568
g57
(g58
g59
NtRp3569
(dp3570
g62
(dp3571
g70
I4
ssg71
g3565
sg64
(lp3572
S'*'
asbasbasbasbasbasbasbag57
(g73
g59
NtRp3573
(dp3574
g62
(dp3575
sg71
g3205
sg64
(lp3576
g57
(g78
g59
NtRp3577
(dp3578
g62
(dp3579
g82
g83
ssg71
g3573
sg64
(lp3580
S'google_analytics_id'
p3581
asbag57
(g78
g59
NtRp3582
(dp3583
g62
(dp3584
g89
g90
ssg71
g3573
sg64
(lp3585
S':'
asbag57
(g78
g59
NtRp3586
(dp3587
g62
(dp3588
sg71
g3573
sg64
(lp3589
g57
(g58
g59
NtRp3590
(dp3591
g62
(dp3592
g70
I5
ssg71
g3586
sg64
(lp3593
S'None'
p3594
asbasbasbag57
(g73
g59
NtRp3595
(dp3596
g62
(dp3597
sg71
g3205
sg64
(lp3598
g57
(g78
g59
NtRp3599
(dp3600
g62
(dp3601
g82
g83
ssg71
g3595
sg64
(lp3602
S'headers'
p3603
asbag57
(g78
g59
NtRp3604
(dp3605
g62
(dp3606
g89
g90
ssg71
g3595
sg64
(lp3607
S':'
asbag57
(g78
g59
NtRp3608
(dp3609
g62
(dp3610
sg71
g3595
sg64
(lp3611
g57
(g58
g59
NtRp3612
(dp3613
g62
(dp3614
g70
I5
ssg71
g3608
sg64
(lp3615
g57
(g66
g59
NtRp3616
(dp3617
g62
(dp3618
g70
I4
ssg71
Nsg64
(lp3619
g57
(g73
g59
NtRp3620
(dp3621
g62
(dp3622
sg71
g3616
sg64
(lp3623
g57
(g78
g59
NtRp3624
(dp3625
g62
(dp3626
g82
g83
ssg71
g3620
sg64
(lp3627
S'X-Powered-By'
p3628
asbag57
(g78
g59
NtRp3629
(dp3630
g62
(dp3631
g89
g90
ssg71
g3620
sg64
(lp3632
S':'
asbag57
(g78
g59
NtRp3633
(dp3634
g62
(dp3635
sg71
g3620
sg64
(lp3636
g57
(g58
g59
NtRp3637
(dp3638
g62
(dp3639
g70
I4
ssg71
g3633
sg64
(lp3640
S'web2py'
p3641
asbasbasbasbasbasbasbag57
(g73
g59
NtRp3642
(dp3643
g62
(dp3644
sg71
g3205
sg64
(lp3645
g57
(g78
g59
NtRp3646
(dp3647
g62
(dp3648
g82
g83
ssg71
g3642
sg64
(lp3649
S'logo'
p3650
asbag57
(g78
g59
NtRp3651
(dp3652
g62
(dp3653
g89
g90
ssg71
g3642
sg64
(lp3654
S':'
asbag57
(g78
g59
NtRp3655
(dp3656
g62
(dp3657
sg71
g3642
sg64
(lp3658
g57
(g58
g59
NtRp3659
(dp3660
g62
(dp3661
g70
I5
ssg71
g3655
sg64
(lp3662
g57
(cgluon.html
A
p3663
g59
NtRp3664
(dp3665
g62
(dp3666
S'_class'
p3667
S'brand'
p3668
sS'_href'
p3669
S'principal'
p3670
ssg71
Nsg64
(lp3671
g57
(cgluon.html
B
p3672
g59
NtRp3673
(dp3674
g62
(dp3675
sg71
g3664
sg64
(lp3676
S'hosts'
p3677
ag57
(cgluon.html
SPAN
p3678
g59
NtRp3679
(dp3680
g62
(dp3681
sg71
g3673
sg64
(lp3682
S'3'
asbaS''
asbacgluon.html
XML_unpickle
p3683
(S's\r\x00\x00\x00&trade;&nbsp;'
tRp3684
asbasbasbasbag57
(g73
g59
NtRp3685
(dp3686
g62
(dp3687
sg71
g3205
sg64
(lp3688
g57
(g78
g59
NtRp3689
(dp3690
g62
(dp3691
g82
g83
ssg71
g3685
sg64
(lp3692
S'menu'
p3693
asbag57
(g78
g59
NtRp3694
(dp3695
g62
(dp3696
g89
g90
ssg71
g3685
sg64
(lp3697
S':'
asbag57
(g78
g59
NtRp3698
(dp3699
g62
(dp3700
sg71
g3685
sg64
(lp3701
g57
(g58
g59
NtRp3702
(dp3703
g62
(dp3704
g70
I5
ssg71
g3698
sg64
(lp3705
g57
(g66
g59
NtRp3706
(dp3707
g62
(dp3708
g70
I4
ssg71
Nsg64
(lp3709
g57
(g73
g59
NtRp3710
(dp3711
g62
(dp3712
sg71
g3706
sg64
(lp3713
g57
(g78
g59
NtRp3714
(dp3715
g62
(dp3716
sg71
g3710
sg64
(lp3717
g57
(g58
g59
NtRp3718
(dp3719
g62
(dp3720
g70
I4
ssg71
g3714
sg64
(lp3721
g57
(g66
g59
NtRp3722
(dp3723
g62
(dp3724
g70
I3
ssg71
Nsg64
(lp3725
g57
(g73
g59
NtRp3726
(dp3727
g62
(dp3728
sg71
g3722
sg64
(lp3729
g57
(g78
g59
NtRp3730
(dp3731
g62
(dp3732
sg71
g3726
sg64
(lp3733
g57
(g58
g59
NtRp3734
(dp3735
g62
(dp3736
g70
I3
ssg71
g3730
sg64
(lp3737
cgluon.languages
lazyT_unpickle
p3738
(S't\x08\x00\x00\x00Clientes'
tRp3739
asbasbasbag57
(g73
g59
NtRp3740
(dp3741
g62
(dp3742
sg71
g3722
sg64
(lp3743
g57
(g78
g59
NtRp3744
(dp3745
g62
(dp3746
sg71
g3740
sg64
(lp3747
g57
(g58
g59
NtRp3748
(dp3749
g62
(dp3750
g70
I3
ssg71
g3744
sg64
(lp3751
g100
asbasbasbag57
(g73
g59
NtRp3752
(dp3753
g62
(dp3754
sg71
g3722
sg64
(lp3755
g57
(g78
g59
NtRp3756
(dp3757
g62
(dp3758
sg71
g3752
sg64
(lp3759
g57
(g58
g59
NtRp3760
(dp3761
g62
(dp3762
g70
I3
ssg71
g3756
sg64
(lp3763
S'/show_cliente'
p3764
asbasbasbag57
(g73
g59
NtRp3765
(dp3766
g62
(dp3767
sg71
g3722
sg64
(lp3768
g57
(g78
g59
NtRp3769
(dp3770
g62
(dp3771
sg71
g3765
sg64
(lp3772
g57
(g58
g59
NtRp3773
(dp3774
g62
(dp3775
g70
I3
ssg71
g3769
sg64
(lp3776
g57
(g66
g59
NtRp3777
(dp3778
g62
(dp3779
g70
I2
ssg71
Nsg64
(lp3780
sbasbasbasbasbasbasbasbag57
(g73
g59
NtRp3781
(dp3782
g62
(dp3783
sg71
g3706
sg64
(lp3784
g57
(g78
g59
NtRp3785
(dp3786
g62
(dp3787
sg71
g3781
sg64
(lp3788
g57
(g58
g59
NtRp3789
(dp3790
g62
(dp3791
g70
I4
ssg71
g3785
sg64
(lp3792
g57
(g66
g59
NtRp3793
(dp3794
g62
(dp3795
g70
I3
ssg71
Nsg64
(lp3796
g57
(g73
g59
NtRp3797
(dp3798
g62
(dp3799
sg71
g3793
sg64
(lp3800
g57
(g78
g59
NtRp3801
(dp3802
g62
(dp3803
sg71
g3797
sg64
(lp3804
g57
(g58
g59
NtRp3805
(dp3806
g62
(dp3807
g70
I3
ssg71
g3801
sg64
(lp3808
g3738
(S't\n\x00\x00\x00Servidores'
tRp3809
asbasbasbag57
(g73
g59
NtRp3810
(dp3811
g62
(dp3812
sg71
g3793
sg64
(lp3813
g57
(g78
g59
NtRp3814
(dp3815
g62
(dp3816
sg71
g3810
sg64
(lp3817
g57
(g58
g59
NtRp3818
(dp3819
g62
(dp3820
g70
I3
ssg71
g3814
sg64
(lp3821
g100
asbasbasbag57
(g73
g59
NtRp3822
(dp3823
g62
(dp3824
sg71
g3793
sg64
(lp3825
g57
(g78
g59
NtRp3826
(dp3827
g62
(dp3828
sg71
g3822
sg64
(lp3829
g57
(g58
g59
NtRp3830
(dp3831
g62
(dp3832
g70
I3
ssg71
g3826
sg64
(lp3833
S'/show_servidor'
p3834
asbasbasbag57
(g73
g59
NtRp3835
(dp3836
g62
(dp3837
sg71
g3793
sg64
(lp3838
g57
(g78
g59
NtRp3839
(dp3840
g62
(dp3841
sg71
g3835
sg64
(lp3842
g57
(g58
g59
NtRp3843
(dp3844
g62
(dp3845
g70
I3
ssg71
g3839
sg64
(lp3846
g57
(g66
g59
NtRp3847
(dp3848
g62
(dp3849
g70
I2
ssg71
Nsg64
(lp3850
sbasbasbasbasbasbasbasbag57
(g73
g59
NtRp3851
(dp3852
g62
(dp3853
sg71
g3706
sg64
(lp3854
g57
(g78
g59
NtRp3855
(dp3856
g62
(dp3857
sg71
g3851
sg64
(lp3858
g57
(g58
g59
NtRp3859
(dp3860
g62
(dp3861
g70
I4
ssg71
g3855
sg64
(lp3862
g57
(g66
g59
NtRp3863
(dp3864
g62
(dp3865
g70
I3
ssg71
Nsg64
(lp3866
g57
(g73
g59
NtRp3867
(dp3868
g62
(dp3869
sg71
g3863
sg64
(lp3870
g57
(g78
g59
NtRp3871
(dp3872
g62
(dp3873
sg71
g3867
sg64
(lp3874
g57
(g58
g59
NtRp3875
(dp3876
g62
(dp3877
g70
I3
ssg71
g3871
sg64
(lp3878
g3738
(S't\x07\x00\x00\x00Distros'
tRp3879
asbasbasbag57
(g73
g59
NtRp3880
(dp3881
g62
(dp3882
sg71
g3863
sg64
(lp3883
g57
(g78
g59
NtRp3884
(dp3885
g62
(dp3886
sg71
g3880
sg64
(lp3887
g57
(g58
g59
NtRp3888
(dp3889
g62
(dp3890
g70
I3
ssg71
g3884
sg64
(lp3891
g100
asbasbasbag57
(g73
g59
NtRp3892
(dp3893
g62
(dp3894
sg71
g3863
sg64
(lp3895
g57
(g78
g59
NtRp3896
(dp3897
g62
(dp3898
sg71
g3892
sg64
(lp3899
g57
(g58
g59
NtRp3900
(dp3901
g62
(dp3902
g70
I3
ssg71
g3896
sg64
(lp3903
S'/show_distro'
p3904
asbasbasbag57
(g73
g59
NtRp3905
(dp3906
g62
(dp3907
sg71
g3863
sg64
(lp3908
g57
(g78
g59
NtRp3909
(dp3910
g62
(dp3911
sg71
g3905
sg64
(lp3912
g57
(g58
g59
NtRp3913
(dp3914
g62
(dp3915
g70
I3
ssg71
g3909
sg64
(lp3916
g57
(g66
g59
NtRp3917
(dp3918
g62
(dp3919
g70
I2
ssg71
Nsg64
(lp3920
sbasbasbasbasbasbasbasbag57
(g73
g59
NtRp3921
(dp3922
g62
(dp3923
sg71
g3706
sg64
(lp3924
g57
(g78
g59
NtRp3925
(dp3926
g62
(dp3927
sg71
g3921
sg64
(lp3928
g57
(g58
g59
NtRp3929
(dp3930
g62
(dp3931
g70
I4
ssg71
g3925
sg64
(lp3932
g57
(g66
g59
NtRp3933
(dp3934
g62
(dp3935
g70
I3
ssg71
Nsg64
(lp3936
g57
(g73
g59
NtRp3937
(dp3938
g62
(dp3939
sg71
g3933
sg64
(lp3940
g57
(g78
g59
NtRp3941
(dp3942
g62
(dp3943
sg71
g3937
sg64
(lp3944
g57
(g58
g59
NtRp3945
(dp3946
g62
(dp3947
g70
I3
ssg71
g3941
sg64
(lp3948
g3738
(S's\x05\x00\x00\x00+host'
tRp3949
asbasbasbag57
(g73
g59
NtRp3950
(dp3951
g62
(dp3952
sg71
g3933
sg64
(lp3953
g57
(g78
g59
NtRp3954
(dp3955
g62
(dp3956
sg71
g3950
sg64
(lp3957
g57
(g58
g59
NtRp3958
(dp3959
g62
(dp3960
g70
I3
ssg71
g3954
sg64
(lp3961
g100
asbasbasbag57
(g73
g59
NtRp3962
(dp3963
g62
(dp3964
sg71
g3933
sg64
(lp3965
g57
(g78
g59
NtRp3966
(dp3967
g62
(dp3968
sg71
g3962
sg64
(lp3969
g57
(g58
g59
NtRp3970
(dp3971
g62
(dp3972
g70
I3
ssg71
g3966
sg64
(lp3973
S'/interface'
p3974
asbasbasbag57
(g73
g59
NtRp3975
(dp3976
g62
(dp3977
sg71
g3933
sg64
(lp3978
g57
(g78
g59
NtRp3979
(dp3980
g62
(dp3981
sg71
g3975
sg64
(lp3982
g57
(g58
g59
NtRp3983
(dp3984
g62
(dp3985
g70
I3
ssg71
g3979
sg64
(lp3986
g57
(g66
g59
NtRp3987
(dp3988
g62
(dp3989
g70
I2
ssg71
Nsg64
(lp3990
sbasbasbasbasbasbasbasbasbasbasbasbag57
(g73
g59
NtRp3991
(dp3992
g62
(dp3993
sg71
g3205
sg64
(lp3994
g57
(g78
g59
NtRp3995
(dp3996
g62
(dp3997
g82
g83
ssg71
g3991
sg64
(lp3998
S'menu2'
p3999
asbag57
(g78
g59
NtRp4000
(dp4001
g62
(dp4002
g89
g90
ssg71
g3991
sg64
(lp4003
S':'
asbag57
(g78
g59
NtRp4004
(dp4005
g62
(dp4006
sg71
g3991
sg64
(lp4007
g57
(g58
g59
NtRp4008
(dp4009
g62
(dp4010
g70
I5
ssg71
g4004
sg64
(lp4011
g57
(g66
g59
NtRp4012
(dp4013
g62
(dp4014
g70
I4
ssg71
Nsg64
(lp4015
g57
(g73
g59
NtRp4016
(dp4017
g62
(dp4018
sg71
g4012
sg64
(lp4019
g57
(g78
g59
NtRp4020
(dp4021
g62
(dp4022
sg71
g4016
sg64
(lp4023
g57
(g58
g59
NtRp4024
(dp4025
g62
(dp4026
g70
I4
ssg71
g4020
sg64
(lp4027
g57
(g66
g59
NtRp4028
(dp4029
g62
(dp4030
g70
I3
ssg71
Nsg64
(lp4031
g57
(g73
g59
NtRp4032
(dp4033
g62
(dp4034
sg71
g4028
sg64
(lp4035
g57
(g78
g59
NtRp4036
(dp4037
g62
(dp4038
sg71
g4032
sg64
(lp4039
g57
(g58
g59
NtRp4040
(dp4041
g62
(dp4042
g70
I3
ssg71
g4036
sg64
(lp4043
g57
(g3678
g59
NtRp4044
(dp4045
g62
(dp4046
g3667
S'dropdown-toggle'
p4047
ssg71
Nsg64
(lp4048
S'Admin'
p4049
asbasbasbasbag57
(g73
g59
NtRp4050
(dp4051
g62
(dp4052
sg71
g4028
sg64
(lp4053
g57
(g78
g59
NtRp4054
(dp4055
g62
(dp4056
sg71
g4050
sg64
(lp4057
g57
(g58
g59
NtRp4058
(dp4059
g62
(dp4060
g70
I3
ssg71
g4054
sg64
(lp4061
g100
asbasbasbag57
(g73
g59
NtRp4062
(dp4063
g62
(dp4064
sg71
g4028
sg64
(lp4065
g57
(g78
g59
NtRp4066
(dp4067
g62
(dp4068
sg71
g4062
sg64
(lp4069
g57
(g58
g59
NtRp4070
(dp4071
g62
(dp4072
g70
I3
ssg71
g4066
sg64
(lp4073
S'#'
asbasbasbag57
(g73
g59
NtRp4074
(dp4075
g62
(dp4076
sg71
g4028
sg64
(lp4077
g57
(g78
g59
NtRp4078
(dp4079
g62
(dp4080
sg71
g4074
sg64
(lp4081
g57
(g58
g59
NtRp4082
(dp4083
g62
(dp4084
g70
I3
ssg71
g4078
sg64
(lp4085
g57
(g66
g59
NtRp4086
(dp4087
g62
(dp4088
g70
I2
ssg71
Nsg64
(lp4089
g57
(g73
g59
NtRp4090
(dp4091
g62
(dp4092
sg71
g4086
sg64
(lp4093
g57
(g78
g59
NtRp4094
(dp4095
g62
(dp4096
sg71
g4090
sg64
(lp4097
g57
(g58
g59
NtRp4098
(dp4099
g62
(dp4100
g70
I2
ssg71
g4094
sg64
(lp4101
g57
(g66
g59
NtRp4102
(dp4103
g62
(dp4104
g70
I1
ssg71
Nsg64
(lp4105
g57
(g73
g59
NtRp4106
(dp4107
g62
(dp4108
sg71
g4102
sg64
(lp4109
g57
(g78
g59
NtRp4110
(dp4111
g62
(dp4112
sg71
g4106
sg64
(lp4113
g57
(g58
g59
NtRp4114
(dp4115
g62
(dp4116
g70
I1
ssg71
g4110
sg64
(lp4117
g3738
(S's\t\x00\x00\x00Usu\xc3\xa1rios'
tRp4118
asbasbasbag57
(g73
g59
NtRp4119
(dp4120
g62
(dp4121
sg71
g4102
sg64
(lp4122
g57
(g78
g59
NtRp4123
(dp4124
g62
(dp4125
sg71
g4119
sg64
(lp4126
g57
(g58
g59
NtRp4127
(dp4128
g62
(dp4129
g70
I1
ssg71
g4123
sg64
(lp4130
I00
asbasbasbag57
(g73
g59
NtRp4131
(dp4132
g62
(dp4133
sg71
g4102
sg64
(lp4134
g57
(g78
g59
NtRp4135
(dp4136
g62
(dp4137
sg71
g4131
sg64
(lp4138
g57
(g58
g59
NtRp4139
(dp4140
g62
(dp4141
g70
I1
ssg71
g4135
sg64
(lp4142
S'/manager/users'
p4143
asbasbasbasbasbasbasbag57
(g73
g59
NtRp4144
(dp4145
g62
(dp4146
sg71
g4086
sg64
(lp4147
g57
(g78
g59
NtRp4148
(dp4149
g62
(dp4150
sg71
g4144
sg64
(lp4151
g57
(g58
g59
NtRp4152
(dp4153
g62
(dp4154
g70
I2
ssg71
g4148
sg64
(lp4155
g57
(g66
g59
NtRp4156
(dp4157
g62
(dp4158
g70
I1
ssg71
Nsg64
(lp4159
g57
(g73
g59
NtRp4160
(dp4161
g62
(dp4162
sg71
g4156
sg64
(lp4163
g57
(g78
g59
NtRp4164
(dp4165
g62
(dp4166
sg71
g4160
sg64
(lp4167
g57
(g58
g59
NtRp4168
(dp4169
g62
(dp4170
g70
I1
ssg71
g4164
sg64
(lp4171
g3738
(S't\x06\x00\x00\x00Grupos'
tRp4172
asbasbasbag57
(g73
g59
NtRp4173
(dp4174
g62
(dp4175
sg71
g4156
sg64
(lp4176
g57
(g78
g59
NtRp4177
(dp4178
g62
(dp4179
sg71
g4173
sg64
(lp4180
g57
(g58
g59
NtRp4181
(dp4182
g62
(dp4183
g70
I1
ssg71
g4177
sg64
(lp4184
I00
asbasbasbag57
(g73
g59
NtRp4185
(dp4186
g62
(dp4187
sg71
g4156
sg64
(lp4188
g57
(g78
g59
NtRp4189
(dp4190
g62
(dp4191
sg71
g4185
sg64
(lp4192
g57
(g58
g59
NtRp4193
(dp4194
g62
(dp4195
g70
I1
ssg71
g4189
sg64
(lp4196
S'/manager/groups'
p4197
asbasbasbasbasbasbasbag57
(g73
g59
NtRp4198
(dp4199
g62
(dp4200
sg71
g4086
sg64
(lp4201
g57
(g78
g59
NtRp4202
(dp4203
g62
(dp4204
sg71
g4198
sg64
(lp4205
g57
(g58
g59
NtRp4206
(dp4207
g62
(dp4208
g70
I2
ssg71
g4202
sg64
(lp4209
g57
(g66
g59
NtRp4210
(dp4211
g62
(dp4212
g70
I1
ssg71
Nsg64
(lp4213
g57
(g73
g59
NtRp4214
(dp4215
g62
(dp4216
sg71
g4210
sg64
(lp4217
g57
(g78
g59
NtRp4218
(dp4219
g62
(dp4220
sg71
g4214
sg64
(lp4221
g57
(g58
g59
NtRp4222
(dp4223
g62
(dp4224
g70
I1
ssg71
g4218
sg64
(lp4225
g3738
(S't\x07\x00\x00\x00Membros'
tRp4226
asbasbasbag57
(g73
g59
NtRp4227
(dp4228
g62
(dp4229
sg71
g4210
sg64
(lp4230
g57
(g78
g59
NtRp4231
(dp4232
g62
(dp4233
sg71
g4227
sg64
(lp4234
g57
(g58
g59
NtRp4235
(dp4236
g62
(dp4237
g70
I1
ssg71
g4231
sg64
(lp4238
I00
asbasbasbag57
(g73
g59
NtRp4239
(dp4240
g62
(dp4241
sg71
g4210
sg64
(lp4242
g57
(g78
g59
NtRp4243
(dp4244
g62
(dp4245
sg71
g4239
sg64
(lp4246
g57
(g58
g59
NtRp4247
(dp4248
g62
(dp4249
g70
I1
ssg71
g4243
sg64
(lp4250
S'/manager/membership'
p4251
asbasbasbasbasbasbasbasbasbasbasbasbasbasbasbag57
(g73
g59
NtRp4252
(dp4253
g62
(dp4254
sg71
g4012
sg64
(lp4255
g57
(g78
g59
NtRp4256
(dp4257
g62
(dp4258
sg71
g4252
sg64
(lp4259
g57
(g58
g59
NtRp4260
(dp4261
g62
(dp4262
g70
I4
ssg71
g4256
sg64
(lp4263
g57
(g66
g59
NtRp4264
(dp4265
g62
(dp4266
g70
I3
ssg71
Nsg64
(lp4267
g57
(g73
g59
NtRp4268
(dp4269
g62
(dp4270
sg71
g4264
sg64
(lp4271
g57
(g78
g59
NtRp4272
(dp4273
g62
(dp4274
sg71
g4268
sg64
(lp4275
g57
(g58
g59
NtRp4276
(dp4277
g62
(dp4278
g70
I3
ssg71
g4272
sg64
(lp4279
g57
(g3678
g59
NtRp4280
(dp4281
g62
(dp4282
g3667
g4047
ssg71
Nsg64
(lp4283
S'Login'
p4284
asbasbasbasbag57
(g73
g59
NtRp4285
(dp4286
g62
(dp4287
sg71
g4264
sg64
(lp4288
g57
(g78
g59
NtRp4289
(dp4290
g62
(dp4291
sg71
g4285
sg64
(lp4292
g57
(g58
g59
NtRp4293
(dp4294
g62
(dp4295
g70
I3
ssg71
g4289
sg64
(lp4296
g100
asbasbasbag57
(g73
g59
NtRp4297
(dp4298
g62
(dp4299
sg71
g4264
sg64
(lp4300
g57
(g78
g59
NtRp4301
(dp4302
g62
(dp4303
sg71
g4297
sg64
(lp4304
g57
(g58
g59
NtRp4305
(dp4306
g62
(dp4307
g70
I3
ssg71
g4301
sg64
(lp4308
S'#'
asbasbasbag57
(g73
g59
NtRp4309
(dp4310
g62
(dp4311
sg71
g4264
sg64
(lp4312
g57
(g78
g59
NtRp4313
(dp4314
g62
(dp4315
sg71
g4309
sg64
(lp4316
g57
(g58
g59
NtRp4317
(dp4318
g62
(dp4319
g70
I3
ssg71
g4313
sg64
(lp4320
g57
(g66
g59
NtRp4321
(dp4322
g62
(dp4323
g70
I2
ssg71
Nsg64
(lp4324
g57
(g73
g59
NtRp4325
(dp4326
g62
(dp4327
sg71
g4321
sg64
(lp4328
g57
(g78
g59
NtRp4329
(dp4330
g62
(dp4331
sg71
g4325
sg64
(lp4332
g57
(g58
g59
NtRp4333
(dp4334
g62
(dp4335
g70
I2
ssg71
g4329
sg64
(lp4336
g57
(g66
g59
NtRp4337
(dp4338
g62
(dp4339
g70
I1
ssg71
Nsg64
(lp4340
g57
(g73
g59
NtRp4341
(dp4342
g62
(dp4343
sg71
g4337
sg64
(lp4344
g57
(g78
g59
NtRp4345
(dp4346
g62
(dp4347
sg71
g4341
sg64
(lp4348
g57
(g58
g59
NtRp4349
(dp4350
g62
(dp4351
g70
I1
ssg71
g4345
sg64
(lp4352
g3738
(S't\x06\x00\x00\x00Logout'
tRp4353
asbasbasbag57
(g73
g59
NtRp4354
(dp4355
g62
(dp4356
sg71
g4337
sg64
(lp4357
g57
(g78
g59
NtRp4358
(dp4359
g62
(dp4360
sg71
g4354
sg64
(lp4361
g57
(g58
g59
NtRp4362
(dp4363
g62
(dp4364
g70
I1
ssg71
g4358
sg64
(lp4365
I00
asbasbasbag57
(g73
g59
NtRp4366
(dp4367
g62
(dp4368
sg71
g4337
sg64
(lp4369
g57
(g78
g59
NtRp4370
(dp4371
g62
(dp4372
sg71
g4366
sg64
(lp4373
g57
(g58
g59
NtRp4374
(dp4375
g62
(dp4376
g70
I1
ssg71
g4370
sg64
(lp4377
S'/initial/user/logout'
p4378
asbasbasbasbasbasbasbasbasbasbasbasbasbasbasbasbasbasbasbag57
(g73
g59
NtRp4379
(dp4380
g62
(dp4381
sg71
g3205
sg64
(lp4382
g57
(g78
g59
NtRp4383
(dp4384
g62
(dp4385
g82
g83
ssg71
g4379
sg64
(lp4386
S'meta'
p4387
asbag57
(g78
g59
NtRp4388
(dp4389
g62
(dp4390
g89
g90
ssg71
g4379
sg64
(lp4391
S':'
asbag57
(g78
g59
NtRp4392
(dp4393
g62
(dp4394
sg71
g4379
sg64
(lp4395
g57
(g58
g59
NtRp4396
(dp4397
g62
(dp4398
g70
I5
ssg71
g4392
sg64
(lp4399
g57
(g66
g59
NtRp4400
(dp4401
g62
(dp4402
g70
I4
ssg71
Nsg64
(lp4403
g57
(g73
g59
NtRp4404
(dp4405
g62
(dp4406
sg71
g4400
sg64
(lp4407
g57
(g78
g59
NtRp4408
(dp4409
g62
(dp4410
g82
g83
ssg71
g4404
sg64
(lp4411
S'author'
p4412
asbag57
(g78
g59
NtRp4413
(dp4414
g62
(dp4415
g89
g90
ssg71
g4404
sg64
(lp4416
S':'
asbag57
(g78
g59
NtRp4417
(dp4418
g62
(dp4419
sg71
g4404
sg64
(lp4420
g57
(g58
g59
NtRp4421
(dp4422
g62
(dp4423
g70
I4
ssg71
g4417
sg64
(lp4424
S'Your Name <you@example.com>'
p4425
asbasbasbag57
(g73
g59
NtRp4426
(dp4427
g62
(dp4428
sg71
g4400
sg64
(lp4429
g57
(g78
g59
NtRp4430
(dp4431
g62
(dp4432
g82
g83
ssg71
g4426
sg64
(lp4433
S'description'
p4434
asbag57
(g78
g59
NtRp4435
(dp4436
g62
(dp4437
g89
g90
ssg71
g4426
sg64
(lp4438
S':'
asbag57
(g78
g59
NtRp4439
(dp4440
g62
(dp4441
sg71
g4426
sg64
(lp4442
g57
(g58
g59
NtRp4443
(dp4444
g62
(dp4445
g70
I4
ssg71
g4439
sg64
(lp4446
S'a cool new app'
p4447
asbasbasbag57
(g73
g59
NtRp4448
(dp4449
g62
(dp4450
sg71
g4400
sg64
(lp4451
g57
(g78
g59
NtRp4452
(dp4453
g62
(dp4454
g82
g83
ssg71
g4448
sg64
(lp4455
S'generator'
p4456
asbag57
(g78
g59
NtRp4457
(dp4458
g62
(dp4459
g89
g90
ssg71
g4448
sg64
(lp4460
S':'
asbag57
(g78
g59
NtRp4461
(dp4462
g62
(dp4463
sg71
g4448
sg64
(lp4464
g57
(g58
g59
NtRp4465
(dp4466
g62
(dp4467
g70
I4
ssg71
g4461
sg64
(lp4468
S'Web2py Web Framework'
p4469
asbasbasbag57
(g73
g59
NtRp4470
(dp4471
g62
(dp4472
sg71
g4400
sg64
(lp4473
g57
(g78
g59
NtRp4474
(dp4475
g62
(dp4476
g82
g83
ssg71
g4470
sg64
(lp4477
S'keywords'
p4478
asbag57
(g78
g59
NtRp4479
(dp4480
g62
(dp4481
g89
g90
ssg71
g4470
sg64
(lp4482
S':'
asbag57
(g78
g59
NtRp4483
(dp4484
g62
(dp4485
sg71
g4470
sg64
(lp4486
g57
(g58
g59
NtRp4487
(dp4488
g62
(dp4489
g70
I4
ssg71
g4483
sg64
(lp4490
S'web2py, python, framework'
p4491
asbasbasbasbasbasbasbag57
(g73
g59
NtRp4492
(dp4493
g62
(dp4494
sg71
g3205
sg64
(lp4495
g57
(g78
g59
NtRp4496
(dp4497
g62
(dp4498
g82
g83
ssg71
g4492
sg64
(lp4499
S'models_to_run'
p4500
asbag57
(g78
g59
NtRp4501
(dp4502
g62
(dp4503
g89
g90
ssg71
g4492
sg64
(lp4504
S':'
asbag57
(g78
g59
NtRp4505
(dp4506
g62
(dp4507
sg71
g4492
sg64
(lp4508
g57
(g58
g59
NtRp4509
(dp4510
g62
(dp4511
g70
I5
ssg71
g4505
sg64
(lp4512
g57
(g66
g59
NtRp4513
(dp4514
g62
(dp4515
g70
I4
ssg71
Nsg64
(lp4516
g57
(g73
g59
NtRp4517
(dp4518
g62
(dp4519
sg71
g4513
sg64
(lp4520
g57
(g78
g59
NtRp4521
(dp4522
g62
(dp4523
sg71
g4517
sg64
(lp4524
g57
(g58
g59
NtRp4525
(dp4526
g62
(dp4527
g70
I4
ssg71
g4521
sg64
(lp4528
S'^\\w+\\.py$'
p4529
asbasbasbag57
(g73
g59
NtRp4530
(dp4531
g62
(dp4532
sg71
g4513
sg64
(lp4533
g57
(g78
g59
NtRp4534
(dp4535
g62
(dp4536
sg71
g4530
sg64
(lp4537
g57
(g58
g59
NtRp4538
(dp4539
g62
(dp4540
g70
I4
ssg71
g4534
sg64
(lp4541
S'^initial/\\w+\\.py$'
p4542
asbasbasbag57
(g73
g59
NtRp4543
(dp4544
g62
(dp4545
sg71
g4513
sg64
(lp4546
g57
(g78
g59
NtRp4547
(dp4548
g62
(dp4549
sg71
g4543
sg64
(lp4550
g57
(g58
g59
NtRp4551
(dp4552
g62
(dp4553
g70
I4
ssg71
g4547
sg64
(lp4554
S'^initial/show_cliente/\\w+\\.py$'
p4555
asbasbasbasbasbasbasbag57
(g73
g59
NtRp4556
(dp4557
g62
(dp4558
sg71
g3205
sg64
(lp4559
g57
(g78
g59
NtRp4560
(dp4561
g62
(dp4562
g82
g83
ssg71
g4556
sg64
(lp4563
S'postprocessing'
p4564
asbag57
(g78
g59
NtRp4565
(dp4566
g62
(dp4567
g89
g90
ssg71
g4556
sg64
(lp4568
S':'
asbag57
(g78
g59
NtRp4569
(dp4570
g62
(dp4571
sg71
g4556
sg64
(lp4572
g57
(g58
g59
NtRp4573
(dp4574
g62
(dp4575
g70
I5
ssg71
g4569
sg64
(lp4576
g57
(g66
g59
NtRp4577
(dp4578
g62
(dp4579
g70
I4
ssg71
Nsg64
(lp4580
sbasbasbasbag57
(g73
g59
NtRp4581
(dp4582
g62
(dp4583
sg71
g3205
sg64
(lp4584
g57
(g78
g59
NtRp4585
(dp4586
g62
(dp4587
g82
g83
ssg71
g4581
sg64
(lp4588
S'session_cookie_expires'
p4589
asbag57
(g78
g59
NtRp4590
(dp4591
g62
(dp4592
g89
g90
ssg71
g4581
sg64
(lp4593
S':'
asbag57
(g78
g59
NtRp4594
(dp4595
g62
(dp4596
sg71
g4581
sg64
(lp4597
g57
(g58
g59
NtRp4598
(dp4599
g62
(dp4600
g70
I5
ssg71
g4594
sg64
(lp4601
S'None'
p4602
asbasbasbag57
(g73
g59
NtRp4603
(dp4604
g62
(dp4605
sg71
g3205
sg64
(lp4606
g57
(g78
g59
NtRp4607
(dp4608
g62
(dp4609
g82
g83
ssg71
g4603
sg64
(lp4610
S'session_data_name'
p4611
asbag57
(g78
g59
NtRp4612
(dp4613
g62
(dp4614
g89
g90
ssg71
g4603
sg64
(lp4615
S':'
asbag57
(g78
g59
NtRp4616
(dp4617
g62
(dp4618
sg71
g4603
sg64
(lp4619
g57
(g58
g59
NtRp4620
(dp4621
g62
(dp4622
g70
I5
ssg71
g4616
sg64
(lp4623
S'session_data_projeto'
p4624
asbasbasbag57
(g73
g59
NtRp4625
(dp4626
g62
(dp4627
sg71
g3205
sg64
(lp4628
g57
(g78
g59
NtRp4629
(dp4630
g62
(dp4631
g82
g83
ssg71
g4625
sg64
(lp4632
S'session_file'
p4633
asbag57
(g78
g59
NtRp4634
(dp4635
g62
(dp4636
g89
g90
ssg71
g4625
sg64
(lp4637
S':'
asbag57
(g78
g59
NtRp4638
(dp4639
g62
(dp4640
sg71
g4625
sg64
(lp4641
g57
(g58
g59
NtRp4642
(dp4643
g62
(dp4644
g70
I5
ssg71
g4638
sg64
(lp4645
S"<open file '/var/www/conferencia/applications/projeto/sessions/127.0.0.1-001edd4c-cc9d-40b6-92aa-d3bbbc6019b5', mode 'rb+' at 0x7f63407aaed0>"
p4646
asbasbasbag57
(g73
g59
NtRp4647
(dp4648
g62
(dp4649
sg71
g3205
sg64
(lp4650
g57
(g78
g59
NtRp4651
(dp4652
g62
(dp4653
g82
g83
ssg71
g4647
sg64
(lp4654
S'session_filename'
p4655
asbag57
(g78
g59
NtRp4656
(dp4657
g62
(dp4658
g89
g90
ssg71
g4647
sg64
(lp4659
S':'
asbag57
(g78
g59
NtRp4660
(dp4661
g62
(dp4662
sg71
g4647
sg64
(lp4663
g57
(g58
g59
NtRp4664
(dp4665
g62
(dp4666
g70
I5
ssg71
g4660
sg64
(lp4667
S'/var/www/conferencia/applications/projeto/sessions/127.0.0.1-001edd4c-cc9d-40b6-92aa-d3bbbc6019b5'
p4668
asbasbasbag57
(g73
g59
NtRp4669
(dp4670
g62
(dp4671
sg71
g3205
sg64
(lp4672
g57
(g78
g59
NtRp4673
(dp4674
g62
(dp4675
g82
g83
ssg71
g4669
sg64
(lp4676
S'session_id'
p4677
asbag57
(g78
g59
NtRp4678
(dp4679
g62
(dp4680
g89
g90
ssg71
g4669
sg64
(lp4681
S':'
asbag57
(g78
g59
NtRp4682
(dp4683
g62
(dp4684
sg71
g4669
sg64
(lp4685
g57
(g58
g59
NtRp4686
(dp4687
g62
(dp4688
g70
I5
ssg71
g4682
sg64
(lp4689
g475
asbasbasbag57
(g73
g59
NtRp4690
(dp4691
g62
(dp4692
sg71
g3205
sg64
(lp4693
g57
(g78
g59
NtRp4694
(dp4695
g62
(dp4696
g82
g83
ssg71
g4690
sg64
(lp4697
S'session_id_name'
p4698
asbag57
(g78
g59
NtRp4699
(dp4700
g62
(dp4701
g89
g90
ssg71
g4690
sg64
(lp4702
S':'
asbag57
(g78
g59
NtRp4703
(dp4704
g62
(dp4705
sg71
g4690
sg64
(lp4706
g57
(g58
g59
NtRp4707
(dp4708
g62
(dp4709
g70
I5
ssg71
g4703
sg64
(lp4710
g3262
asbasbasbag57
(g73
g59
NtRp4711
(dp4712
g62
(dp4713
sg71
g3205
sg64
(lp4714
g57
(g78
g59
NtRp4715
(dp4716
g62
(dp4717
g82
g83
ssg71
g4711
sg64
(lp4718
S'session_locked'
p4719
asbag57
(g78
g59
NtRp4720
(dp4721
g62
(dp4722
g89
g90
ssg71
g4711
sg64
(lp4723
S':'
asbag57
(g78
g59
NtRp4724
(dp4725
g62
(dp4726
sg71
g4711
sg64
(lp4727
g57
(g58
g59
NtRp4728
(dp4729
g62
(dp4730
g70
I5
ssg71
g4724
sg64
(lp4731
g1614
asbasbasbag57
(g73
g59
NtRp4732
(dp4733
g62
(dp4734
sg71
g3205
sg64
(lp4735
g57
(g78
g59
NtRp4736
(dp4737
g62
(dp4738
g82
g83
ssg71
g4732
sg64
(lp4739
S'session_new'
p4740
asbag57
(g78
g59
NtRp4741
(dp4742
g62
(dp4743
g89
g90
ssg71
g4732
sg64
(lp4744
S':'
asbag57
(g78
g59
NtRp4745
(dp4746
g62
(dp4747
sg71
g4732
sg64
(lp4748
g57
(g58
g59
NtRp4749
(dp4750
g62
(dp4751
g70
I5
ssg71
g4745
sg64
(lp4752
g100
asbasbasbag57
(g73
g59
NtRp4753
(dp4754
g62
(dp4755
sg71
g3205
sg64
(lp4756
g57
(g78
g59
NtRp4757
(dp4758
g62
(dp4759
g82
g83
ssg71
g4753
sg64
(lp4760
S'session_storage_type'
p4761
asbag57
(g78
g59
NtRp4762
(dp4763
g62
(dp4764
g89
g90
ssg71
g4753
sg64
(lp4765
S':'
asbag57
(g78
g59
NtRp4766
(dp4767
g62
(dp4768
sg71
g4753
sg64
(lp4769
g57
(g58
g59
NtRp4770
(dp4771
g62
(dp4772
g70
I5
ssg71
g4766
sg64
(lp4773
g3057
asbasbasbag57
(g73
g59
NtRp4774
(dp4775
g62
(dp4776
sg71
g3205
sg64
(lp4777
g57
(g78
g59
NtRp4778
(dp4779
g62
(dp4780
g82
g83
ssg71
g4774
sg64
(lp4781
S'status'
p4782
asbag57
(g78
g59
NtRp4783
(dp4784
g62
(dp4785
g89
g90
ssg71
g4774
sg64
(lp4786
S':'
asbag57
(g78
g59
NtRp4787
(dp4788
g62
(dp4789
sg71
g4774
sg64
(lp4790
g57
(g58
g59
NtRp4791
(dp4792
g62
(dp4793
g70
I5
ssg71
g4787
sg64
(lp4794
S'200'
p4795
asbasbasbag57
(g73
g59
NtRp4796
(dp4797
g62
(dp4798
sg71
g3205
sg64
(lp4799
g57
(g78
g59
NtRp4800
(dp4801
g62
(dp4802
g82
g83
ssg71
g4796
sg64
(lp4803
S'subtitle'
p4804
asbag57
(g78
g59
NtRp4805
(dp4806
g62
(dp4807
g89
g90
ssg71
g4796
sg64
(lp4808
S':'
asbag57
(g78
g59
NtRp4809
(dp4810
g62
(dp4811
sg71
g4796
sg64
(lp4812
g57
(g58
g59
NtRp4813
(dp4814
g62
(dp4815
g70
I5
ssg71
g4809
sg64
(lp4816
g3738
(S's\r\x00\x00\x00customize me!'
tRp4817
asbasbasbag57
(g73
g59
NtRp4818
(dp4819
g62
(dp4820
sg71
g3205
sg64
(lp4821
g57
(g78
g59
NtRp4822
(dp4823
g62
(dp4824
g82
g83
ssg71
g4818
sg64
(lp4825
S'title'
p4826
asbag57
(g78
g59
NtRp4827
(dp4828
g62
(dp4829
g89
g90
ssg71
g4818
sg64
(lp4830
S':'
asbag57
(g78
g59
NtRp4831
(dp4832
g62
(dp4833
sg71
g4818
sg64
(lp4834
g57
(g58
g59
NtRp4835
(dp4836
g62
(dp4837
g70
I5
ssg71
g4831
sg64
(lp4838
S'Eventos'
p4839
asbasbasbag57
(g73
g59
NtRp4840
(dp4841
g62
(dp4842
sg71
g3205
sg64
(lp4843
g57
(g78
g59
NtRp4844
(dp4845
g62
(dp4846
g82
g83
ssg71
g4840
sg64
(lp4847
S'view'
p4848
asbag57
(g78
g59
NtRp4849
(dp4850
g62
(dp4851
g89
g90
ssg71
g4840
sg64
(lp4852
S':'
asbag57
(g78
g59
NtRp4853
(dp4854
g62
(dp4855
sg71
g4840
sg64
(lp4856
g57
(g58
g59
NtRp4857
(dp4858
g62
(dp4859
g70
I5
ssg71
g4853
sg64
(lp4860
S'initial/show_cliente.html'
p4861
asbasbasbasbasbsS'locals'
p4862
(dp4863
S'row'
p4864
S"<Row {'confno': 1013, 'admin_user': [2], 'gravac...e.datetime(2013, 4, 11, 12, 26, 40), 'id': 1013}>"
p4865
sssS'traceback'
p4866
S'Traceback (most recent call last):\n  File "/var/www/conferencia/gluon/restricted.py", line 212, in restricted\n    exec ccode in environment\n  File "/var/www/conferencia/applications/projeto/controllers/initial.py", line 324, in <module>\n  File "/var/www/conferencia/gluon/globals.py", line 193, in <lambda>\n    self._caller = lambda f: f()\n  File "/var/www/conferencia/applications/projeto/controllers/initial.py", line 14, in show_cliente\n    links=[lambda row: A(\'Editar\',\n  File "/var/www/conferencia/gluon/sqlhtml.py", line 2258, in grid\n    if link(row):\n  File "/var/www/conferencia/applications/projeto/controllers/initial.py", line 18, in <lambda>\n    vars=dict(f=row.hosts.id)))]\nAttributeError: \'Row\' object has no attribute \'hosts\'\n'
p4867
s.