(dp1
S'output'
p2
S'<class \'gluon.contrib.pg8000.errors.ProgrammingError\'> (\'ERROR\', \'42P01\', \'relation "meetme" does not exist\')'
p3
sS'layer'
p4
S'/var/www/conferencia/applications/projeto/models/models.py'
p5
sS'code'
p6
S'usuario = db.define_table("usuario",\n      Field("nome", notnull=True, unique=True),\n      Field("pin"),\n      Field("email"),\n      #auth.signature\n      format="%(nome)s")\n\n\nmeetme = db.define_table("meetme",\n      Field("confno"), \n      Field("starttime", "datetime"),\n      Field("endtime", "datetime"),\n      Field("membros_user", \'list:reference usuario\'),\n      primarykey=[\'confno\']\n      )\n\n\n\n'
p7
sS'snapshot'
p8
(dp9
S'exception'
p10
(dp11
S'__module__'
p12
S"'gluon.contrib.pg8000.errors'"
p13
sS'__getslice__'
p14
S"<method-wrapper '__getslice__' of ProgrammingError object>"
p15
sS'__str__'
p16
S"<method-wrapper '__str__' of ProgrammingError object>"
p17
sS'__reduce__'
p18
S'<built-in method __reduce__ of ProgrammingError object>'
p19
sS'__dict__'
p20
S'{}'
p21
sS'__sizeof__'
p22
S'<built-in method __sizeof__ of ProgrammingError object>'
p23
sS'__weakref__'
p24
S'None'
p25
sS'__init__'
p26
S"<method-wrapper '__init__' of ProgrammingError object>"
p27
sS'__setattr__'
p28
S"<method-wrapper '__setattr__' of ProgrammingError object>"
p29
sS'__reduce_ex__'
p30
S'<built-in method __reduce_ex__ of ProgrammingError object>'
p31
sS'__new__'
p32
S'<built-in method __new__ of type object>'
p33
sS'__format__'
p34
S'<built-in method __format__ of ProgrammingError object>'
p35
sS'__class__'
p36
S"<class 'gluon.contrib.pg8000.errors.ProgrammingError'>"
p37
sS'__doc__'
p38
S'None'
p39
sS'__getitem__'
p40
S"<method-wrapper '__getitem__' of ProgrammingError object>"
p41
sS'__setstate__'
p42
S'<built-in method __setstate__ of ProgrammingError object>'
p43
sS'__getattribute__'
p44
S"<method-wrapper '__getattribute__' of ProgrammingError object>"
p45
sS'args'
p46
S'(\'ERROR\', \'42P01\', \'relation "meetme" does not exist\')'
p47
sS'__subclasshook__'
p48
S'<built-in method __subclasshook__ of type object>'
p49
sS'__unicode__'
p50
S'<built-in method __unicode__ of ProgrammingError object>'
p51
sS'__delattr__'
p52
S"<method-wrapper '__delattr__' of ProgrammingError object>"
p53
sS'__repr__'
p54
S"<method-wrapper '__repr__' of ProgrammingError object>"
p55
sS'__hash__'
p56
S"<method-wrapper '__hash__' of ProgrammingError object>"
p57
ssS'evalue'
p58
S'(\'ERROR\', \'42P01\', \'relation "meetme" does not exist\')'
p59
sS'request'
p60
ccopy_reg
_reconstructor
p61
(cgluon.html
BEAUTIFY
p62
c__builtin__
object
p63
NtRp64
(dp65
S'attributes'
p66
(dp67
sS'components'
p68
(lp69
g61
(cgluon.html
TABLE
p70
g63
NtRp71
(dp72
g66
(dp73
S'level'
p74
I5
ssS'parent'
p75
Nsg68
(lp76
g61
(cgluon.html
TR
p77
g63
NtRp78
(dp79
g66
(dp80
sg75
g71
sg68
(lp81
g61
(cgluon.html
TD
p82
g63
NtRp83
(dp84
g66
(dp85
S'_style'
p86
S'font-weight:bold;vertical-align:top'
p87
ssg75
g78
sg68
(lp88
S'ajax'
p89
asbag61
(g82
g63
NtRp90
(dp91
g66
(dp92
S'_valign'
p93
S'top'
p94
ssg75
g78
sg68
(lp95
S':'
asbag61
(g82
g63
NtRp96
(dp97
g66
(dp98
sg75
g78
sg68
(lp99
g61
(g62
g63
NtRp100
(dp101
g66
(dp102
g74
I5
ssg75
g96
sg68
(lp103
S'False'
p104
asbasbasbag61
(g77
g63
NtRp105
(dp106
g66
(dp107
sg75
g71
sg68
(lp108
g61
(g82
g63
NtRp109
(dp110
g66
(dp111
g86
g87
ssg75
g105
sg68
(lp112
S'application'
p113
asbag61
(g82
g63
NtRp114
(dp115
g66
(dp116
g93
g94
ssg75
g105
sg68
(lp117
S':'
asbag61
(g82
g63
NtRp118
(dp119
g66
(dp120
sg75
g105
sg68
(lp121
g61
(g62
g63
NtRp122
(dp123
g66
(dp124
g74
I5
ssg75
g118
sg68
(lp125
S'projeto'
p126
asbasbasbag61
(g77
g63
NtRp127
(dp128
g66
(dp129
sg75
g71
sg68
(lp130
g61
(g82
g63
NtRp131
(dp132
g66
(dp133
g86
g87
ssg75
g127
sg68
(lp134
g46
asbag61
(g82
g63
NtRp135
(dp136
g66
(dp137
g93
g94
ssg75
g127
sg68
(lp138
S':'
asbag61
(g82
g63
NtRp139
(dp140
g66
(dp141
sg75
g127
sg68
(lp142
g61
(g62
g63
NtRp143
(dp144
g66
(dp145
g74
I5
ssg75
g139
sg68
(lp146
g61
(g70
g63
NtRp147
(dp148
g66
(dp149
g74
I4
ssg75
Nsg68
(lp150
sbasbasbasbag61
(g77
g63
NtRp151
(dp152
g66
(dp153
sg75
g71
sg68
(lp154
g61
(g82
g63
NtRp155
(dp156
g66
(dp157
g86
g87
ssg75
g151
sg68
(lp158
S'body'
p159
asbag61
(g82
g63
NtRp160
(dp161
g66
(dp162
g93
g94
ssg75
g151
sg68
(lp163
S':'
asbag61
(g82
g63
NtRp164
(dp165
g66
(dp166
sg75
g151
sg68
(lp167
g61
(g62
g63
NtRp168
(dp169
g66
(dp170
g74
I5
ssg75
g164
sg68
(lp171
S'<cStringIO.StringO object at 0x1691298>'
p172
asbasbasbag61
(g77
g63
NtRp173
(dp174
g66
(dp175
sg75
g71
sg68
(lp176
g61
(g82
g63
NtRp177
(dp178
g66
(dp179
g86
g87
ssg75
g173
sg68
(lp180
S'cid'
p181
asbag61
(g82
g63
NtRp182
(dp183
g66
(dp184
g93
g94
ssg75
g173
sg68
(lp185
S':'
asbag61
(g82
g63
NtRp186
(dp187
g66
(dp188
sg75
g173
sg68
(lp189
g61
(g62
g63
NtRp190
(dp191
g66
(dp192
g74
I5
ssg75
g186
sg68
(lp193
S'None'
p194
asbasbasbag61
(g77
g63
NtRp195
(dp196
g66
(dp197
sg75
g71
sg68
(lp198
g61
(g82
g63
NtRp199
(dp200
g66
(dp201
g86
g87
ssg75
g195
sg68
(lp202
S'client'
p203
asbag61
(g82
g63
NtRp204
(dp205
g66
(dp206
g93
g94
ssg75
g195
sg68
(lp207
S':'
asbag61
(g82
g63
NtRp208
(dp209
g66
(dp210
sg75
g195
sg68
(lp211
g61
(g62
g63
NtRp212
(dp213
g66
(dp214
g74
I5
ssg75
g208
sg68
(lp215
S'127.0.0.1'
p216
asbasbasbag61
(g77
g63
NtRp217
(dp218
g66
(dp219
sg75
g71
sg68
(lp220
g61
(g82
g63
NtRp221
(dp222
g66
(dp223
g86
g87
ssg75
g217
sg68
(lp224
S'controller'
p225
asbag61
(g82
g63
NtRp226
(dp227
g66
(dp228
g93
g94
ssg75
g217
sg68
(lp229
S':'
asbag61
(g82
g63
NtRp230
(dp231
g66
(dp232
sg75
g217
sg68
(lp233
g61
(g62
g63
NtRp234
(dp235
g66
(dp236
g74
I5
ssg75
g230
sg68
(lp237
S'initial'
p238
asbasbasbag61
(g77
g63
NtRp239
(dp240
g66
(dp241
sg75
g71
sg68
(lp242
g61
(g82
g63
NtRp243
(dp244
g66
(dp245
g86
g87
ssg75
g239
sg68
(lp246
S'cookies'
p247
asbag61
(g82
g63
NtRp248
(dp249
g66
(dp250
g93
g94
ssg75
g239
sg68
(lp251
S':'
asbag61
(g82
g63
NtRp252
(dp253
g66
(dp254
sg75
g239
sg68
(lp255
g61
(g62
g63
NtRp256
(dp257
g66
(dp258
g74
I5
ssg75
g252
sg68
(lp259
g61
(g70
g63
NtRp260
(dp261
g66
(dp262
g74
I4
ssg75
Nsg68
(lp263
g61
(g77
g63
NtRp264
(dp265
g66
(dp266
sg75
g260
sg68
(lp267
g61
(g82
g63
NtRp268
(dp269
g66
(dp270
g86
g87
ssg75
g264
sg68
(lp271
S'session_id_admin'
p272
asbag61
(g82
g63
NtRp273
(dp274
g66
(dp275
g93
g94
ssg75
g264
sg68
(lp276
S':'
asbag61
(g82
g63
NtRp277
(dp278
g66
(dp279
sg75
g264
sg68
(lp280
g61
(g62
g63
NtRp281
(dp282
g66
(dp283
g74
I4
ssg75
g277
sg68
(lp284
S'127.0.0.1-f08163e7-63a0-4e97-8334-13b9dc892d78'
p285
ag61
(g70
g63
NtRp286
(dp287
g66
(dp288
g74
I3
ssg75
Nsg68
(lp289
g61
(g77
g63
NtRp290
(dp291
g66
(dp292
sg75
g286
sg68
(lp293
g61
(g82
g63
NtRp294
(dp295
g66
(dp296
g86
g87
ssg75
g290
sg68
(lp297
S'comment'
p298
asbag61
(g82
g63
NtRp299
(dp300
g66
(dp301
g93
g94
ssg75
g290
sg68
(lp302
S':'
asbag61
(g82
g63
NtRp303
(dp304
g66
(dp305
sg75
g290
sg68
(lp306
g61
(g62
g63
NtRp307
(dp308
g66
(dp309
g74
I3
ssg75
g303
sg68
(lp310
S''
asbasbasbag61
(g77
g63
NtRp311
(dp312
g66
(dp313
sg75
g286
sg68
(lp314
g61
(g82
g63
NtRp315
(dp316
g66
(dp317
g86
g87
ssg75
g311
sg68
(lp318
S'domain'
p319
asbag61
(g82
g63
NtRp320
(dp321
g66
(dp322
g93
g94
ssg75
g311
sg68
(lp323
S':'
asbag61
(g82
g63
NtRp324
(dp325
g66
(dp326
sg75
g311
sg68
(lp327
g61
(g62
g63
NtRp328
(dp329
g66
(dp330
g74
I3
ssg75
g324
sg68
(lp331
S''
asbasbasbag61
(g77
g63
NtRp332
(dp333
g66
(dp334
sg75
g286
sg68
(lp335
g61
(g82
g63
NtRp336
(dp337
g66
(dp338
g86
g87
ssg75
g332
sg68
(lp339
S'expires'
p340
asbag61
(g82
g63
NtRp341
(dp342
g66
(dp343
g93
g94
ssg75
g332
sg68
(lp344
S':'
asbag61
(g82
g63
NtRp345
(dp346
g66
(dp347
sg75
g332
sg68
(lp348
g61
(g62
g63
NtRp349
(dp350
g66
(dp351
g74
I3
ssg75
g345
sg68
(lp352
S''
asbasbasbag61
(g77
g63
NtRp353
(dp354
g66
(dp355
sg75
g286
sg68
(lp356
g61
(g82
g63
NtRp357
(dp358
g66
(dp359
g86
g87
ssg75
g353
sg68
(lp360
S'httponly'
p361
asbag61
(g82
g63
NtRp362
(dp363
g66
(dp364
g93
g94
ssg75
g353
sg68
(lp365
S':'
asbag61
(g82
g63
NtRp366
(dp367
g66
(dp368
sg75
g353
sg68
(lp369
g61
(g62
g63
NtRp370
(dp371
g66
(dp372
g74
I3
ssg75
g366
sg68
(lp373
S''
asbasbasbag61
(g77
g63
NtRp374
(dp375
g66
(dp376
sg75
g286
sg68
(lp377
g61
(g82
g63
NtRp378
(dp379
g66
(dp380
g86
g87
ssg75
g374
sg68
(lp381
S'max-age'
p382
asbag61
(g82
g63
NtRp383
(dp384
g66
(dp385
g93
g94
ssg75
g374
sg68
(lp386
S':'
asbag61
(g82
g63
NtRp387
(dp388
g66
(dp389
sg75
g374
sg68
(lp390
g61
(g62
g63
NtRp391
(dp392
g66
(dp393
g74
I3
ssg75
g387
sg68
(lp394
S''
asbasbasbag61
(g77
g63
NtRp395
(dp396
g66
(dp397
sg75
g286
sg68
(lp398
g61
(g82
g63
NtRp399
(dp400
g66
(dp401
g86
g87
ssg75
g395
sg68
(lp402
S'path'
p403
asbag61
(g82
g63
NtRp404
(dp405
g66
(dp406
g93
g94
ssg75
g395
sg68
(lp407
S':'
asbag61
(g82
g63
NtRp408
(dp409
g66
(dp410
sg75
g395
sg68
(lp411
g61
(g62
g63
NtRp412
(dp413
g66
(dp414
g74
I3
ssg75
g408
sg68
(lp415
S''
asbasbasbag61
(g77
g63
NtRp416
(dp417
g66
(dp418
sg75
g286
sg68
(lp419
g61
(g82
g63
NtRp420
(dp421
g66
(dp422
g86
g87
ssg75
g416
sg68
(lp423
S'secure'
p424
asbag61
(g82
g63
NtRp425
(dp426
g66
(dp427
g93
g94
ssg75
g416
sg68
(lp428
S':'
asbag61
(g82
g63
NtRp429
(dp430
g66
(dp431
sg75
g416
sg68
(lp432
g61
(g62
g63
NtRp433
(dp434
g66
(dp435
g74
I3
ssg75
g429
sg68
(lp436
S''
asbasbasbag61
(g77
g63
NtRp437
(dp438
g66
(dp439
sg75
g286
sg68
(lp440
g61
(g82
g63
NtRp441
(dp442
g66
(dp443
g86
g87
ssg75
g437
sg68
(lp444
S'version'
p445
asbag61
(g82
g63
NtRp446
(dp447
g66
(dp448
g93
g94
ssg75
g437
sg68
(lp449
S':'
asbag61
(g82
g63
NtRp450
(dp451
g66
(dp452
sg75
g437
sg68
(lp453
g61
(g62
g63
NtRp454
(dp455
g66
(dp456
g74
I3
ssg75
g450
sg68
(lp457
S''
asbasbasbasbasbasbasbag61
(g77
g63
NtRp458
(dp459
g66
(dp460
sg75
g260
sg68
(lp461
g61
(g82
g63
NtRp462
(dp463
g66
(dp464
g86
g87
ssg75
g458
sg68
(lp465
S'session_id_projeto'
p466
asbag61
(g82
g63
NtRp467
(dp468
g66
(dp469
g93
g94
ssg75
g458
sg68
(lp470
S':'
asbag61
(g82
g63
NtRp471
(dp472
g66
(dp473
sg75
g458
sg68
(lp474
g61
(g62
g63
NtRp475
(dp476
g66
(dp477
g74
I4
ssg75
g471
sg68
(lp478
S'127.0.0.1-0fe02c32-0739-4f06-a369-3bba6377da8b'
p479
ag61
(g70
g63
NtRp480
(dp481
g66
(dp482
g74
I3
ssg75
Nsg68
(lp483
g61
(g77
g63
NtRp484
(dp485
g66
(dp486
sg75
g480
sg68
(lp487
g61
(g82
g63
NtRp488
(dp489
g66
(dp490
g86
g87
ssg75
g484
sg68
(lp491
g298
asbag61
(g82
g63
NtRp492
(dp493
g66
(dp494
g93
g94
ssg75
g484
sg68
(lp495
S':'
asbag61
(g82
g63
NtRp496
(dp497
g66
(dp498
sg75
g484
sg68
(lp499
g61
(g62
g63
NtRp500
(dp501
g66
(dp502
g74
I3
ssg75
g496
sg68
(lp503
S''
asbasbasbag61
(g77
g63
NtRp504
(dp505
g66
(dp506
sg75
g480
sg68
(lp507
g61
(g82
g63
NtRp508
(dp509
g66
(dp510
g86
g87
ssg75
g504
sg68
(lp511
g319
asbag61
(g82
g63
NtRp512
(dp513
g66
(dp514
g93
g94
ssg75
g504
sg68
(lp515
S':'
asbag61
(g82
g63
NtRp516
(dp517
g66
(dp518
sg75
g504
sg68
(lp519
g61
(g62
g63
NtRp520
(dp521
g66
(dp522
g74
I3
ssg75
g516
sg68
(lp523
S''
asbasbasbag61
(g77
g63
NtRp524
(dp525
g66
(dp526
sg75
g480
sg68
(lp527
g61
(g82
g63
NtRp528
(dp529
g66
(dp530
g86
g87
ssg75
g524
sg68
(lp531
g340
asbag61
(g82
g63
NtRp532
(dp533
g66
(dp534
g93
g94
ssg75
g524
sg68
(lp535
S':'
asbag61
(g82
g63
NtRp536
(dp537
g66
(dp538
sg75
g524
sg68
(lp539
g61
(g62
g63
NtRp540
(dp541
g66
(dp542
g74
I3
ssg75
g536
sg68
(lp543
S''
asbasbasbag61
(g77
g63
NtRp544
(dp545
g66
(dp546
sg75
g480
sg68
(lp547
g61
(g82
g63
NtRp548
(dp549
g66
(dp550
g86
g87
ssg75
g544
sg68
(lp551
g361
asbag61
(g82
g63
NtRp552
(dp553
g66
(dp554
g93
g94
ssg75
g544
sg68
(lp555
S':'
asbag61
(g82
g63
NtRp556
(dp557
g66
(dp558
sg75
g544
sg68
(lp559
g61
(g62
g63
NtRp560
(dp561
g66
(dp562
g74
I3
ssg75
g556
sg68
(lp563
S''
asbasbasbag61
(g77
g63
NtRp564
(dp565
g66
(dp566
sg75
g480
sg68
(lp567
g61
(g82
g63
NtRp568
(dp569
g66
(dp570
g86
g87
ssg75
g564
sg68
(lp571
g382
asbag61
(g82
g63
NtRp572
(dp573
g66
(dp574
g93
g94
ssg75
g564
sg68
(lp575
S':'
asbag61
(g82
g63
NtRp576
(dp577
g66
(dp578
sg75
g564
sg68
(lp579
g61
(g62
g63
NtRp580
(dp581
g66
(dp582
g74
I3
ssg75
g576
sg68
(lp583
S''
asbasbasbag61
(g77
g63
NtRp584
(dp585
g66
(dp586
sg75
g480
sg68
(lp587
g61
(g82
g63
NtRp588
(dp589
g66
(dp590
g86
g87
ssg75
g584
sg68
(lp591
g403
asbag61
(g82
g63
NtRp592
(dp593
g66
(dp594
g93
g94
ssg75
g584
sg68
(lp595
S':'
asbag61
(g82
g63
NtRp596
(dp597
g66
(dp598
sg75
g584
sg68
(lp599
g61
(g62
g63
NtRp600
(dp601
g66
(dp602
g74
I3
ssg75
g596
sg68
(lp603
S''
asbasbasbag61
(g77
g63
NtRp604
(dp605
g66
(dp606
sg75
g480
sg68
(lp607
g61
(g82
g63
NtRp608
(dp609
g66
(dp610
g86
g87
ssg75
g604
sg68
(lp611
g424
asbag61
(g82
g63
NtRp612
(dp613
g66
(dp614
g93
g94
ssg75
g604
sg68
(lp615
S':'
asbag61
(g82
g63
NtRp616
(dp617
g66
(dp618
sg75
g604
sg68
(lp619
g61
(g62
g63
NtRp620
(dp621
g66
(dp622
g74
I3
ssg75
g616
sg68
(lp623
S''
asbasbasbag61
(g77
g63
NtRp624
(dp625
g66
(dp626
sg75
g480
sg68
(lp627
g61
(g82
g63
NtRp628
(dp629
g66
(dp630
g86
g87
ssg75
g624
sg68
(lp631
g445
asbag61
(g82
g63
NtRp632
(dp633
g66
(dp634
g93
g94
ssg75
g624
sg68
(lp635
S':'
asbag61
(g82
g63
NtRp636
(dp637
g66
(dp638
sg75
g624
sg68
(lp639
g61
(g62
g63
NtRp640
(dp641
g66
(dp642
g74
I3
ssg75
g636
sg68
(lp643
S''
asbasbasbasbasbasbasbasbasbasbasbag61
(g77
g63
NtRp644
(dp645
g66
(dp646
sg75
g71
sg68
(lp647
g61
(g82
g63
NtRp648
(dp649
g66
(dp650
g86
g87
ssg75
g644
sg68
(lp651
S'env'
p652
asbag61
(g82
g63
NtRp653
(dp654
g66
(dp655
g93
g94
ssg75
g644
sg68
(lp656
S':'
asbag61
(g82
g63
NtRp657
(dp658
g66
(dp659
sg75
g644
sg68
(lp660
g61
(g62
g63
NtRp661
(dp662
g66
(dp663
g74
I5
ssg75
g657
sg68
(lp664
g61
(g70
g63
NtRp665
(dp666
g66
(dp667
g74
I4
ssg75
Nsg68
(lp668
g61
(g77
g63
NtRp669
(dp670
g66
(dp671
sg75
g665
sg68
(lp672
g61
(g82
g63
NtRp673
(dp674
g66
(dp675
g86
g87
ssg75
g669
sg68
(lp676
S'app_folders'
p677
asbag61
(g82
g63
NtRp678
(dp679
g66
(dp680
g93
g94
ssg75
g669
sg68
(lp681
S':'
asbag61
(g82
g63
NtRp682
(dp683
g66
(dp684
sg75
g669
sg68
(lp685
g61
(g62
g63
NtRp686
(dp687
g66
(dp688
g74
I4
ssg75
g682
sg68
(lp689
S"set(['/var/www/conferencia/applications/projeto/'])"
p690
asbasbasbag61
(g77
g63
NtRp691
(dp692
g66
(dp693
sg75
g665
sg68
(lp694
g61
(g82
g63
NtRp695
(dp696
g66
(dp697
g86
g87
ssg75
g691
sg68
(lp698
S'applications_parent'
p699
asbag61
(g82
g63
NtRp700
(dp701
g66
(dp702
g93
g94
ssg75
g691
sg68
(lp703
S':'
asbag61
(g82
g63
NtRp704
(dp705
g66
(dp706
sg75
g691
sg68
(lp707
g61
(g62
g63
NtRp708
(dp709
g66
(dp710
g74
I4
ssg75
g704
sg68
(lp711
S'/var/www/conferencia'
p712
asbasbasbag61
(g77
g63
NtRp713
(dp714
g66
(dp715
sg75
g665
sg68
(lp716
g61
(g82
g63
NtRp717
(dp718
g66
(dp719
g86
g87
ssg75
g713
sg68
(lp720
S'cmd_args'
p721
asbag61
(g82
g63
NtRp722
(dp723
g66
(dp724
g93
g94
ssg75
g713
sg68
(lp725
S':'
asbag61
(g82
g63
NtRp726
(dp727
g66
(dp728
sg75
g713
sg68
(lp729
g61
(g62
g63
NtRp730
(dp731
g66
(dp732
g74
I4
ssg75
g726
sg68
(lp733
g61
(g70
g63
NtRp734
(dp735
g66
(dp736
g74
I3
ssg75
Nsg68
(lp737
sbasbasbasbag61
(g77
g63
NtRp738
(dp739
g66
(dp740
sg75
g665
sg68
(lp741
g61
(g82
g63
NtRp742
(dp743
g66
(dp744
g86
g87
ssg75
g738
sg68
(lp745
S'cmd_options'
p746
asbag61
(g82
g63
NtRp747
(dp748
g66
(dp749
g93
g94
ssg75
g738
sg68
(lp750
S':'
asbag61
(g82
g63
NtRp751
(dp752
g66
(dp753
sg75
g738
sg68
(lp754
g61
(g62
g63
NtRp755
(dp756
g66
(dp757
g74
I4
ssg75
g751
sg68
(lp758
S"<Values at 0x1655248: {'verbose': False, 'ip': '127.0.0.1', 'with_scheduler': False, 'ips': [], 'shutdown_timeout': 5, 'taskbar': False, 'port': 8000, 'maxthreads': None, 'softcron': False, 'server_name': 'fernando-workstation', 'bpython': False, 'nogui': False, 'pid_filename': 'httpserver.pid', 'extcron': False, 'runcron': False, 'run_system_tests': False, 'test': None, 'folder': '/var/www/conferencia', 'config': '', 'minthreads': None, 'winservice': '', 'shell': None, 'run': '', 'log_filename': 'httpserver.log', 'debuglevel': 30, 'args': [''], 'socket_timeout': 5, 'ssl_ca_certificate': None, 'scheduler': None, 'profiler_filename': None, 'ssl_private_key': '', 'scheduler_groups': None, 'password': '123456', 'request_queue_size': 5, 'ssl_certificate': '', 'cronjob': False, 'numthreads': None, 'quiet': False, 'interfaces': None, 'import_models': False, 'timeout': 10, 'plain': False, 'nobanner': False}>"
p759
asbasbasbag61
(g77
g63
NtRp760
(dp761
g66
(dp762
sg75
g665
sg68
(lp763
g61
(g82
g63
NtRp764
(dp765
g66
(dp766
g86
g87
ssg75
g760
sg68
(lp767
S'db_sessions'
p768
asbag61
(g82
g63
NtRp769
(dp770
g66
(dp771
g93
g94
ssg75
g760
sg68
(lp772
S':'
asbag61
(g82
g63
NtRp773
(dp774
g66
(dp775
sg75
g760
sg68
(lp776
g61
(g62
g63
NtRp777
(dp778
g66
(dp779
g74
I4
ssg75
g773
sg68
(lp780
S'set([])'
p781
asbasbasbag61
(g77
g63
NtRp782
(dp783
g66
(dp784
sg75
g665
sg68
(lp785
g61
(g82
g63
NtRp786
(dp787
g66
(dp788
g86
g87
ssg75
g782
sg68
(lp789
S'debugging'
p790
asbag61
(g82
g63
NtRp791
(dp792
g66
(dp793
g93
g94
ssg75
g782
sg68
(lp794
S':'
asbag61
(g82
g63
NtRp795
(dp796
g66
(dp797
sg75
g782
sg68
(lp798
g61
(g62
g63
NtRp799
(dp800
g66
(dp801
g74
I4
ssg75
g795
sg68
(lp802
g104
asbasbasbag61
(g77
g63
NtRp803
(dp804
g66
(dp805
sg75
g665
sg68
(lp806
g61
(g82
g63
NtRp807
(dp808
g66
(dp809
g86
g87
ssg75
g803
sg68
(lp810
S'gluon_parent'
p811
asbag61
(g82
g63
NtRp812
(dp813
g66
(dp814
g93
g94
ssg75
g803
sg68
(lp815
S':'
asbag61
(g82
g63
NtRp816
(dp817
g66
(dp818
sg75
g803
sg68
(lp819
g61
(g62
g63
NtRp820
(dp821
g66
(dp822
g74
I4
ssg75
g816
sg68
(lp823
S'/var/www/conferencia'
p824
asbasbasbag61
(g77
g63
NtRp825
(dp826
g66
(dp827
sg75
g665
sg68
(lp828
g61
(g82
g63
NtRp829
(dp830
g66
(dp831
g86
g87
ssg75
g825
sg68
(lp832
S'http_accept'
p833
asbag61
(g82
g63
NtRp834
(dp835
g66
(dp836
g93
g94
ssg75
g825
sg68
(lp837
S':'
asbag61
(g82
g63
NtRp838
(dp839
g66
(dp840
sg75
g825
sg68
(lp841
g61
(g62
g63
NtRp842
(dp843
g66
(dp844
g74
I4
ssg75
g838
sg68
(lp845
S'text/html,application/xhtml+xml,application/xml;q=0.9,*/*;q=0.8'
p846
asbasbasbag61
(g77
g63
NtRp847
(dp848
g66
(dp849
sg75
g665
sg68
(lp850
g61
(g82
g63
NtRp851
(dp852
g66
(dp853
g86
g87
ssg75
g847
sg68
(lp854
S'http_accept_charset'
p855
asbag61
(g82
g63
NtRp856
(dp857
g66
(dp858
g93
g94
ssg75
g847
sg68
(lp859
S':'
asbag61
(g82
g63
NtRp860
(dp861
g66
(dp862
sg75
g847
sg68
(lp863
g61
(g62
g63
NtRp864
(dp865
g66
(dp866
g74
I4
ssg75
g860
sg68
(lp867
S'ISO-8859-1,utf-8;q=0.7,*;q=0.3'
p868
asbasbasbag61
(g77
g63
NtRp869
(dp870
g66
(dp871
sg75
g665
sg68
(lp872
g61
(g82
g63
NtRp873
(dp874
g66
(dp875
g86
g87
ssg75
g869
sg68
(lp876
S'http_accept_encoding'
p877
asbag61
(g82
g63
NtRp878
(dp879
g66
(dp880
g93
g94
ssg75
g869
sg68
(lp881
S':'
asbag61
(g82
g63
NtRp882
(dp883
g66
(dp884
sg75
g869
sg68
(lp885
g61
(g62
g63
NtRp886
(dp887
g66
(dp888
g74
I4
ssg75
g882
sg68
(lp889
S'gzip,deflate,sdch'
p890
asbasbasbag61
(g77
g63
NtRp891
(dp892
g66
(dp893
sg75
g665
sg68
(lp894
g61
(g82
g63
NtRp895
(dp896
g66
(dp897
g86
g87
ssg75
g891
sg68
(lp898
S'http_accept_language'
p899
asbag61
(g82
g63
NtRp900
(dp901
g66
(dp902
g93
g94
ssg75
g891
sg68
(lp903
S':'
asbag61
(g82
g63
NtRp904
(dp905
g66
(dp906
sg75
g891
sg68
(lp907
g61
(g62
g63
NtRp908
(dp909
g66
(dp910
g74
I4
ssg75
g904
sg68
(lp911
S'pt-BR,pt;q=0.8,en-US;q=0.6,en;q=0.4'
p912
asbasbasbag61
(g77
g63
NtRp913
(dp914
g66
(dp915
sg75
g665
sg68
(lp916
g61
(g82
g63
NtRp917
(dp918
g66
(dp919
g86
g87
ssg75
g913
sg68
(lp920
S'http_cache_control'
p921
asbag61
(g82
g63
NtRp922
(dp923
g66
(dp924
g93
g94
ssg75
g913
sg68
(lp925
S':'
asbag61
(g82
g63
NtRp926
(dp927
g66
(dp928
sg75
g913
sg68
(lp929
g61
(g62
g63
NtRp930
(dp931
g66
(dp932
g74
I4
ssg75
g926
sg68
(lp933
S'max-age=0'
p934
asbasbasbag61
(g77
g63
NtRp935
(dp936
g66
(dp937
sg75
g665
sg68
(lp938
g61
(g82
g63
NtRp939
(dp940
g66
(dp941
g86
g87
ssg75
g935
sg68
(lp942
S'http_connection'
p943
asbag61
(g82
g63
NtRp944
(dp945
g66
(dp946
g93
g94
ssg75
g935
sg68
(lp947
S':'
asbag61
(g82
g63
NtRp948
(dp949
g66
(dp950
sg75
g935
sg68
(lp951
g61
(g62
g63
NtRp952
(dp953
g66
(dp954
g74
I4
ssg75
g948
sg68
(lp955
S'keep-alive'
p956
asbasbasbag61
(g77
g63
NtRp957
(dp958
g66
(dp959
sg75
g665
sg68
(lp960
g61
(g82
g63
NtRp961
(dp962
g66
(dp963
g86
g87
ssg75
g957
sg68
(lp964
S'http_cookie'
p965
asbag61
(g82
g63
NtRp966
(dp967
g66
(dp968
g93
g94
ssg75
g957
sg68
(lp969
S':'
asbag61
(g82
g63
NtRp970
(dp971
g66
(dp972
sg75
g957
sg68
(lp973
g61
(g62
g63
NtRp974
(dp975
g66
(dp976
g74
I4
ssg75
g970
sg68
(lp977
S'session_id_projeto=127.0.0.1-0fe02c32-0739-4f06-a369-3bba6377da8b; session_id_admin=127.0.0.1-f08163e7-63a0-4e97-8334-13b9dc892d78'
p978
asbasbasbag61
(g77
g63
NtRp979
(dp980
g66
(dp981
sg75
g665
sg68
(lp982
g61
(g82
g63
NtRp983
(dp984
g66
(dp985
g86
g87
ssg75
g979
sg68
(lp986
S'http_host'
p987
asbag61
(g82
g63
NtRp988
(dp989
g66
(dp990
g93
g94
ssg75
g979
sg68
(lp991
S':'
asbag61
(g82
g63
NtRp992
(dp993
g66
(dp994
sg75
g979
sg68
(lp995
g61
(g62
g63
NtRp996
(dp997
g66
(dp998
g74
I4
ssg75
g992
sg68
(lp999
S'127.0.0.1:8000'
p1000
asbasbasbag61
(g77
g63
NtRp1001
(dp1002
g66
(dp1003
sg75
g665
sg68
(lp1004
g61
(g82
g63
NtRp1005
(dp1006
g66
(dp1007
g86
g87
ssg75
g1001
sg68
(lp1008
S'http_user_agent'
p1009
asbag61
(g82
g63
NtRp1010
(dp1011
g66
(dp1012
g93
g94
ssg75
g1001
sg68
(lp1013
S':'
asbag61
(g82
g63
NtRp1014
(dp1015
g66
(dp1016
sg75
g1001
sg68
(lp1017
g61
(g62
g63
NtRp1018
(dp1019
g66
(dp1020
g74
I4
ssg75
g1014
sg68
(lp1021
S'Mozilla/5.0 (X11; Linux x86_64) AppleWebKit/537.4 (KHTML, like Gecko) Ubuntu/12.10 Chromium/22.0.1229.94 Chrome/22.0.1229.94 Safari/537.4'
p1022
asbasbasbag61
(g77
g63
NtRp1023
(dp1024
g66
(dp1025
sg75
g665
sg68
(lp1026
g61
(g82
g63
NtRp1027
(dp1028
g66
(dp1029
g86
g87
ssg75
g1023
sg68
(lp1030
S'is_jython'
p1031
asbag61
(g82
g63
NtRp1032
(dp1033
g66
(dp1034
g93
g94
ssg75
g1023
sg68
(lp1035
S':'
asbag61
(g82
g63
NtRp1036
(dp1037
g66
(dp1038
sg75
g1023
sg68
(lp1039
g61
(g62
g63
NtRp1040
(dp1041
g66
(dp1042
g74
I4
ssg75
g1036
sg68
(lp1043
g104
asbasbasbag61
(g77
g63
NtRp1044
(dp1045
g66
(dp1046
sg75
g665
sg68
(lp1047
g61
(g82
g63
NtRp1048
(dp1049
g66
(dp1050
g86
g87
ssg75
g1044
sg68
(lp1051
S'is_pypy'
p1052
asbag61
(g82
g63
NtRp1053
(dp1054
g66
(dp1055
g93
g94
ssg75
g1044
sg68
(lp1056
S':'
asbag61
(g82
g63
NtRp1057
(dp1058
g66
(dp1059
sg75
g1044
sg68
(lp1060
g61
(g62
g63
NtRp1061
(dp1062
g66
(dp1063
g74
I4
ssg75
g1057
sg68
(lp1064
g104
asbasbasbag61
(g77
g63
NtRp1065
(dp1066
g66
(dp1067
sg75
g665
sg68
(lp1068
g61
(g82
g63
NtRp1069
(dp1070
g66
(dp1071
g86
g87
ssg75
g1065
sg68
(lp1072
S'path_info'
p1073
asbag61
(g82
g63
NtRp1074
(dp1075
g66
(dp1076
g93
g94
ssg75
g1065
sg68
(lp1077
S':'
asbag61
(g82
g63
NtRp1078
(dp1079
g66
(dp1080
sg75
g1065
sg68
(lp1081
g61
(g62
g63
NtRp1082
(dp1083
g66
(dp1084
g74
I4
ssg75
g1078
sg68
(lp1085
S'/'
asbasbasbag61
(g77
g63
NtRp1086
(dp1087
g66
(dp1088
sg75
g665
sg68
(lp1089
g61
(g82
g63
NtRp1090
(dp1091
g66
(dp1092
g86
g87
ssg75
g1086
sg68
(lp1093
S'query_string'
p1094
asbag61
(g82
g63
NtRp1095
(dp1096
g66
(dp1097
g93
g94
ssg75
g1086
sg68
(lp1098
S':'
asbag61
(g82
g63
NtRp1099
(dp1100
g66
(dp1101
sg75
g1086
sg68
(lp1102
g61
(g62
g63
NtRp1103
(dp1104
g66
(dp1105
g74
I4
ssg75
g1099
sg68
(lp1106
S''
asbasbasbag61
(g77
g63
NtRp1107
(dp1108
g66
(dp1109
sg75
g665
sg68
(lp1110
g61
(g82
g63
NtRp1111
(dp1112
g66
(dp1113
g86
g87
ssg75
g1107
sg68
(lp1114
S'remote_addr'
p1115
asbag61
(g82
g63
NtRp1116
(dp1117
g66
(dp1118
g93
g94
ssg75
g1107
sg68
(lp1119
S':'
asbag61
(g82
g63
NtRp1120
(dp1121
g66
(dp1122
sg75
g1107
sg68
(lp1123
g61
(g62
g63
NtRp1124
(dp1125
g66
(dp1126
g74
I4
ssg75
g1120
sg68
(lp1127
g216
asbasbasbag61
(g77
g63
NtRp1128
(dp1129
g66
(dp1130
sg75
g665
sg68
(lp1131
g61
(g82
g63
NtRp1132
(dp1133
g66
(dp1134
g86
g87
ssg75
g1128
sg68
(lp1135
S'remote_port'
p1136
asbag61
(g82
g63
NtRp1137
(dp1138
g66
(dp1139
g93
g94
ssg75
g1128
sg68
(lp1140
S':'
asbag61
(g82
g63
NtRp1141
(dp1142
g66
(dp1143
sg75
g1128
sg68
(lp1144
g61
(g62
g63
NtRp1145
(dp1146
g66
(dp1147
g74
I4
ssg75
g1141
sg68
(lp1148
S'45358'
p1149
asbasbasbag61
(g77
g63
NtRp1150
(dp1151
g66
(dp1152
sg75
g665
sg68
(lp1153
g61
(g82
g63
NtRp1154
(dp1155
g66
(dp1156
g86
g87
ssg75
g1150
sg68
(lp1157
S'request_method'
p1158
asbag61
(g82
g63
NtRp1159
(dp1160
g66
(dp1161
g93
g94
ssg75
g1150
sg68
(lp1162
S':'
asbag61
(g82
g63
NtRp1163
(dp1164
g66
(dp1165
sg75
g1150
sg68
(lp1166
g61
(g62
g63
NtRp1167
(dp1168
g66
(dp1169
g74
I4
ssg75
g1163
sg68
(lp1170
S'GET'
p1171
asbasbasbag61
(g77
g63
NtRp1172
(dp1173
g66
(dp1174
sg75
g665
sg68
(lp1175
g61
(g82
g63
NtRp1176
(dp1177
g66
(dp1178
g86
g87
ssg75
g1172
sg68
(lp1179
S'request_uri'
p1180
asbag61
(g82
g63
NtRp1181
(dp1182
g66
(dp1183
g93
g94
ssg75
g1172
sg68
(lp1184
S':'
asbag61
(g82
g63
NtRp1185
(dp1186
g66
(dp1187
sg75
g1172
sg68
(lp1188
g61
(g62
g63
NtRp1189
(dp1190
g66
(dp1191
g74
I4
ssg75
g1185
sg68
(lp1192
S'/projeto/initial/principal'
p1193
asbasbasbag61
(g77
g63
NtRp1194
(dp1195
g66
(dp1196
sg75
g665
sg68
(lp1197
g61
(g82
g63
NtRp1198
(dp1199
g66
(dp1200
g86
g87
ssg75
g1194
sg68
(lp1201
S'script_name'
p1202
asbag61
(g82
g63
NtRp1203
(dp1204
g66
(dp1205
g93
g94
ssg75
g1194
sg68
(lp1206
S':'
asbag61
(g82
g63
NtRp1207
(dp1208
g66
(dp1209
sg75
g1194
sg68
(lp1210
g61
(g62
g63
NtRp1211
(dp1212
g66
(dp1213
g74
I4
ssg75
g1207
sg68
(lp1214
S''
asbasbasbag61
(g77
g63
NtRp1215
(dp1216
g66
(dp1217
sg75
g665
sg68
(lp1218
g61
(g82
g63
NtRp1219
(dp1220
g66
(dp1221
g86
g87
ssg75
g1215
sg68
(lp1222
S'server_name'
p1223
asbag61
(g82
g63
NtRp1224
(dp1225
g66
(dp1226
g93
g94
ssg75
g1215
sg68
(lp1227
S':'
asbag61
(g82
g63
NtRp1228
(dp1229
g66
(dp1230
sg75
g1215
sg68
(lp1231
g61
(g62
g63
NtRp1232
(dp1233
g66
(dp1234
g74
I4
ssg75
g1228
sg68
(lp1235
S'fernando-workstation'
p1236
asbasbasbag61
(g77
g63
NtRp1237
(dp1238
g66
(dp1239
sg75
g665
sg68
(lp1240
g61
(g82
g63
NtRp1241
(dp1242
g66
(dp1243
g86
g87
ssg75
g1237
sg68
(lp1244
S'server_port'
p1245
asbag61
(g82
g63
NtRp1246
(dp1247
g66
(dp1248
g93
g94
ssg75
g1237
sg68
(lp1249
S':'
asbag61
(g82
g63
NtRp1250
(dp1251
g66
(dp1252
sg75
g1237
sg68
(lp1253
g61
(g62
g63
NtRp1254
(dp1255
g66
(dp1256
g74
I4
ssg75
g1250
sg68
(lp1257
S'8000'
p1258
asbasbasbag61
(g77
g63
NtRp1259
(dp1260
g66
(dp1261
sg75
g665
sg68
(lp1262
g61
(g82
g63
NtRp1263
(dp1264
g66
(dp1265
g86
g87
ssg75
g1259
sg68
(lp1266
S'server_protocol'
p1267
asbag61
(g82
g63
NtRp1268
(dp1269
g66
(dp1270
g93
g94
ssg75
g1259
sg68
(lp1271
S':'
asbag61
(g82
g63
NtRp1272
(dp1273
g66
(dp1274
sg75
g1259
sg68
(lp1275
g61
(g62
g63
NtRp1276
(dp1277
g66
(dp1278
g74
I4
ssg75
g1272
sg68
(lp1279
S'HTTP/1.1'
p1280
asbasbasbag61
(g77
g63
NtRp1281
(dp1282
g66
(dp1283
sg75
g665
sg68
(lp1284
g61
(g82
g63
NtRp1285
(dp1286
g66
(dp1287
g86
g87
ssg75
g1281
sg68
(lp1288
S'server_software'
p1289
asbag61
(g82
g63
NtRp1290
(dp1291
g66
(dp1292
g93
g94
ssg75
g1281
sg68
(lp1293
S':'
asbag61
(g82
g63
NtRp1294
(dp1295
g66
(dp1296
sg75
g1281
sg68
(lp1297
g61
(g62
g63
NtRp1298
(dp1299
g66
(dp1300
g74
I4
ssg75
g1294
sg68
(lp1301
S'Rocket 1.2.6'
p1302
asbasbasbag61
(g77
g63
NtRp1303
(dp1304
g66
(dp1305
sg75
g665
sg68
(lp1306
g61
(g82
g63
NtRp1307
(dp1308
g66
(dp1309
g86
g87
ssg75
g1303
sg68
(lp1310
S'web2py_original_uri'
p1311
asbag61
(g82
g63
NtRp1312
(dp1313
g66
(dp1314
g93
g94
ssg75
g1303
sg68
(lp1315
S':'
asbag61
(g82
g63
NtRp1316
(dp1317
g66
(dp1318
sg75
g1303
sg68
(lp1319
g61
(g62
g63
NtRp1320
(dp1321
g66
(dp1322
g74
I4
ssg75
g1316
sg68
(lp1323
S'/'
asbasbasbag61
(g77
g63
NtRp1324
(dp1325
g66
(dp1326
sg75
g665
sg68
(lp1327
g61
(g82
g63
NtRp1328
(dp1329
g66
(dp1330
g86
g87
ssg75
g1324
sg68
(lp1331
S'web2py_path'
p1332
asbag61
(g82
g63
NtRp1333
(dp1334
g66
(dp1335
g93
g94
ssg75
g1324
sg68
(lp1336
S':'
asbag61
(g82
g63
NtRp1337
(dp1338
g66
(dp1339
sg75
g1324
sg68
(lp1340
g61
(g62
g63
NtRp1341
(dp1342
g66
(dp1343
g74
I4
ssg75
g1337
sg68
(lp1344
g712
asbasbasbag61
(g77
g63
NtRp1345
(dp1346
g66
(dp1347
sg75
g665
sg68
(lp1348
g61
(g82
g63
NtRp1349
(dp1350
g66
(dp1351
g86
g87
ssg75
g1345
sg68
(lp1352
S'web2py_version'
p1353
asbag61
(g82
g63
NtRp1354
(dp1355
g66
(dp1356
g93
g94
ssg75
g1345
sg68
(lp1357
S':'
asbag61
(g82
g63
NtRp1358
(dp1359
g66
(dp1360
sg75
g1345
sg68
(lp1361
g61
(g62
g63
NtRp1362
(dp1363
g66
(dp1364
g74
I4
ssg75
g1358
sg68
(lp1365
g61
(g70
g63
NtRp1366
(dp1367
g66
(dp1368
g74
I3
ssg75
Nsg68
(lp1369
g61
(g77
g63
NtRp1370
(dp1371
g66
(dp1372
sg75
g1366
sg68
(lp1373
g61
(g82
g63
NtRp1374
(dp1375
g66
(dp1376
sg75
g1370
sg68
(lp1377
g61
(g62
g63
NtRp1378
(dp1379
g66
(dp1380
g74
I3
ssg75
g1374
sg68
(lp1381
S'2'
asbasbasbag61
(g77
g63
NtRp1382
(dp1383
g66
(dp1384
sg75
g1366
sg68
(lp1385
g61
(g82
g63
NtRp1386
(dp1387
g66
(dp1388
sg75
g1382
sg68
(lp1389
g61
(g62
g63
NtRp1390
(dp1391
g66
(dp1392
g74
I3
ssg75
g1386
sg68
(lp1393
S'3'
asbasbasbag61
(g77
g63
NtRp1394
(dp1395
g66
(dp1396
sg75
g1366
sg68
(lp1397
g61
(g82
g63
NtRp1398
(dp1399
g66
(dp1400
sg75
g1394
sg68
(lp1401
g61
(g62
g63
NtRp1402
(dp1403
g66
(dp1404
g74
I3
ssg75
g1398
sg68
(lp1405
S'2'
asbasbasbag61
(g77
g63
NtRp1406
(dp1407
g66
(dp1408
sg75
g1366
sg68
(lp1409
g61
(g82
g63
NtRp1410
(dp1411
g66
(dp1412
sg75
g1406
sg68
(lp1413
g61
(g62
g63
NtRp1414
(dp1415
g66
(dp1416
g74
I3
ssg75
g1410
sg68
(lp1417
S'datetime.datetime(2012, 12, 17, 15, 3, 30)'
p1418
asbasbasbag61
(g77
g63
NtRp1419
(dp1420
g66
(dp1421
sg75
g1366
sg68
(lp1422
g61
(g82
g63
NtRp1423
(dp1424
g66
(dp1425
sg75
g1419
sg68
(lp1426
g61
(g62
g63
NtRp1427
(dp1428
g66
(dp1429
g74
I3
ssg75
g1423
sg68
(lp1430
S'stable'
p1431
asbasbasbasbasbasbasbag61
(g77
g63
NtRp1432
(dp1433
g66
(dp1434
sg75
g665
sg68
(lp1435
g61
(g82
g63
NtRp1436
(dp1437
g66
(dp1438
g86
g87
ssg75
g1432
sg68
(lp1439
S'wsgi_errors'
p1440
asbag61
(g82
g63
NtRp1441
(dp1442
g66
(dp1443
g93
g94
ssg75
g1432
sg68
(lp1444
S':'
asbag61
(g82
g63
NtRp1445
(dp1446
g66
(dp1447
sg75
g1432
sg68
(lp1448
g61
(g62
g63
NtRp1449
(dp1450
g66
(dp1451
g74
I4
ssg75
g1445
sg68
(lp1452
S"<open file '<stderr>', mode 'w' at 0x7fb07ea0c270>"
p1453
asbasbasbag61
(g77
g63
NtRp1454
(dp1455
g66
(dp1456
sg75
g665
sg68
(lp1457
g61
(g82
g63
NtRp1458
(dp1459
g66
(dp1460
g86
g87
ssg75
g1454
sg68
(lp1461
S'wsgi_file_wrapper'
p1462
asbag61
(g82
g63
NtRp1463
(dp1464
g66
(dp1465
g93
g94
ssg75
g1454
sg68
(lp1466
S':'
asbag61
(g82
g63
NtRp1467
(dp1468
g66
(dp1469
sg75
g1454
sg68
(lp1470
g61
(g62
g63
NtRp1471
(dp1472
g66
(dp1473
g74
I4
ssg75
g1467
sg68
(lp1474
S'<class wsgiref.util.FileWrapper at 0x15cc598>'
p1475
asbasbasbag61
(g77
g63
NtRp1476
(dp1477
g66
(dp1478
sg75
g665
sg68
(lp1479
g61
(g82
g63
NtRp1480
(dp1481
g66
(dp1482
g86
g87
ssg75
g1476
sg68
(lp1483
S'wsgi_input'
p1484
asbag61
(g82
g63
NtRp1485
(dp1486
g66
(dp1487
g93
g94
ssg75
g1476
sg68
(lp1488
S':'
asbag61
(g82
g63
NtRp1489
(dp1490
g66
(dp1491
sg75
g1476
sg68
(lp1492
g61
(g62
g63
NtRp1493
(dp1494
g66
(dp1495
g74
I4
ssg75
g1489
sg68
(lp1496
S'<socket._fileobject object at 0xa0f350>'
p1497
asbasbasbag61
(g77
g63
NtRp1498
(dp1499
g66
(dp1500
sg75
g665
sg68
(lp1501
g61
(g82
g63
NtRp1502
(dp1503
g66
(dp1504
g86
g87
ssg75
g1498
sg68
(lp1505
S'wsgi_multiprocess'
p1506
asbag61
(g82
g63
NtRp1507
(dp1508
g66
(dp1509
g93
g94
ssg75
g1498
sg68
(lp1510
S':'
asbag61
(g82
g63
NtRp1511
(dp1512
g66
(dp1513
sg75
g1498
sg68
(lp1514
g61
(g62
g63
NtRp1515
(dp1516
g66
(dp1517
g74
I4
ssg75
g1511
sg68
(lp1518
g104
asbasbasbag61
(g77
g63
NtRp1519
(dp1520
g66
(dp1521
sg75
g665
sg68
(lp1522
g61
(g82
g63
NtRp1523
(dp1524
g66
(dp1525
g86
g87
ssg75
g1519
sg68
(lp1526
S'wsgi_multithread'
p1527
asbag61
(g82
g63
NtRp1528
(dp1529
g66
(dp1530
g93
g94
ssg75
g1519
sg68
(lp1531
S':'
asbag61
(g82
g63
NtRp1532
(dp1533
g66
(dp1534
sg75
g1519
sg68
(lp1535
g61
(g62
g63
NtRp1536
(dp1537
g66
(dp1538
g74
I4
ssg75
g1532
sg68
(lp1539
S'True'
p1540
asbasbasbag61
(g77
g63
NtRp1541
(dp1542
g66
(dp1543
sg75
g665
sg68
(lp1544
g61
(g82
g63
NtRp1545
(dp1546
g66
(dp1547
g86
g87
ssg75
g1541
sg68
(lp1548
S'wsgi_run_once'
p1549
asbag61
(g82
g63
NtRp1550
(dp1551
g66
(dp1552
g93
g94
ssg75
g1541
sg68
(lp1553
S':'
asbag61
(g82
g63
NtRp1554
(dp1555
g66
(dp1556
sg75
g1541
sg68
(lp1557
g61
(g62
g63
NtRp1558
(dp1559
g66
(dp1560
g74
I4
ssg75
g1554
sg68
(lp1561
g104
asbasbasbag61
(g77
g63
NtRp1562
(dp1563
g66
(dp1564
sg75
g665
sg68
(lp1565
g61
(g82
g63
NtRp1566
(dp1567
g66
(dp1568
g86
g87
ssg75
g1562
sg68
(lp1569
S'wsgi_url_scheme'
p1570
asbag61
(g82
g63
NtRp1571
(dp1572
g66
(dp1573
g93
g94
ssg75
g1562
sg68
(lp1574
S':'
asbag61
(g82
g63
NtRp1575
(dp1576
g66
(dp1577
sg75
g1562
sg68
(lp1578
g61
(g62
g63
NtRp1579
(dp1580
g66
(dp1581
g74
I4
ssg75
g1575
sg68
(lp1582
S'http'
p1583
asbasbasbag61
(g77
g63
NtRp1584
(dp1585
g66
(dp1586
sg75
g665
sg68
(lp1587
g61
(g82
g63
NtRp1588
(dp1589
g66
(dp1590
g86
g87
ssg75
g1584
sg68
(lp1591
S'wsgi_version'
p1592
asbag61
(g82
g63
NtRp1593
(dp1594
g66
(dp1595
g93
g94
ssg75
g1584
sg68
(lp1596
S':'
asbag61
(g82
g63
NtRp1597
(dp1598
g66
(dp1599
sg75
g1584
sg68
(lp1600
g61
(g62
g63
NtRp1601
(dp1602
g66
(dp1603
g74
I4
ssg75
g1597
sg68
(lp1604
g61
(g70
g63
NtRp1605
(dp1606
g66
(dp1607
g74
I3
ssg75
Nsg68
(lp1608
g61
(g77
g63
NtRp1609
(dp1610
g66
(dp1611
sg75
g1605
sg68
(lp1612
g61
(g82
g63
NtRp1613
(dp1614
g66
(dp1615
sg75
g1609
sg68
(lp1616
g61
(g62
g63
NtRp1617
(dp1618
g66
(dp1619
g74
I3
ssg75
g1613
sg68
(lp1620
S'1'
asbasbasbag61
(g77
g63
NtRp1621
(dp1622
g66
(dp1623
sg75
g1605
sg68
(lp1624
g61
(g82
g63
NtRp1625
(dp1626
g66
(dp1627
sg75
g1621
sg68
(lp1628
g61
(g62
g63
NtRp1629
(dp1630
g66
(dp1631
g74
I3
ssg75
g1625
sg68
(lp1632
S'0'
asbasbasbasbasbasbasbasbasbasbasbag61
(g77
g63
NtRp1633
(dp1634
g66
(dp1635
sg75
g71
sg68
(lp1636
g61
(g82
g63
NtRp1637
(dp1638
g66
(dp1639
g86
g87
ssg75
g1633
sg68
(lp1640
S'extension'
p1641
asbag61
(g82
g63
NtRp1642
(dp1643
g66
(dp1644
g93
g94
ssg75
g1633
sg68
(lp1645
S':'
asbag61
(g82
g63
NtRp1646
(dp1647
g66
(dp1648
sg75
g1633
sg68
(lp1649
g61
(g62
g63
NtRp1650
(dp1651
g66
(dp1652
g74
I5
ssg75
g1646
sg68
(lp1653
S'html'
p1654
asbasbasbag61
(g77
g63
NtRp1655
(dp1656
g66
(dp1657
sg75
g71
sg68
(lp1658
g61
(g82
g63
NtRp1659
(dp1660
g66
(dp1661
g86
g87
ssg75
g1655
sg68
(lp1662
S'folder'
p1663
asbag61
(g82
g63
NtRp1664
(dp1665
g66
(dp1666
g93
g94
ssg75
g1655
sg68
(lp1667
S':'
asbag61
(g82
g63
NtRp1668
(dp1669
g66
(dp1670
sg75
g1655
sg68
(lp1671
g61
(g62
g63
NtRp1672
(dp1673
g66
(dp1674
g74
I5
ssg75
g1668
sg68
(lp1675
S'/var/www/conferencia/applications/projeto/'
p1676
asbasbasbag61
(g77
g63
NtRp1677
(dp1678
g66
(dp1679
sg75
g71
sg68
(lp1680
g61
(g82
g63
NtRp1681
(dp1682
g66
(dp1683
g86
g87
ssg75
g1677
sg68
(lp1684
S'function'
p1685
asbag61
(g82
g63
NtRp1686
(dp1687
g66
(dp1688
g93
g94
ssg75
g1677
sg68
(lp1689
S':'
asbag61
(g82
g63
NtRp1690
(dp1691
g66
(dp1692
sg75
g1677
sg68
(lp1693
g61
(g62
g63
NtRp1694
(dp1695
g66
(dp1696
g74
I5
ssg75
g1690
sg68
(lp1697
S'principal'
p1698
asbasbasbag61
(g77
g63
NtRp1699
(dp1700
g66
(dp1701
sg75
g71
sg68
(lp1702
g61
(g82
g63
NtRp1703
(dp1704
g66
(dp1705
g86
g87
ssg75
g1699
sg68
(lp1706
S'get_vars'
p1707
asbag61
(g82
g63
NtRp1708
(dp1709
g66
(dp1710
g93
g94
ssg75
g1699
sg68
(lp1711
S':'
asbag61
(g82
g63
NtRp1712
(dp1713
g66
(dp1714
sg75
g1699
sg68
(lp1715
g61
(g62
g63
NtRp1716
(dp1717
g66
(dp1718
g74
I5
ssg75
g1712
sg68
(lp1719
g61
(g70
g63
NtRp1720
(dp1721
g66
(dp1722
g74
I4
ssg75
Nsg68
(lp1723
sbasbasbasbag61
(g77
g63
NtRp1724
(dp1725
g66
(dp1726
sg75
g71
sg68
(lp1727
g61
(g82
g63
NtRp1728
(dp1729
g66
(dp1730
g86
g87
ssg75
g1724
sg68
(lp1731
S'global_settings'
p1732
asbag61
(g82
g63
NtRp1733
(dp1734
g66
(dp1735
g93
g94
ssg75
g1724
sg68
(lp1736
S':'
asbag61
(g82
g63
NtRp1737
(dp1738
g66
(dp1739
sg75
g1724
sg68
(lp1740
g61
(g62
g63
NtRp1741
(dp1742
g66
(dp1743
g74
I5
ssg75
g1737
sg68
(lp1744
g61
(g70
g63
NtRp1745
(dp1746
g66
(dp1747
g74
I4
ssg75
Nsg68
(lp1748
g61
(g77
g63
NtRp1749
(dp1750
g66
(dp1751
sg75
g1745
sg68
(lp1752
g61
(g82
g63
NtRp1753
(dp1754
g66
(dp1755
g86
g87
ssg75
g1749
sg68
(lp1756
g677
asbag61
(g82
g63
NtRp1757
(dp1758
g66
(dp1759
g93
g94
ssg75
g1749
sg68
(lp1760
S':'
asbag61
(g82
g63
NtRp1761
(dp1762
g66
(dp1763
sg75
g1749
sg68
(lp1764
g61
(g62
g63
NtRp1765
(dp1766
g66
(dp1767
g74
I4
ssg75
g1761
sg68
(lp1768
S"set(['/var/www/conferencia/applications/projeto/'])"
p1769
asbasbasbag61
(g77
g63
NtRp1770
(dp1771
g66
(dp1772
sg75
g1745
sg68
(lp1773
g61
(g82
g63
NtRp1774
(dp1775
g66
(dp1776
g86
g87
ssg75
g1770
sg68
(lp1777
g699
asbag61
(g82
g63
NtRp1778
(dp1779
g66
(dp1780
g93
g94
ssg75
g1770
sg68
(lp1781
S':'
asbag61
(g82
g63
NtRp1782
(dp1783
g66
(dp1784
sg75
g1770
sg68
(lp1785
g61
(g62
g63
NtRp1786
(dp1787
g66
(dp1788
g74
I4
ssg75
g1782
sg68
(lp1789
g712
asbasbasbag61
(g77
g63
NtRp1790
(dp1791
g66
(dp1792
sg75
g1745
sg68
(lp1793
g61
(g82
g63
NtRp1794
(dp1795
g66
(dp1796
g86
g87
ssg75
g1790
sg68
(lp1797
g721
asbag61
(g82
g63
NtRp1798
(dp1799
g66
(dp1800
g93
g94
ssg75
g1790
sg68
(lp1801
S':'
asbag61
(g82
g63
NtRp1802
(dp1803
g66
(dp1804
sg75
g1790
sg68
(lp1805
g61
(g62
g63
NtRp1806
(dp1807
g66
(dp1808
g74
I4
ssg75
g1802
sg68
(lp1809
g61
(g70
g63
NtRp1810
(dp1811
g66
(dp1812
g74
I3
ssg75
Nsg68
(lp1813
sbasbasbasbag61
(g77
g63
NtRp1814
(dp1815
g66
(dp1816
sg75
g1745
sg68
(lp1817
g61
(g82
g63
NtRp1818
(dp1819
g66
(dp1820
g86
g87
ssg75
g1814
sg68
(lp1821
g746
asbag61
(g82
g63
NtRp1822
(dp1823
g66
(dp1824
g93
g94
ssg75
g1814
sg68
(lp1825
S':'
asbag61
(g82
g63
NtRp1826
(dp1827
g66
(dp1828
sg75
g1814
sg68
(lp1829
g61
(g62
g63
NtRp1830
(dp1831
g66
(dp1832
g74
I4
ssg75
g1826
sg68
(lp1833
S"<Values at 0x1655248: {'verbose': False, 'ip': '127.0.0.1', 'with_scheduler': False, 'ips': [], 'shutdown_timeout': 5, 'taskbar': False, 'port': 8000, 'maxthreads': None, 'softcron': False, 'server_name': 'fernando-workstation', 'bpython': False, 'nogui': False, 'pid_filename': 'httpserver.pid', 'extcron': False, 'runcron': False, 'run_system_tests': False, 'test': None, 'folder': '/var/www/conferencia', 'config': '', 'minthreads': None, 'winservice': '', 'shell': None, 'run': '', 'log_filename': 'httpserver.log', 'debuglevel': 30, 'args': [''], 'socket_timeout': 5, 'ssl_ca_certificate': None, 'scheduler': None, 'profiler_filename': None, 'ssl_private_key': '', 'scheduler_groups': None, 'password': '123456', 'request_queue_size': 5, 'ssl_certificate': '', 'cronjob': False, 'numthreads': None, 'quiet': False, 'interfaces': None, 'import_models': False, 'timeout': 10, 'plain': False, 'nobanner': False}>"
p1834
asbasbasbag61
(g77
g63
NtRp1835
(dp1836
g66
(dp1837
sg75
g1745
sg68
(lp1838
g61
(g82
g63
NtRp1839
(dp1840
g66
(dp1841
g86
g87
ssg75
g1835
sg68
(lp1842
g768
asbag61
(g82
g63
NtRp1843
(dp1844
g66
(dp1845
g93
g94
ssg75
g1835
sg68
(lp1846
S':'
asbag61
(g82
g63
NtRp1847
(dp1848
g66
(dp1849
sg75
g1835
sg68
(lp1850
g61
(g62
g63
NtRp1851
(dp1852
g66
(dp1853
g74
I4
ssg75
g1847
sg68
(lp1854
S'set([])'
p1855
asbasbasbag61
(g77
g63
NtRp1856
(dp1857
g66
(dp1858
sg75
g1745
sg68
(lp1859
g61
(g82
g63
NtRp1860
(dp1861
g66
(dp1862
g86
g87
ssg75
g1856
sg68
(lp1863
g790
asbag61
(g82
g63
NtRp1864
(dp1865
g66
(dp1866
g93
g94
ssg75
g1856
sg68
(lp1867
S':'
asbag61
(g82
g63
NtRp1868
(dp1869
g66
(dp1870
sg75
g1856
sg68
(lp1871
g61
(g62
g63
NtRp1872
(dp1873
g66
(dp1874
g74
I4
ssg75
g1868
sg68
(lp1875
g104
asbasbasbag61
(g77
g63
NtRp1876
(dp1877
g66
(dp1878
sg75
g1745
sg68
(lp1879
g61
(g82
g63
NtRp1880
(dp1881
g66
(dp1882
g86
g87
ssg75
g1876
sg68
(lp1883
g811
asbag61
(g82
g63
NtRp1884
(dp1885
g66
(dp1886
g93
g94
ssg75
g1876
sg68
(lp1887
S':'
asbag61
(g82
g63
NtRp1888
(dp1889
g66
(dp1890
sg75
g1876
sg68
(lp1891
g61
(g62
g63
NtRp1892
(dp1893
g66
(dp1894
g74
I4
ssg75
g1888
sg68
(lp1895
g824
asbasbasbag61
(g77
g63
NtRp1896
(dp1897
g66
(dp1898
sg75
g1745
sg68
(lp1899
g61
(g82
g63
NtRp1900
(dp1901
g66
(dp1902
g86
g87
ssg75
g1896
sg68
(lp1903
g1031
asbag61
(g82
g63
NtRp1904
(dp1905
g66
(dp1906
g93
g94
ssg75
g1896
sg68
(lp1907
S':'
asbag61
(g82
g63
NtRp1908
(dp1909
g66
(dp1910
sg75
g1896
sg68
(lp1911
g61
(g62
g63
NtRp1912
(dp1913
g66
(dp1914
g74
I4
ssg75
g1908
sg68
(lp1915
g104
asbasbasbag61
(g77
g63
NtRp1916
(dp1917
g66
(dp1918
sg75
g1745
sg68
(lp1919
g61
(g82
g63
NtRp1920
(dp1921
g66
(dp1922
g86
g87
ssg75
g1916
sg68
(lp1923
g1052
asbag61
(g82
g63
NtRp1924
(dp1925
g66
(dp1926
g93
g94
ssg75
g1916
sg68
(lp1927
S':'
asbag61
(g82
g63
NtRp1928
(dp1929
g66
(dp1930
sg75
g1916
sg68
(lp1931
g61
(g62
g63
NtRp1932
(dp1933
g66
(dp1934
g74
I4
ssg75
g1928
sg68
(lp1935
g104
asbasbasbag61
(g77
g63
NtRp1936
(dp1937
g66
(dp1938
sg75
g1745
sg68
(lp1939
g61
(g82
g63
NtRp1940
(dp1941
g66
(dp1942
g86
g87
ssg75
g1936
sg68
(lp1943
S'local_hosts'
p1944
asbag61
(g82
g63
NtRp1945
(dp1946
g66
(dp1947
g93
g94
ssg75
g1936
sg68
(lp1948
S':'
asbag61
(g82
g63
NtRp1949
(dp1950
g66
(dp1951
sg75
g1936
sg68
(lp1952
g61
(g62
g63
NtRp1953
(dp1954
g66
(dp1955
g74
I4
ssg75
g1949
sg68
(lp1956
g61
(g70
g63
NtRp1957
(dp1958
g66
(dp1959
g74
I3
ssg75
Nsg68
(lp1960
g61
(g77
g63
NtRp1961
(dp1962
g66
(dp1963
sg75
g1957
sg68
(lp1964
g61
(g82
g63
NtRp1965
(dp1966
g66
(dp1967
sg75
g1961
sg68
(lp1968
g61
(g62
g63
NtRp1969
(dp1970
g66
(dp1971
g74
I3
ssg75
g1965
sg68
(lp1972
S'::1'
p1973
asbasbasbag61
(g77
g63
NtRp1974
(dp1975
g66
(dp1976
sg75
g1957
sg68
(lp1977
g61
(g82
g63
NtRp1978
(dp1979
g66
(dp1980
sg75
g1974
sg68
(lp1981
g61
(g62
g63
NtRp1982
(dp1983
g66
(dp1984
g74
I3
ssg75
g1978
sg68
(lp1985
S'::ffff:127.0.0.1'
p1986
asbasbasbag61
(g77
g63
NtRp1987
(dp1988
g66
(dp1989
sg75
g1957
sg68
(lp1990
g61
(g82
g63
NtRp1991
(dp1992
g66
(dp1993
sg75
g1987
sg68
(lp1994
g61
(g62
g63
NtRp1995
(dp1996
g66
(dp1997
g74
I3
ssg75
g1991
sg68
(lp1998
S'127.0.0.1'
p1999
asbasbasbag61
(g77
g63
NtRp2000
(dp2001
g66
(dp2002
sg75
g1957
sg68
(lp2003
g61
(g82
g63
NtRp2004
(dp2005
g66
(dp2006
sg75
g2000
sg68
(lp2007
g61
(g62
g63
NtRp2008
(dp2009
g66
(dp2010
g74
I3
ssg75
g2004
sg68
(lp2011
S'fernando-workstation'
p2012
asbasbasbasbasbasbasbag61
(g77
g63
NtRp2013
(dp2014
g66
(dp2015
sg75
g1745
sg68
(lp2016
g61
(g82
g63
NtRp2017
(dp2018
g66
(dp2019
g86
g87
ssg75
g2013
sg68
(lp2020
g1353
asbag61
(g82
g63
NtRp2021
(dp2022
g66
(dp2023
g93
g94
ssg75
g2013
sg68
(lp2024
S':'
asbag61
(g82
g63
NtRp2025
(dp2026
g66
(dp2027
sg75
g2013
sg68
(lp2028
g61
(g62
g63
NtRp2029
(dp2030
g66
(dp2031
g74
I4
ssg75
g2025
sg68
(lp2032
g61
(g70
g63
NtRp2033
(dp2034
g66
(dp2035
g74
I3
ssg75
Nsg68
(lp2036
g61
(g77
g63
NtRp2037
(dp2038
g66
(dp2039
sg75
g2033
sg68
(lp2040
g61
(g82
g63
NtRp2041
(dp2042
g66
(dp2043
sg75
g2037
sg68
(lp2044
g61
(g62
g63
NtRp2045
(dp2046
g66
(dp2047
g74
I3
ssg75
g2041
sg68
(lp2048
S'2'
asbasbasbag61
(g77
g63
NtRp2049
(dp2050
g66
(dp2051
sg75
g2033
sg68
(lp2052
g61
(g82
g63
NtRp2053
(dp2054
g66
(dp2055
sg75
g2049
sg68
(lp2056
g61
(g62
g63
NtRp2057
(dp2058
g66
(dp2059
g74
I3
ssg75
g2053
sg68
(lp2060
S'3'
asbasbasbag61
(g77
g63
NtRp2061
(dp2062
g66
(dp2063
sg75
g2033
sg68
(lp2064
g61
(g82
g63
NtRp2065
(dp2066
g66
(dp2067
sg75
g2061
sg68
(lp2068
g61
(g62
g63
NtRp2069
(dp2070
g66
(dp2071
g74
I3
ssg75
g2065
sg68
(lp2072
S'2'
asbasbasbag61
(g77
g63
NtRp2073
(dp2074
g66
(dp2075
sg75
g2033
sg68
(lp2076
g61
(g82
g63
NtRp2077
(dp2078
g66
(dp2079
sg75
g2073
sg68
(lp2080
g61
(g62
g63
NtRp2081
(dp2082
g66
(dp2083
g74
I3
ssg75
g2077
sg68
(lp2084
S'datetime.datetime(2012, 12, 17, 15, 3, 30)'
p2085
asbasbasbag61
(g77
g63
NtRp2086
(dp2087
g66
(dp2088
sg75
g2033
sg68
(lp2089
g61
(g82
g63
NtRp2090
(dp2091
g66
(dp2092
sg75
g2086
sg68
(lp2093
g61
(g62
g63
NtRp2094
(dp2095
g66
(dp2096
g74
I3
ssg75
g2090
sg68
(lp2097
g1431
asbasbasbasbasbasbasbasbasbasbasbag61
(g77
g63
NtRp2098
(dp2099
g66
(dp2100
sg75
g71
sg68
(lp2101
g61
(g82
g63
NtRp2102
(dp2103
g66
(dp2104
g86
g87
ssg75
g2098
sg68
(lp2105
S'is_https'
p2106
asbag61
(g82
g63
NtRp2107
(dp2108
g66
(dp2109
g93
g94
ssg75
g2098
sg68
(lp2110
S':'
asbag61
(g82
g63
NtRp2111
(dp2112
g66
(dp2113
sg75
g2098
sg68
(lp2114
g61
(g62
g63
NtRp2115
(dp2116
g66
(dp2117
g74
I5
ssg75
g2111
sg68
(lp2118
g104
asbasbasbag61
(g77
g63
NtRp2119
(dp2120
g66
(dp2121
sg75
g71
sg68
(lp2122
g61
(g82
g63
NtRp2123
(dp2124
g66
(dp2125
g86
g87
ssg75
g2119
sg68
(lp2126
S'is_local'
p2127
asbag61
(g82
g63
NtRp2128
(dp2129
g66
(dp2130
g93
g94
ssg75
g2119
sg68
(lp2131
S':'
asbag61
(g82
g63
NtRp2132
(dp2133
g66
(dp2134
sg75
g2119
sg68
(lp2135
g61
(g62
g63
NtRp2136
(dp2137
g66
(dp2138
g74
I5
ssg75
g2132
sg68
(lp2139
g1540
asbasbasbag61
(g77
g63
NtRp2140
(dp2141
g66
(dp2142
sg75
g71
sg68
(lp2143
g61
(g82
g63
NtRp2144
(dp2145
g66
(dp2146
g86
g87
ssg75
g2140
sg68
(lp2147
S'is_restful'
p2148
asbag61
(g82
g63
NtRp2149
(dp2150
g66
(dp2151
g93
g94
ssg75
g2140
sg68
(lp2152
S':'
asbag61
(g82
g63
NtRp2153
(dp2154
g66
(dp2155
sg75
g2140
sg68
(lp2156
g61
(g62
g63
NtRp2157
(dp2158
g66
(dp2159
g74
I5
ssg75
g2153
sg68
(lp2160
g104
asbasbasbag61
(g77
g63
NtRp2161
(dp2162
g66
(dp2163
sg75
g71
sg68
(lp2164
g61
(g82
g63
NtRp2165
(dp2166
g66
(dp2167
g86
g87
ssg75
g2161
sg68
(lp2168
S'now'
p2169
asbag61
(g82
g63
NtRp2170
(dp2171
g66
(dp2172
g93
g94
ssg75
g2161
sg68
(lp2173
S':'
asbag61
(g82
g63
NtRp2174
(dp2175
g66
(dp2176
sg75
g2161
sg68
(lp2177
g61
(g62
g63
NtRp2178
(dp2179
g66
(dp2180
g74
I5
ssg75
g2174
sg68
(lp2181
S'datetime.datetime(2013, 4, 2, 18, 32, 22, 763473)'
p2182
asbasbasbag61
(g77
g63
NtRp2183
(dp2184
g66
(dp2185
sg75
g71
sg68
(lp2186
g61
(g82
g63
NtRp2187
(dp2188
g66
(dp2189
g86
g87
ssg75
g2183
sg68
(lp2190
S'post_vars'
p2191
asbag61
(g82
g63
NtRp2192
(dp2193
g66
(dp2194
g93
g94
ssg75
g2183
sg68
(lp2195
S':'
asbag61
(g82
g63
NtRp2196
(dp2197
g66
(dp2198
sg75
g2183
sg68
(lp2199
g61
(g62
g63
NtRp2200
(dp2201
g66
(dp2202
g74
I5
ssg75
g2196
sg68
(lp2203
g61
(g70
g63
NtRp2204
(dp2205
g66
(dp2206
g74
I4
ssg75
Nsg68
(lp2207
sbasbasbasbag61
(g77
g63
NtRp2208
(dp2209
g66
(dp2210
sg75
g71
sg68
(lp2211
g61
(g82
g63
NtRp2212
(dp2213
g66
(dp2214
g86
g87
ssg75
g2208
sg68
(lp2215
S'url'
p2216
asbag61
(g82
g63
NtRp2217
(dp2218
g66
(dp2219
g93
g94
ssg75
g2208
sg68
(lp2220
S':'
asbag61
(g82
g63
NtRp2221
(dp2222
g66
(dp2223
sg75
g2208
sg68
(lp2224
g61
(g62
g63
NtRp2225
(dp2226
g66
(dp2227
g74
I5
ssg75
g2221
sg68
(lp2228
S'/'
asbasbasbag61
(g77
g63
NtRp2229
(dp2230
g66
(dp2231
sg75
g71
sg68
(lp2232
g61
(g82
g63
NtRp2233
(dp2234
g66
(dp2235
g86
g87
ssg75
g2229
sg68
(lp2236
S'utcnow'
p2237
asbag61
(g82
g63
NtRp2238
(dp2239
g66
(dp2240
g93
g94
ssg75
g2229
sg68
(lp2241
S':'
asbag61
(g82
g63
NtRp2242
(dp2243
g66
(dp2244
sg75
g2229
sg68
(lp2245
g61
(g62
g63
NtRp2246
(dp2247
g66
(dp2248
g74
I5
ssg75
g2242
sg68
(lp2249
S'datetime.datetime(2013, 4, 2, 21, 32, 22, 763514)'
p2250
asbasbasbag61
(g77
g63
NtRp2251
(dp2252
g66
(dp2253
sg75
g71
sg68
(lp2254
g61
(g82
g63
NtRp2255
(dp2256
g66
(dp2257
g86
g87
ssg75
g2251
sg68
(lp2258
S'uuid'
p2259
asbag61
(g82
g63
NtRp2260
(dp2261
g66
(dp2262
g93
g94
ssg75
g2251
sg68
(lp2263
S':'
asbag61
(g82
g63
NtRp2264
(dp2265
g66
(dp2266
sg75
g2251
sg68
(lp2267
g61
(g62
g63
NtRp2268
(dp2269
g66
(dp2270
g74
I5
ssg75
g2264
sg68
(lp2271
S'projeto/127.0.0.1.2013-04-02.18-32-22.a642ff33-40be-4cec-8c8f-fb673e274521'
p2272
asbasbasbag61
(g77
g63
NtRp2273
(dp2274
g66
(dp2275
sg75
g71
sg68
(lp2276
g61
(g82
g63
NtRp2277
(dp2278
g66
(dp2279
g86
g87
ssg75
g2273
sg68
(lp2280
S'vars'
p2281
asbag61
(g82
g63
NtRp2282
(dp2283
g66
(dp2284
g93
g94
ssg75
g2273
sg68
(lp2285
S':'
asbag61
(g82
g63
NtRp2286
(dp2287
g66
(dp2288
sg75
g2273
sg68
(lp2289
g61
(g62
g63
NtRp2290
(dp2291
g66
(dp2292
g74
I5
ssg75
g2286
sg68
(lp2293
g61
(g70
g63
NtRp2294
(dp2295
g66
(dp2296
g74
I4
ssg75
Nsg68
(lp2297
sbasbasbasbag61
(g77
g63
NtRp2298
(dp2299
g66
(dp2300
sg75
g71
sg68
(lp2301
g61
(g82
g63
NtRp2302
(dp2303
g66
(dp2304
g86
g87
ssg75
g2298
sg68
(lp2305
S'wsgi'
p2306
asbag61
(g82
g63
NtRp2307
(dp2308
g66
(dp2309
g93
g94
ssg75
g2298
sg68
(lp2310
S':'
asbag61
(g82
g63
NtRp2311
(dp2312
g66
(dp2313
sg75
g2298
sg68
(lp2314
g61
(g62
g63
NtRp2315
(dp2316
g66
(dp2317
g74
I5
ssg75
g2311
sg68
(lp2318
g61
(g70
g63
NtRp2319
(dp2320
g66
(dp2321
g74
I4
ssg75
Nsg68
(lp2322
g61
(g77
g63
NtRp2323
(dp2324
g66
(dp2325
sg75
g2319
sg68
(lp2326
g61
(g82
g63
NtRp2327
(dp2328
g66
(dp2329
g86
g87
ssg75
g2323
sg68
(lp2330
S'environ'
p2331
asbag61
(g82
g63
NtRp2332
(dp2333
g66
(dp2334
g93
g94
ssg75
g2323
sg68
(lp2335
S':'
asbag61
(g82
g63
NtRp2336
(dp2337
g66
(dp2338
sg75
g2323
sg68
(lp2339
g61
(g62
g63
NtRp2340
(dp2341
g66
(dp2342
g74
I4
ssg75
g2336
sg68
(lp2343
g61
(g70
g63
NtRp2344
(dp2345
g66
(dp2346
g74
I3
ssg75
Nsg68
(lp2347
g61
(g77
g63
NtRp2348
(dp2349
g66
(dp2350
sg75
g2344
sg68
(lp2351
g61
(g82
g63
NtRp2352
(dp2353
g66
(dp2354
g86
g87
ssg75
g2348
sg68
(lp2355
S'HTTP_ACCEPT'
p2356
asbag61
(g82
g63
NtRp2357
(dp2358
g66
(dp2359
g93
g94
ssg75
g2348
sg68
(lp2360
S':'
asbag61
(g82
g63
NtRp2361
(dp2362
g66
(dp2363
sg75
g2348
sg68
(lp2364
g61
(g62
g63
NtRp2365
(dp2366
g66
(dp2367
g74
I3
ssg75
g2361
sg68
(lp2368
g846
asbasbasbag61
(g77
g63
NtRp2369
(dp2370
g66
(dp2371
sg75
g2344
sg68
(lp2372
g61
(g82
g63
NtRp2373
(dp2374
g66
(dp2375
g86
g87
ssg75
g2369
sg68
(lp2376
S'HTTP_ACCEPT_CHARSET'
p2377
asbag61
(g82
g63
NtRp2378
(dp2379
g66
(dp2380
g93
g94
ssg75
g2369
sg68
(lp2381
S':'
asbag61
(g82
g63
NtRp2382
(dp2383
g66
(dp2384
sg75
g2369
sg68
(lp2385
g61
(g62
g63
NtRp2386
(dp2387
g66
(dp2388
g74
I3
ssg75
g2382
sg68
(lp2389
g868
asbasbasbag61
(g77
g63
NtRp2390
(dp2391
g66
(dp2392
sg75
g2344
sg68
(lp2393
g61
(g82
g63
NtRp2394
(dp2395
g66
(dp2396
g86
g87
ssg75
g2390
sg68
(lp2397
S'HTTP_ACCEPT_ENCODING'
p2398
asbag61
(g82
g63
NtRp2399
(dp2400
g66
(dp2401
g93
g94
ssg75
g2390
sg68
(lp2402
S':'
asbag61
(g82
g63
NtRp2403
(dp2404
g66
(dp2405
sg75
g2390
sg68
(lp2406
g61
(g62
g63
NtRp2407
(dp2408
g66
(dp2409
g74
I3
ssg75
g2403
sg68
(lp2410
g890
asbasbasbag61
(g77
g63
NtRp2411
(dp2412
g66
(dp2413
sg75
g2344
sg68
(lp2414
g61
(g82
g63
NtRp2415
(dp2416
g66
(dp2417
g86
g87
ssg75
g2411
sg68
(lp2418
S'HTTP_ACCEPT_LANGUAGE'
p2419
asbag61
(g82
g63
NtRp2420
(dp2421
g66
(dp2422
g93
g94
ssg75
g2411
sg68
(lp2423
S':'
asbag61
(g82
g63
NtRp2424
(dp2425
g66
(dp2426
sg75
g2411
sg68
(lp2427
g61
(g62
g63
NtRp2428
(dp2429
g66
(dp2430
g74
I3
ssg75
g2424
sg68
(lp2431
g912
asbasbasbag61
(g77
g63
NtRp2432
(dp2433
g66
(dp2434
sg75
g2344
sg68
(lp2435
g61
(g82
g63
NtRp2436
(dp2437
g66
(dp2438
g86
g87
ssg75
g2432
sg68
(lp2439
S'HTTP_CACHE_CONTROL'
p2440
asbag61
(g82
g63
NtRp2441
(dp2442
g66
(dp2443
g93
g94
ssg75
g2432
sg68
(lp2444
S':'
asbag61
(g82
g63
NtRp2445
(dp2446
g66
(dp2447
sg75
g2432
sg68
(lp2448
g61
(g62
g63
NtRp2449
(dp2450
g66
(dp2451
g74
I3
ssg75
g2445
sg68
(lp2452
g934
asbasbasbag61
(g77
g63
NtRp2453
(dp2454
g66
(dp2455
sg75
g2344
sg68
(lp2456
g61
(g82
g63
NtRp2457
(dp2458
g66
(dp2459
g86
g87
ssg75
g2453
sg68
(lp2460
S'HTTP_CONNECTION'
p2461
asbag61
(g82
g63
NtRp2462
(dp2463
g66
(dp2464
g93
g94
ssg75
g2453
sg68
(lp2465
S':'
asbag61
(g82
g63
NtRp2466
(dp2467
g66
(dp2468
sg75
g2453
sg68
(lp2469
g61
(g62
g63
NtRp2470
(dp2471
g66
(dp2472
g74
I3
ssg75
g2466
sg68
(lp2473
g956
asbasbasbag61
(g77
g63
NtRp2474
(dp2475
g66
(dp2476
sg75
g2344
sg68
(lp2477
g61
(g82
g63
NtRp2478
(dp2479
g66
(dp2480
g86
g87
ssg75
g2474
sg68
(lp2481
S'HTTP_COOKIE'
p2482
asbag61
(g82
g63
NtRp2483
(dp2484
g66
(dp2485
g93
g94
ssg75
g2474
sg68
(lp2486
S':'
asbag61
(g82
g63
NtRp2487
(dp2488
g66
(dp2489
sg75
g2474
sg68
(lp2490
g61
(g62
g63
NtRp2491
(dp2492
g66
(dp2493
g74
I3
ssg75
g2487
sg68
(lp2494
g978
asbasbasbag61
(g77
g63
NtRp2495
(dp2496
g66
(dp2497
sg75
g2344
sg68
(lp2498
g61
(g82
g63
NtRp2499
(dp2500
g66
(dp2501
g86
g87
ssg75
g2495
sg68
(lp2502
S'HTTP_HOST'
p2503
asbag61
(g82
g63
NtRp2504
(dp2505
g66
(dp2506
g93
g94
ssg75
g2495
sg68
(lp2507
S':'
asbag61
(g82
g63
NtRp2508
(dp2509
g66
(dp2510
sg75
g2495
sg68
(lp2511
g61
(g62
g63
NtRp2512
(dp2513
g66
(dp2514
g74
I3
ssg75
g2508
sg68
(lp2515
g1000
asbasbasbag61
(g77
g63
NtRp2516
(dp2517
g66
(dp2518
sg75
g2344
sg68
(lp2519
g61
(g82
g63
NtRp2520
(dp2521
g66
(dp2522
g86
g87
ssg75
g2516
sg68
(lp2523
S'HTTP_USER_AGENT'
p2524
asbag61
(g82
g63
NtRp2525
(dp2526
g66
(dp2527
g93
g94
ssg75
g2516
sg68
(lp2528
S':'
asbag61
(g82
g63
NtRp2529
(dp2530
g66
(dp2531
sg75
g2516
sg68
(lp2532
g61
(g62
g63
NtRp2533
(dp2534
g66
(dp2535
g74
I3
ssg75
g2529
sg68
(lp2536
g1022
asbasbasbag61
(g77
g63
NtRp2537
(dp2538
g66
(dp2539
sg75
g2344
sg68
(lp2540
g61
(g82
g63
NtRp2541
(dp2542
g66
(dp2543
g86
g87
ssg75
g2537
sg68
(lp2544
S'PATH_INFO'
p2545
asbag61
(g82
g63
NtRp2546
(dp2547
g66
(dp2548
g93
g94
ssg75
g2537
sg68
(lp2549
S':'
asbag61
(g82
g63
NtRp2550
(dp2551
g66
(dp2552
sg75
g2537
sg68
(lp2553
g61
(g62
g63
NtRp2554
(dp2555
g66
(dp2556
g74
I3
ssg75
g2550
sg68
(lp2557
S'/'
asbasbasbag61
(g77
g63
NtRp2558
(dp2559
g66
(dp2560
sg75
g2344
sg68
(lp2561
g61
(g82
g63
NtRp2562
(dp2563
g66
(dp2564
g86
g87
ssg75
g2558
sg68
(lp2565
S'QUERY_STRING'
p2566
asbag61
(g82
g63
NtRp2567
(dp2568
g66
(dp2569
g93
g94
ssg75
g2558
sg68
(lp2570
S':'
asbag61
(g82
g63
NtRp2571
(dp2572
g66
(dp2573
sg75
g2558
sg68
(lp2574
g61
(g62
g63
NtRp2575
(dp2576
g66
(dp2577
g74
I3
ssg75
g2571
sg68
(lp2578
S''
asbasbasbag61
(g77
g63
NtRp2579
(dp2580
g66
(dp2581
sg75
g2344
sg68
(lp2582
g61
(g82
g63
NtRp2583
(dp2584
g66
(dp2585
g86
g87
ssg75
g2579
sg68
(lp2586
S'REMOTE_ADDR'
p2587
asbag61
(g82
g63
NtRp2588
(dp2589
g66
(dp2590
g93
g94
ssg75
g2579
sg68
(lp2591
S':'
asbag61
(g82
g63
NtRp2592
(dp2593
g66
(dp2594
sg75
g2579
sg68
(lp2595
g61
(g62
g63
NtRp2596
(dp2597
g66
(dp2598
g74
I3
ssg75
g2592
sg68
(lp2599
g216
asbasbasbag61
(g77
g63
NtRp2600
(dp2601
g66
(dp2602
sg75
g2344
sg68
(lp2603
g61
(g82
g63
NtRp2604
(dp2605
g66
(dp2606
g86
g87
ssg75
g2600
sg68
(lp2607
S'REMOTE_PORT'
p2608
asbag61
(g82
g63
NtRp2609
(dp2610
g66
(dp2611
g93
g94
ssg75
g2600
sg68
(lp2612
S':'
asbag61
(g82
g63
NtRp2613
(dp2614
g66
(dp2615
sg75
g2600
sg68
(lp2616
g61
(g62
g63
NtRp2617
(dp2618
g66
(dp2619
g74
I3
ssg75
g2613
sg68
(lp2620
g1149
asbasbasbag61
(g77
g63
NtRp2621
(dp2622
g66
(dp2623
sg75
g2344
sg68
(lp2624
g61
(g82
g63
NtRp2625
(dp2626
g66
(dp2627
g86
g87
ssg75
g2621
sg68
(lp2628
S'REQUEST_METHOD'
p2629
asbag61
(g82
g63
NtRp2630
(dp2631
g66
(dp2632
g93
g94
ssg75
g2621
sg68
(lp2633
S':'
asbag61
(g82
g63
NtRp2634
(dp2635
g66
(dp2636
sg75
g2621
sg68
(lp2637
g61
(g62
g63
NtRp2638
(dp2639
g66
(dp2640
g74
I3
ssg75
g2634
sg68
(lp2641
g1171
asbasbasbag61
(g77
g63
NtRp2642
(dp2643
g66
(dp2644
sg75
g2344
sg68
(lp2645
g61
(g82
g63
NtRp2646
(dp2647
g66
(dp2648
g86
g87
ssg75
g2642
sg68
(lp2649
S'REQUEST_URI'
p2650
asbag61
(g82
g63
NtRp2651
(dp2652
g66
(dp2653
g93
g94
ssg75
g2642
sg68
(lp2654
S':'
asbag61
(g82
g63
NtRp2655
(dp2656
g66
(dp2657
sg75
g2642
sg68
(lp2658
g61
(g62
g63
NtRp2659
(dp2660
g66
(dp2661
g74
I3
ssg75
g2655
sg68
(lp2662
g1193
asbasbasbag61
(g77
g63
NtRp2663
(dp2664
g66
(dp2665
sg75
g2344
sg68
(lp2666
g61
(g82
g63
NtRp2667
(dp2668
g66
(dp2669
g86
g87
ssg75
g2663
sg68
(lp2670
S'SCRIPT_NAME'
p2671
asbag61
(g82
g63
NtRp2672
(dp2673
g66
(dp2674
g93
g94
ssg75
g2663
sg68
(lp2675
S':'
asbag61
(g82
g63
NtRp2676
(dp2677
g66
(dp2678
sg75
g2663
sg68
(lp2679
g61
(g62
g63
NtRp2680
(dp2681
g66
(dp2682
g74
I3
ssg75
g2676
sg68
(lp2683
S''
asbasbasbag61
(g77
g63
NtRp2684
(dp2685
g66
(dp2686
sg75
g2344
sg68
(lp2687
g61
(g82
g63
NtRp2688
(dp2689
g66
(dp2690
g86
g87
ssg75
g2684
sg68
(lp2691
S'SERVER_NAME'
p2692
asbag61
(g82
g63
NtRp2693
(dp2694
g66
(dp2695
g93
g94
ssg75
g2684
sg68
(lp2696
S':'
asbag61
(g82
g63
NtRp2697
(dp2698
g66
(dp2699
sg75
g2684
sg68
(lp2700
g61
(g62
g63
NtRp2701
(dp2702
g66
(dp2703
g74
I3
ssg75
g2697
sg68
(lp2704
g1236
asbasbasbag61
(g77
g63
NtRp2705
(dp2706
g66
(dp2707
sg75
g2344
sg68
(lp2708
g61
(g82
g63
NtRp2709
(dp2710
g66
(dp2711
g86
g87
ssg75
g2705
sg68
(lp2712
S'SERVER_PORT'
p2713
asbag61
(g82
g63
NtRp2714
(dp2715
g66
(dp2716
g93
g94
ssg75
g2705
sg68
(lp2717
S':'
asbag61
(g82
g63
NtRp2718
(dp2719
g66
(dp2720
sg75
g2705
sg68
(lp2721
g61
(g62
g63
NtRp2722
(dp2723
g66
(dp2724
g74
I3
ssg75
g2718
sg68
(lp2725
g1258
asbasbasbag61
(g77
g63
NtRp2726
(dp2727
g66
(dp2728
sg75
g2344
sg68
(lp2729
g61
(g82
g63
NtRp2730
(dp2731
g66
(dp2732
g86
g87
ssg75
g2726
sg68
(lp2733
S'SERVER_PROTOCOL'
p2734
asbag61
(g82
g63
NtRp2735
(dp2736
g66
(dp2737
g93
g94
ssg75
g2726
sg68
(lp2738
S':'
asbag61
(g82
g63
NtRp2739
(dp2740
g66
(dp2741
sg75
g2726
sg68
(lp2742
g61
(g62
g63
NtRp2743
(dp2744
g66
(dp2745
g74
I3
ssg75
g2739
sg68
(lp2746
g1280
asbasbasbag61
(g77
g63
NtRp2747
(dp2748
g66
(dp2749
sg75
g2344
sg68
(lp2750
g61
(g82
g63
NtRp2751
(dp2752
g66
(dp2753
g86
g87
ssg75
g2747
sg68
(lp2754
S'SERVER_SOFTWARE'
p2755
asbag61
(g82
g63
NtRp2756
(dp2757
g66
(dp2758
g93
g94
ssg75
g2747
sg68
(lp2759
S':'
asbag61
(g82
g63
NtRp2760
(dp2761
g66
(dp2762
sg75
g2747
sg68
(lp2763
g61
(g62
g63
NtRp2764
(dp2765
g66
(dp2766
g74
I3
ssg75
g2760
sg68
(lp2767
g1302
asbasbasbag61
(g77
g63
NtRp2768
(dp2769
g66
(dp2770
sg75
g2344
sg68
(lp2771
g61
(g82
g63
NtRp2772
(dp2773
g66
(dp2774
g86
g87
ssg75
g2768
sg68
(lp2775
S'WEB2PY_ORIGINAL_URI'
p2776
asbag61
(g82
g63
NtRp2777
(dp2778
g66
(dp2779
g93
g94
ssg75
g2768
sg68
(lp2780
S':'
asbag61
(g82
g63
NtRp2781
(dp2782
g66
(dp2783
sg75
g2768
sg68
(lp2784
g61
(g62
g63
NtRp2785
(dp2786
g66
(dp2787
g74
I3
ssg75
g2781
sg68
(lp2788
S'/'
asbasbasbag61
(g77
g63
NtRp2789
(dp2790
g66
(dp2791
sg75
g2344
sg68
(lp2792
g61
(g82
g63
NtRp2793
(dp2794
g66
(dp2795
g86
g87
ssg75
g2789
sg68
(lp2796
S'wsgi.errors'
p2797
asbag61
(g82
g63
NtRp2798
(dp2799
g66
(dp2800
g93
g94
ssg75
g2789
sg68
(lp2801
S':'
asbag61
(g82
g63
NtRp2802
(dp2803
g66
(dp2804
sg75
g2789
sg68
(lp2805
g61
(g62
g63
NtRp2806
(dp2807
g66
(dp2808
g74
I3
ssg75
g2802
sg68
(lp2809
S"<open file '<stderr>', mode 'w' at 0x7fb07ea0c270>"
p2810
asbasbasbag61
(g77
g63
NtRp2811
(dp2812
g66
(dp2813
sg75
g2344
sg68
(lp2814
g61
(g82
g63
NtRp2815
(dp2816
g66
(dp2817
g86
g87
ssg75
g2811
sg68
(lp2818
S'wsgi.file_wrapper'
p2819
asbag61
(g82
g63
NtRp2820
(dp2821
g66
(dp2822
g93
g94
ssg75
g2811
sg68
(lp2823
S':'
asbag61
(g82
g63
NtRp2824
(dp2825
g66
(dp2826
sg75
g2811
sg68
(lp2827
g61
(g62
g63
NtRp2828
(dp2829
g66
(dp2830
g74
I3
ssg75
g2824
sg68
(lp2831
S'<class wsgiref.util.FileWrapper at 0x15cc598>'
p2832
asbasbasbag61
(g77
g63
NtRp2833
(dp2834
g66
(dp2835
sg75
g2344
sg68
(lp2836
g61
(g82
g63
NtRp2837
(dp2838
g66
(dp2839
g86
g87
ssg75
g2833
sg68
(lp2840
S'wsgi.input'
p2841
asbag61
(g82
g63
NtRp2842
(dp2843
g66
(dp2844
g93
g94
ssg75
g2833
sg68
(lp2845
S':'
asbag61
(g82
g63
NtRp2846
(dp2847
g66
(dp2848
sg75
g2833
sg68
(lp2849
g61
(g62
g63
NtRp2850
(dp2851
g66
(dp2852
g74
I3
ssg75
g2846
sg68
(lp2853
S'<cStringIO.StringO object at 0x1691298>'
p2854
asbasbasbag61
(g77
g63
NtRp2855
(dp2856
g66
(dp2857
sg75
g2344
sg68
(lp2858
g61
(g82
g63
NtRp2859
(dp2860
g66
(dp2861
g86
g87
ssg75
g2855
sg68
(lp2862
S'wsgi.multiprocess'
p2863
asbag61
(g82
g63
NtRp2864
(dp2865
g66
(dp2866
g93
g94
ssg75
g2855
sg68
(lp2867
S':'
asbag61
(g82
g63
NtRp2868
(dp2869
g66
(dp2870
sg75
g2855
sg68
(lp2871
g61
(g62
g63
NtRp2872
(dp2873
g66
(dp2874
g74
I3
ssg75
g2868
sg68
(lp2875
g104
asbasbasbag61
(g77
g63
NtRp2876
(dp2877
g66
(dp2878
sg75
g2344
sg68
(lp2879
g61
(g82
g63
NtRp2880
(dp2881
g66
(dp2882
g86
g87
ssg75
g2876
sg68
(lp2883
S'wsgi.multithread'
p2884
asbag61
(g82
g63
NtRp2885
(dp2886
g66
(dp2887
g93
g94
ssg75
g2876
sg68
(lp2888
S':'
asbag61
(g82
g63
NtRp2889
(dp2890
g66
(dp2891
sg75
g2876
sg68
(lp2892
g61
(g62
g63
NtRp2893
(dp2894
g66
(dp2895
g74
I3
ssg75
g2889
sg68
(lp2896
g1540
asbasbasbag61
(g77
g63
NtRp2897
(dp2898
g66
(dp2899
sg75
g2344
sg68
(lp2900
g61
(g82
g63
NtRp2901
(dp2902
g66
(dp2903
g86
g87
ssg75
g2897
sg68
(lp2904
S'wsgi.run_once'
p2905
asbag61
(g82
g63
NtRp2906
(dp2907
g66
(dp2908
g93
g94
ssg75
g2897
sg68
(lp2909
S':'
asbag61
(g82
g63
NtRp2910
(dp2911
g66
(dp2912
sg75
g2897
sg68
(lp2913
g61
(g62
g63
NtRp2914
(dp2915
g66
(dp2916
g74
I3
ssg75
g2910
sg68
(lp2917
g104
asbasbasbag61
(g77
g63
NtRp2918
(dp2919
g66
(dp2920
sg75
g2344
sg68
(lp2921
g61
(g82
g63
NtRp2922
(dp2923
g66
(dp2924
g86
g87
ssg75
g2918
sg68
(lp2925
S'wsgi.url_scheme'
p2926
asbag61
(g82
g63
NtRp2927
(dp2928
g66
(dp2929
g93
g94
ssg75
g2918
sg68
(lp2930
S':'
asbag61
(g82
g63
NtRp2931
(dp2932
g66
(dp2933
sg75
g2918
sg68
(lp2934
g61
(g62
g63
NtRp2935
(dp2936
g66
(dp2937
g74
I3
ssg75
g2931
sg68
(lp2938
g1583
asbasbasbag61
(g77
g63
NtRp2939
(dp2940
g66
(dp2941
sg75
g2344
sg68
(lp2942
g61
(g82
g63
NtRp2943
(dp2944
g66
(dp2945
g86
g87
ssg75
g2939
sg68
(lp2946
S'wsgi.version'
p2947
asbag61
(g82
g63
NtRp2948
(dp2949
g66
(dp2950
g93
g94
ssg75
g2939
sg68
(lp2951
S':'
asbag61
(g82
g63
NtRp2952
(dp2953
g66
(dp2954
sg75
g2939
sg68
(lp2955
g61
(g62
g63
NtRp2956
(dp2957
g66
(dp2958
g74
I3
ssg75
g2952
sg68
(lp2959
S'1'
asbasbasbasbasbasbasbasbasbasbasbasbasbsS'frames'
p2960
(lp2961
(dp2962
S'file'
p2963
S'/var/www/conferencia/gluon/restricted.py'
p2964
sS'dump'
p2965
(dp2966
S'environment'
p2967
S"{'A': <class 'gluon.html.A'>, 'Auth': <class 'gluon.tools.Auth'>, 'B': <class 'gluon.html.B'>, 'BEAUTIFY': <class 'gluon.html.BEAUTIFY'>, 'BODY': <class 'gluon.html.BODY'>, 'BR': <class 'gluon.html.BR'>, 'BUTTON': <class 'gluon.html.BUTTON'>, 'CAT': <class 'gluon.html.CAT'>, 'CENTER': <class 'gluon.html.CENTER'>, 'CLEANUP': <class 'gluon.validators.CLEANUP'>, ...}"
p2968
sS'ccode'
p2969
S'<code object <module> at 0x13ca030, file "/var/w...a/applications/projeto/models/models.py", line 1>'
p2970
ssS'lnum'
p2971
I212
sS'lines'
p2972
(dp2973
I207
S'    try:'
p2974
sI208
S'        if isinstance(code, types.CodeType):'
p2975
sI209
S'            ccode = code'
p2976
sI210
S'        else:'
p2977
sI211
S'            ccode = compile2(code, layer)'
p2978
sI212
S'        exec ccode in environment'
p2979
sI213
S'    except HTTP:'
p2980
sI214
S'        raise'
p2981
sI215
S'    except RestrictedError:'
p2982
sI216
S'        # do not encapsulate (obfuscate) the original RestrictedError'
p2983
ssS'call'
p2984
S'(code=\'usuario = db.define_table("usuario",\\n      Field...suario\\\'),\\n      primarykey=[\\\'confno\\\']\\n      )\\n\\n\\n\\n\', environment={\'A\': <class \'gluon.html.A\'>, \'Auth\': <class \'gluon.tools.Auth\'>, \'B\': <class \'gluon.html.B\'>, \'BEAUTIFY\': <class \'gluon.html.BEAUTIFY\'>, \'BODY\': <class \'gluon.html.BODY\'>, \'BR\': <class \'gluon.html.BR\'>, \'BUTTON\': <class \'gluon.html.BUTTON\'>, \'CAT\': <class \'gluon.html.CAT\'>, \'CENTER\': <class \'gluon.html.CENTER\'>, \'CLEANUP\': <class \'gluon.validators.CLEANUP\'>, ...}, layer=\'/var/www/conferencia/applications/projeto/models/models.py\')'
p2985
sS'func'
p2986
S'restricted'
p2987
sa(dp2988
g2963
S'/var/www/conferencia/applications/projeto/models/models.py'
p2989
sg2965
(dp2990
S'primarykey'
p2991
S'undefined'
p2992
ssg2971
I14
sg2972
(dp2993
I9
S'meetme = db.define_table("meetme",'
p2994
sI10
S'      Field("confno"),'
p2995
sI11
S'      Field("starttime", "datetime"),'
p2996
sI12
S'      Field("endtime", "datetime"),'
p2997
sI13
S'      Field("membros_user", \'list:reference usuario\'),'
p2998
sI14
S"      primarykey=['confno']"
p2999
sI15
S'      )'
p3000
sI16
S''
sI17
S''
sI18
S''
ssg2984
S'()'
p3001
sg2986
S'<module>'
p3002
sa(dp3003
g2963
S'/var/www/conferencia/gluon/dal.py'
p3004
sg2965
(dp3005
S'fields'
p3006
S'(<gluon.dal.Field object>, <gluon.dal.Field object>, <gluon.dal.Field object>, <gluon.dal.Field object>)'
p3007
sS'self'
p3008
S'<DAL uri="postgres:pg8000://******:123456@127.0.0.1/conferencia">'
p3009
sS'args'
p3010
S"{'primarykey': ['confno']}"
p3011
sS'tablename'
p3012
S"'meetme'"
p3013
sS'table'
p3014
g2992
sS'self.lazy_define_table'
p3015
S'<bound method DAL.lazy_define_table of <DAL uri=...s:pg8000://******:123456@127.0.0.1/conferencia">>'
p3016
ssg2971
I7186
sg2972
(dp3017
I7181
S'                    % (tablename,invalid_args))'
p3018
sI7182
S'        if self._lazy_tables and not tablename in self._LAZY_TABLES:'
p3019
sI7183
S'            self._LAZY_TABLES[tablename] = (tablename,fields,args)'
p3020
sI7184
S'            table = None'
p3021
sI7185
S'        else:'
p3022
sI7186
S'            table = self.lazy_define_table(tablename,*fields,**args)'
p3023
sI7187
S'        if not tablename in self.tables:'
p3024
sI7188
S'            self.tables.append(tablename)'
p3025
sI7189
S'        return table'
p3026
sI7190
S''
ssg2984
S'(self=<DAL uri="postgres:pg8000://******:123456@127.0.0.1/conferencia">, tablename=\'meetme\', *fields=(<gluon.dal.Field object>, <gluon.dal.Field object>, <gluon.dal.Field object>, <gluon.dal.Field object>), **args={\'primarykey\': [\'confno\']})'
p3027
sg2986
S'define_table'
p3028
sa(dp3029
g2963
S'/var/www/conferencia/gluon/dal.py'
p3030
sg2965
(dp3031
S'polymodel'
p3032
S'None'
p3033
ssg2971
I7222
sg2972
(dp3034
I7217
S"            polymodel = args_get('polymodel',None)"
p3035
sI7218
S'            try:'
p3036
sI7219
S'                GLOBAL_LOCKER.acquire()'
p3037
sI7220
S'                self._adapter.create_table(table,migrate=migrate,'
p3038
sI7221
S'                                           fake_migrate=fake_migrate,'
p3039
sI7222
S'                                           polymodel=polymodel)'
p3040
sI7223
S'            finally:'
p3041
sI7224
S'                GLOBAL_LOCKER.release()'
p3042
sI7225
S'        else:'
p3043
sI7226
S'            table._dbt = None'
p3044
ssg2984
S'(self=<DAL uri="postgres:pg8000://******:123456@127.0.0.1/conferencia">, tablename=\'meetme\', *fields=(<gluon.dal.Field object>, <gluon.dal.Field object>, <gluon.dal.Field object>, <gluon.dal.Field object>), **args={\'primarykey\': [\'confno\']})'
p3045
sg2986
S'lazy_define_table'
p3046
sa(dp3047
g2963
S'/var/www/conferencia/gluon/dal.py'
p3048
sg2965
(dp3049
S'fake_migrate'
p3050
g104
ssg2971
I963
sg2972
(dp3051
I960
S'                self.migrate_table(table,'
p3052
sI961
S'                                   sql_fields, sql_fields_old,'
p3053
sI962
S'                                   sql_fields_aux, logfile,'
p3054
sI963
S'                                   fake_migrate=fake_migrate)'
p3055
sI964
S'        self.file_close(logfile)'
p3056
sI965
S'        return query'
p3057
sI966
S''
sI967
S'    def migrate_table('
p3058
sI958
S'            self.file_close(tfile)'
p3059
sI959
S'            if sql_fields != sql_fields_old:'
p3060
ssg2984
S'(self=<gluon.dal.PostgreSQLAdapter object>, table=<Table meetme (confno,starttime,endtime,membros_user)>, migrate=True, fake_migrate=False, polymodel=None)'
p3061
sg2986
S'create_table'
p3062
sa(dp3063
g2963
S'/var/www/conferencia/gluon/dal.py'
p3064
sg2965
(dp3065
S'self'
p3066
S'<gluon.dal.PostgreSQLAdapter object>'
p3067
sS'self.execute'
p3068
S'<bound method PostgreSQLAdapter.execute of <gluon.dal.PostgreSQLAdapter object>>'
p3069
sS'sub_query'
p3070
S"'ALTER TABLE meetme ADD confno__tmp VARCHAR(512) NOT NULL;'"
p3071
ssg2971
I1069
sg2972
(dp3072
I1064
S'                              % datetime.datetime.today().isoformat())'
p3073
sI1065
S"                db['_lastsql'] = '\\n'.join(query)"
p3074
sI1066
S'                for sub_query in query:'
p3075
sI1067
S"                    logfile.write(sub_query + '\\n')"
p3076
sI1068
S'                    if not fake_migrate:'
p3077
sI1069
S'                        self.execute(sub_query)'
p3078
sI1070
S'                        # Caveat: mysql, oracle and firebird do not allow multiple alter table'
p3079
sI1071
S'                        # in one transaction so we must commit partial transactions and'
p3080
sI1072
S'                        # update table._dbt after alter table.'
p3081
sI1073
S'                        if db._adapter.commit_on_alter_table:'
p3082
ssg2984
S"(self=<gluon.dal.PostgreSQLAdapter object>, table=<Table meetme (confno,starttime,endtime,membros_user)>, sql_fields={'confno': {'length': 512, 'notnull': True, 'sortable': 1, 'sql': 'VARCHAR(512) NOT NULL', 'type': 'string', 'unique': False}, 'endtime': {'length': 512, 'notnull': False, 'sortable': 3, 'sql': 'TIMESTAMP', 'type': 'datetime', 'unique': False}, 'membros_user': {'length': 512, 'notnull': False, 'sortable': 4, 'sql': 'TEXT', 'type': 'list:reference usuario', 'unique': False}, 'starttime': {'length': 512, 'notnull': False, 'sortable': 2, 'sql': 'TIMESTAMP', 'type': 'datetime', 'unique': False}}, sql_fields_old={'confno': {'length': 512, 'notnull': True, 'sortable': 1, 'sql': 'VARCHAR(512) NOT NULL UNIQUE', 'type': 'string', 'unique': True}, 'endtime': {'length': 512, 'notnull': False, 'sortable': 3, 'sql': 'TIMESTAMP', 'type': 'datetime', 'unique': False}, 'membros_user': {'length': 512, 'notnull': False, 'sortable': 4, 'sql': 'TEXT', 'type': 'list:reference usuario', 'unique': False}, 'starttime': {'length': 512, 'notnull': False, 'sortable': 2, 'sql': 'TIMESTAMP', 'type': 'datetime', 'unique': False}}, sql_fields_aux={'confno': {'sql': 'VARCHAR(512) NOT NULL'}, 'endtime': {'sql': 'TIMESTAMP'}, 'membros_user': {'sql': 'TEXT'}, 'starttime': {'sql': 'TIMESTAMP'}}, logfile=<gluon.portalocker.LockedFile object>, fake_migrate=False)"
p3083
sg2986
S'migrate_table'
p3084
sa(dp3085
g2963
S'/var/www/conferencia/gluon/dal.py'
p3086
sg2965
(dp3087
S'a'
S"('ALTER TABLE meetme ADD confno__tmp VARCHAR(512) NOT NULL;',)"
p3088
sS'self'
p3089
S'<gluon.dal.PostgreSQLAdapter object>'
p3090
sS'b'
g21
sS'self.log_execute'
p3091
S'<bound method PostgreSQLAdapter.log_execute of <gluon.dal.PostgreSQLAdapter object>>'
p3092
ssg2971
I1709
sg2972
(dp3093
I1704
S'        self.db._timings.append((command,time.time()-t0))'
p3094
sI1705
S'        del self.db._timings[:-TIMINGSSIZE]'
p3095
sI1706
S'        return ret'
p3096
sI1707
S''
sI1708
S'    def execute(self, *a, **b):'
p3097
sI1709
S'        return self.log_execute(*a, **b)'
p3098
sI1710
S''
sI1711
S'    def represent(self, obj, fieldtype):'
p3099
sI1712
S'        field_is_type = fieldtype.startswith'
p3100
sI1713
S'        if isinstance(obj, CALLABLETYPES):'
p3101
ssg2984
S"(self=<gluon.dal.PostgreSQLAdapter object>, *a=('ALTER TABLE meetme ADD confno__tmp VARCHAR(512) NOT NULL;',), **b={})"
p3102
sg2986
S'execute'
p3103
sa(dp3104
g2963
S'/var/www/conferencia/gluon/dal.py'
p3105
sg2965
(dp3106
S'a'
S"('ALTER TABLE meetme ADD confno__tmp VARCHAR(512) NOT NULL;',)"
p3107
sS'b'
g21
sS'self'
p3108
S'<gluon.dal.PostgreSQLAdapter object>'
p3109
sS'ret'
p3110
g2992
sS'self.cursor'
p3111
S'<gluon.contrib.pg8000.dbapi.CursorWrapper object>'
p3112
sS'self.cursor.execute'
p3113
S'<bound method CursorWrapper._fn of <gluon.contrib.pg8000.dbapi.CursorWrapper object>>'
p3114
ssg2971
I1703
sg2972
(dp3115
I1698
S'        command = a[0]'
p3116
sI1699
S'        if self.db._debug:'
p3117
sI1700
S"            LOGGER.debug('SQL: %s' % command)"
p3118
sI1701
S'        self.db._lastsql = command'
p3119
sI1702
S'        t0 = time.time()'
p3120
sI1703
S'        ret = self.cursor.execute(*a, **b)'
p3121
sI1704
S'        self.db._timings.append((command,time.time()-t0))'
p3122
sI1705
S'        del self.db._timings[:-TIMINGSSIZE]'
p3123
sI1706
S'        return ret'
p3124
sI1707
S''
ssg2984
S"(self=<gluon.dal.PostgreSQLAdapter object>, *a=('ALTER TABLE meetme ADD confno__tmp VARCHAR(512) NOT NULL;',), **b={})"
p3125
sg2986
S'log_execute'
p3126
sa(dp3127
g2963
S'/var/www/conferencia/gluon/contrib/pg8000/dbapi.py'
p3128
sg2965
(dp3129
S'self'
p3130
S'<gluon.contrib.pg8000.dbapi.CursorWrapper object>'
p3131
sS'args'
p3132
S"('ALTER TABLE meetme ADD confno__tmp VARCHAR(512) NOT NULL;',)"
p3133
sS'fn'
p3134
S'<function execute>'
p3135
sS'kwargs'
p3136
g21
ssg2971
I246
sg2972
(dp3137
I241
S''
sI242
S'def require_open_cursor(fn):'
p3138
sI243
S'    def _fn(self, *args, **kwargs):'
p3139
sI244
S'        if self.cursor == None:'
p3140
sI245
S'            raise CursorClosedError()'
p3141
sI246
S'        return fn(self, *args, **kwargs)'
p3142
sI247
S'    return _fn'
p3143
sI248
S''
sI249
S'##'
p3144
sI250
S'# The class of object returned by the {@link #ConnectionWrapper.cursor cursor method}.'
p3145
ssg2984
S"(self=<gluon.contrib.pg8000.dbapi.CursorWrapper object>, *args=('ALTER TABLE meetme ADD confno__tmp VARCHAR(512) NOT NULL;',), **kwargs={})"
p3146
sg2986
S'_fn'
p3147
sa(dp3148
g2963
S'/var/www/conferencia/gluon/contrib/pg8000/dbapi.py'
p3149
sg2965
(dp3150
S'self._execute'
p3151
S'<bound method CursorWrapper._execute of <gluon.contrib.pg8000.dbapi.CursorWrapper object>>'
p3152
sS'self'
p3153
S'<gluon.contrib.pg8000.dbapi.CursorWrapper object>'
p3154
sS'args'
p3155
S'()'
p3156
sS'operation'
p3157
S"'ALTER TABLE meetme ADD confno__tmp VARCHAR(512) NOT NULL;'"
p3158
ssg2971
I317
sg2972
(dp3159
I320
S'        new_query, new_args = convert_paramstyle(paramstyle, operation, args)'
p3160
sI321
S'        try:'
p3161
sI312
S'    @require_open_cursor'
p3162
sI313
S'    def execute(self, operation, args=()):'
p3163
sI314
S'        if not self._connection.in_transaction:'
p3164
sI315
S'            self._connection.begin()'
p3165
sI316
S'        self._override_rowcount = None'
p3166
sI317
S'        self._execute(operation, args)'
p3167
sI318
S''
sI319
S'    def _execute(self, operation, args=()):'
p3168
ssg2984
S"(self=<gluon.contrib.pg8000.dbapi.CursorWrapper object>, operation='ALTER TABLE meetme ADD confno__tmp VARCHAR(512) NOT NULL;', args=())"
p3169
sg2986
g3103
sa(dp3170
g2963
S'/var/www/conferencia/gluon/contrib/pg8000/dbapi.py'
p3171
sg2965
(dp3172
S'new_args'
p3173
S'()'
p3174
sS'self.cursor'
p3175
S'<gluon.contrib.pg8000.interface.Cursor object>'
p3176
sS'self'
p3177
S'<gluon.contrib.pg8000.dbapi.CursorWrapper object>'
p3178
sS'new_query'
p3179
S"'ALTER TABLE meetme ADD confno__tmp VARCHAR(512) NOT NULL;'"
p3180
sS'self.cursor.execute'
p3181
S'<bound method Cursor.execute of <gluon.contrib.pg8000.interface.Cursor object>>'
p3182
ssg2971
I322
sg2972
(dp3183
I320
S'        new_query, new_args = convert_paramstyle(paramstyle, operation, args)'
p3184
sI321
S'        try:'
p3185
sI322
S'            self.cursor.execute(new_query, *new_args)'
p3186
sI323
S'        except ConnectionClosedError:'
p3187
sI324
S"            # can't rollback in this case"
p3188
sI325
S'            raise'
p3189
sI326
S'        except:'
p3190
sI317
S'        self._execute(operation, args)'
p3191
sI318
S''
sI319
S'    def _execute(self, operation, args=()):'
p3192
ssg2984
S"(self=<gluon.contrib.pg8000.dbapi.CursorWrapper object>, operation='ALTER TABLE meetme ADD confno__tmp VARCHAR(512) NOT NULL;', args=())"
p3193
sg2986
S'_execute'
p3194
sa(dp3195
g2963
S'/var/www/conferencia/gluon/contrib/pg8000/interface.py'
p3196
sg2965
(dp3197
S'self._stmt.execute'
p3198
S'<bound method PreparedStatement.execute of <gluo...ntrib.pg8000.interface.PreparedStatement object>>'
p3199
sS'kwargs'
p3200
g21
sS'self'
p3201
S'<gluon.contrib.pg8000.interface.Cursor object>'
p3202
sS'args'
p3203
S'()'
p3204
sS'self._stmt'
p3205
S'<gluon.contrib.pg8000.interface.PreparedStatement object>'
p3206
ssg2971
I399
sg2972
(dp3207
I394
S'                ## print "SimpleQuery:", query'
p3208
sI395
S'                self._stmt = SimpleStatement(self.connection, query)'
p3209
sI396
S'            else:'
p3210
sI397
S'                # use PostgreSQL Extended Query Protocol'
p3211
sI398
S'                self._stmt = PreparedStatement(self.connection, query, statement_name="", *[{"type": type(x), "value": x} for x in args])'
p3212
sI399
S'            self._stmt.execute(*args, **kwargs)'
p3213
sI400
S'        finally:'
p3214
sI401
S'            self.connection._unnamed_prepared_statement_lock.release()'
p3215
sI402
S''
sI403
S'    ##'
p3216
ssg2984
S"(self=<gluon.contrib.pg8000.interface.Cursor object>, query='ALTER TABLE meetme ADD confno__tmp VARCHAR(512) NOT NULL;', *args=(), **kwargs={})"
p3217
sg2986
g3103
sa(dp3218
g2963
S'/var/www/conferencia/gluon/contrib/pg8000/interface.py'
p3219
sg2965
(dp3220
S'kwargs.get'
p3221
S'<built-in method get of dict object>'
p3222
sS'args'
p3223
S'()'
p3224
sS'self.c'
p3225
S'<gluon.contrib.pg8000.protocol.Connection object>'
p3226
sS'self'
p3227
S'<gluon.contrib.pg8000.interface.PreparedStatement object>'
p3228
sS'cmd'
p3229
g2992
sS'self._row_desc'
p3230
S'None'
p3231
sS'self.c.bind'
p3232
S'<bound method Connection._fn of <gluon.contrib.pg8000.protocol.Connection object>>'
p3233
sS'self._statement_name'
p3234
S"''"
p3235
sS'self._parse_row_desc'
p3236
S'(None, [])'
p3237
sS'kwargs'
p3238
g21
sS'self._portal_name'
p3239
S"'pg8000_portal_4'"
p3240
ssg2971
I169
sg2972
(dp3241
I164
S'                self._ongoing_row_count = 0'
p3242
sI165
S'            if self._portal_name != None:'
p3243
sI166
S'                self.c.close_portal(self._portal_name)'
p3244
sI167
S'            self._command_complete = False'
p3245
sI168
S'            self._portal_name = "pg8000_portal_%s" % self._statement_number'
p3246
sI169
S'            self._row_desc, cmd = self.c.bind(self._portal_name, self._statement_name, args, self._parse_row_desc, kwargs.get("stream"))'
p3247
sI170
S'            if self._row_desc:'
p3248
sI171
S'                # We execute our cursor right away to fill up our cache.  This'
p3249
sI172
S'                # prevents the cursor from being destroyed, apparently, by a rogue'
p3250
sI173
S'                # Sync between Bind and Execute.  Since it is quite likely that'
p3251
ssg2984
S'(self=<gluon.contrib.pg8000.interface.PreparedStatement object>, *args=(), **kwargs={})'
p3252
sg2986
g3103
sa(dp3253
g2963
S'/var/www/conferencia/gluon/contrib/pg8000/protocol.py'
p3254
sg2965
(dp3255
S'self'
p3256
S'<gluon.contrib.pg8000.protocol.Connection object>'
p3257
sS'args'
p3258
S"('pg8000_portal_4', '', (), (None, []), None)"
p3259
sS'fn'
p3260
S'<function bind>'
p3261
sS'kwargs'
p3262
g21
ssg2971
I943
sg2972
(dp3263
I938
S''
sI939
S'def sync_on_error(fn):'
p3264
sI940
S'    def _fn(self, *args, **kwargs):'
p3265
sI941
S'        try:'
p3266
sI942
S'            self._sock_lock.acquire()'
p3267
sI943
S'            return fn(self, *args, **kwargs)'
p3268
sI944
S'        except:'
p3269
sI945
S'            self._sync()'
p3270
sI946
S'            raise'
p3271
sI947
S'        finally:'
p3272
ssg2984
S"(self=<gluon.contrib.pg8000.protocol.Connection object>, *args=('pg8000_portal_4', '', (), (None, []), None), **kwargs={})"
p3273
sg2986
g3147
sa(dp3274
g2963
S'/var/www/conferencia/gluon/contrib/pg8000/protocol.py'
p3275
sg2965
(dp3276
S'reader.handle_messages'
p3277
S'<bound method MessageReader.handle_messages of <gluon.contrib.pg8000.protocol.MessageReader object>>'
p3278
sS'reader'
p3279
S'<gluon.contrib.pg8000.protocol.MessageReader object>'
p3280
ssg2971
I1142
sg2972
(dp3281
I1137
S''
sI1138
S'        # Return the new row desc, since it will have the format types we'
p3282
sI1139
S'        # asked the server for'
p3283
sI1140
S'        reader.add_message(RowDescription, lambda msg: (msg, None))'
p3284
sI1141
S''
sI1142
S'        return reader.handle_messages()'
p3285
sI1143
S''
sI1144
S'    def _copy_in_response(self, copyin, fileobj, old_reader):'
p3286
sI1145
S'        if fileobj == None:'
p3287
sI1146
S'            raise CopyQueryWithoutStreamError()'
p3288
ssg2984
S"(self=<gluon.contrib.pg8000.protocol.Connection object>, portal='pg8000_portal_4', statement='', params=(), parse_data=(None, []), copy_stream=None)"
p3289
sg2986
S'bind'
p3290
sa(dp3291
g2963
S'/var/www/conferencia/gluon/contrib/pg8000/protocol.py'
p3292
sg2965
(dp3293
S'msg'
p3294
S'<gluon.contrib.pg8000.protocol.NoData object>'
p3295
sS'handler'
p3296
S'<bound method Connection._bind_nodata of <gluon.contrib.pg8000.protocol.Connection object>>'
p3297
sS'retval'
p3298
S'0'
sS'args'
p3299
S"('pg8000_portal_4', <gluon.contrib.pg8000.protocol.MessageReader object>, None)"
p3300
sS'kwargs'
p3301
g21
ssg2971
I911
sg2972
(dp3302
I906
S'            msg = self._conn._read_message()'
p3303
sI907
S'            msg_handled = False'
p3304
sI908
S'            for (msg_class, handler, args, kwargs) in self._msgs:'
p3305
sI909
S'                if isinstance(msg, msg_class):'
p3306
sI910
S'                    msg_handled = True'
p3307
sI911
S'                    retval = handler(msg, *args, **kwargs)'
p3308
sI912
S'                    if retval:'
p3309
sI913
S'                        # The handler returned a true value, meaning that the'
p3310
sI914
S'                        # message loop should be aborted.'
p3311
sI915
S'                        if exc != None:'
p3312
ssg2984
S'(self=<gluon.contrib.pg8000.protocol.MessageReader object>)'
p3313
sg2986
S'handle_messages'
p3314
sa(dp3315
g2963
S'/var/www/conferencia/gluon/contrib/pg8000/protocol.py'
p3316
sg2965
(dp3317
S'reader.handle_messages'
p3318
S'<bound method MessageReader.handle_messages of <gluon.contrib.pg8000.protocol.MessageReader object>>'
p3319
sS'reader'
p3320
S'<gluon.contrib.pg8000.protocol.MessageReader object>'
p3321
ssg2971
I1181
sg2972
(dp3322
I1184
S''
sI1185
S'    @sync_on_error'
p3323
sI1176
S'        reader.add_message(CopyOutResponse, self._copy_out_response, copy_stream, reader)'
p3324
sI1177
S'        reader.add_message(CopyInResponse, self._copy_in_response, copy_stream, reader)'
p3325
sI1178
S"        reader.add_message(CommandComplete, lambda msg, out: out.setdefault('msg', msg) and False, output)"
p3326
sI1179
S'        reader.add_message(ReadyForQuery, lambda msg: 1)'
p3327
sI1180
S'        reader.delay_raising_exception = True'
p3328
sI1181
S'        reader.handle_messages()'
p3329
sI1182
S''
sI1183
S"        old_reader.return_value((None, output['msg']))"
p3330
ssg2984
S"(self=<gluon.contrib.pg8000.protocol.Connection object>, msg=<gluon.contrib.pg8000.protocol.NoData object>, portal='pg8000_portal_4', old_reader=<gluon.contrib.pg8000.protocol.MessageReader object>, copy_stream=None)"
p3331
sg2986
S'_bind_nodata'
p3332
sa(dp3333
g2963
S'/var/www/conferencia/gluon/contrib/pg8000/protocol.py'
p3334
sg2965
(dp3335
S'exc'
p3336
S'ProgrammingError(\'ERROR\', \'42P01\', \'relation "meetme" does not exist\')'
p3337
ssg2971
I916
sg2972
(dp3338
I911
S'                    retval = handler(msg, *args, **kwargs)'
p3339
sI912
S'                    if retval:'
p3340
sI913
S'                        # The handler returned a true value, meaning that the'
p3341
sI914
S'                        # message loop should be aborted.'
p3342
sI915
S'                        if exc != None:'
p3343
sI916
S'                            raise exc'
p3344
sI917
S'                        return retval'
p3345
sI918
S'                    elif hasattr(self, "_retval"):'
p3346
sI919
S'                        # The handler told us to return -- used for non-true'
p3347
sI920
S'                        # return values'
p3348
ssg2984
S'(self=<gluon.contrib.pg8000.protocol.MessageReader object>)'
p3349
sg2986
g3314
sasS'pyver'
p3350
S'Python 2.7.3: /usr/bin/python'
p3351
sS'session'
p3352
g61
(g62
g63
NtRp3353
(dp3354
g66
(dp3355
sg68
(lp3356
g61
(g70
g63
NtRp3357
(dp3358
g66
(dp3359
g74
I5
ssg75
Nsg68
(lp3360
g61
(g77
g63
NtRp3361
(dp3362
g66
(dp3363
sg75
g3357
sg68
(lp3364
g61
(g82
g63
NtRp3365
(dp3366
g66
(dp3367
g86
g87
ssg75
g3361
sg68
(lp3368
S'flash'
p3369
asbag61
(g82
g63
NtRp3370
(dp3371
g66
(dp3372
g93
g94
ssg75
g3361
sg68
(lp3373
S':'
asbag61
(g82
g63
NtRp3374
(dp3375
g66
(dp3376
sg75
g3361
sg68
(lp3377
g61
(g62
g63
NtRp3378
(dp3379
g66
(dp3380
g74
I5
ssg75
g3374
sg68
(lp3381
S'None'
p3382
asbasbasbasbasbsS'etype'
p3383
S"<class 'gluon.contrib.pg8000.errors.ProgrammingError'>"
p3384
sS'date'
p3385
S'Tue Apr  2 18:32:38 2013'
p3386
sS'response'
p3387
g61
(g62
g63
NtRp3388
(dp3389
g66
(dp3390
sg68
(lp3391
g61
(g70
g63
NtRp3392
(dp3393
g66
(dp3394
g74
I5
ssg75
Nsg68
(lp3395
g61
(g77
g63
NtRp3396
(dp3397
g66
(dp3398
sg75
g3392
sg68
(lp3399
g61
(g82
g63
NtRp3400
(dp3401
g66
(dp3402
g86
g87
ssg75
g3396
sg68
(lp3403
g159
asbag61
(g82
g63
NtRp3404
(dp3405
g66
(dp3406
g93
g94
ssg75
g3396
sg68
(lp3407
S':'
asbag61
(g82
g63
NtRp3408
(dp3409
g66
(dp3410
sg75
g3396
sg68
(lp3411
g61
(g62
g63
NtRp3412
(dp3413
g66
(dp3414
g74
I5
ssg75
g3408
sg68
(lp3415
S'<cStringIO.StringO object at 0x166afb8>'
p3416
asbasbasbag61
(g77
g63
NtRp3417
(dp3418
g66
(dp3419
sg75
g3392
sg68
(lp3420
g61
(g82
g63
NtRp3421
(dp3422
g66
(dp3423
g86
g87
ssg75
g3417
sg68
(lp3424
g247
asbag61
(g82
g63
NtRp3425
(dp3426
g66
(dp3427
g93
g94
ssg75
g3417
sg68
(lp3428
S':'
asbag61
(g82
g63
NtRp3429
(dp3430
g66
(dp3431
sg75
g3417
sg68
(lp3432
g61
(g62
g63
NtRp3433
(dp3434
g66
(dp3435
g74
I5
ssg75
g3429
sg68
(lp3436
g61
(g70
g63
NtRp3437
(dp3438
g66
(dp3439
g74
I4
ssg75
Nsg68
(lp3440
g61
(g77
g63
NtRp3441
(dp3442
g66
(dp3443
sg75
g3437
sg68
(lp3444
g61
(g82
g63
NtRp3445
(dp3446
g66
(dp3447
g86
g87
ssg75
g3441
sg68
(lp3448
S'session_id_projeto'
p3449
asbag61
(g82
g63
NtRp3450
(dp3451
g66
(dp3452
g93
g94
ssg75
g3441
sg68
(lp3453
S':'
asbag61
(g82
g63
NtRp3454
(dp3455
g66
(dp3456
sg75
g3441
sg68
(lp3457
g61
(g62
g63
NtRp3458
(dp3459
g66
(dp3460
g74
I4
ssg75
g3454
sg68
(lp3461
g479
ag61
(g70
g63
NtRp3462
(dp3463
g66
(dp3464
g74
I3
ssg75
Nsg68
(lp3465
g61
(g77
g63
NtRp3466
(dp3467
g66
(dp3468
sg75
g3462
sg68
(lp3469
g61
(g82
g63
NtRp3470
(dp3471
g66
(dp3472
g86
g87
ssg75
g3466
sg68
(lp3473
g298
asbag61
(g82
g63
NtRp3474
(dp3475
g66
(dp3476
g93
g94
ssg75
g3466
sg68
(lp3477
S':'
asbag61
(g82
g63
NtRp3478
(dp3479
g66
(dp3480
sg75
g3466
sg68
(lp3481
g61
(g62
g63
NtRp3482
(dp3483
g66
(dp3484
g74
I3
ssg75
g3478
sg68
(lp3485
S''
asbasbasbag61
(g77
g63
NtRp3486
(dp3487
g66
(dp3488
sg75
g3462
sg68
(lp3489
g61
(g82
g63
NtRp3490
(dp3491
g66
(dp3492
g86
g87
ssg75
g3486
sg68
(lp3493
g319
asbag61
(g82
g63
NtRp3494
(dp3495
g66
(dp3496
g93
g94
ssg75
g3486
sg68
(lp3497
S':'
asbag61
(g82
g63
NtRp3498
(dp3499
g66
(dp3500
sg75
g3486
sg68
(lp3501
g61
(g62
g63
NtRp3502
(dp3503
g66
(dp3504
g74
I3
ssg75
g3498
sg68
(lp3505
S''
asbasbasbag61
(g77
g63
NtRp3506
(dp3507
g66
(dp3508
sg75
g3462
sg68
(lp3509
g61
(g82
g63
NtRp3510
(dp3511
g66
(dp3512
g86
g87
ssg75
g3506
sg68
(lp3513
g340
asbag61
(g82
g63
NtRp3514
(dp3515
g66
(dp3516
g93
g94
ssg75
g3506
sg68
(lp3517
S':'
asbag61
(g82
g63
NtRp3518
(dp3519
g66
(dp3520
sg75
g3506
sg68
(lp3521
g61
(g62
g63
NtRp3522
(dp3523
g66
(dp3524
g74
I3
ssg75
g3518
sg68
(lp3525
S''
asbasbasbag61
(g77
g63
NtRp3526
(dp3527
g66
(dp3528
sg75
g3462
sg68
(lp3529
g61
(g82
g63
NtRp3530
(dp3531
g66
(dp3532
g86
g87
ssg75
g3526
sg68
(lp3533
g361
asbag61
(g82
g63
NtRp3534
(dp3535
g66
(dp3536
g93
g94
ssg75
g3526
sg68
(lp3537
S':'
asbag61
(g82
g63
NtRp3538
(dp3539
g66
(dp3540
sg75
g3526
sg68
(lp3541
g61
(g62
g63
NtRp3542
(dp3543
g66
(dp3544
g74
I3
ssg75
g3538
sg68
(lp3545
S''
asbasbasbag61
(g77
g63
NtRp3546
(dp3547
g66
(dp3548
sg75
g3462
sg68
(lp3549
g61
(g82
g63
NtRp3550
(dp3551
g66
(dp3552
g86
g87
ssg75
g3546
sg68
(lp3553
g382
asbag61
(g82
g63
NtRp3554
(dp3555
g66
(dp3556
g93
g94
ssg75
g3546
sg68
(lp3557
S':'
asbag61
(g82
g63
NtRp3558
(dp3559
g66
(dp3560
sg75
g3546
sg68
(lp3561
g61
(g62
g63
NtRp3562
(dp3563
g66
(dp3564
g74
I3
ssg75
g3558
sg68
(lp3565
S''
asbasbasbag61
(g77
g63
NtRp3566
(dp3567
g66
(dp3568
sg75
g3462
sg68
(lp3569
g61
(g82
g63
NtRp3570
(dp3571
g66
(dp3572
g86
g87
ssg75
g3566
sg68
(lp3573
g403
asbag61
(g82
g63
NtRp3574
(dp3575
g66
(dp3576
g93
g94
ssg75
g3566
sg68
(lp3577
S':'
asbag61
(g82
g63
NtRp3578
(dp3579
g66
(dp3580
sg75
g3566
sg68
(lp3581
g61
(g62
g63
NtRp3582
(dp3583
g66
(dp3584
g74
I3
ssg75
g3578
sg68
(lp3585
S'/'
asbasbasbag61
(g77
g63
NtRp3586
(dp3587
g66
(dp3588
sg75
g3462
sg68
(lp3589
g61
(g82
g63
NtRp3590
(dp3591
g66
(dp3592
g86
g87
ssg75
g3586
sg68
(lp3593
g424
asbag61
(g82
g63
NtRp3594
(dp3595
g66
(dp3596
g93
g94
ssg75
g3586
sg68
(lp3597
S':'
asbag61
(g82
g63
NtRp3598
(dp3599
g66
(dp3600
sg75
g3586
sg68
(lp3601
g61
(g62
g63
NtRp3602
(dp3603
g66
(dp3604
g74
I3
ssg75
g3598
sg68
(lp3605
S''
asbasbasbag61
(g77
g63
NtRp3606
(dp3607
g66
(dp3608
sg75
g3462
sg68
(lp3609
g61
(g82
g63
NtRp3610
(dp3611
g66
(dp3612
g86
g87
ssg75
g3606
sg68
(lp3613
g445
asbag61
(g82
g63
NtRp3614
(dp3615
g66
(dp3616
g93
g94
ssg75
g3606
sg68
(lp3617
S':'
asbag61
(g82
g63
NtRp3618
(dp3619
g66
(dp3620
sg75
g3606
sg68
(lp3621
g61
(g62
g63
NtRp3622
(dp3623
g66
(dp3624
g74
I3
ssg75
g3618
sg68
(lp3625
S''
asbasbasbasbasbasbasbasbasbasbasbag61
(g77
g63
NtRp3626
(dp3627
g66
(dp3628
sg75
g3392
sg68
(lp3629
g61
(g82
g63
NtRp3630
(dp3631
g66
(dp3632
g86
g87
ssg75
g3626
sg68
(lp3633
S'delimiters'
p3634
asbag61
(g82
g63
NtRp3635
(dp3636
g66
(dp3637
g93
g94
ssg75
g3626
sg68
(lp3638
S':'
asbag61
(g82
g63
NtRp3639
(dp3640
g66
(dp3641
sg75
g3626
sg68
(lp3642
g61
(g62
g63
NtRp3643
(dp3644
g66
(dp3645
g74
I5
ssg75
g3639
sg68
(lp3646
g61
(g70
g63
NtRp3647
(dp3648
g66
(dp3649
g74
I4
ssg75
Nsg68
(lp3650
g61
(g77
g63
NtRp3651
(dp3652
g66
(dp3653
sg75
g3647
sg68
(lp3654
g61
(g82
g63
NtRp3655
(dp3656
g66
(dp3657
sg75
g3651
sg68
(lp3658
g61
(g62
g63
NtRp3659
(dp3660
g66
(dp3661
g74
I4
ssg75
g3655
sg68
(lp3662
S'{{'
p3663
asbasbasbag61
(g77
g63
NtRp3664
(dp3665
g66
(dp3666
sg75
g3647
sg68
(lp3667
g61
(g82
g63
NtRp3668
(dp3669
g66
(dp3670
sg75
g3664
sg68
(lp3671
g61
(g62
g63
NtRp3672
(dp3673
g66
(dp3674
g74
I4
ssg75
g3668
sg68
(lp3675
S'}}'
p3676
asbasbasbasbasbasbasbag61
(g77
g63
NtRp3677
(dp3678
g66
(dp3679
sg75
g3392
sg68
(lp3680
g61
(g82
g63
NtRp3681
(dp3682
g66
(dp3683
g86
g87
ssg75
g3677
sg68
(lp3684
S'files'
p3685
asbag61
(g82
g63
NtRp3686
(dp3687
g66
(dp3688
g93
g94
ssg75
g3677
sg68
(lp3689
S':'
asbag61
(g82
g63
NtRp3690
(dp3691
g66
(dp3692
sg75
g3677
sg68
(lp3693
g61
(g62
g63
NtRp3694
(dp3695
g66
(dp3696
g74
I5
ssg75
g3690
sg68
(lp3697
g61
(g70
g63
NtRp3698
(dp3699
g66
(dp3700
g74
I4
ssg75
Nsg68
(lp3701
sbasbasbasbag61
(g77
g63
NtRp3702
(dp3703
g66
(dp3704
sg75
g3392
sg68
(lp3705
g61
(g82
g63
NtRp3706
(dp3707
g66
(dp3708
g86
g87
ssg75
g3702
sg68
(lp3709
S'flash'
p3710
asbag61
(g82
g63
NtRp3711
(dp3712
g66
(dp3713
g93
g94
ssg75
g3702
sg68
(lp3714
S':'
asbag61
(g82
g63
NtRp3715
(dp3716
g66
(dp3717
sg75
g3702
sg68
(lp3718
g61
(g62
g63
NtRp3719
(dp3720
g66
(dp3721
g74
I5
ssg75
g3715
sg68
(lp3722
S''
asbasbasbag61
(g77
g63
NtRp3723
(dp3724
g66
(dp3725
sg75
g3392
sg68
(lp3726
g61
(g82
g63
NtRp3727
(dp3728
g66
(dp3729
g86
g87
ssg75
g3723
sg68
(lp3730
S'generic_patterns'
p3731
asbag61
(g82
g63
NtRp3732
(dp3733
g66
(dp3734
g93
g94
ssg75
g3723
sg68
(lp3735
S':'
asbag61
(g82
g63
NtRp3736
(dp3737
g66
(dp3738
sg75
g3723
sg68
(lp3739
g61
(g62
g63
NtRp3740
(dp3741
g66
(dp3742
g74
I5
ssg75
g3736
sg68
(lp3743
g61
(g70
g63
NtRp3744
(dp3745
g66
(dp3746
g74
I4
ssg75
Nsg68
(lp3747
g61
(g77
g63
NtRp3748
(dp3749
g66
(dp3750
sg75
g3744
sg68
(lp3751
g61
(g82
g63
NtRp3752
(dp3753
g66
(dp3754
sg75
g3748
sg68
(lp3755
g61
(g62
g63
NtRp3756
(dp3757
g66
(dp3758
g74
I4
ssg75
g3752
sg68
(lp3759
S'*'
asbasbasbasbasbasbasbag61
(g77
g63
NtRp3760
(dp3761
g66
(dp3762
sg75
g3392
sg68
(lp3763
g61
(g82
g63
NtRp3764
(dp3765
g66
(dp3766
g86
g87
ssg75
g3760
sg68
(lp3767
S'google_analytics_id'
p3768
asbag61
(g82
g63
NtRp3769
(dp3770
g66
(dp3771
g93
g94
ssg75
g3760
sg68
(lp3772
S':'
asbag61
(g82
g63
NtRp3773
(dp3774
g66
(dp3775
sg75
g3760
sg68
(lp3776
g61
(g62
g63
NtRp3777
(dp3778
g66
(dp3779
g74
I5
ssg75
g3773
sg68
(lp3780
S'None'
p3781
asbasbasbag61
(g77
g63
NtRp3782
(dp3783
g66
(dp3784
sg75
g3392
sg68
(lp3785
g61
(g82
g63
NtRp3786
(dp3787
g66
(dp3788
g86
g87
ssg75
g3782
sg68
(lp3789
S'headers'
p3790
asbag61
(g82
g63
NtRp3791
(dp3792
g66
(dp3793
g93
g94
ssg75
g3782
sg68
(lp3794
S':'
asbag61
(g82
g63
NtRp3795
(dp3796
g66
(dp3797
sg75
g3782
sg68
(lp3798
g61
(g62
g63
NtRp3799
(dp3800
g66
(dp3801
g74
I5
ssg75
g3795
sg68
(lp3802
g61
(g70
g63
NtRp3803
(dp3804
g66
(dp3805
g74
I4
ssg75
Nsg68
(lp3806
g61
(g77
g63
NtRp3807
(dp3808
g66
(dp3809
sg75
g3803
sg68
(lp3810
g61
(g82
g63
NtRp3811
(dp3812
g66
(dp3813
g86
g87
ssg75
g3807
sg68
(lp3814
S'X-Powered-By'
p3815
asbag61
(g82
g63
NtRp3816
(dp3817
g66
(dp3818
g93
g94
ssg75
g3807
sg68
(lp3819
S':'
asbag61
(g82
g63
NtRp3820
(dp3821
g66
(dp3822
sg75
g3807
sg68
(lp3823
g61
(g62
g63
NtRp3824
(dp3825
g66
(dp3826
g74
I4
ssg75
g3820
sg68
(lp3827
S'web2py'
p3828
asbasbasbasbasbasbasbag61
(g77
g63
NtRp3829
(dp3830
g66
(dp3831
sg75
g3392
sg68
(lp3832
g61
(g82
g63
NtRp3833
(dp3834
g66
(dp3835
g86
g87
ssg75
g3829
sg68
(lp3836
S'logo'
p3837
asbag61
(g82
g63
NtRp3838
(dp3839
g66
(dp3840
g93
g94
ssg75
g3829
sg68
(lp3841
S':'
asbag61
(g82
g63
NtRp3842
(dp3843
g66
(dp3844
sg75
g3829
sg68
(lp3845
g61
(g62
g63
NtRp3846
(dp3847
g66
(dp3848
g74
I5
ssg75
g3842
sg68
(lp3849
g61
(cgluon.html
A
p3850
g63
NtRp3851
(dp3852
g66
(dp3853
S'_class'
p3854
S'brand'
p3855
sS'_href'
p3856
g1698
ssg75
Nsg68
(lp3857
g61
(cgluon.html
B
p3858
g63
NtRp3859
(dp3860
g66
(dp3861
sg75
g3851
sg68
(lp3862
S'hosts'
p3863
ag61
(cgluon.html
SPAN
p3864
g63
NtRp3865
(dp3866
g66
(dp3867
sg75
g3859
sg68
(lp3868
S'3'
asbaS''
asbacgluon.html
XML_unpickle
p3869
(S's\r\x00\x00\x00&trade;&nbsp;'
tRp3870
asbasbasbasbag61
(g77
g63
NtRp3871
(dp3872
g66
(dp3873
sg75
g3392
sg68
(lp3874
g61
(g82
g63
NtRp3875
(dp3876
g66
(dp3877
g86
g87
ssg75
g3871
sg68
(lp3878
S'menu'
p3879
asbag61
(g82
g63
NtRp3880
(dp3881
g66
(dp3882
g93
g94
ssg75
g3871
sg68
(lp3883
S':'
asbag61
(g82
g63
NtRp3884
(dp3885
g66
(dp3886
sg75
g3871
sg68
(lp3887
g61
(g62
g63
NtRp3888
(dp3889
g66
(dp3890
g74
I5
ssg75
g3884
sg68
(lp3891
g61
(g70
g63
NtRp3892
(dp3893
g66
(dp3894
g74
I4
ssg75
Nsg68
(lp3895
g61
(g77
g63
NtRp3896
(dp3897
g66
(dp3898
sg75
g3892
sg68
(lp3899
g61
(g82
g63
NtRp3900
(dp3901
g66
(dp3902
sg75
g3896
sg68
(lp3903
g61
(g62
g63
NtRp3904
(dp3905
g66
(dp3906
g74
I4
ssg75
g3900
sg68
(lp3907
g61
(g70
g63
NtRp3908
(dp3909
g66
(dp3910
g74
I3
ssg75
Nsg68
(lp3911
g61
(g77
g63
NtRp3912
(dp3913
g66
(dp3914
sg75
g3908
sg68
(lp3915
g61
(g82
g63
NtRp3916
(dp3917
g66
(dp3918
sg75
g3912
sg68
(lp3919
g61
(g62
g63
NtRp3920
(dp3921
g66
(dp3922
g74
I3
ssg75
g3916
sg68
(lp3923
cgluon.languages
lazyT_unpickle
p3924
(S't\x08\x00\x00\x00Clientes'
tRp3925
asbasbasbag61
(g77
g63
NtRp3926
(dp3927
g66
(dp3928
sg75
g3908
sg68
(lp3929
g61
(g82
g63
NtRp3930
(dp3931
g66
(dp3932
sg75
g3926
sg68
(lp3933
g61
(g62
g63
NtRp3934
(dp3935
g66
(dp3936
g74
I3
ssg75
g3930
sg68
(lp3937
g104
asbasbasbag61
(g77
g63
NtRp3938
(dp3939
g66
(dp3940
sg75
g3908
sg68
(lp3941
g61
(g82
g63
NtRp3942
(dp3943
g66
(dp3944
sg75
g3938
sg68
(lp3945
g61
(g62
g63
NtRp3946
(dp3947
g66
(dp3948
g74
I3
ssg75
g3942
sg68
(lp3949
S'/show_cliente'
p3950
asbasbasbag61
(g77
g63
NtRp3951
(dp3952
g66
(dp3953
sg75
g3908
sg68
(lp3954
g61
(g82
g63
NtRp3955
(dp3956
g66
(dp3957
sg75
g3951
sg68
(lp3958
g61
(g62
g63
NtRp3959
(dp3960
g66
(dp3961
g74
I3
ssg75
g3955
sg68
(lp3962
g61
(g70
g63
NtRp3963
(dp3964
g66
(dp3965
g74
I2
ssg75
Nsg68
(lp3966
sbasbasbasbasbasbasbasbag61
(g77
g63
NtRp3967
(dp3968
g66
(dp3969
sg75
g3892
sg68
(lp3970
g61
(g82
g63
NtRp3971
(dp3972
g66
(dp3973
sg75
g3967
sg68
(lp3974
g61
(g62
g63
NtRp3975
(dp3976
g66
(dp3977
g74
I4
ssg75
g3971
sg68
(lp3978
g61
(g70
g63
NtRp3979
(dp3980
g66
(dp3981
g74
I3
ssg75
Nsg68
(lp3982
g61
(g77
g63
NtRp3983
(dp3984
g66
(dp3985
sg75
g3979
sg68
(lp3986
g61
(g82
g63
NtRp3987
(dp3988
g66
(dp3989
sg75
g3983
sg68
(lp3990
g61
(g62
g63
NtRp3991
(dp3992
g66
(dp3993
g74
I3
ssg75
g3987
sg68
(lp3994
g3924
(S't\n\x00\x00\x00Servidores'
tRp3995
asbasbasbag61
(g77
g63
NtRp3996
(dp3997
g66
(dp3998
sg75
g3979
sg68
(lp3999
g61
(g82
g63
NtRp4000
(dp4001
g66
(dp4002
sg75
g3996
sg68
(lp4003
g61
(g62
g63
NtRp4004
(dp4005
g66
(dp4006
g74
I3
ssg75
g4000
sg68
(lp4007
g104
asbasbasbag61
(g77
g63
NtRp4008
(dp4009
g66
(dp4010
sg75
g3979
sg68
(lp4011
g61
(g82
g63
NtRp4012
(dp4013
g66
(dp4014
sg75
g4008
sg68
(lp4015
g61
(g62
g63
NtRp4016
(dp4017
g66
(dp4018
g74
I3
ssg75
g4012
sg68
(lp4019
S'/show_servidor'
p4020
asbasbasbag61
(g77
g63
NtRp4021
(dp4022
g66
(dp4023
sg75
g3979
sg68
(lp4024
g61
(g82
g63
NtRp4025
(dp4026
g66
(dp4027
sg75
g4021
sg68
(lp4028
g61
(g62
g63
NtRp4029
(dp4030
g66
(dp4031
g74
I3
ssg75
g4025
sg68
(lp4032
g61
(g70
g63
NtRp4033
(dp4034
g66
(dp4035
g74
I2
ssg75
Nsg68
(lp4036
sbasbasbasbasbasbasbasbag61
(g77
g63
NtRp4037
(dp4038
g66
(dp4039
sg75
g3892
sg68
(lp4040
g61
(g82
g63
NtRp4041
(dp4042
g66
(dp4043
sg75
g4037
sg68
(lp4044
g61
(g62
g63
NtRp4045
(dp4046
g66
(dp4047
g74
I4
ssg75
g4041
sg68
(lp4048
g61
(g70
g63
NtRp4049
(dp4050
g66
(dp4051
g74
I3
ssg75
Nsg68
(lp4052
g61
(g77
g63
NtRp4053
(dp4054
g66
(dp4055
sg75
g4049
sg68
(lp4056
g61
(g82
g63
NtRp4057
(dp4058
g66
(dp4059
sg75
g4053
sg68
(lp4060
g61
(g62
g63
NtRp4061
(dp4062
g66
(dp4063
g74
I3
ssg75
g4057
sg68
(lp4064
g3924
(S't\x07\x00\x00\x00Distros'
tRp4065
asbasbasbag61
(g77
g63
NtRp4066
(dp4067
g66
(dp4068
sg75
g4049
sg68
(lp4069
g61
(g82
g63
NtRp4070
(dp4071
g66
(dp4072
sg75
g4066
sg68
(lp4073
g61
(g62
g63
NtRp4074
(dp4075
g66
(dp4076
g74
I3
ssg75
g4070
sg68
(lp4077
g104
asbasbasbag61
(g77
g63
NtRp4078
(dp4079
g66
(dp4080
sg75
g4049
sg68
(lp4081
g61
(g82
g63
NtRp4082
(dp4083
g66
(dp4084
sg75
g4078
sg68
(lp4085
g61
(g62
g63
NtRp4086
(dp4087
g66
(dp4088
g74
I3
ssg75
g4082
sg68
(lp4089
S'/show_distro'
p4090
asbasbasbag61
(g77
g63
NtRp4091
(dp4092
g66
(dp4093
sg75
g4049
sg68
(lp4094
g61
(g82
g63
NtRp4095
(dp4096
g66
(dp4097
sg75
g4091
sg68
(lp4098
g61
(g62
g63
NtRp4099
(dp4100
g66
(dp4101
g74
I3
ssg75
g4095
sg68
(lp4102
g61
(g70
g63
NtRp4103
(dp4104
g66
(dp4105
g74
I2
ssg75
Nsg68
(lp4106
sbasbasbasbasbasbasbasbag61
(g77
g63
NtRp4107
(dp4108
g66
(dp4109
sg75
g3892
sg68
(lp4110
g61
(g82
g63
NtRp4111
(dp4112
g66
(dp4113
sg75
g4107
sg68
(lp4114
g61
(g62
g63
NtRp4115
(dp4116
g66
(dp4117
g74
I4
ssg75
g4111
sg68
(lp4118
g61
(g70
g63
NtRp4119
(dp4120
g66
(dp4121
g74
I3
ssg75
Nsg68
(lp4122
g61
(g77
g63
NtRp4123
(dp4124
g66
(dp4125
sg75
g4119
sg68
(lp4126
g61
(g82
g63
NtRp4127
(dp4128
g66
(dp4129
sg75
g4123
sg68
(lp4130
g61
(g62
g63
NtRp4131
(dp4132
g66
(dp4133
g74
I3
ssg75
g4127
sg68
(lp4134
g3924
(S's\x05\x00\x00\x00+host'
tRp4135
asbasbasbag61
(g77
g63
NtRp4136
(dp4137
g66
(dp4138
sg75
g4119
sg68
(lp4139
g61
(g82
g63
NtRp4140
(dp4141
g66
(dp4142
sg75
g4136
sg68
(lp4143
g61
(g62
g63
NtRp4144
(dp4145
g66
(dp4146
g74
I3
ssg75
g4140
sg68
(lp4147
g104
asbasbasbag61
(g77
g63
NtRp4148
(dp4149
g66
(dp4150
sg75
g4119
sg68
(lp4151
g61
(g82
g63
NtRp4152
(dp4153
g66
(dp4154
sg75
g4148
sg68
(lp4155
g61
(g62
g63
NtRp4156
(dp4157
g66
(dp4158
g74
I3
ssg75
g4152
sg68
(lp4159
S'/interface'
p4160
asbasbasbag61
(g77
g63
NtRp4161
(dp4162
g66
(dp4163
sg75
g4119
sg68
(lp4164
g61
(g82
g63
NtRp4165
(dp4166
g66
(dp4167
sg75
g4161
sg68
(lp4168
g61
(g62
g63
NtRp4169
(dp4170
g66
(dp4171
g74
I3
ssg75
g4165
sg68
(lp4172
g61
(g70
g63
NtRp4173
(dp4174
g66
(dp4175
g74
I2
ssg75
Nsg68
(lp4176
sbasbasbasbasbasbasbasbasbasbasbasbag61
(g77
g63
NtRp4177
(dp4178
g66
(dp4179
sg75
g3392
sg68
(lp4180
g61
(g82
g63
NtRp4181
(dp4182
g66
(dp4183
g86
g87
ssg75
g4177
sg68
(lp4184
S'menu2'
p4185
asbag61
(g82
g63
NtRp4186
(dp4187
g66
(dp4188
g93
g94
ssg75
g4177
sg68
(lp4189
S':'
asbag61
(g82
g63
NtRp4190
(dp4191
g66
(dp4192
sg75
g4177
sg68
(lp4193
g61
(g62
g63
NtRp4194
(dp4195
g66
(dp4196
g74
I5
ssg75
g4190
sg68
(lp4197
g61
(g70
g63
NtRp4198
(dp4199
g66
(dp4200
g74
I4
ssg75
Nsg68
(lp4201
g61
(g77
g63
NtRp4202
(dp4203
g66
(dp4204
sg75
g4198
sg68
(lp4205
g61
(g82
g63
NtRp4206
(dp4207
g66
(dp4208
sg75
g4202
sg68
(lp4209
g61
(g62
g63
NtRp4210
(dp4211
g66
(dp4212
g74
I4
ssg75
g4206
sg68
(lp4213
g61
(g70
g63
NtRp4214
(dp4215
g66
(dp4216
g74
I3
ssg75
Nsg68
(lp4217
g61
(g77
g63
NtRp4218
(dp4219
g66
(dp4220
sg75
g4214
sg68
(lp4221
g61
(g82
g63
NtRp4222
(dp4223
g66
(dp4224
sg75
g4218
sg68
(lp4225
g61
(g62
g63
NtRp4226
(dp4227
g66
(dp4228
g74
I3
ssg75
g4222
sg68
(lp4229
g61
(g3864
g63
NtRp4230
(dp4231
g66
(dp4232
g3854
S'dropdown-toggle'
p4233
ssg75
Nsg68
(lp4234
S'Admin'
p4235
asbasbasbasbag61
(g77
g63
NtRp4236
(dp4237
g66
(dp4238
sg75
g4214
sg68
(lp4239
g61
(g82
g63
NtRp4240
(dp4241
g66
(dp4242
sg75
g4236
sg68
(lp4243
g61
(g62
g63
NtRp4244
(dp4245
g66
(dp4246
g74
I3
ssg75
g4240
sg68
(lp4247
g104
asbasbasbag61
(g77
g63
NtRp4248
(dp4249
g66
(dp4250
sg75
g4214
sg68
(lp4251
g61
(g82
g63
NtRp4252
(dp4253
g66
(dp4254
sg75
g4248
sg68
(lp4255
g61
(g62
g63
NtRp4256
(dp4257
g66
(dp4258
g74
I3
ssg75
g4252
sg68
(lp4259
S'#'
asbasbasbag61
(g77
g63
NtRp4260
(dp4261
g66
(dp4262
sg75
g4214
sg68
(lp4263
g61
(g82
g63
NtRp4264
(dp4265
g66
(dp4266
sg75
g4260
sg68
(lp4267
g61
(g62
g63
NtRp4268
(dp4269
g66
(dp4270
g74
I3
ssg75
g4264
sg68
(lp4271
g61
(g70
g63
NtRp4272
(dp4273
g66
(dp4274
g74
I2
ssg75
Nsg68
(lp4275
g61
(g77
g63
NtRp4276
(dp4277
g66
(dp4278
sg75
g4272
sg68
(lp4279
g61
(g82
g63
NtRp4280
(dp4281
g66
(dp4282
sg75
g4276
sg68
(lp4283
g61
(g62
g63
NtRp4284
(dp4285
g66
(dp4286
g74
I2
ssg75
g4280
sg68
(lp4287
g61
(g70
g63
NtRp4288
(dp4289
g66
(dp4290
g74
I1
ssg75
Nsg68
(lp4291
g61
(g77
g63
NtRp4292
(dp4293
g66
(dp4294
sg75
g4288
sg68
(lp4295
g61
(g82
g63
NtRp4296
(dp4297
g66
(dp4298
sg75
g4292
sg68
(lp4299
g61
(g62
g63
NtRp4300
(dp4301
g66
(dp4302
g74
I1
ssg75
g4296
sg68
(lp4303
g3924
(S's\t\x00\x00\x00Usu\xc3\xa1rios'
tRp4304
asbasbasbag61
(g77
g63
NtRp4305
(dp4306
g66
(dp4307
sg75
g4288
sg68
(lp4308
g61
(g82
g63
NtRp4309
(dp4310
g66
(dp4311
sg75
g4305
sg68
(lp4312
g61
(g62
g63
NtRp4313
(dp4314
g66
(dp4315
g74
I1
ssg75
g4309
sg68
(lp4316
I00
asbasbasbag61
(g77
g63
NtRp4317
(dp4318
g66
(dp4319
sg75
g4288
sg68
(lp4320
g61
(g82
g63
NtRp4321
(dp4322
g66
(dp4323
sg75
g4317
sg68
(lp4324
g61
(g62
g63
NtRp4325
(dp4326
g66
(dp4327
g74
I1
ssg75
g4321
sg68
(lp4328
S'/manager/users'
p4329
asbasbasbasbasbasbasbag61
(g77
g63
NtRp4330
(dp4331
g66
(dp4332
sg75
g4272
sg68
(lp4333
g61
(g82
g63
NtRp4334
(dp4335
g66
(dp4336
sg75
g4330
sg68
(lp4337
g61
(g62
g63
NtRp4338
(dp4339
g66
(dp4340
g74
I2
ssg75
g4334
sg68
(lp4341
g61
(g70
g63
NtRp4342
(dp4343
g66
(dp4344
g74
I1
ssg75
Nsg68
(lp4345
g61
(g77
g63
NtRp4346
(dp4347
g66
(dp4348
sg75
g4342
sg68
(lp4349
g61
(g82
g63
NtRp4350
(dp4351
g66
(dp4352
sg75
g4346
sg68
(lp4353
g61
(g62
g63
NtRp4354
(dp4355
g66
(dp4356
g74
I1
ssg75
g4350
sg68
(lp4357
g3924
(S't\x06\x00\x00\x00Grupos'
tRp4358
asbasbasbag61
(g77
g63
NtRp4359
(dp4360
g66
(dp4361
sg75
g4342
sg68
(lp4362
g61
(g82
g63
NtRp4363
(dp4364
g66
(dp4365
sg75
g4359
sg68
(lp4366
g61
(g62
g63
NtRp4367
(dp4368
g66
(dp4369
g74
I1
ssg75
g4363
sg68
(lp4370
I00
asbasbasbag61
(g77
g63
NtRp4371
(dp4372
g66
(dp4373
sg75
g4342
sg68
(lp4374
g61
(g82
g63
NtRp4375
(dp4376
g66
(dp4377
sg75
g4371
sg68
(lp4378
g61
(g62
g63
NtRp4379
(dp4380
g66
(dp4381
g74
I1
ssg75
g4375
sg68
(lp4382
S'/manager/groups'
p4383
asbasbasbasbasbasbasbag61
(g77
g63
NtRp4384
(dp4385
g66
(dp4386
sg75
g4272
sg68
(lp4387
g61
(g82
g63
NtRp4388
(dp4389
g66
(dp4390
sg75
g4384
sg68
(lp4391
g61
(g62
g63
NtRp4392
(dp4393
g66
(dp4394
g74
I2
ssg75
g4388
sg68
(lp4395
g61
(g70
g63
NtRp4396
(dp4397
g66
(dp4398
g74
I1
ssg75
Nsg68
(lp4399
g61
(g77
g63
NtRp4400
(dp4401
g66
(dp4402
sg75
g4396
sg68
(lp4403
g61
(g82
g63
NtRp4404
(dp4405
g66
(dp4406
sg75
g4400
sg68
(lp4407
g61
(g62
g63
NtRp4408
(dp4409
g66
(dp4410
g74
I1
ssg75
g4404
sg68
(lp4411
g3924
(S't\x07\x00\x00\x00Membros'
tRp4412
asbasbasbag61
(g77
g63
NtRp4413
(dp4414
g66
(dp4415
sg75
g4396
sg68
(lp4416
g61
(g82
g63
NtRp4417
(dp4418
g66
(dp4419
sg75
g4413
sg68
(lp4420
g61
(g62
g63
NtRp4421
(dp4422
g66
(dp4423
g74
I1
ssg75
g4417
sg68
(lp4424
I00
asbasbasbag61
(g77
g63
NtRp4425
(dp4426
g66
(dp4427
sg75
g4396
sg68
(lp4428
g61
(g82
g63
NtRp4429
(dp4430
g66
(dp4431
sg75
g4425
sg68
(lp4432
g61
(g62
g63
NtRp4433
(dp4434
g66
(dp4435
g74
I1
ssg75
g4429
sg68
(lp4436
S'/manager/membership'
p4437
asbasbasbasbasbasbasbasbasbasbasbasbasbasbasbag61
(g77
g63
NtRp4438
(dp4439
g66
(dp4440
sg75
g4198
sg68
(lp4441
g61
(g82
g63
NtRp4442
(dp4443
g66
(dp4444
sg75
g4438
sg68
(lp4445
g61
(g62
g63
NtRp4446
(dp4447
g66
(dp4448
g74
I4
ssg75
g4442
sg68
(lp4449
g61
(g70
g63
NtRp4450
(dp4451
g66
(dp4452
g74
I3
ssg75
Nsg68
(lp4453
g61
(g77
g63
NtRp4454
(dp4455
g66
(dp4456
sg75
g4450
sg68
(lp4457
g61
(g82
g63
NtRp4458
(dp4459
g66
(dp4460
sg75
g4454
sg68
(lp4461
g61
(g62
g63
NtRp4462
(dp4463
g66
(dp4464
g74
I3
ssg75
g4458
sg68
(lp4465
g61
(g3864
g63
NtRp4466
(dp4467
g66
(dp4468
g3854
g4233
ssg75
Nsg68
(lp4469
S'Login'
p4470
asbasbasbasbag61
(g77
g63
NtRp4471
(dp4472
g66
(dp4473
sg75
g4450
sg68
(lp4474
g61
(g82
g63
NtRp4475
(dp4476
g66
(dp4477
sg75
g4471
sg68
(lp4478
g61
(g62
g63
NtRp4479
(dp4480
g66
(dp4481
g74
I3
ssg75
g4475
sg68
(lp4482
g104
asbasbasbag61
(g77
g63
NtRp4483
(dp4484
g66
(dp4485
sg75
g4450
sg68
(lp4486
g61
(g82
g63
NtRp4487
(dp4488
g66
(dp4489
sg75
g4483
sg68
(lp4490
g61
(g62
g63
NtRp4491
(dp4492
g66
(dp4493
g74
I3
ssg75
g4487
sg68
(lp4494
S'#'
asbasbasbag61
(g77
g63
NtRp4495
(dp4496
g66
(dp4497
sg75
g4450
sg68
(lp4498
g61
(g82
g63
NtRp4499
(dp4500
g66
(dp4501
sg75
g4495
sg68
(lp4502
g61
(g62
g63
NtRp4503
(dp4504
g66
(dp4505
g74
I3
ssg75
g4499
sg68
(lp4506
g61
(g70
g63
NtRp4507
(dp4508
g66
(dp4509
g74
I2
ssg75
Nsg68
(lp4510
g61
(g77
g63
NtRp4511
(dp4512
g66
(dp4513
sg75
g4507
sg68
(lp4514
g61
(g82
g63
NtRp4515
(dp4516
g66
(dp4517
sg75
g4511
sg68
(lp4518
g61
(g62
g63
NtRp4519
(dp4520
g66
(dp4521
g74
I2
ssg75
g4515
sg68
(lp4522
g61
(g70
g63
NtRp4523
(dp4524
g66
(dp4525
g74
I1
ssg75
Nsg68
(lp4526
g61
(g77
g63
NtRp4527
(dp4528
g66
(dp4529
sg75
g4523
sg68
(lp4530
g61
(g82
g63
NtRp4531
(dp4532
g66
(dp4533
sg75
g4527
sg68
(lp4534
g61
(g62
g63
NtRp4535
(dp4536
g66
(dp4537
g74
I1
ssg75
g4531
sg68
(lp4538
g3924
(S't\x06\x00\x00\x00Logout'
tRp4539
asbasbasbag61
(g77
g63
NtRp4540
(dp4541
g66
(dp4542
sg75
g4523
sg68
(lp4543
g61
(g82
g63
NtRp4544
(dp4545
g66
(dp4546
sg75
g4540
sg68
(lp4547
g61
(g62
g63
NtRp4548
(dp4549
g66
(dp4550
g74
I1
ssg75
g4544
sg68
(lp4551
I00
asbasbasbag61
(g77
g63
NtRp4552
(dp4553
g66
(dp4554
sg75
g4523
sg68
(lp4555
g61
(g82
g63
NtRp4556
(dp4557
g66
(dp4558
sg75
g4552
sg68
(lp4559
g61
(g62
g63
NtRp4560
(dp4561
g66
(dp4562
g74
I1
ssg75
g4556
sg68
(lp4563
S'/initial/user/logout'
p4564
asbasbasbasbasbasbasbasbasbasbasbasbasbasbasbasbasbasbasbag61
(g77
g63
NtRp4565
(dp4566
g66
(dp4567
sg75
g3392
sg68
(lp4568
g61
(g82
g63
NtRp4569
(dp4570
g66
(dp4571
g86
g87
ssg75
g4565
sg68
(lp4572
S'meta'
p4573
asbag61
(g82
g63
NtRp4574
(dp4575
g66
(dp4576
g93
g94
ssg75
g4565
sg68
(lp4577
S':'
asbag61
(g82
g63
NtRp4578
(dp4579
g66
(dp4580
sg75
g4565
sg68
(lp4581
g61
(g62
g63
NtRp4582
(dp4583
g66
(dp4584
g74
I5
ssg75
g4578
sg68
(lp4585
g61
(g70
g63
NtRp4586
(dp4587
g66
(dp4588
g74
I4
ssg75
Nsg68
(lp4589
g61
(g77
g63
NtRp4590
(dp4591
g66
(dp4592
sg75
g4586
sg68
(lp4593
g61
(g82
g63
NtRp4594
(dp4595
g66
(dp4596
g86
g87
ssg75
g4590
sg68
(lp4597
S'author'
p4598
asbag61
(g82
g63
NtRp4599
(dp4600
g66
(dp4601
g93
g94
ssg75
g4590
sg68
(lp4602
S':'
asbag61
(g82
g63
NtRp4603
(dp4604
g66
(dp4605
sg75
g4590
sg68
(lp4606
g61
(g62
g63
NtRp4607
(dp4608
g66
(dp4609
g74
I4
ssg75
g4603
sg68
(lp4610
S'Your Name <you@example.com>'
p4611
asbasbasbag61
(g77
g63
NtRp4612
(dp4613
g66
(dp4614
sg75
g4586
sg68
(lp4615
g61
(g82
g63
NtRp4616
(dp4617
g66
(dp4618
g86
g87
ssg75
g4612
sg68
(lp4619
S'description'
p4620
asbag61
(g82
g63
NtRp4621
(dp4622
g66
(dp4623
g93
g94
ssg75
g4612
sg68
(lp4624
S':'
asbag61
(g82
g63
NtRp4625
(dp4626
g66
(dp4627
sg75
g4612
sg68
(lp4628
g61
(g62
g63
NtRp4629
(dp4630
g66
(dp4631
g74
I4
ssg75
g4625
sg68
(lp4632
S'a cool new app'
p4633
asbasbasbag61
(g77
g63
NtRp4634
(dp4635
g66
(dp4636
sg75
g4586
sg68
(lp4637
g61
(g82
g63
NtRp4638
(dp4639
g66
(dp4640
g86
g87
ssg75
g4634
sg68
(lp4641
S'generator'
p4642
asbag61
(g82
g63
NtRp4643
(dp4644
g66
(dp4645
g93
g94
ssg75
g4634
sg68
(lp4646
S':'
asbag61
(g82
g63
NtRp4647
(dp4648
g66
(dp4649
sg75
g4634
sg68
(lp4650
g61
(g62
g63
NtRp4651
(dp4652
g66
(dp4653
g74
I4
ssg75
g4647
sg68
(lp4654
S'Web2py Web Framework'
p4655
asbasbasbag61
(g77
g63
NtRp4656
(dp4657
g66
(dp4658
sg75
g4586
sg68
(lp4659
g61
(g82
g63
NtRp4660
(dp4661
g66
(dp4662
g86
g87
ssg75
g4656
sg68
(lp4663
S'keywords'
p4664
asbag61
(g82
g63
NtRp4665
(dp4666
g66
(dp4667
g93
g94
ssg75
g4656
sg68
(lp4668
S':'
asbag61
(g82
g63
NtRp4669
(dp4670
g66
(dp4671
sg75
g4656
sg68
(lp4672
g61
(g62
g63
NtRp4673
(dp4674
g66
(dp4675
g74
I4
ssg75
g4669
sg68
(lp4676
S'web2py, python, framework'
p4677
asbasbasbasbasbasbasbag61
(g77
g63
NtRp4678
(dp4679
g66
(dp4680
sg75
g3392
sg68
(lp4681
g61
(g82
g63
NtRp4682
(dp4683
g66
(dp4684
g86
g87
ssg75
g4678
sg68
(lp4685
S'models_to_run'
p4686
asbag61
(g82
g63
NtRp4687
(dp4688
g66
(dp4689
g93
g94
ssg75
g4678
sg68
(lp4690
S':'
asbag61
(g82
g63
NtRp4691
(dp4692
g66
(dp4693
sg75
g4678
sg68
(lp4694
g61
(g62
g63
NtRp4695
(dp4696
g66
(dp4697
g74
I5
ssg75
g4691
sg68
(lp4698
g61
(g70
g63
NtRp4699
(dp4700
g66
(dp4701
g74
I4
ssg75
Nsg68
(lp4702
g61
(g77
g63
NtRp4703
(dp4704
g66
(dp4705
sg75
g4699
sg68
(lp4706
g61
(g82
g63
NtRp4707
(dp4708
g66
(dp4709
sg75
g4703
sg68
(lp4710
g61
(g62
g63
NtRp4711
(dp4712
g66
(dp4713
g74
I4
ssg75
g4707
sg68
(lp4714
S'^\\w+\\.py$'
p4715
asbasbasbag61
(g77
g63
NtRp4716
(dp4717
g66
(dp4718
sg75
g4699
sg68
(lp4719
g61
(g82
g63
NtRp4720
(dp4721
g66
(dp4722
sg75
g4716
sg68
(lp4723
g61
(g62
g63
NtRp4724
(dp4725
g66
(dp4726
g74
I4
ssg75
g4720
sg68
(lp4727
S'^initial/\\w+\\.py$'
p4728
asbasbasbag61
(g77
g63
NtRp4729
(dp4730
g66
(dp4731
sg75
g4699
sg68
(lp4732
g61
(g82
g63
NtRp4733
(dp4734
g66
(dp4735
sg75
g4729
sg68
(lp4736
g61
(g62
g63
NtRp4737
(dp4738
g66
(dp4739
g74
I4
ssg75
g4733
sg68
(lp4740
S'^initial/principal/\\w+\\.py$'
p4741
asbasbasbasbasbasbasbag61
(g77
g63
NtRp4742
(dp4743
g66
(dp4744
sg75
g3392
sg68
(lp4745
g61
(g82
g63
NtRp4746
(dp4747
g66
(dp4748
g86
g87
ssg75
g4742
sg68
(lp4749
S'postprocessing'
p4750
asbag61
(g82
g63
NtRp4751
(dp4752
g66
(dp4753
g93
g94
ssg75
g4742
sg68
(lp4754
S':'
asbag61
(g82
g63
NtRp4755
(dp4756
g66
(dp4757
sg75
g4742
sg68
(lp4758
g61
(g62
g63
NtRp4759
(dp4760
g66
(dp4761
g74
I5
ssg75
g4755
sg68
(lp4762
g61
(g70
g63
NtRp4763
(dp4764
g66
(dp4765
g74
I4
ssg75
Nsg68
(lp4766
sbasbasbasbag61
(g77
g63
NtRp4767
(dp4768
g66
(dp4769
sg75
g3392
sg68
(lp4770
g61
(g82
g63
NtRp4771
(dp4772
g66
(dp4773
g86
g87
ssg75
g4767
sg68
(lp4774
S'session_cookie_expires'
p4775
asbag61
(g82
g63
NtRp4776
(dp4777
g66
(dp4778
g93
g94
ssg75
g4767
sg68
(lp4779
S':'
asbag61
(g82
g63
NtRp4780
(dp4781
g66
(dp4782
sg75
g4767
sg68
(lp4783
g61
(g62
g63
NtRp4784
(dp4785
g66
(dp4786
g74
I5
ssg75
g4780
sg68
(lp4787
S'None'
p4788
asbasbasbag61
(g77
g63
NtRp4789
(dp4790
g66
(dp4791
sg75
g3392
sg68
(lp4792
g61
(g82
g63
NtRp4793
(dp4794
g66
(dp4795
g86
g87
ssg75
g4789
sg68
(lp4796
S'session_data_name'
p4797
asbag61
(g82
g63
NtRp4798
(dp4799
g66
(dp4800
g93
g94
ssg75
g4789
sg68
(lp4801
S':'
asbag61
(g82
g63
NtRp4802
(dp4803
g66
(dp4804
sg75
g4789
sg68
(lp4805
g61
(g62
g63
NtRp4806
(dp4807
g66
(dp4808
g74
I5
ssg75
g4802
sg68
(lp4809
S'session_data_projeto'
p4810
asbasbasbag61
(g77
g63
NtRp4811
(dp4812
g66
(dp4813
sg75
g3392
sg68
(lp4814
g61
(g82
g63
NtRp4815
(dp4816
g66
(dp4817
g86
g87
ssg75
g4811
sg68
(lp4818
S'session_file'
p4819
asbag61
(g82
g63
NtRp4820
(dp4821
g66
(dp4822
g93
g94
ssg75
g4811
sg68
(lp4823
S':'
asbag61
(g82
g63
NtRp4824
(dp4825
g66
(dp4826
sg75
g4811
sg68
(lp4827
g61
(g62
g63
NtRp4828
(dp4829
g66
(dp4830
g74
I5
ssg75
g4824
sg68
(lp4831
S"<open file '/var/www/conferencia/applications/projeto/sessions/127.0.0.1-0fe02c32-0739-4f06-a369-3bba6377da8b', mode 'rb+' at 0x1535660>"
p4832
asbasbasbag61
(g77
g63
NtRp4833
(dp4834
g66
(dp4835
sg75
g3392
sg68
(lp4836
g61
(g82
g63
NtRp4837
(dp4838
g66
(dp4839
g86
g87
ssg75
g4833
sg68
(lp4840
S'session_filename'
p4841
asbag61
(g82
g63
NtRp4842
(dp4843
g66
(dp4844
g93
g94
ssg75
g4833
sg68
(lp4845
S':'
asbag61
(g82
g63
NtRp4846
(dp4847
g66
(dp4848
sg75
g4833
sg68
(lp4849
g61
(g62
g63
NtRp4850
(dp4851
g66
(dp4852
g74
I5
ssg75
g4846
sg68
(lp4853
S'/var/www/conferencia/applications/projeto/sessions/127.0.0.1-0fe02c32-0739-4f06-a369-3bba6377da8b'
p4854
asbasbasbag61
(g77
g63
NtRp4855
(dp4856
g66
(dp4857
sg75
g3392
sg68
(lp4858
g61
(g82
g63
NtRp4859
(dp4860
g66
(dp4861
g86
g87
ssg75
g4855
sg68
(lp4862
S'session_id'
p4863
asbag61
(g82
g63
NtRp4864
(dp4865
g66
(dp4866
g93
g94
ssg75
g4855
sg68
(lp4867
S':'
asbag61
(g82
g63
NtRp4868
(dp4869
g66
(dp4870
sg75
g4855
sg68
(lp4871
g61
(g62
g63
NtRp4872
(dp4873
g66
(dp4874
g74
I5
ssg75
g4868
sg68
(lp4875
g479
asbasbasbag61
(g77
g63
NtRp4876
(dp4877
g66
(dp4878
sg75
g3392
sg68
(lp4879
g61
(g82
g63
NtRp4880
(dp4881
g66
(dp4882
g86
g87
ssg75
g4876
sg68
(lp4883
S'session_id_name'
p4884
asbag61
(g82
g63
NtRp4885
(dp4886
g66
(dp4887
g93
g94
ssg75
g4876
sg68
(lp4888
S':'
asbag61
(g82
g63
NtRp4889
(dp4890
g66
(dp4891
sg75
g4876
sg68
(lp4892
g61
(g62
g63
NtRp4893
(dp4894
g66
(dp4895
g74
I5
ssg75
g4889
sg68
(lp4896
g3449
asbasbasbag61
(g77
g63
NtRp4897
(dp4898
g66
(dp4899
sg75
g3392
sg68
(lp4900
g61
(g82
g63
NtRp4901
(dp4902
g66
(dp4903
g86
g87
ssg75
g4897
sg68
(lp4904
S'session_locked'
p4905
asbag61
(g82
g63
NtRp4906
(dp4907
g66
(dp4908
g93
g94
ssg75
g4897
sg68
(lp4909
S':'
asbag61
(g82
g63
NtRp4910
(dp4911
g66
(dp4912
sg75
g4897
sg68
(lp4913
g61
(g62
g63
NtRp4914
(dp4915
g66
(dp4916
g74
I5
ssg75
g4910
sg68
(lp4917
g1540
asbasbasbag61
(g77
g63
NtRp4918
(dp4919
g66
(dp4920
sg75
g3392
sg68
(lp4921
g61
(g82
g63
NtRp4922
(dp4923
g66
(dp4924
g86
g87
ssg75
g4918
sg68
(lp4925
S'session_new'
p4926
asbag61
(g82
g63
NtRp4927
(dp4928
g66
(dp4929
g93
g94
ssg75
g4918
sg68
(lp4930
S':'
asbag61
(g82
g63
NtRp4931
(dp4932
g66
(dp4933
sg75
g4918
sg68
(lp4934
g61
(g62
g63
NtRp4935
(dp4936
g66
(dp4937
g74
I5
ssg75
g4931
sg68
(lp4938
g104
asbasbasbag61
(g77
g63
NtRp4939
(dp4940
g66
(dp4941
sg75
g3392
sg68
(lp4942
g61
(g82
g63
NtRp4943
(dp4944
g66
(dp4945
g86
g87
ssg75
g4939
sg68
(lp4946
S'session_storage_type'
p4947
asbag61
(g82
g63
NtRp4948
(dp4949
g66
(dp4950
g93
g94
ssg75
g4939
sg68
(lp4951
S':'
asbag61
(g82
g63
NtRp4952
(dp4953
g66
(dp4954
sg75
g4939
sg68
(lp4955
g61
(g62
g63
NtRp4956
(dp4957
g66
(dp4958
g74
I5
ssg75
g4952
sg68
(lp4959
g2963
asbasbasbag61
(g77
g63
NtRp4960
(dp4961
g66
(dp4962
sg75
g3392
sg68
(lp4963
g61
(g82
g63
NtRp4964
(dp4965
g66
(dp4966
g86
g87
ssg75
g4960
sg68
(lp4967
S'status'
p4968
asbag61
(g82
g63
NtRp4969
(dp4970
g66
(dp4971
g93
g94
ssg75
g4960
sg68
(lp4972
S':'
asbag61
(g82
g63
NtRp4973
(dp4974
g66
(dp4975
sg75
g4960
sg68
(lp4976
g61
(g62
g63
NtRp4977
(dp4978
g66
(dp4979
g74
I5
ssg75
g4973
sg68
(lp4980
S'200'
p4981
asbasbasbag61
(g77
g63
NtRp4982
(dp4983
g66
(dp4984
sg75
g3392
sg68
(lp4985
g61
(g82
g63
NtRp4986
(dp4987
g66
(dp4988
g86
g87
ssg75
g4982
sg68
(lp4989
S'subtitle'
p4990
asbag61
(g82
g63
NtRp4991
(dp4992
g66
(dp4993
g93
g94
ssg75
g4982
sg68
(lp4994
S':'
asbag61
(g82
g63
NtRp4995
(dp4996
g66
(dp4997
sg75
g4982
sg68
(lp4998
g61
(g62
g63
NtRp4999
(dp5000
g66
(dp5001
g74
I5
ssg75
g4995
sg68
(lp5002
g3924
(S's\r\x00\x00\x00customize me!'
tRp5003
asbasbasbag61
(g77
g63
NtRp5004
(dp5005
g66
(dp5006
sg75
g3392
sg68
(lp5007
g61
(g82
g63
NtRp5008
(dp5009
g66
(dp5010
g86
g87
ssg75
g5004
sg68
(lp5011
S'title'
p5012
asbag61
(g82
g63
NtRp5013
(dp5014
g66
(dp5015
g93
g94
ssg75
g5004
sg68
(lp5016
S':'
asbag61
(g82
g63
NtRp5017
(dp5018
g66
(dp5019
sg75
g5004
sg68
(lp5020
g61
(g62
g63
NtRp5021
(dp5022
g66
(dp5023
g74
I5
ssg75
g5017
sg68
(lp5024
S'Projeto'
p5025
asbasbasbag61
(g77
g63
NtRp5026
(dp5027
g66
(dp5028
sg75
g3392
sg68
(lp5029
g61
(g82
g63
NtRp5030
(dp5031
g66
(dp5032
g86
g87
ssg75
g5026
sg68
(lp5033
S'view'
p5034
asbag61
(g82
g63
NtRp5035
(dp5036
g66
(dp5037
g93
g94
ssg75
g5026
sg68
(lp5038
S':'
asbag61
(g82
g63
NtRp5039
(dp5040
g66
(dp5041
sg75
g5026
sg68
(lp5042
g61
(g62
g63
NtRp5043
(dp5044
g66
(dp5045
g74
I5
ssg75
g5039
sg68
(lp5046
S'initial/principal.html'
p5047
asbasbasbasbasbsS'locals'
p5048
(dp5049
S'exc'
p5050
S'ProgrammingError(\'ERROR\', \'42P01\', \'relation "meetme" does not exist\')'
p5051
sS'msg_class'
p5052
S"<class 'gluon.contrib.pg8000.protocol.ReadyForQuery'>"
p5053
sS'self'
p5054
S'<gluon.contrib.pg8000.protocol.MessageReader object>'
p5055
sg46
S'()'
p5056
sS'handler'
p5057
S'<function <lambda>>'
p5058
sS'kwargs'
p5059
g21
sS'msg'
p5060
S'<ReadyForQuery Idle in Failed Transaction>'
p5061
sS'msg_handled'
p5062
g1540
sS'retval'
p5063
S'1'
sssS'traceback'
p5064
S'Traceback (most recent call last):\n  File "/var/www/conferencia/gluon/restricted.py", line 212, in restricted\n    exec ccode in environment\n  File "/var/www/conferencia/applications/projeto/models/models.py", line 14, in <module>\n    primarykey=[\'confno\']\n  File "/var/www/conferencia/gluon/dal.py", line 7186, in define_table\n    table = self.lazy_define_table(tablename,*fields,**args)\n  File "/var/www/conferencia/gluon/dal.py", line 7222, in lazy_define_table\n    polymodel=polymodel)\n  File "/var/www/conferencia/gluon/dal.py", line 963, in create_table\n    fake_migrate=fake_migrate)\n  File "/var/www/conferencia/gluon/dal.py", line 1069, in migrate_table\n    self.execute(sub_query)\n  File "/var/www/conferencia/gluon/dal.py", line 1709, in execute\n    return self.log_execute(*a, **b)\n  File "/var/www/conferencia/gluon/dal.py", line 1703, in log_execute\n    ret = self.cursor.execute(*a, **b)\n  File "/var/www/conferencia/gluon/contrib/pg8000/dbapi.py", line 246, in _fn\n    return fn(self, *args, **kwargs)\n  File "/var/www/conferencia/gluon/contrib/pg8000/dbapi.py", line 317, in execute\n    self._execute(operation, args)\n  File "/var/www/conferencia/gluon/contrib/pg8000/dbapi.py", line 322, in _execute\n    self.cursor.execute(new_query, *new_args)\n  File "/var/www/conferencia/gluon/contrib/pg8000/interface.py", line 399, in execute\n    self._stmt.execute(*args, **kwargs)\n  File "/var/www/conferencia/gluon/contrib/pg8000/interface.py", line 169, in execute\n    self._row_desc, cmd = self.c.bind(self._portal_name, self._statement_name, args, self._parse_row_desc, kwargs.get("stream"))\n  File "/var/www/conferencia/gluon/contrib/pg8000/protocol.py", line 943, in _fn\n    return fn(self, *args, **kwargs)\n  File "/var/www/conferencia/gluon/contrib/pg8000/protocol.py", line 1142, in bind\n    return reader.handle_messages()\n  File "/var/www/conferencia/gluon/contrib/pg8000/protocol.py", line 911, in handle_messages\n    retval = handler(msg, *args, **kwargs)\n  File "/var/www/conferencia/gluon/contrib/pg8000/protocol.py", line 1181, in _bind_nodata\n    reader.handle_messages()\n  File "/var/www/conferencia/gluon/contrib/pg8000/protocol.py", line 916, in handle_messages\n    raise exc\nProgrammingError: (\'ERROR\', \'42P01\', \'relation "meetme" does not exist\')\n'
p5065
s.