(dp1
S'output'
p2
S'<class \'gluon.contrib.pg8000.errors.ProgrammingError\'> (\'ERROR\', \'23502\', \'null value in column "confno" violates not-null constraint\')'
p3
sS'layer'
p4
S'/var/www/conferencia/applications/projeto/controllers/initial.py'
p5
sS'code'
p6
S'# coding: utf-8\n\ndef show_cliente():\n\tresponse.title="Eventos"\n\n\tgrid = SQLFORM.grid(db.meetme,\n\t\tuser_signature=False, searchable=True, csv=False, \n\t\tpaginate=50, details=False,  \n\t\tignore_rw = True, maxtextlength=36, \n    \t)\n\treturn response.render("initial/show_grid.html", grid=grid)\n\n@auth.requires_login()\ndef show_servidor():\n\tresponse.title="Servidores"\n\n\tdb.args=Servidor.id.readable=False\n\tgrid = SQLFORM.grid(Servidor,\n\t\tuser_signature=True, searchable=True, csv=False,\n\t\tpaginate=50, details=False, \n\t\tignore_rw = True, maxtextlength=26,\n\t\tcreate=auth.has_membership("admin"),\n\t\teditable=auth.has_membership("admin"),\n\t\tdeletable=auth.has_membership("admin"),  \n    \tlinks = [lambda row: A(\'hosts\', _class=\'btn\', \n    \t\t_title=\'ver servidores\', \n    \t\t_href=URL("initial", "/servidor_host", \n    \t\tvars=dict(f=row.id, n1=\'Servidores\', p1=\'show_servidor\')))]\n\t\t)\n\treturn response.render("initial/show_grid.html", grid=grid)\n\n@auth.requires_login()\ndef show_distro():\n\tresponse.title="Distribui\xc3\xa7\xc3\xb5es"\n\n\tdb.args=Distro.id.readable=False\n\tdb.args=Distro.img.readable=False\n\tgrid = SQLFORM.grid(Distro,\n\t\tuser_signature=True, searchable=True, csv=False,\n\t\tpaginate=50, details=False, ignore_rw = True, \n\t\tmaxtextlength=26, links_placement=\'left\',\n\t\tcreate=auth.has_membership("admin"),\n\t\teditable=auth.has_membership("admin"),\n\t\tdeletable=auth.has_membership("admin"),  \n    \tlinks = [lambda row: A(\'hosts\', \n    \t\t_class=\'btn\', \n    \t\t_title=\'ver servidores\', \n    \t\t_href=URL("initial", "/distro_host", \n    \t\tvars=dict(f=row.id, n1=\'Distros\', p1=\'show_distro\'))), \n    \tdict(header=\'\',body=lambda row: A( IMG(_src=URL("static", "images", args=(row.img) ))))]\n\t\t)\n\treturn response.render("initial/show_grid.html", grid=grid)\n\n\n@auth.requires_login()\ndef cliente_host():\n\tfiltro = request.vars[\'f\']\n\tqueryset = db(db.cliente.id == filtro)\n\trows = queryset.select()\n\tcliente = rows[0]\n\tresponse.title = cliente.nome\n\tprint cliente\n\n\tnome_ant1 = request.vars[\'n1\']\n\tfuncao_ant1 = request.vars[\'p1\']\n\tnome_atual = cliente.nome\n\n\tquery = ((db.hosts.id_cliente == filtro) & (db.distro.id == db.hosts.id_distro))\n\tlinks = [dict(header=\'\',body=lambda row: A( IMG(_src=URL("static", "images", args=(row.distro.img)) ))), \n\t lambda row: A(\'Detalhes\', \n    \t\t      _class=\'btn\', \n    \t\t      _title=\'Detalhes\', \n    \t\t      _href=URL("initial", "/detalhes_nav", \n    \t\t      vars=dict(f=row.hosts.id, c=filtro, n=cliente.nome, \n    \t\t      \t\t\tn1=\'Clientes\', p1=\'show_cliente\', p=\'cliente_host\'))),\n\t lambda row: A(\'Editar\', \n    \t\t      _class=\'btn\', \n    \t\t      _title=\'Editar\', \n    \t\t      _href=URL("initial", "/edit_host", \n    \t\t      vars=dict(f=row.hosts.id, c=filtro, n=cliente.nome, \n    \t\t      \t\tn1=\'Clientes\', p1=\'show_cliente\', p=\'cliente_host\')))]\n\tdb.hosts.id.readable=False\n\tdb.distro.img.readable=False\n\t\n\tfields = (db.hosts.id, db.hosts.id_servidor, db.hosts.id_distro, db.distro.img, \n\t\t\t  db.hosts.ip_chegada, db.hosts.porta_ssh, db.hosts.gateway)\n\theaders = {\'hosts.id\':   \'ID\',\n\t\t\t   \'hosts.id_cliente\': \'Cliente\',\n               \'hosts.id_servidor\': \'Servidor\',\n               \'hosts.id_distro\': \'Distro\',\n               \'hosts.nome\': \'Nome\',\n\t           \'hosts.servicos\': \'Servicos\'}\n\tgrid = SQLFORM.grid(query=query, fields=fields, headers=headers, csv=False,\n\t\t\t\t\t\tdetails=False, searchable=False, maxtextlength=23, links=links, \n\t\t\t\t\t\tlinks_placement=\'left\', editable=False, create=False)\n\n\treturn response.render("initial/show_grid2.html", grid=grid, nome_ant1=nome_ant1, \n\t\t\t\t\t\tfuncao_ant1=funcao_ant1, nome_atual=nome_atual)\n\n@auth.requires_login()\ndef servidor_host():\n\tfiltro = request.vars[\'f\']\n\tqueryset = db(db.servidor.id == filtro)\n\trows = queryset.select()\n\tservidor = rows[0]\n\tresponse.title = servidor.nome\n\n\tnome_ant1 = request.vars[\'n1\']\n\tfuncao_ant1 = request.vars[\'p1\']\n\tnome_atual = servidor.nome\t\n\n\tdb.distro.img.readable=False\n\tdb.hosts.id.readable=False\n\tquery = ((db.hosts.id_servidor == filtro) & (db.distro.id == db.hosts.id_distro))\n\n\tlinks = [dict(header=\'\',body=lambda row: A( IMG(_src=URL("static", "images", args=(row.distro.img)) ))), \n\t lambda row: A(\'Detalhes\', \n    \t\t      _class=\'btn\', \n    \t\t      _title=\'Detalhes\', \n    \t\t      _href=URL("initial", "/detalhes_nav", \n    \t\t      vars=dict(f=row.hosts.id, c=filtro, n=servidor.nome, \n    \t\t      \t\tn1=\'Servidores\', p1=\'show_servidor\', p=\'servidor_host\'))),\n\t lambda row: A(\'Editar\', \n    \t\t      _class=\'btn\', \n    \t\t      _title=\'Editar\', \n    \t\t      _href=URL("initial", "/edit_host", \n    \t\t      vars=dict(f=row.hosts.id, c=filtro, n=servidor.nome, \n    \t\t      \t\tn1=\'Servidores\', p1=\'show_servidor\', p=\'servidor_host\')))]\n\n\tfields = (db.hosts.id, db.hosts.id_cliente, db.hosts.id_distro, db.distro.img, \n\t\t\t\tdb.hosts.ip_chegada, db.hosts.porta_ssh, db.hosts.gateway)\n\theaders = {\'hosts.id\':   \'ID\',\n\t\t\t   \'hosts.id_cliente\': \'Cliente\',\n               \'hosts.id_servidor\': \'Servidor\',\n               \'hosts.id_distro\': \'Distro\',\n               \'hosts.nome\': \'Nome\',\n\t           \'hosts.servicos\': \'Servicos\'}\n\tgrid = SQLFORM.grid(query=query, fields=fields, headers=headers, csv=False,\n\t\t\t\t\t\tdetails=False, searchable=False, maxtextlength=23, links=links, \n\t\t\t\t\t\tlinks_placement=\'left\', editable=False, create=False)\n\n\treturn response.render("initial/show_grid2.html", grid=grid, nome_ant1=nome_ant1, \n\t\t\t\t\t\tfuncao_ant1=funcao_ant1, nome_atual=nome_atual)\n\n@auth.requires_login()\ndef distro_host():\n\tfiltro = request.vars[\'f\']\n\tqueryset = db(db.distro.id == filtro)\n\trows = queryset.select()\n\tdistro = rows[0]\n\tresponse.title = distro.nome\n\n\tnome_ant1 = request.vars[\'n1\']\n\tfuncao_ant1 = request.vars[\'p1\']\n\tnome_atual = distro.nome\t\n\t\n\tdb.hosts.id.readable=False\n\tdb.distro.img.readable=False\n\tquery = ((db.hosts.id_distro == filtro) & (db.distro.id == db.hosts.id_distro))\n\tlinks = [dict(header=\'\',body=lambda row: A( IMG(_src=URL("static", "images", args=(row.distro.img)) ))), \n\t lambda row: A(\'Detalhes\', \n    \t\t      _class=\'btn\', \n    \t\t      _title=\'Detalhes\', \n    \t\t      _href=URL("initial", "/detalhes_nav", \n    \t\t      vars=dict(f=row.hosts.id, c=filtro, n=distro.nome, \n    \t\t      \t\tn1=\'Distros\', p1=\'show_distro\', p=\'distro_host\'))),\n\t lambda row: A(\'Editar\', \n    \t\t      _class=\'btn\', \n    \t\t      _title=\'Editar\', \n    \t\t      _href=URL("initial", "/edit_host", \n    \t\t      vars=dict(f=row.hosts.id, c=filtro, n=distro.nome, \n    \t\t      \t\tn1=\'Distros\', p1=\'show_distro\', p=\'distro_host\')))]\n\n\tfields = (db.hosts.id, db.hosts.id_cliente, db.hosts.id_servidor, db.distro.img, \n\t\t\t  db.hosts.ip_chegada, db.hosts.porta_ssh, db.hosts.gateway)\n\theaders = {\'hosts.id\':   \'ID\',\n\t\t\t\t\'hosts.id_cliente\': \'Cliente\',\n               \'hosts.id_servidor\': \'Servidor\',\n               \'hosts.id_distro\': \'Distro\',\n               \'hosts.nome\': \'Nome\',\n\t           \'hosts.servicos\': \'Servicos\'}\n\tgrid = SQLFORM.grid(query=query, fields=fields, headers=headers, csv=False,\n\t\t\t\t\t\tdetails=False, searchable=False, maxtextlength=23, links=links, \n\t\t\t\t\t\tlinks_placement=\'left\', editable=False, create=False)\n\n\treturn response.render("initial/show_grid2.html", grid=grid, nome_ant1=nome_ant1, \n\t\t\t\t\t\tfuncao_ant1=funcao_ant1, nome_atual=nome_atual)\n\ndef detalhes_nav():\n\t#detalhes\n\tfiltro = request.vars[\'f\'] #id_host\n\tid_cliente = request.vars[\'c\'] #id_cliente\n\tnome_ant = request.vars[\'n\'] #nome (asterisk ou agronelli ou debian)\n\tnome_ant1 = request.vars[\'n1\'] #nome (servidores ou clientes ou distros)\n\tfuncao_ant = request.vars[\'p\'] #funcao(host_servidores)\n\tfuncao_ant1 = request.vars[\'p1\'] #funcao(show_servidores)\n\t\n\n\tquery = ((db.hosts.id == filtro) & (db.hosts.id_cliente == db.cliente.id)\n\t \t    & (db.hosts.id_servidor == db.servidor.id) \n\t \t    & (db.hosts.id_distro == db.distro.id)) \n\tdetalhes = db.hosts(query)\n\t\n\t\n\treturn response.render("initial/detalhes_host.html", detalhes=detalhes, \n\t\t\t\tid_cliente=id_cliente, funcao_ant=funcao_ant, funcao_ant1=funcao_ant1, \n\t\t\t\tnome_ant=nome_ant, nome_ant1=nome_ant1, filtro=filtro)\n\n\ndef edit_host():\n    form = SQLFORM(db.hosts, request.vars[\'f\'], submit_button=\'Editar\', fields = [\'id_cliente\', \'id_servidor\', \'id_distro\', \'servicos\',\n\t\t\t\t\'if1\', \'ip1\', \'masc1\', \'obs1\', \'if2\', \'ip2\', \'masc2\', \'obs2\',\n\t\t\t\t\'if3\', \'ip3\', \'masc3\', \'obs3\', \'if4\', \'ip4\', \'masc4\', \'obs4\',\n\t\t\t\t\'nome\', \'ip_chegada\', \'porta_ssh\', \'gateway\', \'rotas\', \'obs_gerais\'],\n\t\t\t\tlabels = {\'id_cliente\':\'Cliente\', \'id_servidor\':\'Servidor\', \'id_distro\':\'Distro\',\n\t\t\t\t\'if1\':\'Interface 1\', \'ip1\':\'IP\', \'masc1\':\'M\xc3\xa1scara\', \'obs1\':\'Obs\',\n\t\t\t\t\'if2\':\'Interface 2\', \'ip2\':\'IP\', \'masc2\':\'M\xc3\xa1scara\', \'obs2\':\'Obs\',\n\t\t\t\t\'if3\':\'Interface 3\', \'ip3\':\'IP\', \'masc3\':\'M\xc3\xa1scara\', \'obs3\':\'Obs\',\n\t\t\t\t\'if4\':\'Interface 4\', \'ip4\':\'IP\', \'masc4\':\'M\xc3\xa1scara\', \'obs4\':\'Obs\'})\n\n    if form.process().accepted:\n       response.flash = \'Editado com sucesso\'\n    elif form.errors:\n       response.flash = \'Ops, algo n\xc3\xa3o est\xc3\xa1 correto\'\n    else:\n       response.flash = \'Edite os dados do host\'\n\n    return response.render("initial/show_form.html", form=form, id_cliente = request.vars[\'c\'], \n    \t\t\t\tnome_ant = request.vars[\'n\'], nome_ant1 = request.vars[\'n1\'], \n    \t\t\t\tfuncao_ant = request.vars[\'p\'], funcao_ant1 = request.vars[\'p1\'])\n\n\n@auth.requires_login()\ndef interface():\n\t#adicionar\n    form = SQLFORM(db.hosts, submit_button=\'Adicionar\', \n    \t\t\tfields = [\'id_cliente\', \'id_servidor\', \'id_distro\', \'servicos\',\n\t\t\t\t\'if1\', \'ip1\', \'masc1\', \'obs1\', \'if2\', \'ip2\', \'masc2\', \'obs2\',\n\t\t\t\t\'if3\', \'ip3\', \'masc3\', \'obs3\', \'if4\', \'ip4\', \'masc4\', \'obs4\',\n\t\t\t\t\'nome\', \'ip_chegada\', \'porta_ssh\', \'gateway\', \'rotas\', \'obs_gerais\'], \n\t\t\t\tlabels = {\'id_cliente\':\'Cliente\', \'id_servidor\':\'Servidor\', \'id_distro\':\'Distro\',\n\t\t\t\t\'if1\':\'Interface 1\', \'ip1\':\'IP\', \'masc1\':\'M\xc3\xa1scara\', \'obs1\':\'Obs\',\n\t\t\t\t\'if2\':\'Interface 2\', \'ip2\':\'IP\', \'masc2\':\'M\xc3\xa1scara\', \'obs2\':\'Obs\',\n\t\t\t\t\'if3\':\'Interface 3\', \'ip3\':\'IP\', \'masc3\':\'M\xc3\xa1scara\', \'obs3\':\'Obs\',\n\t\t\t\t\'if4\':\'Interface 4\', \'ip4\':\'IP\', \'masc4\':\'M\xc3\xa1scara\', \'obs4\':\'Obs\'})\n   \n    if form.process().accepted:\n    \thost = request.vars\n    \temail(host)\n    \tresponse.flash = \'Inserido com sucesso\'\t\t\n    elif form.errors:\n       response.flash = \'Ops, algo n\xc3\xa3o est\xc3\xa1 correto\'\n    else:\n       response.flash = \'Insira os dados do novo host\'\n    return response.render("initial/show_form2.html", form=form)\n\ndef about():\n\tfiltro = request.vars[\'f\']\n\tquery = ((db.hosts.id_servidor == filtro) & (db.distro.id == db.hosts.id_distro))\n\tfields = (db.hosts.id, db.hosts.id_cliente, db.hosts.id_distro, db.distro.img, \n\t\t\t\tdb.hosts.ip_chegada, db.hosts.porta_ssh, db.hosts.gateway)\n\theaders = {\'host.id\':   \'ID\',\n               \'host.id_servidor\': \'Servidor\',\n               \'host.id_distro\': \'Distro\',\n               \'host.nome\': \'Nome\',\n\t           \'host.servicos\': \'Servicos\'}\n\tgrid = SQLFORM.grid(query=query, fields=fields, headers=headers, csv=False,\n\t\t\t\t\t\tdetails=False, maxtextlength=23, searchable=True, editable=False, create=False)\n\n\treturn response.render("initial/teste.html", grid=grid,)\n\ndef user():\n\t#if request.args(0) == \'register\':\n    #    \tdb.auth_user.bio.writable = db.auth_user.bio.readable = False\n\treturn response.render("initial/user.html", user=auth())\n\ndef register():\n\treturn auth.register()\n\ndef login():\n        return auth.login()\n\ndef account():\n    return dict(register=auth.register(),\n                login=auth.login())\n\t\ndef download():\n\treturn response.download(request, db)\n\n\ndef principal():\n\tresponse.title="Usu\xc3\xa1rios"\n\n\tgrid = SQLFORM.grid(db.usuario,\n\t\tuser_signature=False, searchable=True, csv=False, \n\t\tpaginate=50, details=False,  \n\t\tignore_rw = True, maxtextlength=36, \n    \t)\n\treturn response.render("initial/show_grid.html", grid=grid)\n\n\t\ndef detalhes_clean():\n\tfiltro = request.vars[\'f\'] #id_host\n\t\t\n\n\tquery = ((db.hosts.id == filtro) & (db.hosts.id_cliente == db.cliente.id)\n\t \t    & (db.hosts.id_servidor == db.servidor.id) \n\t \t    & (db.hosts.id_distro == db.distro.id)) \n\tdetalhes = db.hosts(query)\n\n\t\n\treturn response.render("initial/detalhes_host_clean.html", detalhes=detalhes)\n\ndef email(host):\n\tif auth.has_membership(\'voip\'):\n\t\tmail.send(\n\t\t\tto="fndiaz02@gmail.com",\n\t\t\tsubject="host adicionado",\n\t\t\tmessage="<html>Um novo host foi adicionado pelo usu\xc3\xa1rio %s <br>nome: %s <br>vpn: %s<br><br>\xc3\x89 preciso fazer a instala\xc3\xa7\xc3\xa3o do client zabbix e bacula</html>" % (auth.user.first_name, host.nome, host.ip_chegada,)\n\t\t\t)\n\telif auth.has_membership(\'internet\'):\n\t\tmail.send(\n\t\t\tto="fernando@ad2.com.br",\n\t\t\tsubject="host adicionado",\n\t\t\tmessage="<html>Um novo host foi adicionado pelo usu\xc3\xa1rio %s <br>nome: %s <br>vpn: %s<br><br>\xc3\x89 preciso fazer a instala\xc3\xa7\xc3\xa3o do client zabbix e bacula</html>" % (auth.user.first_name, host.nome, host.ip_chegada,)\n\t\t\t)\n\nresponse._vars=response._caller(show_cliente)\n'
p7
sS'snapshot'
p8
(dp9
S'exception'
p10
(dp11
S'__module__'
p12
S"'gluon.contrib.pg8000.errors'"
p13
sS'__getslice__'
p14
S"<method-wrapper '__getslice__' of ProgrammingError object>"
p15
sS'__str__'
p16
S"<method-wrapper '__str__' of ProgrammingError object>"
p17
sS'__reduce__'
p18
S'<built-in method __reduce__ of ProgrammingError object>'
p19
sS'__dict__'
p20
S'{}'
p21
sS'__sizeof__'
p22
S'<built-in method __sizeof__ of ProgrammingError object>'
p23
sS'__weakref__'
p24
S'None'
p25
sS'__init__'
p26
S"<method-wrapper '__init__' of ProgrammingError object>"
p27
sS'__setattr__'
p28
S"<method-wrapper '__setattr__' of ProgrammingError object>"
p29
sS'__reduce_ex__'
p30
S'<built-in method __reduce_ex__ of ProgrammingError object>'
p31
sS'__new__'
p32
S'<built-in method __new__ of type object>'
p33
sS'__format__'
p34
S'<built-in method __format__ of ProgrammingError object>'
p35
sS'__class__'
p36
S"<class 'gluon.contrib.pg8000.errors.ProgrammingError'>"
p37
sS'__doc__'
p38
S'None'
p39
sS'__getitem__'
p40
S"<method-wrapper '__getitem__' of ProgrammingError object>"
p41
sS'__setstate__'
p42
S'<built-in method __setstate__ of ProgrammingError object>'
p43
sS'__getattribute__'
p44
S"<method-wrapper '__getattribute__' of ProgrammingError object>"
p45
sS'args'
p46
S'(\'ERROR\', \'23502\', \'null value in column "confno" violates not-null constraint\')'
p47
sS'__subclasshook__'
p48
S'<built-in method __subclasshook__ of type object>'
p49
sS'__unicode__'
p50
S'<built-in method __unicode__ of ProgrammingError object>'
p51
sS'__delattr__'
p52
S"<method-wrapper '__delattr__' of ProgrammingError object>"
p53
sS'__repr__'
p54
S"<method-wrapper '__repr__' of ProgrammingError object>"
p55
sS'__hash__'
p56
S"<method-wrapper '__hash__' of ProgrammingError object>"
p57
ssS'evalue'
p58
S'(\'ERROR\', \'23502\', \'null value in column "confno" violates not-null constraint\')'
p59
sS'request'
p60
ccopy_reg
_reconstructor
p61
(cgluon.html
BEAUTIFY
p62
c__builtin__
object
p63
NtRp64
(dp65
S'attributes'
p66
(dp67
sS'components'
p68
(lp69
g61
(cgluon.html
TABLE
p70
g63
NtRp71
(dp72
g66
(dp73
S'level'
p74
I5
ssS'parent'
p75
Nsg68
(lp76
g61
(cgluon.html
TR
p77
g63
NtRp78
(dp79
g66
(dp80
sg75
g71
sg68
(lp81
g61
(cgluon.html
TD
p82
g63
NtRp83
(dp84
g66
(dp85
S'_style'
p86
S'font-weight:bold;vertical-align:top'
p87
ssg75
g78
sg68
(lp88
S'ajax'
p89
asbag61
(g82
g63
NtRp90
(dp91
g66
(dp92
S'_valign'
p93
S'top'
p94
ssg75
g78
sg68
(lp95
S':'
asbag61
(g82
g63
NtRp96
(dp97
g66
(dp98
sg75
g78
sg68
(lp99
g61
(g62
g63
NtRp100
(dp101
g66
(dp102
g74
I5
ssg75
g96
sg68
(lp103
S'False'
p104
asbasbasbag61
(g77
g63
NtRp105
(dp106
g66
(dp107
sg75
g71
sg68
(lp108
g61
(g82
g63
NtRp109
(dp110
g66
(dp111
g86
g87
ssg75
g105
sg68
(lp112
S'application'
p113
asbag61
(g82
g63
NtRp114
(dp115
g66
(dp116
g93
g94
ssg75
g105
sg68
(lp117
S':'
asbag61
(g82
g63
NtRp118
(dp119
g66
(dp120
sg75
g105
sg68
(lp121
g61
(g62
g63
NtRp122
(dp123
g66
(dp124
g74
I5
ssg75
g118
sg68
(lp125
S'projeto'
p126
asbasbasbag61
(g77
g63
NtRp127
(dp128
g66
(dp129
sg75
g71
sg68
(lp130
g61
(g82
g63
NtRp131
(dp132
g66
(dp133
g86
g87
ssg75
g127
sg68
(lp134
g46
asbag61
(g82
g63
NtRp135
(dp136
g66
(dp137
g93
g94
ssg75
g127
sg68
(lp138
S':'
asbag61
(g82
g63
NtRp139
(dp140
g66
(dp141
sg75
g127
sg68
(lp142
g61
(g62
g63
NtRp143
(dp144
g66
(dp145
g74
I5
ssg75
g139
sg68
(lp146
g61
(g70
g63
NtRp147
(dp148
g66
(dp149
g74
I4
ssg75
Nsg68
(lp150
g61
(g77
g63
NtRp151
(dp152
g66
(dp153
sg75
g147
sg68
(lp154
g61
(g82
g63
NtRp155
(dp156
g66
(dp157
sg75
g151
sg68
(lp158
g61
(g62
g63
NtRp159
(dp160
g66
(dp161
g74
I4
ssg75
g155
sg68
(lp162
S'new'
p163
asbasbasbag61
(g77
g63
NtRp164
(dp165
g66
(dp166
sg75
g147
sg68
(lp167
g61
(g82
g63
NtRp168
(dp169
g66
(dp170
sg75
g164
sg68
(lp171
g61
(g62
g63
NtRp172
(dp173
g66
(dp174
g74
I4
ssg75
g168
sg68
(lp175
S'meetme'
p176
asbasbasbasbasbasbasbag61
(g77
g63
NtRp177
(dp178
g66
(dp179
sg75
g71
sg68
(lp180
g61
(g82
g63
NtRp181
(dp182
g66
(dp183
g86
g87
ssg75
g177
sg68
(lp184
S'body'
p185
asbag61
(g82
g63
NtRp186
(dp187
g66
(dp188
g93
g94
ssg75
g177
sg68
(lp189
S':'
asbag61
(g82
g63
NtRp190
(dp191
g66
(dp192
sg75
g177
sg68
(lp193
g61
(g62
g63
NtRp194
(dp195
g66
(dp196
g74
I5
ssg75
g190
sg68
(lp197
S"<open file '<fdopen>', mode 'w+b' at 0x7f32e438b780>"
p198
asbasbasbag61
(g77
g63
NtRp199
(dp200
g66
(dp201
sg75
g71
sg68
(lp202
g61
(g82
g63
NtRp203
(dp204
g66
(dp205
g86
g87
ssg75
g199
sg68
(lp206
S'cid'
p207
asbag61
(g82
g63
NtRp208
(dp209
g66
(dp210
g93
g94
ssg75
g199
sg68
(lp211
S':'
asbag61
(g82
g63
NtRp212
(dp213
g66
(dp214
sg75
g199
sg68
(lp215
g61
(g62
g63
NtRp216
(dp217
g66
(dp218
g74
I5
ssg75
g212
sg68
(lp219
S'None'
p220
asbasbasbag61
(g77
g63
NtRp221
(dp222
g66
(dp223
sg75
g71
sg68
(lp224
g61
(g82
g63
NtRp225
(dp226
g66
(dp227
g86
g87
ssg75
g221
sg68
(lp228
S'client'
p229
asbag61
(g82
g63
NtRp230
(dp231
g66
(dp232
g93
g94
ssg75
g221
sg68
(lp233
S':'
asbag61
(g82
g63
NtRp234
(dp235
g66
(dp236
sg75
g221
sg68
(lp237
g61
(g62
g63
NtRp238
(dp239
g66
(dp240
g74
I5
ssg75
g234
sg68
(lp241
S'127.0.0.1'
p242
asbasbasbag61
(g77
g63
NtRp243
(dp244
g66
(dp245
sg75
g71
sg68
(lp246
g61
(g82
g63
NtRp247
(dp248
g66
(dp249
g86
g87
ssg75
g243
sg68
(lp250
S'controller'
p251
asbag61
(g82
g63
NtRp252
(dp253
g66
(dp254
g93
g94
ssg75
g243
sg68
(lp255
S':'
asbag61
(g82
g63
NtRp256
(dp257
g66
(dp258
sg75
g243
sg68
(lp259
g61
(g62
g63
NtRp260
(dp261
g66
(dp262
g74
I5
ssg75
g256
sg68
(lp263
S'initial'
p264
asbasbasbag61
(g77
g63
NtRp265
(dp266
g66
(dp267
sg75
g71
sg68
(lp268
g61
(g82
g63
NtRp269
(dp270
g66
(dp271
g86
g87
ssg75
g265
sg68
(lp272
S'cookies'
p273
asbag61
(g82
g63
NtRp274
(dp275
g66
(dp276
g93
g94
ssg75
g265
sg68
(lp277
S':'
asbag61
(g82
g63
NtRp278
(dp279
g66
(dp280
sg75
g265
sg68
(lp281
g61
(g62
g63
NtRp282
(dp283
g66
(dp284
g74
I5
ssg75
g278
sg68
(lp285
g61
(g70
g63
NtRp286
(dp287
g66
(dp288
g74
I4
ssg75
Nsg68
(lp289
g61
(g77
g63
NtRp290
(dp291
g66
(dp292
sg75
g286
sg68
(lp293
g61
(g82
g63
NtRp294
(dp295
g66
(dp296
g86
g87
ssg75
g290
sg68
(lp297
S'session_id_admin'
p298
asbag61
(g82
g63
NtRp299
(dp300
g66
(dp301
g93
g94
ssg75
g290
sg68
(lp302
S':'
asbag61
(g82
g63
NtRp303
(dp304
g66
(dp305
sg75
g290
sg68
(lp306
g61
(g62
g63
NtRp307
(dp308
g66
(dp309
g74
I4
ssg75
g303
sg68
(lp310
S'127.0.0.1-f08163e7-63a0-4e97-8334-13b9dc892d78'
p311
ag61
(g70
g63
NtRp312
(dp313
g66
(dp314
g74
I3
ssg75
Nsg68
(lp315
g61
(g77
g63
NtRp316
(dp317
g66
(dp318
sg75
g312
sg68
(lp319
g61
(g82
g63
NtRp320
(dp321
g66
(dp322
g86
g87
ssg75
g316
sg68
(lp323
S'comment'
p324
asbag61
(g82
g63
NtRp325
(dp326
g66
(dp327
g93
g94
ssg75
g316
sg68
(lp328
S':'
asbag61
(g82
g63
NtRp329
(dp330
g66
(dp331
sg75
g316
sg68
(lp332
g61
(g62
g63
NtRp333
(dp334
g66
(dp335
g74
I3
ssg75
g329
sg68
(lp336
S''
asbasbasbag61
(g77
g63
NtRp337
(dp338
g66
(dp339
sg75
g312
sg68
(lp340
g61
(g82
g63
NtRp341
(dp342
g66
(dp343
g86
g87
ssg75
g337
sg68
(lp344
S'domain'
p345
asbag61
(g82
g63
NtRp346
(dp347
g66
(dp348
g93
g94
ssg75
g337
sg68
(lp349
S':'
asbag61
(g82
g63
NtRp350
(dp351
g66
(dp352
sg75
g337
sg68
(lp353
g61
(g62
g63
NtRp354
(dp355
g66
(dp356
g74
I3
ssg75
g350
sg68
(lp357
S''
asbasbasbag61
(g77
g63
NtRp358
(dp359
g66
(dp360
sg75
g312
sg68
(lp361
g61
(g82
g63
NtRp362
(dp363
g66
(dp364
g86
g87
ssg75
g358
sg68
(lp365
S'expires'
p366
asbag61
(g82
g63
NtRp367
(dp368
g66
(dp369
g93
g94
ssg75
g358
sg68
(lp370
S':'
asbag61
(g82
g63
NtRp371
(dp372
g66
(dp373
sg75
g358
sg68
(lp374
g61
(g62
g63
NtRp375
(dp376
g66
(dp377
g74
I3
ssg75
g371
sg68
(lp378
S''
asbasbasbag61
(g77
g63
NtRp379
(dp380
g66
(dp381
sg75
g312
sg68
(lp382
g61
(g82
g63
NtRp383
(dp384
g66
(dp385
g86
g87
ssg75
g379
sg68
(lp386
S'httponly'
p387
asbag61
(g82
g63
NtRp388
(dp389
g66
(dp390
g93
g94
ssg75
g379
sg68
(lp391
S':'
asbag61
(g82
g63
NtRp392
(dp393
g66
(dp394
sg75
g379
sg68
(lp395
g61
(g62
g63
NtRp396
(dp397
g66
(dp398
g74
I3
ssg75
g392
sg68
(lp399
S''
asbasbasbag61
(g77
g63
NtRp400
(dp401
g66
(dp402
sg75
g312
sg68
(lp403
g61
(g82
g63
NtRp404
(dp405
g66
(dp406
g86
g87
ssg75
g400
sg68
(lp407
S'max-age'
p408
asbag61
(g82
g63
NtRp409
(dp410
g66
(dp411
g93
g94
ssg75
g400
sg68
(lp412
S':'
asbag61
(g82
g63
NtRp413
(dp414
g66
(dp415
sg75
g400
sg68
(lp416
g61
(g62
g63
NtRp417
(dp418
g66
(dp419
g74
I3
ssg75
g413
sg68
(lp420
S''
asbasbasbag61
(g77
g63
NtRp421
(dp422
g66
(dp423
sg75
g312
sg68
(lp424
g61
(g82
g63
NtRp425
(dp426
g66
(dp427
g86
g87
ssg75
g421
sg68
(lp428
S'path'
p429
asbag61
(g82
g63
NtRp430
(dp431
g66
(dp432
g93
g94
ssg75
g421
sg68
(lp433
S':'
asbag61
(g82
g63
NtRp434
(dp435
g66
(dp436
sg75
g421
sg68
(lp437
g61
(g62
g63
NtRp438
(dp439
g66
(dp440
g74
I3
ssg75
g434
sg68
(lp441
S''
asbasbasbag61
(g77
g63
NtRp442
(dp443
g66
(dp444
sg75
g312
sg68
(lp445
g61
(g82
g63
NtRp446
(dp447
g66
(dp448
g86
g87
ssg75
g442
sg68
(lp449
S'secure'
p450
asbag61
(g82
g63
NtRp451
(dp452
g66
(dp453
g93
g94
ssg75
g442
sg68
(lp454
S':'
asbag61
(g82
g63
NtRp455
(dp456
g66
(dp457
sg75
g442
sg68
(lp458
g61
(g62
g63
NtRp459
(dp460
g66
(dp461
g74
I3
ssg75
g455
sg68
(lp462
S''
asbasbasbag61
(g77
g63
NtRp463
(dp464
g66
(dp465
sg75
g312
sg68
(lp466
g61
(g82
g63
NtRp467
(dp468
g66
(dp469
g86
g87
ssg75
g463
sg68
(lp470
S'version'
p471
asbag61
(g82
g63
NtRp472
(dp473
g66
(dp474
g93
g94
ssg75
g463
sg68
(lp475
S':'
asbag61
(g82
g63
NtRp476
(dp477
g66
(dp478
sg75
g463
sg68
(lp479
g61
(g62
g63
NtRp480
(dp481
g66
(dp482
g74
I3
ssg75
g476
sg68
(lp483
S''
asbasbasbasbasbasbasbag61
(g77
g63
NtRp484
(dp485
g66
(dp486
sg75
g286
sg68
(lp487
g61
(g82
g63
NtRp488
(dp489
g66
(dp490
g86
g87
ssg75
g484
sg68
(lp491
S'session_id_projeto'
p492
asbag61
(g82
g63
NtRp493
(dp494
g66
(dp495
g93
g94
ssg75
g484
sg68
(lp496
S':'
asbag61
(g82
g63
NtRp497
(dp498
g66
(dp499
sg75
g484
sg68
(lp500
g61
(g62
g63
NtRp501
(dp502
g66
(dp503
g74
I4
ssg75
g497
sg68
(lp504
S'127.0.0.1-0fe02c32-0739-4f06-a369-3bba6377da8b'
p505
ag61
(g70
g63
NtRp506
(dp507
g66
(dp508
g74
I3
ssg75
Nsg68
(lp509
g61
(g77
g63
NtRp510
(dp511
g66
(dp512
sg75
g506
sg68
(lp513
g61
(g82
g63
NtRp514
(dp515
g66
(dp516
g86
g87
ssg75
g510
sg68
(lp517
g324
asbag61
(g82
g63
NtRp518
(dp519
g66
(dp520
g93
g94
ssg75
g510
sg68
(lp521
S':'
asbag61
(g82
g63
NtRp522
(dp523
g66
(dp524
sg75
g510
sg68
(lp525
g61
(g62
g63
NtRp526
(dp527
g66
(dp528
g74
I3
ssg75
g522
sg68
(lp529
S''
asbasbasbag61
(g77
g63
NtRp530
(dp531
g66
(dp532
sg75
g506
sg68
(lp533
g61
(g82
g63
NtRp534
(dp535
g66
(dp536
g86
g87
ssg75
g530
sg68
(lp537
g345
asbag61
(g82
g63
NtRp538
(dp539
g66
(dp540
g93
g94
ssg75
g530
sg68
(lp541
S':'
asbag61
(g82
g63
NtRp542
(dp543
g66
(dp544
sg75
g530
sg68
(lp545
g61
(g62
g63
NtRp546
(dp547
g66
(dp548
g74
I3
ssg75
g542
sg68
(lp549
S''
asbasbasbag61
(g77
g63
NtRp550
(dp551
g66
(dp552
sg75
g506
sg68
(lp553
g61
(g82
g63
NtRp554
(dp555
g66
(dp556
g86
g87
ssg75
g550
sg68
(lp557
g366
asbag61
(g82
g63
NtRp558
(dp559
g66
(dp560
g93
g94
ssg75
g550
sg68
(lp561
S':'
asbag61
(g82
g63
NtRp562
(dp563
g66
(dp564
sg75
g550
sg68
(lp565
g61
(g62
g63
NtRp566
(dp567
g66
(dp568
g74
I3
ssg75
g562
sg68
(lp569
S''
asbasbasbag61
(g77
g63
NtRp570
(dp571
g66
(dp572
sg75
g506
sg68
(lp573
g61
(g82
g63
NtRp574
(dp575
g66
(dp576
g86
g87
ssg75
g570
sg68
(lp577
g387
asbag61
(g82
g63
NtRp578
(dp579
g66
(dp580
g93
g94
ssg75
g570
sg68
(lp581
S':'
asbag61
(g82
g63
NtRp582
(dp583
g66
(dp584
sg75
g570
sg68
(lp585
g61
(g62
g63
NtRp586
(dp587
g66
(dp588
g74
I3
ssg75
g582
sg68
(lp589
S''
asbasbasbag61
(g77
g63
NtRp590
(dp591
g66
(dp592
sg75
g506
sg68
(lp593
g61
(g82
g63
NtRp594
(dp595
g66
(dp596
g86
g87
ssg75
g590
sg68
(lp597
g408
asbag61
(g82
g63
NtRp598
(dp599
g66
(dp600
g93
g94
ssg75
g590
sg68
(lp601
S':'
asbag61
(g82
g63
NtRp602
(dp603
g66
(dp604
sg75
g590
sg68
(lp605
g61
(g62
g63
NtRp606
(dp607
g66
(dp608
g74
I3
ssg75
g602
sg68
(lp609
S''
asbasbasbag61
(g77
g63
NtRp610
(dp611
g66
(dp612
sg75
g506
sg68
(lp613
g61
(g82
g63
NtRp614
(dp615
g66
(dp616
g86
g87
ssg75
g610
sg68
(lp617
g429
asbag61
(g82
g63
NtRp618
(dp619
g66
(dp620
g93
g94
ssg75
g610
sg68
(lp621
S':'
asbag61
(g82
g63
NtRp622
(dp623
g66
(dp624
sg75
g610
sg68
(lp625
g61
(g62
g63
NtRp626
(dp627
g66
(dp628
g74
I3
ssg75
g622
sg68
(lp629
S''
asbasbasbag61
(g77
g63
NtRp630
(dp631
g66
(dp632
sg75
g506
sg68
(lp633
g61
(g82
g63
NtRp634
(dp635
g66
(dp636
g86
g87
ssg75
g630
sg68
(lp637
g450
asbag61
(g82
g63
NtRp638
(dp639
g66
(dp640
g93
g94
ssg75
g630
sg68
(lp641
S':'
asbag61
(g82
g63
NtRp642
(dp643
g66
(dp644
sg75
g630
sg68
(lp645
g61
(g62
g63
NtRp646
(dp647
g66
(dp648
g74
I3
ssg75
g642
sg68
(lp649
S''
asbasbasbag61
(g77
g63
NtRp650
(dp651
g66
(dp652
sg75
g506
sg68
(lp653
g61
(g82
g63
NtRp654
(dp655
g66
(dp656
g86
g87
ssg75
g650
sg68
(lp657
g471
asbag61
(g82
g63
NtRp658
(dp659
g66
(dp660
g93
g94
ssg75
g650
sg68
(lp661
S':'
asbag61
(g82
g63
NtRp662
(dp663
g66
(dp664
sg75
g650
sg68
(lp665
g61
(g62
g63
NtRp666
(dp667
g66
(dp668
g74
I3
ssg75
g662
sg68
(lp669
S''
asbasbasbasbasbasbasbasbasbasbasbag61
(g77
g63
NtRp670
(dp671
g66
(dp672
sg75
g71
sg68
(lp673
g61
(g82
g63
NtRp674
(dp675
g66
(dp676
g86
g87
ssg75
g670
sg68
(lp677
S'env'
p678
asbag61
(g82
g63
NtRp679
(dp680
g66
(dp681
g93
g94
ssg75
g670
sg68
(lp682
S':'
asbag61
(g82
g63
NtRp683
(dp684
g66
(dp685
sg75
g670
sg68
(lp686
g61
(g62
g63
NtRp687
(dp688
g66
(dp689
g74
I5
ssg75
g683
sg68
(lp690
g61
(g70
g63
NtRp691
(dp692
g66
(dp693
g74
I4
ssg75
Nsg68
(lp694
g61
(g77
g63
NtRp695
(dp696
g66
(dp697
sg75
g691
sg68
(lp698
g61
(g82
g63
NtRp699
(dp700
g66
(dp701
g86
g87
ssg75
g695
sg68
(lp702
S'app_folders'
p703
asbag61
(g82
g63
NtRp704
(dp705
g66
(dp706
g93
g94
ssg75
g695
sg68
(lp707
S':'
asbag61
(g82
g63
NtRp708
(dp709
g66
(dp710
sg75
g695
sg68
(lp711
g61
(g62
g63
NtRp712
(dp713
g66
(dp714
g74
I4
ssg75
g708
sg68
(lp715
S"set(['/var/www/conferencia/applications/admin/', '/var/www/conferencia/applications/projeto/'])"
p716
asbasbasbag61
(g77
g63
NtRp717
(dp718
g66
(dp719
sg75
g691
sg68
(lp720
g61
(g82
g63
NtRp721
(dp722
g66
(dp723
g86
g87
ssg75
g717
sg68
(lp724
S'applications_parent'
p725
asbag61
(g82
g63
NtRp726
(dp727
g66
(dp728
g93
g94
ssg75
g717
sg68
(lp729
S':'
asbag61
(g82
g63
NtRp730
(dp731
g66
(dp732
sg75
g717
sg68
(lp733
g61
(g62
g63
NtRp734
(dp735
g66
(dp736
g74
I4
ssg75
g730
sg68
(lp737
S'/var/www/conferencia'
p738
asbasbasbag61
(g77
g63
NtRp739
(dp740
g66
(dp741
sg75
g691
sg68
(lp742
g61
(g82
g63
NtRp743
(dp744
g66
(dp745
g86
g87
ssg75
g739
sg68
(lp746
S'cmd_args'
p747
asbag61
(g82
g63
NtRp748
(dp749
g66
(dp750
g93
g94
ssg75
g739
sg68
(lp751
S':'
asbag61
(g82
g63
NtRp752
(dp753
g66
(dp754
sg75
g739
sg68
(lp755
g61
(g62
g63
NtRp756
(dp757
g66
(dp758
g74
I4
ssg75
g752
sg68
(lp759
g61
(g70
g63
NtRp760
(dp761
g66
(dp762
g74
I3
ssg75
Nsg68
(lp763
sbasbasbasbag61
(g77
g63
NtRp764
(dp765
g66
(dp766
sg75
g691
sg68
(lp767
g61
(g82
g63
NtRp768
(dp769
g66
(dp770
g86
g87
ssg75
g764
sg68
(lp771
S'cmd_options'
p772
asbag61
(g82
g63
NtRp773
(dp774
g66
(dp775
g93
g94
ssg75
g764
sg68
(lp776
S':'
asbag61
(g82
g63
NtRp777
(dp778
g66
(dp779
sg75
g764
sg68
(lp780
g61
(g62
g63
NtRp781
(dp782
g66
(dp783
g74
I4
ssg75
g777
sg68
(lp784
S"<Values at 0x221c248: {'verbose': False, 'ip': '127.0.0.1', 'with_scheduler': False, 'ips': [], 'shutdown_timeout': 5, 'taskbar': False, 'port': 8000, 'maxthreads': None, 'softcron': False, 'server_name': 'fernando-workstation', 'bpython': False, 'nogui': False, 'pid_filename': 'httpserver.pid', 'extcron': False, 'runcron': False, 'run_system_tests': False, 'test': None, 'folder': '/var/www/conferencia', 'config': '', 'minthreads': None, 'winservice': '', 'shell': None, 'run': '', 'log_filename': 'httpserver.log', 'debuglevel': 30, 'args': [''], 'socket_timeout': 5, 'ssl_ca_certificate': None, 'scheduler': None, 'profiler_filename': None, 'ssl_private_key': '', 'scheduler_groups': None, 'password': '123456', 'request_queue_size': 5, 'ssl_certificate': '', 'cronjob': False, 'numthreads': None, 'quiet': False, 'interfaces': None, 'import_models': False, 'timeout': 10, 'plain': False, 'nobanner': False}>"
p785
asbasbasbag61
(g77
g63
NtRp786
(dp787
g66
(dp788
sg75
g691
sg68
(lp789
g61
(g82
g63
NtRp790
(dp791
g66
(dp792
g86
g87
ssg75
g786
sg68
(lp793
S'content_length'
p794
asbag61
(g82
g63
NtRp795
(dp796
g66
(dp797
g93
g94
ssg75
g786
sg68
(lp798
S':'
asbag61
(g82
g63
NtRp799
(dp800
g66
(dp801
sg75
g786
sg68
(lp802
g61
(g62
g63
NtRp803
(dp804
g66
(dp805
g74
I4
ssg75
g799
sg68
(lp806
S'510'
p807
asbasbasbag61
(g77
g63
NtRp808
(dp809
g66
(dp810
sg75
g691
sg68
(lp811
g61
(g82
g63
NtRp812
(dp813
g66
(dp814
g86
g87
ssg75
g808
sg68
(lp815
S'content_type'
p816
asbag61
(g82
g63
NtRp817
(dp818
g66
(dp819
g93
g94
ssg75
g808
sg68
(lp820
S':'
asbag61
(g82
g63
NtRp821
(dp822
g66
(dp823
sg75
g808
sg68
(lp824
g61
(g62
g63
NtRp825
(dp826
g66
(dp827
g74
I4
ssg75
g821
sg68
(lp828
S'multipart/form-data; boundary=----WebKitFormBoundary0A5wpuapjfnEVmeU'
p829
asbasbasbag61
(g77
g63
NtRp830
(dp831
g66
(dp832
sg75
g691
sg68
(lp833
g61
(g82
g63
NtRp834
(dp835
g66
(dp836
g86
g87
ssg75
g830
sg68
(lp837
S'db_sessions'
p838
asbag61
(g82
g63
NtRp839
(dp840
g66
(dp841
g93
g94
ssg75
g830
sg68
(lp842
S':'
asbag61
(g82
g63
NtRp843
(dp844
g66
(dp845
sg75
g830
sg68
(lp846
g61
(g62
g63
NtRp847
(dp848
g66
(dp849
g74
I4
ssg75
g843
sg68
(lp850
S'set([])'
p851
asbasbasbag61
(g77
g63
NtRp852
(dp853
g66
(dp854
sg75
g691
sg68
(lp855
g61
(g82
g63
NtRp856
(dp857
g66
(dp858
g86
g87
ssg75
g852
sg68
(lp859
S'debugging'
p860
asbag61
(g82
g63
NtRp861
(dp862
g66
(dp863
g93
g94
ssg75
g852
sg68
(lp864
S':'
asbag61
(g82
g63
NtRp865
(dp866
g66
(dp867
sg75
g852
sg68
(lp868
g61
(g62
g63
NtRp869
(dp870
g66
(dp871
g74
I4
ssg75
g865
sg68
(lp872
g104
asbasbasbag61
(g77
g63
NtRp873
(dp874
g66
(dp875
sg75
g691
sg68
(lp876
g61
(g82
g63
NtRp877
(dp878
g66
(dp879
g86
g87
ssg75
g873
sg68
(lp880
S'gluon_parent'
p881
asbag61
(g82
g63
NtRp882
(dp883
g66
(dp884
g93
g94
ssg75
g873
sg68
(lp885
S':'
asbag61
(g82
g63
NtRp886
(dp887
g66
(dp888
sg75
g873
sg68
(lp889
g61
(g62
g63
NtRp890
(dp891
g66
(dp892
g74
I4
ssg75
g886
sg68
(lp893
S'/var/www/conferencia'
p894
asbasbasbag61
(g77
g63
NtRp895
(dp896
g66
(dp897
sg75
g691
sg68
(lp898
g61
(g82
g63
NtRp899
(dp900
g66
(dp901
g86
g87
ssg75
g895
sg68
(lp902
S'http_accept'
p903
asbag61
(g82
g63
NtRp904
(dp905
g66
(dp906
g93
g94
ssg75
g895
sg68
(lp907
S':'
asbag61
(g82
g63
NtRp908
(dp909
g66
(dp910
sg75
g895
sg68
(lp911
g61
(g62
g63
NtRp912
(dp913
g66
(dp914
g74
I4
ssg75
g908
sg68
(lp915
S'text/html,application/xhtml+xml,application/xml;q=0.9,*/*;q=0.8'
p916
asbasbasbag61
(g77
g63
NtRp917
(dp918
g66
(dp919
sg75
g691
sg68
(lp920
g61
(g82
g63
NtRp921
(dp922
g66
(dp923
g86
g87
ssg75
g917
sg68
(lp924
S'http_accept_charset'
p925
asbag61
(g82
g63
NtRp926
(dp927
g66
(dp928
g93
g94
ssg75
g917
sg68
(lp929
S':'
asbag61
(g82
g63
NtRp930
(dp931
g66
(dp932
sg75
g917
sg68
(lp933
g61
(g62
g63
NtRp934
(dp935
g66
(dp936
g74
I4
ssg75
g930
sg68
(lp937
S'ISO-8859-1,utf-8;q=0.7,*;q=0.3'
p938
asbasbasbag61
(g77
g63
NtRp939
(dp940
g66
(dp941
sg75
g691
sg68
(lp942
g61
(g82
g63
NtRp943
(dp944
g66
(dp945
g86
g87
ssg75
g939
sg68
(lp946
S'http_accept_encoding'
p947
asbag61
(g82
g63
NtRp948
(dp949
g66
(dp950
g93
g94
ssg75
g939
sg68
(lp951
S':'
asbag61
(g82
g63
NtRp952
(dp953
g66
(dp954
sg75
g939
sg68
(lp955
g61
(g62
g63
NtRp956
(dp957
g66
(dp958
g74
I4
ssg75
g952
sg68
(lp959
S'gzip,deflate,sdch'
p960
asbasbasbag61
(g77
g63
NtRp961
(dp962
g66
(dp963
sg75
g691
sg68
(lp964
g61
(g82
g63
NtRp965
(dp966
g66
(dp967
g86
g87
ssg75
g961
sg68
(lp968
S'http_accept_language'
p969
asbag61
(g82
g63
NtRp970
(dp971
g66
(dp972
g93
g94
ssg75
g961
sg68
(lp973
S':'
asbag61
(g82
g63
NtRp974
(dp975
g66
(dp976
sg75
g961
sg68
(lp977
g61
(g62
g63
NtRp978
(dp979
g66
(dp980
g74
I4
ssg75
g974
sg68
(lp981
S'pt-BR,pt;q=0.8,en-US;q=0.6,en;q=0.4'
p982
asbasbasbag61
(g77
g63
NtRp983
(dp984
g66
(dp985
sg75
g691
sg68
(lp986
g61
(g82
g63
NtRp987
(dp988
g66
(dp989
g86
g87
ssg75
g983
sg68
(lp990
S'http_cache_control'
p991
asbag61
(g82
g63
NtRp992
(dp993
g66
(dp994
g93
g94
ssg75
g983
sg68
(lp995
S':'
asbag61
(g82
g63
NtRp996
(dp997
g66
(dp998
sg75
g983
sg68
(lp999
g61
(g62
g63
NtRp1000
(dp1001
g66
(dp1002
g74
I4
ssg75
g996
sg68
(lp1003
S'max-age=0'
p1004
asbasbasbag61
(g77
g63
NtRp1005
(dp1006
g66
(dp1007
sg75
g691
sg68
(lp1008
g61
(g82
g63
NtRp1009
(dp1010
g66
(dp1011
g86
g87
ssg75
g1005
sg68
(lp1012
S'http_connection'
p1013
asbag61
(g82
g63
NtRp1014
(dp1015
g66
(dp1016
g93
g94
ssg75
g1005
sg68
(lp1017
S':'
asbag61
(g82
g63
NtRp1018
(dp1019
g66
(dp1020
sg75
g1005
sg68
(lp1021
g61
(g62
g63
NtRp1022
(dp1023
g66
(dp1024
g74
I4
ssg75
g1018
sg68
(lp1025
S'keep-alive'
p1026
asbasbasbag61
(g77
g63
NtRp1027
(dp1028
g66
(dp1029
sg75
g691
sg68
(lp1030
g61
(g82
g63
NtRp1031
(dp1032
g66
(dp1033
g86
g87
ssg75
g1027
sg68
(lp1034
S'http_content_length'
p1035
asbag61
(g82
g63
NtRp1036
(dp1037
g66
(dp1038
g93
g94
ssg75
g1027
sg68
(lp1039
S':'
asbag61
(g82
g63
NtRp1040
(dp1041
g66
(dp1042
sg75
g1027
sg68
(lp1043
g61
(g62
g63
NtRp1044
(dp1045
g66
(dp1046
g74
I4
ssg75
g1040
sg68
(lp1047
g807
asbasbasbag61
(g77
g63
NtRp1048
(dp1049
g66
(dp1050
sg75
g691
sg68
(lp1051
g61
(g82
g63
NtRp1052
(dp1053
g66
(dp1054
g86
g87
ssg75
g1048
sg68
(lp1055
S'http_content_type'
p1056
asbag61
(g82
g63
NtRp1057
(dp1058
g66
(dp1059
g93
g94
ssg75
g1048
sg68
(lp1060
S':'
asbag61
(g82
g63
NtRp1061
(dp1062
g66
(dp1063
sg75
g1048
sg68
(lp1064
g61
(g62
g63
NtRp1065
(dp1066
g66
(dp1067
g74
I4
ssg75
g1061
sg68
(lp1068
g829
asbasbasbag61
(g77
g63
NtRp1069
(dp1070
g66
(dp1071
sg75
g691
sg68
(lp1072
g61
(g82
g63
NtRp1073
(dp1074
g66
(dp1075
g86
g87
ssg75
g1069
sg68
(lp1076
S'http_cookie'
p1077
asbag61
(g82
g63
NtRp1078
(dp1079
g66
(dp1080
g93
g94
ssg75
g1069
sg68
(lp1081
S':'
asbag61
(g82
g63
NtRp1082
(dp1083
g66
(dp1084
sg75
g1069
sg68
(lp1085
g61
(g62
g63
NtRp1086
(dp1087
g66
(dp1088
g74
I4
ssg75
g1082
sg68
(lp1089
S'session_id_admin=127.0.0.1-f08163e7-63a0-4e97-8334-13b9dc892d78; session_id_projeto=127.0.0.1-0fe02c32-0739-4f06-a369-3bba6377da8b'
p1090
asbasbasbag61
(g77
g63
NtRp1091
(dp1092
g66
(dp1093
sg75
g691
sg68
(lp1094
g61
(g82
g63
NtRp1095
(dp1096
g66
(dp1097
g86
g87
ssg75
g1091
sg68
(lp1098
S'http_host'
p1099
asbag61
(g82
g63
NtRp1100
(dp1101
g66
(dp1102
g93
g94
ssg75
g1091
sg68
(lp1103
S':'
asbag61
(g82
g63
NtRp1104
(dp1105
g66
(dp1106
sg75
g1091
sg68
(lp1107
g61
(g62
g63
NtRp1108
(dp1109
g66
(dp1110
g74
I4
ssg75
g1104
sg68
(lp1111
S'127.0.0.1:8000'
p1112
asbasbasbag61
(g77
g63
NtRp1113
(dp1114
g66
(dp1115
sg75
g691
sg68
(lp1116
g61
(g82
g63
NtRp1117
(dp1118
g66
(dp1119
g86
g87
ssg75
g1113
sg68
(lp1120
S'http_origin'
p1121
asbag61
(g82
g63
NtRp1122
(dp1123
g66
(dp1124
g93
g94
ssg75
g1113
sg68
(lp1125
S':'
asbag61
(g82
g63
NtRp1126
(dp1127
g66
(dp1128
sg75
g1113
sg68
(lp1129
g61
(g62
g63
NtRp1130
(dp1131
g66
(dp1132
g74
I4
ssg75
g1126
sg68
(lp1133
S'http://127.0.0.1:8000'
p1134
asbasbasbag61
(g77
g63
NtRp1135
(dp1136
g66
(dp1137
sg75
g691
sg68
(lp1138
g61
(g82
g63
NtRp1139
(dp1140
g66
(dp1141
g86
g87
ssg75
g1135
sg68
(lp1142
S'http_referer'
p1143
asbag61
(g82
g63
NtRp1144
(dp1145
g66
(dp1146
g93
g94
ssg75
g1135
sg68
(lp1147
S':'
asbag61
(g82
g63
NtRp1148
(dp1149
g66
(dp1150
sg75
g1135
sg68
(lp1151
g61
(g62
g63
NtRp1152
(dp1153
g66
(dp1154
g74
I4
ssg75
g1148
sg68
(lp1155
S'http://127.0.0.1:8000/show_cliente/new/meetme'
p1156
asbasbasbag61
(g77
g63
NtRp1157
(dp1158
g66
(dp1159
sg75
g691
sg68
(lp1160
g61
(g82
g63
NtRp1161
(dp1162
g66
(dp1163
g86
g87
ssg75
g1157
sg68
(lp1164
S'http_user_agent'
p1165
asbag61
(g82
g63
NtRp1166
(dp1167
g66
(dp1168
g93
g94
ssg75
g1157
sg68
(lp1169
S':'
asbag61
(g82
g63
NtRp1170
(dp1171
g66
(dp1172
sg75
g1157
sg68
(lp1173
g61
(g62
g63
NtRp1174
(dp1175
g66
(dp1176
g74
I4
ssg75
g1170
sg68
(lp1177
S'Mozilla/5.0 (X11; Linux x86_64) AppleWebKit/537.4 (KHTML, like Gecko) Ubuntu/12.10 Chromium/22.0.1229.94 Chrome/22.0.1229.94 Safari/537.4'
p1178
asbasbasbag61
(g77
g63
NtRp1179
(dp1180
g66
(dp1181
sg75
g691
sg68
(lp1182
g61
(g82
g63
NtRp1183
(dp1184
g66
(dp1185
g86
g87
ssg75
g1179
sg68
(lp1186
S'is_jython'
p1187
asbag61
(g82
g63
NtRp1188
(dp1189
g66
(dp1190
g93
g94
ssg75
g1179
sg68
(lp1191
S':'
asbag61
(g82
g63
NtRp1192
(dp1193
g66
(dp1194
sg75
g1179
sg68
(lp1195
g61
(g62
g63
NtRp1196
(dp1197
g66
(dp1198
g74
I4
ssg75
g1192
sg68
(lp1199
g104
asbasbasbag61
(g77
g63
NtRp1200
(dp1201
g66
(dp1202
sg75
g691
sg68
(lp1203
g61
(g82
g63
NtRp1204
(dp1205
g66
(dp1206
g86
g87
ssg75
g1200
sg68
(lp1207
S'is_pypy'
p1208
asbag61
(g82
g63
NtRp1209
(dp1210
g66
(dp1211
g93
g94
ssg75
g1200
sg68
(lp1212
S':'
asbag61
(g82
g63
NtRp1213
(dp1214
g66
(dp1215
sg75
g1200
sg68
(lp1216
g61
(g62
g63
NtRp1217
(dp1218
g66
(dp1219
g74
I4
ssg75
g1213
sg68
(lp1220
g104
asbasbasbag61
(g77
g63
NtRp1221
(dp1222
g66
(dp1223
sg75
g691
sg68
(lp1224
g61
(g82
g63
NtRp1225
(dp1226
g66
(dp1227
g86
g87
ssg75
g1221
sg68
(lp1228
S'local_hosts'
p1229
asbag61
(g82
g63
NtRp1230
(dp1231
g66
(dp1232
g93
g94
ssg75
g1221
sg68
(lp1233
S':'
asbag61
(g82
g63
NtRp1234
(dp1235
g66
(dp1236
sg75
g1221
sg68
(lp1237
g61
(g62
g63
NtRp1238
(dp1239
g66
(dp1240
g74
I4
ssg75
g1234
sg68
(lp1241
g61
(g70
g63
NtRp1242
(dp1243
g66
(dp1244
g74
I3
ssg75
Nsg68
(lp1245
g61
(g77
g63
NtRp1246
(dp1247
g66
(dp1248
sg75
g1242
sg68
(lp1249
g61
(g82
g63
NtRp1250
(dp1251
g66
(dp1252
sg75
g1246
sg68
(lp1253
g61
(g62
g63
NtRp1254
(dp1255
g66
(dp1256
g74
I3
ssg75
g1250
sg68
(lp1257
S'::1'
p1258
asbasbasbag61
(g77
g63
NtRp1259
(dp1260
g66
(dp1261
sg75
g1242
sg68
(lp1262
g61
(g82
g63
NtRp1263
(dp1264
g66
(dp1265
sg75
g1259
sg68
(lp1266
g61
(g62
g63
NtRp1267
(dp1268
g66
(dp1269
g74
I3
ssg75
g1263
sg68
(lp1270
S'::ffff:127.0.0.1'
p1271
asbasbasbag61
(g77
g63
NtRp1272
(dp1273
g66
(dp1274
sg75
g1242
sg68
(lp1275
g61
(g82
g63
NtRp1276
(dp1277
g66
(dp1278
sg75
g1272
sg68
(lp1279
g61
(g62
g63
NtRp1280
(dp1281
g66
(dp1282
g74
I3
ssg75
g1276
sg68
(lp1283
S'127.0.0.1'
p1284
asbasbasbag61
(g77
g63
NtRp1285
(dp1286
g66
(dp1287
sg75
g1242
sg68
(lp1288
g61
(g82
g63
NtRp1289
(dp1290
g66
(dp1291
sg75
g1285
sg68
(lp1292
g61
(g62
g63
NtRp1293
(dp1294
g66
(dp1295
g74
I3
ssg75
g1289
sg68
(lp1296
S'fernando-workstation'
p1297
asbasbasbasbasbasbasbag61
(g77
g63
NtRp1298
(dp1299
g66
(dp1300
sg75
g691
sg68
(lp1301
g61
(g82
g63
NtRp1302
(dp1303
g66
(dp1304
g86
g87
ssg75
g1298
sg68
(lp1305
S'path_info'
p1306
asbag61
(g82
g63
NtRp1307
(dp1308
g66
(dp1309
g93
g94
ssg75
g1298
sg68
(lp1310
S':'
asbag61
(g82
g63
NtRp1311
(dp1312
g66
(dp1313
sg75
g1298
sg68
(lp1314
g61
(g62
g63
NtRp1315
(dp1316
g66
(dp1317
g74
I4
ssg75
g1311
sg68
(lp1318
S'/show_cliente/new/meetme'
p1319
asbasbasbag61
(g77
g63
NtRp1320
(dp1321
g66
(dp1322
sg75
g691
sg68
(lp1323
g61
(g82
g63
NtRp1324
(dp1325
g66
(dp1326
g86
g87
ssg75
g1320
sg68
(lp1327
S'query_string'
p1328
asbag61
(g82
g63
NtRp1329
(dp1330
g66
(dp1331
g93
g94
ssg75
g1320
sg68
(lp1332
S':'
asbag61
(g82
g63
NtRp1333
(dp1334
g66
(dp1335
sg75
g1320
sg68
(lp1336
g61
(g62
g63
NtRp1337
(dp1338
g66
(dp1339
g74
I4
ssg75
g1333
sg68
(lp1340
S''
asbasbasbag61
(g77
g63
NtRp1341
(dp1342
g66
(dp1343
sg75
g691
sg68
(lp1344
g61
(g82
g63
NtRp1345
(dp1346
g66
(dp1347
g86
g87
ssg75
g1341
sg68
(lp1348
S'remote_addr'
p1349
asbag61
(g82
g63
NtRp1350
(dp1351
g66
(dp1352
g93
g94
ssg75
g1341
sg68
(lp1353
S':'
asbag61
(g82
g63
NtRp1354
(dp1355
g66
(dp1356
sg75
g1341
sg68
(lp1357
g61
(g62
g63
NtRp1358
(dp1359
g66
(dp1360
g74
I4
ssg75
g1354
sg68
(lp1361
g242
asbasbasbag61
(g77
g63
NtRp1362
(dp1363
g66
(dp1364
sg75
g691
sg68
(lp1365
g61
(g82
g63
NtRp1366
(dp1367
g66
(dp1368
g86
g87
ssg75
g1362
sg68
(lp1369
S'remote_port'
p1370
asbag61
(g82
g63
NtRp1371
(dp1372
g66
(dp1373
g93
g94
ssg75
g1362
sg68
(lp1374
S':'
asbag61
(g82
g63
NtRp1375
(dp1376
g66
(dp1377
sg75
g1362
sg68
(lp1378
g61
(g62
g63
NtRp1379
(dp1380
g66
(dp1381
g74
I4
ssg75
g1375
sg68
(lp1382
S'45431'
p1383
asbasbasbag61
(g77
g63
NtRp1384
(dp1385
g66
(dp1386
sg75
g691
sg68
(lp1387
g61
(g82
g63
NtRp1388
(dp1389
g66
(dp1390
g86
g87
ssg75
g1384
sg68
(lp1391
S'request_method'
p1392
asbag61
(g82
g63
NtRp1393
(dp1394
g66
(dp1395
g93
g94
ssg75
g1384
sg68
(lp1396
S':'
asbag61
(g82
g63
NtRp1397
(dp1398
g66
(dp1399
sg75
g1384
sg68
(lp1400
g61
(g62
g63
NtRp1401
(dp1402
g66
(dp1403
g74
I4
ssg75
g1397
sg68
(lp1404
S'POST'
p1405
asbasbasbag61
(g77
g63
NtRp1406
(dp1407
g66
(dp1408
sg75
g691
sg68
(lp1409
g61
(g82
g63
NtRp1410
(dp1411
g66
(dp1412
g86
g87
ssg75
g1406
sg68
(lp1413
S'request_uri'
p1414
asbag61
(g82
g63
NtRp1415
(dp1416
g66
(dp1417
g93
g94
ssg75
g1406
sg68
(lp1418
S':'
asbag61
(g82
g63
NtRp1419
(dp1420
g66
(dp1421
sg75
g1406
sg68
(lp1422
g61
(g62
g63
NtRp1423
(dp1424
g66
(dp1425
g74
I4
ssg75
g1419
sg68
(lp1426
S'/projeto/initial/show_cliente/new/meetme'
p1427
asbasbasbag61
(g77
g63
NtRp1428
(dp1429
g66
(dp1430
sg75
g691
sg68
(lp1431
g61
(g82
g63
NtRp1432
(dp1433
g66
(dp1434
g86
g87
ssg75
g1428
sg68
(lp1435
S'script_name'
p1436
asbag61
(g82
g63
NtRp1437
(dp1438
g66
(dp1439
g93
g94
ssg75
g1428
sg68
(lp1440
S':'
asbag61
(g82
g63
NtRp1441
(dp1442
g66
(dp1443
sg75
g1428
sg68
(lp1444
g61
(g62
g63
NtRp1445
(dp1446
g66
(dp1447
g74
I4
ssg75
g1441
sg68
(lp1448
S''
asbasbasbag61
(g77
g63
NtRp1449
(dp1450
g66
(dp1451
sg75
g691
sg68
(lp1452
g61
(g82
g63
NtRp1453
(dp1454
g66
(dp1455
g86
g87
ssg75
g1449
sg68
(lp1456
S'server_name'
p1457
asbag61
(g82
g63
NtRp1458
(dp1459
g66
(dp1460
g93
g94
ssg75
g1449
sg68
(lp1461
S':'
asbag61
(g82
g63
NtRp1462
(dp1463
g66
(dp1464
sg75
g1449
sg68
(lp1465
g61
(g62
g63
NtRp1466
(dp1467
g66
(dp1468
g74
I4
ssg75
g1462
sg68
(lp1469
S'fernando-workstation'
p1470
asbasbasbag61
(g77
g63
NtRp1471
(dp1472
g66
(dp1473
sg75
g691
sg68
(lp1474
g61
(g82
g63
NtRp1475
(dp1476
g66
(dp1477
g86
g87
ssg75
g1471
sg68
(lp1478
S'server_port'
p1479
asbag61
(g82
g63
NtRp1480
(dp1481
g66
(dp1482
g93
g94
ssg75
g1471
sg68
(lp1483
S':'
asbag61
(g82
g63
NtRp1484
(dp1485
g66
(dp1486
sg75
g1471
sg68
(lp1487
g61
(g62
g63
NtRp1488
(dp1489
g66
(dp1490
g74
I4
ssg75
g1484
sg68
(lp1491
S'8000'
p1492
asbasbasbag61
(g77
g63
NtRp1493
(dp1494
g66
(dp1495
sg75
g691
sg68
(lp1496
g61
(g82
g63
NtRp1497
(dp1498
g66
(dp1499
g86
g87
ssg75
g1493
sg68
(lp1500
S'server_protocol'
p1501
asbag61
(g82
g63
NtRp1502
(dp1503
g66
(dp1504
g93
g94
ssg75
g1493
sg68
(lp1505
S':'
asbag61
(g82
g63
NtRp1506
(dp1507
g66
(dp1508
sg75
g1493
sg68
(lp1509
g61
(g62
g63
NtRp1510
(dp1511
g66
(dp1512
g74
I4
ssg75
g1506
sg68
(lp1513
S'HTTP/1.1'
p1514
asbasbasbag61
(g77
g63
NtRp1515
(dp1516
g66
(dp1517
sg75
g691
sg68
(lp1518
g61
(g82
g63
NtRp1519
(dp1520
g66
(dp1521
g86
g87
ssg75
g1515
sg68
(lp1522
S'server_software'
p1523
asbag61
(g82
g63
NtRp1524
(dp1525
g66
(dp1526
g93
g94
ssg75
g1515
sg68
(lp1527
S':'
asbag61
(g82
g63
NtRp1528
(dp1529
g66
(dp1530
sg75
g1515
sg68
(lp1531
g61
(g62
g63
NtRp1532
(dp1533
g66
(dp1534
g74
I4
ssg75
g1528
sg68
(lp1535
S'Rocket 1.2.6'
p1536
asbasbasbag61
(g77
g63
NtRp1537
(dp1538
g66
(dp1539
sg75
g691
sg68
(lp1540
g61
(g82
g63
NtRp1541
(dp1542
g66
(dp1543
g86
g87
ssg75
g1537
sg68
(lp1544
S'web2py_original_uri'
p1545
asbag61
(g82
g63
NtRp1546
(dp1547
g66
(dp1548
g93
g94
ssg75
g1537
sg68
(lp1549
S':'
asbag61
(g82
g63
NtRp1550
(dp1551
g66
(dp1552
sg75
g1537
sg68
(lp1553
g61
(g62
g63
NtRp1554
(dp1555
g66
(dp1556
g74
I4
ssg75
g1550
sg68
(lp1557
g1319
asbasbasbag61
(g77
g63
NtRp1558
(dp1559
g66
(dp1560
sg75
g691
sg68
(lp1561
g61
(g82
g63
NtRp1562
(dp1563
g66
(dp1564
g86
g87
ssg75
g1558
sg68
(lp1565
S'web2py_path'
p1566
asbag61
(g82
g63
NtRp1567
(dp1568
g66
(dp1569
g93
g94
ssg75
g1558
sg68
(lp1570
S':'
asbag61
(g82
g63
NtRp1571
(dp1572
g66
(dp1573
sg75
g1558
sg68
(lp1574
g61
(g62
g63
NtRp1575
(dp1576
g66
(dp1577
g74
I4
ssg75
g1571
sg68
(lp1578
g738
asbasbasbag61
(g77
g63
NtRp1579
(dp1580
g66
(dp1581
sg75
g691
sg68
(lp1582
g61
(g82
g63
NtRp1583
(dp1584
g66
(dp1585
g86
g87
ssg75
g1579
sg68
(lp1586
S'web2py_version'
p1587
asbag61
(g82
g63
NtRp1588
(dp1589
g66
(dp1590
g93
g94
ssg75
g1579
sg68
(lp1591
S':'
asbag61
(g82
g63
NtRp1592
(dp1593
g66
(dp1594
sg75
g1579
sg68
(lp1595
g61
(g62
g63
NtRp1596
(dp1597
g66
(dp1598
g74
I4
ssg75
g1592
sg68
(lp1599
g61
(g70
g63
NtRp1600
(dp1601
g66
(dp1602
g74
I3
ssg75
Nsg68
(lp1603
g61
(g77
g63
NtRp1604
(dp1605
g66
(dp1606
sg75
g1600
sg68
(lp1607
g61
(g82
g63
NtRp1608
(dp1609
g66
(dp1610
sg75
g1604
sg68
(lp1611
g61
(g62
g63
NtRp1612
(dp1613
g66
(dp1614
g74
I3
ssg75
g1608
sg68
(lp1615
S'2'
asbasbasbag61
(g77
g63
NtRp1616
(dp1617
g66
(dp1618
sg75
g1600
sg68
(lp1619
g61
(g82
g63
NtRp1620
(dp1621
g66
(dp1622
sg75
g1616
sg68
(lp1623
g61
(g62
g63
NtRp1624
(dp1625
g66
(dp1626
g74
I3
ssg75
g1620
sg68
(lp1627
S'3'
asbasbasbag61
(g77
g63
NtRp1628
(dp1629
g66
(dp1630
sg75
g1600
sg68
(lp1631
g61
(g82
g63
NtRp1632
(dp1633
g66
(dp1634
sg75
g1628
sg68
(lp1635
g61
(g62
g63
NtRp1636
(dp1637
g66
(dp1638
g74
I3
ssg75
g1632
sg68
(lp1639
S'2'
asbasbasbag61
(g77
g63
NtRp1640
(dp1641
g66
(dp1642
sg75
g1600
sg68
(lp1643
g61
(g82
g63
NtRp1644
(dp1645
g66
(dp1646
sg75
g1640
sg68
(lp1647
g61
(g62
g63
NtRp1648
(dp1649
g66
(dp1650
g74
I3
ssg75
g1644
sg68
(lp1651
S'datetime.datetime(2012, 12, 17, 15, 3, 30)'
p1652
asbasbasbag61
(g77
g63
NtRp1653
(dp1654
g66
(dp1655
sg75
g1600
sg68
(lp1656
g61
(g82
g63
NtRp1657
(dp1658
g66
(dp1659
sg75
g1653
sg68
(lp1660
g61
(g62
g63
NtRp1661
(dp1662
g66
(dp1663
g74
I3
ssg75
g1657
sg68
(lp1664
S'stable'
p1665
asbasbasbasbasbasbasbag61
(g77
g63
NtRp1666
(dp1667
g66
(dp1668
sg75
g691
sg68
(lp1669
g61
(g82
g63
NtRp1670
(dp1671
g66
(dp1672
g86
g87
ssg75
g1666
sg68
(lp1673
S'wsgi_errors'
p1674
asbag61
(g82
g63
NtRp1675
(dp1676
g66
(dp1677
g93
g94
ssg75
g1666
sg68
(lp1678
S':'
asbag61
(g82
g63
NtRp1679
(dp1680
g66
(dp1681
sg75
g1666
sg68
(lp1682
g61
(g62
g63
NtRp1683
(dp1684
g66
(dp1685
g74
I4
ssg75
g1679
sg68
(lp1686
S"<open file '<stderr>', mode 'w' at 0x7f3308ed3270>"
p1687
asbasbasbag61
(g77
g63
NtRp1688
(dp1689
g66
(dp1690
sg75
g691
sg68
(lp1691
g61
(g82
g63
NtRp1692
(dp1693
g66
(dp1694
g86
g87
ssg75
g1688
sg68
(lp1695
S'wsgi_file_wrapper'
p1696
asbag61
(g82
g63
NtRp1697
(dp1698
g66
(dp1699
g93
g94
ssg75
g1688
sg68
(lp1700
S':'
asbag61
(g82
g63
NtRp1701
(dp1702
g66
(dp1703
sg75
g1688
sg68
(lp1704
g61
(g62
g63
NtRp1705
(dp1706
g66
(dp1707
g74
I4
ssg75
g1701
sg68
(lp1708
S'<class wsgiref.util.FileWrapper at 0x2194598>'
p1709
asbasbasbag61
(g77
g63
NtRp1710
(dp1711
g66
(dp1712
sg75
g691
sg68
(lp1713
g61
(g82
g63
NtRp1714
(dp1715
g66
(dp1716
g86
g87
ssg75
g1710
sg68
(lp1717
S'wsgi_input'
p1718
asbag61
(g82
g63
NtRp1719
(dp1720
g66
(dp1721
g93
g94
ssg75
g1710
sg68
(lp1722
S':'
asbag61
(g82
g63
NtRp1723
(dp1724
g66
(dp1725
sg75
g1710
sg68
(lp1726
g61
(g62
g63
NtRp1727
(dp1728
g66
(dp1729
g74
I4
ssg75
g1723
sg68
(lp1730
S'<socket._fileobject object at 0x7f32e4379350>'
p1731
asbasbasbag61
(g77
g63
NtRp1732
(dp1733
g66
(dp1734
sg75
g691
sg68
(lp1735
g61
(g82
g63
NtRp1736
(dp1737
g66
(dp1738
g86
g87
ssg75
g1732
sg68
(lp1739
S'wsgi_multiprocess'
p1740
asbag61
(g82
g63
NtRp1741
(dp1742
g66
(dp1743
g93
g94
ssg75
g1732
sg68
(lp1744
S':'
asbag61
(g82
g63
NtRp1745
(dp1746
g66
(dp1747
sg75
g1732
sg68
(lp1748
g61
(g62
g63
NtRp1749
(dp1750
g66
(dp1751
g74
I4
ssg75
g1745
sg68
(lp1752
g104
asbasbasbag61
(g77
g63
NtRp1753
(dp1754
g66
(dp1755
sg75
g691
sg68
(lp1756
g61
(g82
g63
NtRp1757
(dp1758
g66
(dp1759
g86
g87
ssg75
g1753
sg68
(lp1760
S'wsgi_multithread'
p1761
asbag61
(g82
g63
NtRp1762
(dp1763
g66
(dp1764
g93
g94
ssg75
g1753
sg68
(lp1765
S':'
asbag61
(g82
g63
NtRp1766
(dp1767
g66
(dp1768
sg75
g1753
sg68
(lp1769
g61
(g62
g63
NtRp1770
(dp1771
g66
(dp1772
g74
I4
ssg75
g1766
sg68
(lp1773
S'True'
p1774
asbasbasbag61
(g77
g63
NtRp1775
(dp1776
g66
(dp1777
sg75
g691
sg68
(lp1778
g61
(g82
g63
NtRp1779
(dp1780
g66
(dp1781
g86
g87
ssg75
g1775
sg68
(lp1782
S'wsgi_run_once'
p1783
asbag61
(g82
g63
NtRp1784
(dp1785
g66
(dp1786
g93
g94
ssg75
g1775
sg68
(lp1787
S':'
asbag61
(g82
g63
NtRp1788
(dp1789
g66
(dp1790
sg75
g1775
sg68
(lp1791
g61
(g62
g63
NtRp1792
(dp1793
g66
(dp1794
g74
I4
ssg75
g1788
sg68
(lp1795
g104
asbasbasbag61
(g77
g63
NtRp1796
(dp1797
g66
(dp1798
sg75
g691
sg68
(lp1799
g61
(g82
g63
NtRp1800
(dp1801
g66
(dp1802
g86
g87
ssg75
g1796
sg68
(lp1803
S'wsgi_url_scheme'
p1804
asbag61
(g82
g63
NtRp1805
(dp1806
g66
(dp1807
g93
g94
ssg75
g1796
sg68
(lp1808
S':'
asbag61
(g82
g63
NtRp1809
(dp1810
g66
(dp1811
sg75
g1796
sg68
(lp1812
g61
(g62
g63
NtRp1813
(dp1814
g66
(dp1815
g74
I4
ssg75
g1809
sg68
(lp1816
S'http'
p1817
asbasbasbag61
(g77
g63
NtRp1818
(dp1819
g66
(dp1820
sg75
g691
sg68
(lp1821
g61
(g82
g63
NtRp1822
(dp1823
g66
(dp1824
g86
g87
ssg75
g1818
sg68
(lp1825
S'wsgi_version'
p1826
asbag61
(g82
g63
NtRp1827
(dp1828
g66
(dp1829
g93
g94
ssg75
g1818
sg68
(lp1830
S':'
asbag61
(g82
g63
NtRp1831
(dp1832
g66
(dp1833
sg75
g1818
sg68
(lp1834
g61
(g62
g63
NtRp1835
(dp1836
g66
(dp1837
g74
I4
ssg75
g1831
sg68
(lp1838
g61
(g70
g63
NtRp1839
(dp1840
g66
(dp1841
g74
I3
ssg75
Nsg68
(lp1842
g61
(g77
g63
NtRp1843
(dp1844
g66
(dp1845
sg75
g1839
sg68
(lp1846
g61
(g82
g63
NtRp1847
(dp1848
g66
(dp1849
sg75
g1843
sg68
(lp1850
g61
(g62
g63
NtRp1851
(dp1852
g66
(dp1853
g74
I3
ssg75
g1847
sg68
(lp1854
S'1'
asbasbasbag61
(g77
g63
NtRp1855
(dp1856
g66
(dp1857
sg75
g1839
sg68
(lp1858
g61
(g82
g63
NtRp1859
(dp1860
g66
(dp1861
sg75
g1855
sg68
(lp1862
g61
(g62
g63
NtRp1863
(dp1864
g66
(dp1865
g74
I3
ssg75
g1859
sg68
(lp1866
S'0'
asbasbasbasbasbasbasbasbasbasbasbag61
(g77
g63
NtRp1867
(dp1868
g66
(dp1869
sg75
g71
sg68
(lp1870
g61
(g82
g63
NtRp1871
(dp1872
g66
(dp1873
g86
g87
ssg75
g1867
sg68
(lp1874
S'extension'
p1875
asbag61
(g82
g63
NtRp1876
(dp1877
g66
(dp1878
g93
g94
ssg75
g1867
sg68
(lp1879
S':'
asbag61
(g82
g63
NtRp1880
(dp1881
g66
(dp1882
sg75
g1867
sg68
(lp1883
g61
(g62
g63
NtRp1884
(dp1885
g66
(dp1886
g74
I5
ssg75
g1880
sg68
(lp1887
S'html'
p1888
asbasbasbag61
(g77
g63
NtRp1889
(dp1890
g66
(dp1891
sg75
g71
sg68
(lp1892
g61
(g82
g63
NtRp1893
(dp1894
g66
(dp1895
g86
g87
ssg75
g1889
sg68
(lp1896
S'folder'
p1897
asbag61
(g82
g63
NtRp1898
(dp1899
g66
(dp1900
g93
g94
ssg75
g1889
sg68
(lp1901
S':'
asbag61
(g82
g63
NtRp1902
(dp1903
g66
(dp1904
sg75
g1889
sg68
(lp1905
g61
(g62
g63
NtRp1906
(dp1907
g66
(dp1908
g74
I5
ssg75
g1902
sg68
(lp1909
S'/var/www/conferencia/applications/projeto/'
p1910
asbasbasbag61
(g77
g63
NtRp1911
(dp1912
g66
(dp1913
sg75
g71
sg68
(lp1914
g61
(g82
g63
NtRp1915
(dp1916
g66
(dp1917
g86
g87
ssg75
g1911
sg68
(lp1918
S'function'
p1919
asbag61
(g82
g63
NtRp1920
(dp1921
g66
(dp1922
g93
g94
ssg75
g1911
sg68
(lp1923
S':'
asbag61
(g82
g63
NtRp1924
(dp1925
g66
(dp1926
sg75
g1911
sg68
(lp1927
g61
(g62
g63
NtRp1928
(dp1929
g66
(dp1930
g74
I5
ssg75
g1924
sg68
(lp1931
S'show_cliente'
p1932
asbasbasbag61
(g77
g63
NtRp1933
(dp1934
g66
(dp1935
sg75
g71
sg68
(lp1936
g61
(g82
g63
NtRp1937
(dp1938
g66
(dp1939
g86
g87
ssg75
g1933
sg68
(lp1940
S'get_vars'
p1941
asbag61
(g82
g63
NtRp1942
(dp1943
g66
(dp1944
g93
g94
ssg75
g1933
sg68
(lp1945
S':'
asbag61
(g82
g63
NtRp1946
(dp1947
g66
(dp1948
sg75
g1933
sg68
(lp1949
g61
(g62
g63
NtRp1950
(dp1951
g66
(dp1952
g74
I5
ssg75
g1946
sg68
(lp1953
g61
(g70
g63
NtRp1954
(dp1955
g66
(dp1956
g74
I4
ssg75
Nsg68
(lp1957
sbasbasbasbag61
(g77
g63
NtRp1958
(dp1959
g66
(dp1960
sg75
g71
sg68
(lp1961
g61
(g82
g63
NtRp1962
(dp1963
g66
(dp1964
g86
g87
ssg75
g1958
sg68
(lp1965
S'global_settings'
p1966
asbag61
(g82
g63
NtRp1967
(dp1968
g66
(dp1969
g93
g94
ssg75
g1958
sg68
(lp1970
S':'
asbag61
(g82
g63
NtRp1971
(dp1972
g66
(dp1973
sg75
g1958
sg68
(lp1974
g61
(g62
g63
NtRp1975
(dp1976
g66
(dp1977
g74
I5
ssg75
g1971
sg68
(lp1978
g61
(g70
g63
NtRp1979
(dp1980
g66
(dp1981
g74
I4
ssg75
Nsg68
(lp1982
g61
(g77
g63
NtRp1983
(dp1984
g66
(dp1985
sg75
g1979
sg68
(lp1986
g61
(g82
g63
NtRp1987
(dp1988
g66
(dp1989
g86
g87
ssg75
g1983
sg68
(lp1990
g703
asbag61
(g82
g63
NtRp1991
(dp1992
g66
(dp1993
g93
g94
ssg75
g1983
sg68
(lp1994
S':'
asbag61
(g82
g63
NtRp1995
(dp1996
g66
(dp1997
sg75
g1983
sg68
(lp1998
g61
(g62
g63
NtRp1999
(dp2000
g66
(dp2001
g74
I4
ssg75
g1995
sg68
(lp2002
S"set(['/var/www/conferencia/applications/admin/', '/var/www/conferencia/applications/projeto/'])"
p2003
asbasbasbag61
(g77
g63
NtRp2004
(dp2005
g66
(dp2006
sg75
g1979
sg68
(lp2007
g61
(g82
g63
NtRp2008
(dp2009
g66
(dp2010
g86
g87
ssg75
g2004
sg68
(lp2011
g725
asbag61
(g82
g63
NtRp2012
(dp2013
g66
(dp2014
g93
g94
ssg75
g2004
sg68
(lp2015
S':'
asbag61
(g82
g63
NtRp2016
(dp2017
g66
(dp2018
sg75
g2004
sg68
(lp2019
g61
(g62
g63
NtRp2020
(dp2021
g66
(dp2022
g74
I4
ssg75
g2016
sg68
(lp2023
g738
asbasbasbag61
(g77
g63
NtRp2024
(dp2025
g66
(dp2026
sg75
g1979
sg68
(lp2027
g61
(g82
g63
NtRp2028
(dp2029
g66
(dp2030
g86
g87
ssg75
g2024
sg68
(lp2031
g747
asbag61
(g82
g63
NtRp2032
(dp2033
g66
(dp2034
g93
g94
ssg75
g2024
sg68
(lp2035
S':'
asbag61
(g82
g63
NtRp2036
(dp2037
g66
(dp2038
sg75
g2024
sg68
(lp2039
g61
(g62
g63
NtRp2040
(dp2041
g66
(dp2042
g74
I4
ssg75
g2036
sg68
(lp2043
g61
(g70
g63
NtRp2044
(dp2045
g66
(dp2046
g74
I3
ssg75
Nsg68
(lp2047
sbasbasbasbag61
(g77
g63
NtRp2048
(dp2049
g66
(dp2050
sg75
g1979
sg68
(lp2051
g61
(g82
g63
NtRp2052
(dp2053
g66
(dp2054
g86
g87
ssg75
g2048
sg68
(lp2055
g772
asbag61
(g82
g63
NtRp2056
(dp2057
g66
(dp2058
g93
g94
ssg75
g2048
sg68
(lp2059
S':'
asbag61
(g82
g63
NtRp2060
(dp2061
g66
(dp2062
sg75
g2048
sg68
(lp2063
g61
(g62
g63
NtRp2064
(dp2065
g66
(dp2066
g74
I4
ssg75
g2060
sg68
(lp2067
S"<Values at 0x221c248: {'verbose': False, 'ip': '127.0.0.1', 'with_scheduler': False, 'ips': [], 'shutdown_timeout': 5, 'taskbar': False, 'port': 8000, 'maxthreads': None, 'softcron': False, 'server_name': 'fernando-workstation', 'bpython': False, 'nogui': False, 'pid_filename': 'httpserver.pid', 'extcron': False, 'runcron': False, 'run_system_tests': False, 'test': None, 'folder': '/var/www/conferencia', 'config': '', 'minthreads': None, 'winservice': '', 'shell': None, 'run': '', 'log_filename': 'httpserver.log', 'debuglevel': 30, 'args': [''], 'socket_timeout': 5, 'ssl_ca_certificate': None, 'scheduler': None, 'profiler_filename': None, 'ssl_private_key': '', 'scheduler_groups': None, 'password': '123456', 'request_queue_size': 5, 'ssl_certificate': '', 'cronjob': False, 'numthreads': None, 'quiet': False, 'interfaces': None, 'import_models': False, 'timeout': 10, 'plain': False, 'nobanner': False}>"
p2068
asbasbasbag61
(g77
g63
NtRp2069
(dp2070
g66
(dp2071
sg75
g1979
sg68
(lp2072
g61
(g82
g63
NtRp2073
(dp2074
g66
(dp2075
g86
g87
ssg75
g2069
sg68
(lp2076
g838
asbag61
(g82
g63
NtRp2077
(dp2078
g66
(dp2079
g93
g94
ssg75
g2069
sg68
(lp2080
S':'
asbag61
(g82
g63
NtRp2081
(dp2082
g66
(dp2083
sg75
g2069
sg68
(lp2084
g61
(g62
g63
NtRp2085
(dp2086
g66
(dp2087
g74
I4
ssg75
g2081
sg68
(lp2088
S'set([])'
p2089
asbasbasbag61
(g77
g63
NtRp2090
(dp2091
g66
(dp2092
sg75
g1979
sg68
(lp2093
g61
(g82
g63
NtRp2094
(dp2095
g66
(dp2096
g86
g87
ssg75
g2090
sg68
(lp2097
g860
asbag61
(g82
g63
NtRp2098
(dp2099
g66
(dp2100
g93
g94
ssg75
g2090
sg68
(lp2101
S':'
asbag61
(g82
g63
NtRp2102
(dp2103
g66
(dp2104
sg75
g2090
sg68
(lp2105
g61
(g62
g63
NtRp2106
(dp2107
g66
(dp2108
g74
I4
ssg75
g2102
sg68
(lp2109
g104
asbasbasbag61
(g77
g63
NtRp2110
(dp2111
g66
(dp2112
sg75
g1979
sg68
(lp2113
g61
(g82
g63
NtRp2114
(dp2115
g66
(dp2116
g86
g87
ssg75
g2110
sg68
(lp2117
g881
asbag61
(g82
g63
NtRp2118
(dp2119
g66
(dp2120
g93
g94
ssg75
g2110
sg68
(lp2121
S':'
asbag61
(g82
g63
NtRp2122
(dp2123
g66
(dp2124
sg75
g2110
sg68
(lp2125
g61
(g62
g63
NtRp2126
(dp2127
g66
(dp2128
g74
I4
ssg75
g2122
sg68
(lp2129
g894
asbasbasbag61
(g77
g63
NtRp2130
(dp2131
g66
(dp2132
sg75
g1979
sg68
(lp2133
g61
(g82
g63
NtRp2134
(dp2135
g66
(dp2136
g86
g87
ssg75
g2130
sg68
(lp2137
g1187
asbag61
(g82
g63
NtRp2138
(dp2139
g66
(dp2140
g93
g94
ssg75
g2130
sg68
(lp2141
S':'
asbag61
(g82
g63
NtRp2142
(dp2143
g66
(dp2144
sg75
g2130
sg68
(lp2145
g61
(g62
g63
NtRp2146
(dp2147
g66
(dp2148
g74
I4
ssg75
g2142
sg68
(lp2149
g104
asbasbasbag61
(g77
g63
NtRp2150
(dp2151
g66
(dp2152
sg75
g1979
sg68
(lp2153
g61
(g82
g63
NtRp2154
(dp2155
g66
(dp2156
g86
g87
ssg75
g2150
sg68
(lp2157
g1208
asbag61
(g82
g63
NtRp2158
(dp2159
g66
(dp2160
g93
g94
ssg75
g2150
sg68
(lp2161
S':'
asbag61
(g82
g63
NtRp2162
(dp2163
g66
(dp2164
sg75
g2150
sg68
(lp2165
g61
(g62
g63
NtRp2166
(dp2167
g66
(dp2168
g74
I4
ssg75
g2162
sg68
(lp2169
g104
asbasbasbag61
(g77
g63
NtRp2170
(dp2171
g66
(dp2172
sg75
g1979
sg68
(lp2173
g61
(g82
g63
NtRp2174
(dp2175
g66
(dp2176
g86
g87
ssg75
g2170
sg68
(lp2177
g1229
asbag61
(g82
g63
NtRp2178
(dp2179
g66
(dp2180
g93
g94
ssg75
g2170
sg68
(lp2181
S':'
asbag61
(g82
g63
NtRp2182
(dp2183
g66
(dp2184
sg75
g2170
sg68
(lp2185
g61
(g62
g63
NtRp2186
(dp2187
g66
(dp2188
g74
I4
ssg75
g2182
sg68
(lp2189
g61
(g70
g63
NtRp2190
(dp2191
g66
(dp2192
g74
I3
ssg75
Nsg68
(lp2193
g61
(g77
g63
NtRp2194
(dp2195
g66
(dp2196
sg75
g2190
sg68
(lp2197
g61
(g82
g63
NtRp2198
(dp2199
g66
(dp2200
sg75
g2194
sg68
(lp2201
g61
(g62
g63
NtRp2202
(dp2203
g66
(dp2204
g74
I3
ssg75
g2198
sg68
(lp2205
g1258
asbasbasbag61
(g77
g63
NtRp2206
(dp2207
g66
(dp2208
sg75
g2190
sg68
(lp2209
g61
(g82
g63
NtRp2210
(dp2211
g66
(dp2212
sg75
g2206
sg68
(lp2213
g61
(g62
g63
NtRp2214
(dp2215
g66
(dp2216
g74
I3
ssg75
g2210
sg68
(lp2217
g1271
asbasbasbag61
(g77
g63
NtRp2218
(dp2219
g66
(dp2220
sg75
g2190
sg68
(lp2221
g61
(g82
g63
NtRp2222
(dp2223
g66
(dp2224
sg75
g2218
sg68
(lp2225
g61
(g62
g63
NtRp2226
(dp2227
g66
(dp2228
g74
I3
ssg75
g2222
sg68
(lp2229
g1284
asbasbasbag61
(g77
g63
NtRp2230
(dp2231
g66
(dp2232
sg75
g2190
sg68
(lp2233
g61
(g82
g63
NtRp2234
(dp2235
g66
(dp2236
sg75
g2230
sg68
(lp2237
g61
(g62
g63
NtRp2238
(dp2239
g66
(dp2240
g74
I3
ssg75
g2234
sg68
(lp2241
g1297
asbasbasbasbasbasbasbag61
(g77
g63
NtRp2242
(dp2243
g66
(dp2244
sg75
g1979
sg68
(lp2245
g61
(g82
g63
NtRp2246
(dp2247
g66
(dp2248
g86
g87
ssg75
g2242
sg68
(lp2249
g1587
asbag61
(g82
g63
NtRp2250
(dp2251
g66
(dp2252
g93
g94
ssg75
g2242
sg68
(lp2253
S':'
asbag61
(g82
g63
NtRp2254
(dp2255
g66
(dp2256
sg75
g2242
sg68
(lp2257
g61
(g62
g63
NtRp2258
(dp2259
g66
(dp2260
g74
I4
ssg75
g2254
sg68
(lp2261
g61
(g70
g63
NtRp2262
(dp2263
g66
(dp2264
g74
I3
ssg75
Nsg68
(lp2265
g61
(g77
g63
NtRp2266
(dp2267
g66
(dp2268
sg75
g2262
sg68
(lp2269
g61
(g82
g63
NtRp2270
(dp2271
g66
(dp2272
sg75
g2266
sg68
(lp2273
g61
(g62
g63
NtRp2274
(dp2275
g66
(dp2276
g74
I3
ssg75
g2270
sg68
(lp2277
S'2'
asbasbasbag61
(g77
g63
NtRp2278
(dp2279
g66
(dp2280
sg75
g2262
sg68
(lp2281
g61
(g82
g63
NtRp2282
(dp2283
g66
(dp2284
sg75
g2278
sg68
(lp2285
g61
(g62
g63
NtRp2286
(dp2287
g66
(dp2288
g74
I3
ssg75
g2282
sg68
(lp2289
S'3'
asbasbasbag61
(g77
g63
NtRp2290
(dp2291
g66
(dp2292
sg75
g2262
sg68
(lp2293
g61
(g82
g63
NtRp2294
(dp2295
g66
(dp2296
sg75
g2290
sg68
(lp2297
g61
(g62
g63
NtRp2298
(dp2299
g66
(dp2300
g74
I3
ssg75
g2294
sg68
(lp2301
S'2'
asbasbasbag61
(g77
g63
NtRp2302
(dp2303
g66
(dp2304
sg75
g2262
sg68
(lp2305
g61
(g82
g63
NtRp2306
(dp2307
g66
(dp2308
sg75
g2302
sg68
(lp2309
g61
(g62
g63
NtRp2310
(dp2311
g66
(dp2312
g74
I3
ssg75
g2306
sg68
(lp2313
S'datetime.datetime(2012, 12, 17, 15, 3, 30)'
p2314
asbasbasbag61
(g77
g63
NtRp2315
(dp2316
g66
(dp2317
sg75
g2262
sg68
(lp2318
g61
(g82
g63
NtRp2319
(dp2320
g66
(dp2321
sg75
g2315
sg68
(lp2322
g61
(g62
g63
NtRp2323
(dp2324
g66
(dp2325
g74
I3
ssg75
g2319
sg68
(lp2326
g1665
asbasbasbasbasbasbasbasbasbasbasbag61
(g77
g63
NtRp2327
(dp2328
g66
(dp2329
sg75
g71
sg68
(lp2330
g61
(g82
g63
NtRp2331
(dp2332
g66
(dp2333
g86
g87
ssg75
g2327
sg68
(lp2334
S'is_https'
p2335
asbag61
(g82
g63
NtRp2336
(dp2337
g66
(dp2338
g93
g94
ssg75
g2327
sg68
(lp2339
S':'
asbag61
(g82
g63
NtRp2340
(dp2341
g66
(dp2342
sg75
g2327
sg68
(lp2343
g61
(g62
g63
NtRp2344
(dp2345
g66
(dp2346
g74
I5
ssg75
g2340
sg68
(lp2347
g104
asbasbasbag61
(g77
g63
NtRp2348
(dp2349
g66
(dp2350
sg75
g71
sg68
(lp2351
g61
(g82
g63
NtRp2352
(dp2353
g66
(dp2354
g86
g87
ssg75
g2348
sg68
(lp2355
S'is_local'
p2356
asbag61
(g82
g63
NtRp2357
(dp2358
g66
(dp2359
g93
g94
ssg75
g2348
sg68
(lp2360
S':'
asbag61
(g82
g63
NtRp2361
(dp2362
g66
(dp2363
sg75
g2348
sg68
(lp2364
g61
(g62
g63
NtRp2365
(dp2366
g66
(dp2367
g74
I5
ssg75
g2361
sg68
(lp2368
g1774
asbasbasbag61
(g77
g63
NtRp2369
(dp2370
g66
(dp2371
sg75
g71
sg68
(lp2372
g61
(g82
g63
NtRp2373
(dp2374
g66
(dp2375
g86
g87
ssg75
g2369
sg68
(lp2376
S'is_restful'
p2377
asbag61
(g82
g63
NtRp2378
(dp2379
g66
(dp2380
g93
g94
ssg75
g2369
sg68
(lp2381
S':'
asbag61
(g82
g63
NtRp2382
(dp2383
g66
(dp2384
sg75
g2369
sg68
(lp2385
g61
(g62
g63
NtRp2386
(dp2387
g66
(dp2388
g74
I5
ssg75
g2382
sg68
(lp2389
g104
asbasbasbag61
(g77
g63
NtRp2390
(dp2391
g66
(dp2392
sg75
g71
sg68
(lp2393
g61
(g82
g63
NtRp2394
(dp2395
g66
(dp2396
g86
g87
ssg75
g2390
sg68
(lp2397
S'now'
p2398
asbag61
(g82
g63
NtRp2399
(dp2400
g66
(dp2401
g93
g94
ssg75
g2390
sg68
(lp2402
S':'
asbag61
(g82
g63
NtRp2403
(dp2404
g66
(dp2405
sg75
g2390
sg68
(lp2406
g61
(g62
g63
NtRp2407
(dp2408
g66
(dp2409
g74
I5
ssg75
g2403
sg68
(lp2410
S'datetime.datetime(2013, 4, 2, 18, 46, 48, 761763)'
p2411
asbasbasbag61
(g77
g63
NtRp2412
(dp2413
g66
(dp2414
sg75
g71
sg68
(lp2415
g61
(g82
g63
NtRp2416
(dp2417
g66
(dp2418
g86
g87
ssg75
g2412
sg68
(lp2419
S'post_vars'
p2420
asbag61
(g82
g63
NtRp2421
(dp2422
g66
(dp2423
g93
g94
ssg75
g2412
sg68
(lp2424
S':'
asbag61
(g82
g63
NtRp2425
(dp2426
g66
(dp2427
sg75
g2412
sg68
(lp2428
g61
(g62
g63
NtRp2429
(dp2430
g66
(dp2431
g74
I5
ssg75
g2425
sg68
(lp2432
g61
(g70
g63
NtRp2433
(dp2434
g66
(dp2435
g74
I4
ssg75
Nsg68
(lp2436
g61
(g77
g63
NtRp2437
(dp2438
g66
(dp2439
sg75
g2433
sg68
(lp2440
g61
(g82
g63
NtRp2441
(dp2442
g66
(dp2443
g86
g87
ssg75
g2437
sg68
(lp2444
S'endtime'
p2445
asbag61
(g82
g63
NtRp2446
(dp2447
g66
(dp2448
g93
g94
ssg75
g2437
sg68
(lp2449
S':'
asbag61
(g82
g63
NtRp2450
(dp2451
g66
(dp2452
sg75
g2437
sg68
(lp2453
g61
(g62
g63
NtRp2454
(dp2455
g66
(dp2456
g74
I4
ssg75
g2450
sg68
(lp2457
S'2013-04-17 18:46:46'
p2458
asbasbasbag61
(g77
g63
NtRp2459
(dp2460
g66
(dp2461
sg75
g2433
sg68
(lp2462
g61
(g82
g63
NtRp2463
(dp2464
g66
(dp2465
g86
g87
ssg75
g2459
sg68
(lp2466
S'starttime'
p2467
asbag61
(g82
g63
NtRp2468
(dp2469
g66
(dp2470
g93
g94
ssg75
g2459
sg68
(lp2471
S':'
asbag61
(g82
g63
NtRp2472
(dp2473
g66
(dp2474
sg75
g2459
sg68
(lp2475
g61
(g62
g63
NtRp2476
(dp2477
g66
(dp2478
g74
I4
ssg75
g2472
sg68
(lp2479
S'2013-04-03 18:46:43'
p2480
asbasbasbasbasbasbasbag61
(g77
g63
NtRp2481
(dp2482
g66
(dp2483
sg75
g71
sg68
(lp2484
g61
(g82
g63
NtRp2485
(dp2486
g66
(dp2487
g86
g87
ssg75
g2481
sg68
(lp2488
S'url'
p2489
asbag61
(g82
g63
NtRp2490
(dp2491
g66
(dp2492
g93
g94
ssg75
g2481
sg68
(lp2493
S':'
asbag61
(g82
g63
NtRp2494
(dp2495
g66
(dp2496
sg75
g2481
sg68
(lp2497
g61
(g62
g63
NtRp2498
(dp2499
g66
(dp2500
g74
I5
ssg75
g2494
sg68
(lp2501
g1319
asbasbasbag61
(g77
g63
NtRp2502
(dp2503
g66
(dp2504
sg75
g71
sg68
(lp2505
g61
(g82
g63
NtRp2506
(dp2507
g66
(dp2508
g86
g87
ssg75
g2502
sg68
(lp2509
S'utcnow'
p2510
asbag61
(g82
g63
NtRp2511
(dp2512
g66
(dp2513
g93
g94
ssg75
g2502
sg68
(lp2514
S':'
asbag61
(g82
g63
NtRp2515
(dp2516
g66
(dp2517
sg75
g2502
sg68
(lp2518
g61
(g62
g63
NtRp2519
(dp2520
g66
(dp2521
g74
I5
ssg75
g2515
sg68
(lp2522
S'datetime.datetime(2013, 4, 2, 21, 46, 48, 761819)'
p2523
asbasbasbag61
(g77
g63
NtRp2524
(dp2525
g66
(dp2526
sg75
g71
sg68
(lp2527
g61
(g82
g63
NtRp2528
(dp2529
g66
(dp2530
g86
g87
ssg75
g2524
sg68
(lp2531
S'uuid'
p2532
asbag61
(g82
g63
NtRp2533
(dp2534
g66
(dp2535
g93
g94
ssg75
g2524
sg68
(lp2536
S':'
asbag61
(g82
g63
NtRp2537
(dp2538
g66
(dp2539
sg75
g2524
sg68
(lp2540
g61
(g62
g63
NtRp2541
(dp2542
g66
(dp2543
g74
I5
ssg75
g2537
sg68
(lp2544
S'projeto/127.0.0.1.2013-04-02.18-46-48.b01d2168-35b9-4604-9740-c50f56cdac9c'
p2545
asbasbasbag61
(g77
g63
NtRp2546
(dp2547
g66
(dp2548
sg75
g71
sg68
(lp2549
g61
(g82
g63
NtRp2550
(dp2551
g66
(dp2552
g86
g87
ssg75
g2546
sg68
(lp2553
S'vars'
p2554
asbag61
(g82
g63
NtRp2555
(dp2556
g66
(dp2557
g93
g94
ssg75
g2546
sg68
(lp2558
S':'
asbag61
(g82
g63
NtRp2559
(dp2560
g66
(dp2561
sg75
g2546
sg68
(lp2562
g61
(g62
g63
NtRp2563
(dp2564
g66
(dp2565
g74
I5
ssg75
g2559
sg68
(lp2566
g61
(g70
g63
NtRp2567
(dp2568
g66
(dp2569
g74
I4
ssg75
Nsg68
(lp2570
g61
(g77
g63
NtRp2571
(dp2572
g66
(dp2573
sg75
g2567
sg68
(lp2574
g61
(g82
g63
NtRp2575
(dp2576
g66
(dp2577
g86
g87
ssg75
g2571
sg68
(lp2578
g2445
asbag61
(g82
g63
NtRp2579
(dp2580
g66
(dp2581
g93
g94
ssg75
g2571
sg68
(lp2582
S':'
asbag61
(g82
g63
NtRp2583
(dp2584
g66
(dp2585
sg75
g2571
sg68
(lp2586
g61
(g62
g63
NtRp2587
(dp2588
g66
(dp2589
g74
I4
ssg75
g2583
sg68
(lp2590
g2458
asbasbasbag61
(g77
g63
NtRp2591
(dp2592
g66
(dp2593
sg75
g2567
sg68
(lp2594
g61
(g82
g63
NtRp2595
(dp2596
g66
(dp2597
g86
g87
ssg75
g2591
sg68
(lp2598
g2467
asbag61
(g82
g63
NtRp2599
(dp2600
g66
(dp2601
g93
g94
ssg75
g2591
sg68
(lp2602
S':'
asbag61
(g82
g63
NtRp2603
(dp2604
g66
(dp2605
sg75
g2591
sg68
(lp2606
g61
(g62
g63
NtRp2607
(dp2608
g66
(dp2609
g74
I4
ssg75
g2603
sg68
(lp2610
g2480
asbasbasbasbasbasbasbag61
(g77
g63
NtRp2611
(dp2612
g66
(dp2613
sg75
g71
sg68
(lp2614
g61
(g82
g63
NtRp2615
(dp2616
g66
(dp2617
g86
g87
ssg75
g2611
sg68
(lp2618
S'wsgi'
p2619
asbag61
(g82
g63
NtRp2620
(dp2621
g66
(dp2622
g93
g94
ssg75
g2611
sg68
(lp2623
S':'
asbag61
(g82
g63
NtRp2624
(dp2625
g66
(dp2626
sg75
g2611
sg68
(lp2627
g61
(g62
g63
NtRp2628
(dp2629
g66
(dp2630
g74
I5
ssg75
g2624
sg68
(lp2631
g61
(g70
g63
NtRp2632
(dp2633
g66
(dp2634
g74
I4
ssg75
Nsg68
(lp2635
g61
(g77
g63
NtRp2636
(dp2637
g66
(dp2638
sg75
g2632
sg68
(lp2639
g61
(g82
g63
NtRp2640
(dp2641
g66
(dp2642
g86
g87
ssg75
g2636
sg68
(lp2643
S'environ'
p2644
asbag61
(g82
g63
NtRp2645
(dp2646
g66
(dp2647
g93
g94
ssg75
g2636
sg68
(lp2648
S':'
asbag61
(g82
g63
NtRp2649
(dp2650
g66
(dp2651
sg75
g2636
sg68
(lp2652
g61
(g62
g63
NtRp2653
(dp2654
g66
(dp2655
g74
I4
ssg75
g2649
sg68
(lp2656
g61
(g70
g63
NtRp2657
(dp2658
g66
(dp2659
g74
I3
ssg75
Nsg68
(lp2660
g61
(g77
g63
NtRp2661
(dp2662
g66
(dp2663
sg75
g2657
sg68
(lp2664
g61
(g82
g63
NtRp2665
(dp2666
g66
(dp2667
g86
g87
ssg75
g2661
sg68
(lp2668
S'CONTENT_LENGTH'
p2669
asbag61
(g82
g63
NtRp2670
(dp2671
g66
(dp2672
g93
g94
ssg75
g2661
sg68
(lp2673
S':'
asbag61
(g82
g63
NtRp2674
(dp2675
g66
(dp2676
sg75
g2661
sg68
(lp2677
g61
(g62
g63
NtRp2678
(dp2679
g66
(dp2680
g74
I3
ssg75
g2674
sg68
(lp2681
g807
asbasbasbag61
(g77
g63
NtRp2682
(dp2683
g66
(dp2684
sg75
g2657
sg68
(lp2685
g61
(g82
g63
NtRp2686
(dp2687
g66
(dp2688
g86
g87
ssg75
g2682
sg68
(lp2689
S'CONTENT_TYPE'
p2690
asbag61
(g82
g63
NtRp2691
(dp2692
g66
(dp2693
g93
g94
ssg75
g2682
sg68
(lp2694
S':'
asbag61
(g82
g63
NtRp2695
(dp2696
g66
(dp2697
sg75
g2682
sg68
(lp2698
g61
(g62
g63
NtRp2699
(dp2700
g66
(dp2701
g74
I3
ssg75
g2695
sg68
(lp2702
g829
asbasbasbag61
(g77
g63
NtRp2703
(dp2704
g66
(dp2705
sg75
g2657
sg68
(lp2706
g61
(g82
g63
NtRp2707
(dp2708
g66
(dp2709
g86
g87
ssg75
g2703
sg68
(lp2710
S'HTTP_ACCEPT'
p2711
asbag61
(g82
g63
NtRp2712
(dp2713
g66
(dp2714
g93
g94
ssg75
g2703
sg68
(lp2715
S':'
asbag61
(g82
g63
NtRp2716
(dp2717
g66
(dp2718
sg75
g2703
sg68
(lp2719
g61
(g62
g63
NtRp2720
(dp2721
g66
(dp2722
g74
I3
ssg75
g2716
sg68
(lp2723
g916
asbasbasbag61
(g77
g63
NtRp2724
(dp2725
g66
(dp2726
sg75
g2657
sg68
(lp2727
g61
(g82
g63
NtRp2728
(dp2729
g66
(dp2730
g86
g87
ssg75
g2724
sg68
(lp2731
S'HTTP_ACCEPT_CHARSET'
p2732
asbag61
(g82
g63
NtRp2733
(dp2734
g66
(dp2735
g93
g94
ssg75
g2724
sg68
(lp2736
S':'
asbag61
(g82
g63
NtRp2737
(dp2738
g66
(dp2739
sg75
g2724
sg68
(lp2740
g61
(g62
g63
NtRp2741
(dp2742
g66
(dp2743
g74
I3
ssg75
g2737
sg68
(lp2744
g938
asbasbasbag61
(g77
g63
NtRp2745
(dp2746
g66
(dp2747
sg75
g2657
sg68
(lp2748
g61
(g82
g63
NtRp2749
(dp2750
g66
(dp2751
g86
g87
ssg75
g2745
sg68
(lp2752
S'HTTP_ACCEPT_ENCODING'
p2753
asbag61
(g82
g63
NtRp2754
(dp2755
g66
(dp2756
g93
g94
ssg75
g2745
sg68
(lp2757
S':'
asbag61
(g82
g63
NtRp2758
(dp2759
g66
(dp2760
sg75
g2745
sg68
(lp2761
g61
(g62
g63
NtRp2762
(dp2763
g66
(dp2764
g74
I3
ssg75
g2758
sg68
(lp2765
g960
asbasbasbag61
(g77
g63
NtRp2766
(dp2767
g66
(dp2768
sg75
g2657
sg68
(lp2769
g61
(g82
g63
NtRp2770
(dp2771
g66
(dp2772
g86
g87
ssg75
g2766
sg68
(lp2773
S'HTTP_ACCEPT_LANGUAGE'
p2774
asbag61
(g82
g63
NtRp2775
(dp2776
g66
(dp2777
g93
g94
ssg75
g2766
sg68
(lp2778
S':'
asbag61
(g82
g63
NtRp2779
(dp2780
g66
(dp2781
sg75
g2766
sg68
(lp2782
g61
(g62
g63
NtRp2783
(dp2784
g66
(dp2785
g74
I3
ssg75
g2779
sg68
(lp2786
g982
asbasbasbag61
(g77
g63
NtRp2787
(dp2788
g66
(dp2789
sg75
g2657
sg68
(lp2790
g61
(g82
g63
NtRp2791
(dp2792
g66
(dp2793
g86
g87
ssg75
g2787
sg68
(lp2794
S'HTTP_CACHE_CONTROL'
p2795
asbag61
(g82
g63
NtRp2796
(dp2797
g66
(dp2798
g93
g94
ssg75
g2787
sg68
(lp2799
S':'
asbag61
(g82
g63
NtRp2800
(dp2801
g66
(dp2802
sg75
g2787
sg68
(lp2803
g61
(g62
g63
NtRp2804
(dp2805
g66
(dp2806
g74
I3
ssg75
g2800
sg68
(lp2807
g1004
asbasbasbag61
(g77
g63
NtRp2808
(dp2809
g66
(dp2810
sg75
g2657
sg68
(lp2811
g61
(g82
g63
NtRp2812
(dp2813
g66
(dp2814
g86
g87
ssg75
g2808
sg68
(lp2815
S'HTTP_CONNECTION'
p2816
asbag61
(g82
g63
NtRp2817
(dp2818
g66
(dp2819
g93
g94
ssg75
g2808
sg68
(lp2820
S':'
asbag61
(g82
g63
NtRp2821
(dp2822
g66
(dp2823
sg75
g2808
sg68
(lp2824
g61
(g62
g63
NtRp2825
(dp2826
g66
(dp2827
g74
I3
ssg75
g2821
sg68
(lp2828
g1026
asbasbasbag61
(g77
g63
NtRp2829
(dp2830
g66
(dp2831
sg75
g2657
sg68
(lp2832
g61
(g82
g63
NtRp2833
(dp2834
g66
(dp2835
g86
g87
ssg75
g2829
sg68
(lp2836
S'HTTP_CONTENT_LENGTH'
p2837
asbag61
(g82
g63
NtRp2838
(dp2839
g66
(dp2840
g93
g94
ssg75
g2829
sg68
(lp2841
S':'
asbag61
(g82
g63
NtRp2842
(dp2843
g66
(dp2844
sg75
g2829
sg68
(lp2845
g61
(g62
g63
NtRp2846
(dp2847
g66
(dp2848
g74
I3
ssg75
g2842
sg68
(lp2849
g807
asbasbasbag61
(g77
g63
NtRp2850
(dp2851
g66
(dp2852
sg75
g2657
sg68
(lp2853
g61
(g82
g63
NtRp2854
(dp2855
g66
(dp2856
g86
g87
ssg75
g2850
sg68
(lp2857
S'HTTP_CONTENT_TYPE'
p2858
asbag61
(g82
g63
NtRp2859
(dp2860
g66
(dp2861
g93
g94
ssg75
g2850
sg68
(lp2862
S':'
asbag61
(g82
g63
NtRp2863
(dp2864
g66
(dp2865
sg75
g2850
sg68
(lp2866
g61
(g62
g63
NtRp2867
(dp2868
g66
(dp2869
g74
I3
ssg75
g2863
sg68
(lp2870
g829
asbasbasbag61
(g77
g63
NtRp2871
(dp2872
g66
(dp2873
sg75
g2657
sg68
(lp2874
g61
(g82
g63
NtRp2875
(dp2876
g66
(dp2877
g86
g87
ssg75
g2871
sg68
(lp2878
S'HTTP_COOKIE'
p2879
asbag61
(g82
g63
NtRp2880
(dp2881
g66
(dp2882
g93
g94
ssg75
g2871
sg68
(lp2883
S':'
asbag61
(g82
g63
NtRp2884
(dp2885
g66
(dp2886
sg75
g2871
sg68
(lp2887
g61
(g62
g63
NtRp2888
(dp2889
g66
(dp2890
g74
I3
ssg75
g2884
sg68
(lp2891
g1090
asbasbasbag61
(g77
g63
NtRp2892
(dp2893
g66
(dp2894
sg75
g2657
sg68
(lp2895
g61
(g82
g63
NtRp2896
(dp2897
g66
(dp2898
g86
g87
ssg75
g2892
sg68
(lp2899
S'HTTP_HOST'
p2900
asbag61
(g82
g63
NtRp2901
(dp2902
g66
(dp2903
g93
g94
ssg75
g2892
sg68
(lp2904
S':'
asbag61
(g82
g63
NtRp2905
(dp2906
g66
(dp2907
sg75
g2892
sg68
(lp2908
g61
(g62
g63
NtRp2909
(dp2910
g66
(dp2911
g74
I3
ssg75
g2905
sg68
(lp2912
g1112
asbasbasbag61
(g77
g63
NtRp2913
(dp2914
g66
(dp2915
sg75
g2657
sg68
(lp2916
g61
(g82
g63
NtRp2917
(dp2918
g66
(dp2919
g86
g87
ssg75
g2913
sg68
(lp2920
S'HTTP_ORIGIN'
p2921
asbag61
(g82
g63
NtRp2922
(dp2923
g66
(dp2924
g93
g94
ssg75
g2913
sg68
(lp2925
S':'
asbag61
(g82
g63
NtRp2926
(dp2927
g66
(dp2928
sg75
g2913
sg68
(lp2929
g61
(g62
g63
NtRp2930
(dp2931
g66
(dp2932
g74
I3
ssg75
g2926
sg68
(lp2933
g1134
asbasbasbag61
(g77
g63
NtRp2934
(dp2935
g66
(dp2936
sg75
g2657
sg68
(lp2937
g61
(g82
g63
NtRp2938
(dp2939
g66
(dp2940
g86
g87
ssg75
g2934
sg68
(lp2941
S'HTTP_REFERER'
p2942
asbag61
(g82
g63
NtRp2943
(dp2944
g66
(dp2945
g93
g94
ssg75
g2934
sg68
(lp2946
S':'
asbag61
(g82
g63
NtRp2947
(dp2948
g66
(dp2949
sg75
g2934
sg68
(lp2950
g61
(g62
g63
NtRp2951
(dp2952
g66
(dp2953
g74
I3
ssg75
g2947
sg68
(lp2954
g1156
asbasbasbag61
(g77
g63
NtRp2955
(dp2956
g66
(dp2957
sg75
g2657
sg68
(lp2958
g61
(g82
g63
NtRp2959
(dp2960
g66
(dp2961
g86
g87
ssg75
g2955
sg68
(lp2962
S'HTTP_USER_AGENT'
p2963
asbag61
(g82
g63
NtRp2964
(dp2965
g66
(dp2966
g93
g94
ssg75
g2955
sg68
(lp2967
S':'
asbag61
(g82
g63
NtRp2968
(dp2969
g66
(dp2970
sg75
g2955
sg68
(lp2971
g61
(g62
g63
NtRp2972
(dp2973
g66
(dp2974
g74
I3
ssg75
g2968
sg68
(lp2975
g1178
asbasbasbag61
(g77
g63
NtRp2976
(dp2977
g66
(dp2978
sg75
g2657
sg68
(lp2979
g61
(g82
g63
NtRp2980
(dp2981
g66
(dp2982
g86
g87
ssg75
g2976
sg68
(lp2983
S'PATH_INFO'
p2984
asbag61
(g82
g63
NtRp2985
(dp2986
g66
(dp2987
g93
g94
ssg75
g2976
sg68
(lp2988
S':'
asbag61
(g82
g63
NtRp2989
(dp2990
g66
(dp2991
sg75
g2976
sg68
(lp2992
g61
(g62
g63
NtRp2993
(dp2994
g66
(dp2995
g74
I3
ssg75
g2989
sg68
(lp2996
g1319
asbasbasbag61
(g77
g63
NtRp2997
(dp2998
g66
(dp2999
sg75
g2657
sg68
(lp3000
g61
(g82
g63
NtRp3001
(dp3002
g66
(dp3003
g86
g87
ssg75
g2997
sg68
(lp3004
S'QUERY_STRING'
p3005
asbag61
(g82
g63
NtRp3006
(dp3007
g66
(dp3008
g93
g94
ssg75
g2997
sg68
(lp3009
S':'
asbag61
(g82
g63
NtRp3010
(dp3011
g66
(dp3012
sg75
g2997
sg68
(lp3013
g61
(g62
g63
NtRp3014
(dp3015
g66
(dp3016
g74
I3
ssg75
g3010
sg68
(lp3017
S''
asbasbasbag61
(g77
g63
NtRp3018
(dp3019
g66
(dp3020
sg75
g2657
sg68
(lp3021
g61
(g82
g63
NtRp3022
(dp3023
g66
(dp3024
g86
g87
ssg75
g3018
sg68
(lp3025
S'REMOTE_ADDR'
p3026
asbag61
(g82
g63
NtRp3027
(dp3028
g66
(dp3029
g93
g94
ssg75
g3018
sg68
(lp3030
S':'
asbag61
(g82
g63
NtRp3031
(dp3032
g66
(dp3033
sg75
g3018
sg68
(lp3034
g61
(g62
g63
NtRp3035
(dp3036
g66
(dp3037
g74
I3
ssg75
g3031
sg68
(lp3038
g242
asbasbasbag61
(g77
g63
NtRp3039
(dp3040
g66
(dp3041
sg75
g2657
sg68
(lp3042
g61
(g82
g63
NtRp3043
(dp3044
g66
(dp3045
g86
g87
ssg75
g3039
sg68
(lp3046
S'REMOTE_PORT'
p3047
asbag61
(g82
g63
NtRp3048
(dp3049
g66
(dp3050
g93
g94
ssg75
g3039
sg68
(lp3051
S':'
asbag61
(g82
g63
NtRp3052
(dp3053
g66
(dp3054
sg75
g3039
sg68
(lp3055
g61
(g62
g63
NtRp3056
(dp3057
g66
(dp3058
g74
I3
ssg75
g3052
sg68
(lp3059
g1383
asbasbasbag61
(g77
g63
NtRp3060
(dp3061
g66
(dp3062
sg75
g2657
sg68
(lp3063
g61
(g82
g63
NtRp3064
(dp3065
g66
(dp3066
g86
g87
ssg75
g3060
sg68
(lp3067
S'REQUEST_METHOD'
p3068
asbag61
(g82
g63
NtRp3069
(dp3070
g66
(dp3071
g93
g94
ssg75
g3060
sg68
(lp3072
S':'
asbag61
(g82
g63
NtRp3073
(dp3074
g66
(dp3075
sg75
g3060
sg68
(lp3076
g61
(g62
g63
NtRp3077
(dp3078
g66
(dp3079
g74
I3
ssg75
g3073
sg68
(lp3080
g1405
asbasbasbag61
(g77
g63
NtRp3081
(dp3082
g66
(dp3083
sg75
g2657
sg68
(lp3084
g61
(g82
g63
NtRp3085
(dp3086
g66
(dp3087
g86
g87
ssg75
g3081
sg68
(lp3088
S'REQUEST_URI'
p3089
asbag61
(g82
g63
NtRp3090
(dp3091
g66
(dp3092
g93
g94
ssg75
g3081
sg68
(lp3093
S':'
asbag61
(g82
g63
NtRp3094
(dp3095
g66
(dp3096
sg75
g3081
sg68
(lp3097
g61
(g62
g63
NtRp3098
(dp3099
g66
(dp3100
g74
I3
ssg75
g3094
sg68
(lp3101
g1427
asbasbasbag61
(g77
g63
NtRp3102
(dp3103
g66
(dp3104
sg75
g2657
sg68
(lp3105
g61
(g82
g63
NtRp3106
(dp3107
g66
(dp3108
g86
g87
ssg75
g3102
sg68
(lp3109
S'SCRIPT_NAME'
p3110
asbag61
(g82
g63
NtRp3111
(dp3112
g66
(dp3113
g93
g94
ssg75
g3102
sg68
(lp3114
S':'
asbag61
(g82
g63
NtRp3115
(dp3116
g66
(dp3117
sg75
g3102
sg68
(lp3118
g61
(g62
g63
NtRp3119
(dp3120
g66
(dp3121
g74
I3
ssg75
g3115
sg68
(lp3122
S''
asbasbasbag61
(g77
g63
NtRp3123
(dp3124
g66
(dp3125
sg75
g2657
sg68
(lp3126
g61
(g82
g63
NtRp3127
(dp3128
g66
(dp3129
g86
g87
ssg75
g3123
sg68
(lp3130
S'SERVER_NAME'
p3131
asbag61
(g82
g63
NtRp3132
(dp3133
g66
(dp3134
g93
g94
ssg75
g3123
sg68
(lp3135
S':'
asbag61
(g82
g63
NtRp3136
(dp3137
g66
(dp3138
sg75
g3123
sg68
(lp3139
g61
(g62
g63
NtRp3140
(dp3141
g66
(dp3142
g74
I3
ssg75
g3136
sg68
(lp3143
g1470
asbasbasbag61
(g77
g63
NtRp3144
(dp3145
g66
(dp3146
sg75
g2657
sg68
(lp3147
g61
(g82
g63
NtRp3148
(dp3149
g66
(dp3150
g86
g87
ssg75
g3144
sg68
(lp3151
S'SERVER_PORT'
p3152
asbag61
(g82
g63
NtRp3153
(dp3154
g66
(dp3155
g93
g94
ssg75
g3144
sg68
(lp3156
S':'
asbag61
(g82
g63
NtRp3157
(dp3158
g66
(dp3159
sg75
g3144
sg68
(lp3160
g61
(g62
g63
NtRp3161
(dp3162
g66
(dp3163
g74
I3
ssg75
g3157
sg68
(lp3164
g1492
asbasbasbag61
(g77
g63
NtRp3165
(dp3166
g66
(dp3167
sg75
g2657
sg68
(lp3168
g61
(g82
g63
NtRp3169
(dp3170
g66
(dp3171
g86
g87
ssg75
g3165
sg68
(lp3172
S'SERVER_PROTOCOL'
p3173
asbag61
(g82
g63
NtRp3174
(dp3175
g66
(dp3176
g93
g94
ssg75
g3165
sg68
(lp3177
S':'
asbag61
(g82
g63
NtRp3178
(dp3179
g66
(dp3180
sg75
g3165
sg68
(lp3181
g61
(g62
g63
NtRp3182
(dp3183
g66
(dp3184
g74
I3
ssg75
g3178
sg68
(lp3185
g1514
asbasbasbag61
(g77
g63
NtRp3186
(dp3187
g66
(dp3188
sg75
g2657
sg68
(lp3189
g61
(g82
g63
NtRp3190
(dp3191
g66
(dp3192
g86
g87
ssg75
g3186
sg68
(lp3193
S'SERVER_SOFTWARE'
p3194
asbag61
(g82
g63
NtRp3195
(dp3196
g66
(dp3197
g93
g94
ssg75
g3186
sg68
(lp3198
S':'
asbag61
(g82
g63
NtRp3199
(dp3200
g66
(dp3201
sg75
g3186
sg68
(lp3202
g61
(g62
g63
NtRp3203
(dp3204
g66
(dp3205
g74
I3
ssg75
g3199
sg68
(lp3206
g1536
asbasbasbag61
(g77
g63
NtRp3207
(dp3208
g66
(dp3209
sg75
g2657
sg68
(lp3210
g61
(g82
g63
NtRp3211
(dp3212
g66
(dp3213
g86
g87
ssg75
g3207
sg68
(lp3214
S'WEB2PY_ORIGINAL_URI'
p3215
asbag61
(g82
g63
NtRp3216
(dp3217
g66
(dp3218
g93
g94
ssg75
g3207
sg68
(lp3219
S':'
asbag61
(g82
g63
NtRp3220
(dp3221
g66
(dp3222
sg75
g3207
sg68
(lp3223
g61
(g62
g63
NtRp3224
(dp3225
g66
(dp3226
g74
I3
ssg75
g3220
sg68
(lp3227
g1319
asbasbasbag61
(g77
g63
NtRp3228
(dp3229
g66
(dp3230
sg75
g2657
sg68
(lp3231
g61
(g82
g63
NtRp3232
(dp3233
g66
(dp3234
g86
g87
ssg75
g3228
sg68
(lp3235
S'wsgi.errors'
p3236
asbag61
(g82
g63
NtRp3237
(dp3238
g66
(dp3239
g93
g94
ssg75
g3228
sg68
(lp3240
S':'
asbag61
(g82
g63
NtRp3241
(dp3242
g66
(dp3243
sg75
g3228
sg68
(lp3244
g61
(g62
g63
NtRp3245
(dp3246
g66
(dp3247
g74
I3
ssg75
g3241
sg68
(lp3248
S"<open file '<stderr>', mode 'w' at 0x7f3308ed3270>"
p3249
asbasbasbag61
(g77
g63
NtRp3250
(dp3251
g66
(dp3252
sg75
g2657
sg68
(lp3253
g61
(g82
g63
NtRp3254
(dp3255
g66
(dp3256
g86
g87
ssg75
g3250
sg68
(lp3257
S'wsgi.file_wrapper'
p3258
asbag61
(g82
g63
NtRp3259
(dp3260
g66
(dp3261
g93
g94
ssg75
g3250
sg68
(lp3262
S':'
asbag61
(g82
g63
NtRp3263
(dp3264
g66
(dp3265
sg75
g3250
sg68
(lp3266
g61
(g62
g63
NtRp3267
(dp3268
g66
(dp3269
g74
I3
ssg75
g3263
sg68
(lp3270
S'<class wsgiref.util.FileWrapper at 0x2194598>'
p3271
asbasbasbag61
(g77
g63
NtRp3272
(dp3273
g66
(dp3274
sg75
g2657
sg68
(lp3275
g61
(g82
g63
NtRp3276
(dp3277
g66
(dp3278
g86
g87
ssg75
g3272
sg68
(lp3279
S'wsgi.input'
p3280
asbag61
(g82
g63
NtRp3281
(dp3282
g66
(dp3283
g93
g94
ssg75
g3272
sg68
(lp3284
S':'
asbag61
(g82
g63
NtRp3285
(dp3286
g66
(dp3287
sg75
g3272
sg68
(lp3288
g61
(g62
g63
NtRp3289
(dp3290
g66
(dp3291
g74
I3
ssg75
g3285
sg68
(lp3292
S"<open file '<fdopen>', mode 'w+b' at 0x7f32e438b780>"
p3293
asbasbasbag61
(g77
g63
NtRp3294
(dp3295
g66
(dp3296
sg75
g2657
sg68
(lp3297
g61
(g82
g63
NtRp3298
(dp3299
g66
(dp3300
g86
g87
ssg75
g3294
sg68
(lp3301
S'wsgi.multiprocess'
p3302
asbag61
(g82
g63
NtRp3303
(dp3304
g66
(dp3305
g93
g94
ssg75
g3294
sg68
(lp3306
S':'
asbag61
(g82
g63
NtRp3307
(dp3308
g66
(dp3309
sg75
g3294
sg68
(lp3310
g61
(g62
g63
NtRp3311
(dp3312
g66
(dp3313
g74
I3
ssg75
g3307
sg68
(lp3314
g104
asbasbasbag61
(g77
g63
NtRp3315
(dp3316
g66
(dp3317
sg75
g2657
sg68
(lp3318
g61
(g82
g63
NtRp3319
(dp3320
g66
(dp3321
g86
g87
ssg75
g3315
sg68
(lp3322
S'wsgi.multithread'
p3323
asbag61
(g82
g63
NtRp3324
(dp3325
g66
(dp3326
g93
g94
ssg75
g3315
sg68
(lp3327
S':'
asbag61
(g82
g63
NtRp3328
(dp3329
g66
(dp3330
sg75
g3315
sg68
(lp3331
g61
(g62
g63
NtRp3332
(dp3333
g66
(dp3334
g74
I3
ssg75
g3328
sg68
(lp3335
g1774
asbasbasbag61
(g77
g63
NtRp3336
(dp3337
g66
(dp3338
sg75
g2657
sg68
(lp3339
g61
(g82
g63
NtRp3340
(dp3341
g66
(dp3342
g86
g87
ssg75
g3336
sg68
(lp3343
S'wsgi.run_once'
p3344
asbag61
(g82
g63
NtRp3345
(dp3346
g66
(dp3347
g93
g94
ssg75
g3336
sg68
(lp3348
S':'
asbag61
(g82
g63
NtRp3349
(dp3350
g66
(dp3351
sg75
g3336
sg68
(lp3352
g61
(g62
g63
NtRp3353
(dp3354
g66
(dp3355
g74
I3
ssg75
g3349
sg68
(lp3356
g104
asbasbasbag61
(g77
g63
NtRp3357
(dp3358
g66
(dp3359
sg75
g2657
sg68
(lp3360
g61
(g82
g63
NtRp3361
(dp3362
g66
(dp3363
g86
g87
ssg75
g3357
sg68
(lp3364
S'wsgi.url_scheme'
p3365
asbag61
(g82
g63
NtRp3366
(dp3367
g66
(dp3368
g93
g94
ssg75
g3357
sg68
(lp3369
S':'
asbag61
(g82
g63
NtRp3370
(dp3371
g66
(dp3372
sg75
g3357
sg68
(lp3373
g61
(g62
g63
NtRp3374
(dp3375
g66
(dp3376
g74
I3
ssg75
g3370
sg68
(lp3377
g1817
asbasbasbag61
(g77
g63
NtRp3378
(dp3379
g66
(dp3380
sg75
g2657
sg68
(lp3381
g61
(g82
g63
NtRp3382
(dp3383
g66
(dp3384
g86
g87
ssg75
g3378
sg68
(lp3385
S'wsgi.version'
p3386
asbag61
(g82
g63
NtRp3387
(dp3388
g66
(dp3389
g93
g94
ssg75
g3378
sg68
(lp3390
S':'
asbag61
(g82
g63
NtRp3391
(dp3392
g66
(dp3393
sg75
g3378
sg68
(lp3394
g61
(g62
g63
NtRp3395
(dp3396
g66
(dp3397
g74
I3
ssg75
g3391
sg68
(lp3398
S'1'
asbasbasbasbasbasbasbasbasbasbasbasbasbsS'frames'
p3399
(lp3400
(dp3401
S'file'
p3402
S'/var/www/conferencia/gluon/restricted.py'
p3403
sS'dump'
p3404
(dp3405
S'environment'
p3406
S"{'A': <class 'gluon.html.A'>, 'Auth': <class 'gluon.tools.Auth'>, 'B': <class 'gluon.html.B'>, 'BEAUTIFY': <class 'gluon.html.BEAUTIFY'>, 'BODY': <class 'gluon.html.BODY'>, 'BR': <class 'gluon.html.BR'>, 'BUTTON': <class 'gluon.html.BUTTON'>, 'CAT': <class 'gluon.html.CAT'>, 'CENTER': <class 'gluon.html.CENTER'>, 'CLEANUP': <class 'gluon.validators.CLEANUP'>, ...}"
p3407
sS'ccode'
p3408
S'<code object <module> at 0x7f32e40f27b0, file "/...ications/projeto/controllers/initial.py", line 3>'
p3409
ssS'lnum'
p3410
I212
sS'lines'
p3411
(dp3412
I207
S'    try:'
p3413
sI208
S'        if isinstance(code, types.CodeType):'
p3414
sI209
S'            ccode = code'
p3415
sI210
S'        else:'
p3416
sI211
S'            ccode = compile2(code, layer)'
p3417
sI212
S'        exec ccode in environment'
p3418
sI213
S'    except HTTP:'
p3419
sI214
S'        raise'
p3420
sI215
S'    except RestrictedError:'
p3421
sI216
S'        # do not encapsulate (obfuscate) the original RestrictedError'
p3422
ssS'call'
p3423
S"(code='# coding: utf-8\\n\\ndef show_cliente():\\n\\tresponse.t...)\\n\\nresponse._vars=response._caller(show_cliente)\\n', environment={'A': <class 'gluon.html.A'>, 'Auth': <class 'gluon.tools.Auth'>, 'B': <class 'gluon.html.B'>, 'BEAUTIFY': <class 'gluon.html.BEAUTIFY'>, 'BODY': <class 'gluon.html.BODY'>, 'BR': <class 'gluon.html.BR'>, 'BUTTON': <class 'gluon.html.BUTTON'>, 'CAT': <class 'gluon.html.CAT'>, 'CENTER': <class 'gluon.html.CENTER'>, 'CLEANUP': <class 'gluon.validators.CLEANUP'>, ...}, layer='/var/www/conferencia/applications/projeto/controllers/initial.py')"
p3424
sS'func'
p3425
S'restricted'
p3426
sa(dp3427
g3402
S'/var/www/conferencia/applications/projeto/controllers/initial.py'
p3428
sg3404
(dp3429
sg3410
I328
sg3411
(dp3430
I320
S'\t\t\t)'
p3431
sI321
S"\telif auth.has_membership('internet'):"
p3432
sI322
S'\t\tmail.send('
p3433
sI323
S'\t\t\tto="fernando@ad2.com.br",'
p3434
sI324
S'\t\t\tsubject="host adicionado",'
p3435
sI325
S'\t\t\tmessage="<html>Um novo host foi adicionado pelo usu\xc3\xa1rio %s <br>nome: %s <br>vpn: %s<br><br>\xc3\x89 preciso fazer a instala\xc3\xa7\xc3\xa3o do client zabbix e bacula</html>" % (auth.user.first_name, host.nome, host.ip_chegada,)'
p3436
sI326
S'\t\t\t)'
p3437
sI317
S'\t\t\tto="fndiaz02@gmail.com",'
p3438
sI318
S'\t\t\tsubject="host adicionado",'
p3439
sI319
S'\t\t\tmessage="<html>Um novo host foi adicionado pelo usu\xc3\xa1rio %s <br>nome: %s <br>vpn: %s<br><br>\xc3\x89 preciso fazer a instala\xc3\xa7\xc3\xa3o do client zabbix e bacula</html>" % (auth.user.first_name, host.nome, host.ip_chegada,)'
p3440
ssg3423
S'()'
p3441
sg3425
S'<module>'
p3442
sa(dp3443
g3402
S'/var/www/conferencia/gluon/globals.py'
p3444
sg3404
(dp3445
S'self'
p3446
S'undefined'
p3447
sS'f'
S'<function show_cliente>'
p3448
ssg3410
I193
sg3411
(dp3449
I192
S'        self._vars = None'
p3450
sI193
S'        self._caller = lambda f: f()'
p3451
sI194
S'        self._view_environment = None'
p3452
sI195
S'        self._custom_commit = None'
p3453
sI196
S'        self._custom_rollback = None'
p3454
sI197
S''
sI188
S'        self.menu = []             # used by the default view layout'
p3455
sI189
S'        self.files = []            # used by web2py_ajax.html'
p3456
sI190
S'        self.generic_patterns = []  # patterns to allow generic views'
p3457
sI191
S"        self.delimiters = ('{{', '}}')"
p3458
ssg3423
S'(f=<function show_cliente>)'
p3459
sg3425
S'<lambda>'
p3460
sa(dp3461
g3402
S'/var/www/conferencia/applications/projeto/controllers/initial.py'
p3462
sg3404
(dp3463
S'ignore_rw'
p3464
g3447
sS'builtinTrue'
p3465
g1774
sS'maxtextlength'
p3466
g3447
ssg3410
I9
sg3411
(dp3467
I4
S'\tresponse.title="Eventos"'
p3468
sI5
S''
sI6
S'\tgrid = SQLFORM.grid(db.meetme,'
p3469
sI7
S'\t\tuser_signature=False, searchable=True, csv=False,'
p3470
sI8
S'\t\tpaginate=50, details=False,'
p3471
sI9
S'\t\tignore_rw = True, maxtextlength=36,'
p3472
sI10
S'    \t)'
p3473
sI11
S'\treturn response.render("initial/show_grid.html", grid=grid)'
p3474
sI12
S''
sI13
S'@auth.requires_login()'
p3475
ssg3423
S'()'
p3476
sg3425
S'show_cliente'
p3477
sa(dp3478
g3402
S'/var/www/conferencia/gluon/sqlhtml.py'
p3479
sg3404
(dp3480
S'oncreate'
p3481
S'None'
p3482
sS'onsuccess'
p3483
g3447
ssg3410
I1881
sg3411
(dp3484
I1876
S"                _class='web2py_form',"
p3485
sI1877
S'                **sqlformargs)'
p3486
sI1878
S'            create_form.process(formname=formname,'
p3487
sI1879
S'                                next=referrer,'
p3488
sI1880
S'                                onvalidation=onvalidation,'
p3489
sI1881
S'                                onsuccess=oncreate)'
p3490
sI1882
S'            res = DIV(buttons(), create_form, formfooter, _class=_class)'
p3491
sI1883
S'            res.create_form = create_form'
p3492
sI1884
S'            res.update_form = update_form'
p3493
sI1885
S'            res.view_form = view_form'
p3494
ssg3423
S"(query=<Table meetme (confno,starttime,endtime,membros_user)>, fields=[<gluon.dal.Field object>, <gluon.dal.Field object>, <gluon.dal.Field object>, <gluon.dal.Field object>], field_id=<gluon.dal.Field object>, left=None, headers={}, orderby=None, groupby=None, searchable=True, sortable=True, paginate=50, deletable=True, editable=True, details=False, selectable=None, create=True, csv=False, links=None, links_in_grid=True, upload=<function <lambda>>, args=[], user_signature=False, maxtextlengths={}, maxtextlength=36, onvalidation=None, oncreate=None, onupdate=None, ondelete=None, sorter_icons=(<gluon.html.XML object>, <gluon.html.XML object>), ui={'button': 'button btn', 'buttonadd': 'icon plus icon-plus', 'buttonback': 'icon leftarrow icon-arrow-left', 'buttondelete': 'icon trash icon-trash', 'buttonedit': 'icon pen icon-pencil', 'buttonexport': 'icon downarrow icon-download', 'buttontable': 'icon rightarrow icon-arrow-right', 'buttontext': 'buttontext button', 'buttonview': 'icon magnifier icon-zoom-in', 'content': '', ...}, showbuttontext=True, _class='web2py_grid', formname='web2py_grid', search_widget='default', ignore_rw=True, formstyle='table3cols', exportclasses=None, formargs={}, createargs={}, editargs={}, viewargs={}, buttons_placement='right', links_placement='right')"
p3495
sg3425
S'grid'
p3496
sa(dp3497
g3402
S'/var/www/conferencia/gluon/html.py'
p3498
sg3404
(dp3499
S'self'
p3500
S'<gluon.sqlhtml.SQLFORM object>'
p3501
sS'self.validate'
p3502
S'<bound method SQLFORM.validate of <gluon.sqlhtml.SQLFORM object>>'
p3503
sS'kwargs'
p3504
S"{'dbio': True, 'formname': 'web2py_grid', 'next': '/show_cliente', 'onsuccess': None, 'onvalidation': None}"
p3505
ssg3410
I2179
sg3411
(dp3506
I2176
S'        """'
p3507
sI2177
S"        kwargs['dbio'] = kwargs.get('dbio', True)"
p3508
sI2178
S'                                    # necessary for SQLHTML forms'
p3509
sI2179
S'        self.validate(**kwargs)'
p3510
sI2180
S'        return self'
p3511
sI2181
S''
sI2182
S'    REDIRECT_JS = "window.location=\'%s\';return false"'
p3512
sI2183
S''
sI2174
S'        def action():'
p3513
sI2175
S'            return dict(form=SQLFORM(db.table).process(onsuccess=my_callback)'
p3514
ssg3423
S"(self=<gluon.sqlhtml.SQLFORM object>, **kwargs={'dbio': True, 'formname': 'web2py_grid', 'next': '/show_cliente', 'onsuccess': None, 'onvalidation': None})"
p3515
sg3425
S'process'
p3516
sa(dp3517
g3402
S'/var/www/conferencia/gluon/html.py'
p3518
sg3404
(dp3519
S'self'
p3520
S'<gluon.sqlhtml.SQLFORM object>'
p3521
sS'self.accepts'
p3522
S'<bound method SQLFORM.accepts of <gluon.sqlhtml.SQLFORM object>>'
p3523
sS'kwargs'
p3524
S"{'dbio': True, 'formname': 'web2py_grid', 'onvalidation': None, 'request_vars': <Storage {'_formkey': 'd85a9e1c-0b02-4f92-8fe0-1...eb2py_grid', 'starttime': '2013-04-03 18:46:43'}>, 'session': <Storage {'_web2py_grid_referrer_web2py_grid': '...ssion_hash': 'ee832600553d2b1659dc268947644c6f'}>}"
p3525
ssg3410
I2118
sg3411
(dp3526
I2113
S"        for key in ('message_onsuccess', 'message_onfailure', 'onsuccess',"
p3527
sI2114
S"                    'onfailure', 'next', 'message_onchange', 'onchange'):"
p3528
sI2115
S'            if key in kwargs:'
p3529
sI2116
S'                del kwargs[key]'
p3530
sI2117
S''
sI2118
S'        if self.accepts(**kwargs):'
p3531
sI2119
S"            if onsuccess == 'flash':"
p3532
sI2120
S'                if next:'
p3533
sI2121
S'                    current.session.flash = message_onsuccess'
p3534
sI2122
S'                else:'
p3535
ssg3423
S"(self=<gluon.sqlhtml.SQLFORM object>, **kwargs={'dbio': True, 'formname': 'web2py_grid', 'onvalidation': None, 'request_vars': <Storage {'_formkey': 'd85a9e1c-0b02-4f92-8fe0-1...eb2py_grid', 'starttime': '2013-04-03 18:46:43'}>, 'session': <Storage {'_web2py_grid_referrer_web2py_grid': '...ssion_hash': 'ee832600553d2b1659dc268947644c6f'}>})"
p3536
sg3425
S'validate'
p3537
sa(dp3538
g3402
S'/var/www/conferencia/gluon/sqlhtml.py'
p3539
sg3404
(dp3540
S'self.table.insert'
p3541
S'<bound method Table.insert of <Table meetme (confno,starttime,endtime,membros_user)>>'
p3542
sS'pk'
p3543
g3447
sS'self'
p3544
S'<gluon.sqlhtml.SQLFORM object>'
p3545
sS'self.table'
p3546
S'<Table meetme (confno,starttime,endtime,membros_user)>'
p3547
sS'fields'
p3548
S"{'endtime': datetime.datetime(2013, 4, 17, 18, 46, 46), 'membros_user': [], 'starttime': datetime.datetime(2013, 4, 3, 18, 46, 43)}"
p3549
ssg3410
I1474
sg3411
(dp3550
I1472
S'                        self.table._db(qry).update(**fields)'
p3551
sI1473
S'                else:'
p3552
sI1474
S'                    pk = self.table.insert(**fields)'
p3553
sI1475
S'                    if pk:'
p3554
sI1476
S'                        self.vars.update(pk)'
p3555
sI1477
S'                    else:'
p3556
sI1478
S'                        ret = False'
p3557
sI1469
S'                    if fields:'
p3558
sI1470
S'                        qry = reduce(lambda x, y: x & y,'
p3559
sI1471
S'                                     [self.table[k] == self.record[k] for k in self.table._primarykey])'
p3560
ssg3423
S"(self=<gluon.sqlhtml.SQLFORM object>, request_vars=<Storage {'_formkey': 'd85a9e1c-0b02-4f92-8fe0-1...eb2py_grid', 'starttime': '2013-04-03 18:46:43'}>, session=<Storage {'_web2py_grid_referrer_web2py_grid': '...ssion_hash': 'ee832600553d2b1659dc268947644c6f'}>, formname='web2py_grid', keepvalues=False, onvalidation=None, dbio=True, hideerror=False, detect_record_change=False, **kwargs={})"
p3561
sg3425
S'accepts'
p3562
sa(dp3563
g3402
S'/var/www/conferencia/gluon/dal.py'
p3564
sg3404
(dp3565
S'self._listify'
p3566
S'<bound method Table._listify of <Table meetme (confno,starttime,endtime,membros_user)>>'
p3567
sS'fields'
p3568
S"{'endtime': datetime.datetime(2013, 4, 17, 18, 46, 46), 'membros_user': [], 'starttime': datetime.datetime(2013, 4, 3, 18, 46, 43)}"
p3569
sS'self'
p3570
S'<Table meetme (confno,starttime,endtime,membros_user)>'
p3571
sS'ret'
p3572
g3447
sS'self._db._adapter'
p3573
S'<gluon.dal.PostgreSQLAdapter object>'
p3574
sS'self._db._adapter.insert'
p3575
S'<bound method PostgreSQLAdapter.insert of <gluon.dal.PostgreSQLAdapter object>>'
p3576
sS'self._db'
p3577
S'<DAL uri="postgres:pg8000://******:123456@127.0.0.1/conferencia">'
p3578
ssg3410
I7918
sg3411
(dp3579
I7913
S'        return self._db._adapter._insert(self,self._listify(fields))'
p3580
sI7914
S''
sI7915
S'    def insert(self, **fields):'
p3581
sI7916
S'        self._attempt_upload(fields)'
p3582
sI7917
S'        if any(f(fields) for f in self._before_insert): return 0'
p3583
sI7918
S'        ret =  self._db._adapter.insert(self,self._listify(fields))'
p3584
sI7919
S'        if ret and self._after_insert:'
p3585
sI7920
S'            fields = Row(fields)'
p3586
sI7921
S'            [f(fields,ret) for f in self._after_insert]'
p3587
sI7922
S'        return ret'
p3588
ssg3423
S"(self=<Table meetme (confno,starttime,endtime,membros_user)>, **fields={'endtime': datetime.datetime(2013, 4, 17, 18, 46, 46), 'membros_user': [], 'starttime': datetime.datetime(2013, 4, 3, 18, 46, 43)})"
p3589
sg3425
S'insert'
p3590
sa(dp3591
g3402
S'/var/www/conferencia/gluon/dal.py'
p3592
sg3404
(dp3593
S'e'
S'ProgrammingError(\'ERROR\', \'23502\', \'null value in column "confno" violates not-null constraint\')'
p3594
ssg3410
I1176
sg3411
(dp3595
I1171
S'            self.execute(query)'
p3596
sI1172
S'        except Exception:'
p3597
sI1173
S'            e = sys.exc_info()[1]'
p3598
sI1174
S'            if isinstance(e,self.integrity_error_class()):'
p3599
sI1175
S'                return None'
p3600
sI1176
S'            raise e'
p3601
sI1177
S"        if hasattr(table,'_primarykey'):"
p3602
sI1178
S'            return dict([(k[0].name, k[1]) for k in fields \\'
p3603
sI1179
S'                             if k[0].name in table._primarykey])'
p3604
sI1180
S'        id = self.lastrowid(table)'
p3605
ssg3423
S'(self=<gluon.dal.PostgreSQLAdapter object>, table=<Table meetme (confno,starttime,endtime,membros_user)>, fields=[(<gluon.dal.Field object>, []), (<gluon.dal.Field object>, datetime.datetime(2013, 4, 17, 18, 46, 46)), (<gluon.dal.Field object>, datetime.datetime(2013, 4, 3, 18, 46, 43))])'
p3606
sg3425
g3590
sasS'pyver'
p3607
S'Python 2.7.3: /usr/bin/python'
p3608
sS'session'
p3609
g61
(g62
g63
NtRp3610
(dp3611
g66
(dp3612
sg68
(lp3613
g61
(g70
g63
NtRp3614
(dp3615
g66
(dp3616
g74
I5
ssg75
Nsg68
(lp3617
g61
(g77
g63
NtRp3618
(dp3619
g66
(dp3620
sg75
g3614
sg68
(lp3621
g61
(g82
g63
NtRp3622
(dp3623
g66
(dp3624
g86
g87
ssg75
g3618
sg68
(lp3625
S'flash'
p3626
asbag61
(g82
g63
NtRp3627
(dp3628
g66
(dp3629
g93
g94
ssg75
g3618
sg68
(lp3630
S':'
asbag61
(g82
g63
NtRp3631
(dp3632
g66
(dp3633
sg75
g3618
sg68
(lp3634
g61
(g62
g63
NtRp3635
(dp3636
g66
(dp3637
g74
I5
ssg75
g3631
sg68
(lp3638
S'None'
p3639
asbasbasbasbasbsS'etype'
p3640
S"<class 'gluon.contrib.pg8000.errors.ProgrammingError'>"
p3641
sS'date'
p3642
S'Tue Apr  2 18:46:48 2013'
p3643
sS'response'
p3644
g61
(g62
g63
NtRp3645
(dp3646
g66
(dp3647
sg68
(lp3648
g61
(g70
g63
NtRp3649
(dp3650
g66
(dp3651
g74
I5
ssg75
Nsg68
(lp3652
g61
(g77
g63
NtRp3653
(dp3654
g66
(dp3655
sg75
g3649
sg68
(lp3656
g61
(g82
g63
NtRp3657
(dp3658
g66
(dp3659
g86
g87
ssg75
g3653
sg68
(lp3660
g185
asbag61
(g82
g63
NtRp3661
(dp3662
g66
(dp3663
g93
g94
ssg75
g3653
sg68
(lp3664
S':'
asbag61
(g82
g63
NtRp3665
(dp3666
g66
(dp3667
sg75
g3653
sg68
(lp3668
g61
(g62
g63
NtRp3669
(dp3670
g66
(dp3671
g74
I5
ssg75
g3665
sg68
(lp3672
S'<cStringIO.StringO object at 0x7f32e43580a0>'
p3673
asbasbasbag61
(g77
g63
NtRp3674
(dp3675
g66
(dp3676
sg75
g3649
sg68
(lp3677
g61
(g82
g63
NtRp3678
(dp3679
g66
(dp3680
g86
g87
ssg75
g3674
sg68
(lp3681
g273
asbag61
(g82
g63
NtRp3682
(dp3683
g66
(dp3684
g93
g94
ssg75
g3674
sg68
(lp3685
S':'
asbag61
(g82
g63
NtRp3686
(dp3687
g66
(dp3688
sg75
g3674
sg68
(lp3689
g61
(g62
g63
NtRp3690
(dp3691
g66
(dp3692
g74
I5
ssg75
g3686
sg68
(lp3693
g61
(g70
g63
NtRp3694
(dp3695
g66
(dp3696
g74
I4
ssg75
Nsg68
(lp3697
g61
(g77
g63
NtRp3698
(dp3699
g66
(dp3700
sg75
g3694
sg68
(lp3701
g61
(g82
g63
NtRp3702
(dp3703
g66
(dp3704
g86
g87
ssg75
g3698
sg68
(lp3705
S'session_id_projeto'
p3706
asbag61
(g82
g63
NtRp3707
(dp3708
g66
(dp3709
g93
g94
ssg75
g3698
sg68
(lp3710
S':'
asbag61
(g82
g63
NtRp3711
(dp3712
g66
(dp3713
sg75
g3698
sg68
(lp3714
g61
(g62
g63
NtRp3715
(dp3716
g66
(dp3717
g74
I4
ssg75
g3711
sg68
(lp3718
g505
ag61
(g70
g63
NtRp3719
(dp3720
g66
(dp3721
g74
I3
ssg75
Nsg68
(lp3722
g61
(g77
g63
NtRp3723
(dp3724
g66
(dp3725
sg75
g3719
sg68
(lp3726
g61
(g82
g63
NtRp3727
(dp3728
g66
(dp3729
g86
g87
ssg75
g3723
sg68
(lp3730
g324
asbag61
(g82
g63
NtRp3731
(dp3732
g66
(dp3733
g93
g94
ssg75
g3723
sg68
(lp3734
S':'
asbag61
(g82
g63
NtRp3735
(dp3736
g66
(dp3737
sg75
g3723
sg68
(lp3738
g61
(g62
g63
NtRp3739
(dp3740
g66
(dp3741
g74
I3
ssg75
g3735
sg68
(lp3742
S''
asbasbasbag61
(g77
g63
NtRp3743
(dp3744
g66
(dp3745
sg75
g3719
sg68
(lp3746
g61
(g82
g63
NtRp3747
(dp3748
g66
(dp3749
g86
g87
ssg75
g3743
sg68
(lp3750
g345
asbag61
(g82
g63
NtRp3751
(dp3752
g66
(dp3753
g93
g94
ssg75
g3743
sg68
(lp3754
S':'
asbag61
(g82
g63
NtRp3755
(dp3756
g66
(dp3757
sg75
g3743
sg68
(lp3758
g61
(g62
g63
NtRp3759
(dp3760
g66
(dp3761
g74
I3
ssg75
g3755
sg68
(lp3762
S''
asbasbasbag61
(g77
g63
NtRp3763
(dp3764
g66
(dp3765
sg75
g3719
sg68
(lp3766
g61
(g82
g63
NtRp3767
(dp3768
g66
(dp3769
g86
g87
ssg75
g3763
sg68
(lp3770
g366
asbag61
(g82
g63
NtRp3771
(dp3772
g66
(dp3773
g93
g94
ssg75
g3763
sg68
(lp3774
S':'
asbag61
(g82
g63
NtRp3775
(dp3776
g66
(dp3777
sg75
g3763
sg68
(lp3778
g61
(g62
g63
NtRp3779
(dp3780
g66
(dp3781
g74
I3
ssg75
g3775
sg68
(lp3782
S''
asbasbasbag61
(g77
g63
NtRp3783
(dp3784
g66
(dp3785
sg75
g3719
sg68
(lp3786
g61
(g82
g63
NtRp3787
(dp3788
g66
(dp3789
g86
g87
ssg75
g3783
sg68
(lp3790
g387
asbag61
(g82
g63
NtRp3791
(dp3792
g66
(dp3793
g93
g94
ssg75
g3783
sg68
(lp3794
S':'
asbag61
(g82
g63
NtRp3795
(dp3796
g66
(dp3797
sg75
g3783
sg68
(lp3798
g61
(g62
g63
NtRp3799
(dp3800
g66
(dp3801
g74
I3
ssg75
g3795
sg68
(lp3802
S''
asbasbasbag61
(g77
g63
NtRp3803
(dp3804
g66
(dp3805
sg75
g3719
sg68
(lp3806
g61
(g82
g63
NtRp3807
(dp3808
g66
(dp3809
g86
g87
ssg75
g3803
sg68
(lp3810
g408
asbag61
(g82
g63
NtRp3811
(dp3812
g66
(dp3813
g93
g94
ssg75
g3803
sg68
(lp3814
S':'
asbag61
(g82
g63
NtRp3815
(dp3816
g66
(dp3817
sg75
g3803
sg68
(lp3818
g61
(g62
g63
NtRp3819
(dp3820
g66
(dp3821
g74
I3
ssg75
g3815
sg68
(lp3822
S''
asbasbasbag61
(g77
g63
NtRp3823
(dp3824
g66
(dp3825
sg75
g3719
sg68
(lp3826
g61
(g82
g63
NtRp3827
(dp3828
g66
(dp3829
g86
g87
ssg75
g3823
sg68
(lp3830
g429
asbag61
(g82
g63
NtRp3831
(dp3832
g66
(dp3833
g93
g94
ssg75
g3823
sg68
(lp3834
S':'
asbag61
(g82
g63
NtRp3835
(dp3836
g66
(dp3837
sg75
g3823
sg68
(lp3838
g61
(g62
g63
NtRp3839
(dp3840
g66
(dp3841
g74
I3
ssg75
g3835
sg68
(lp3842
S'/'
asbasbasbag61
(g77
g63
NtRp3843
(dp3844
g66
(dp3845
sg75
g3719
sg68
(lp3846
g61
(g82
g63
NtRp3847
(dp3848
g66
(dp3849
g86
g87
ssg75
g3843
sg68
(lp3850
g450
asbag61
(g82
g63
NtRp3851
(dp3852
g66
(dp3853
g93
g94
ssg75
g3843
sg68
(lp3854
S':'
asbag61
(g82
g63
NtRp3855
(dp3856
g66
(dp3857
sg75
g3843
sg68
(lp3858
g61
(g62
g63
NtRp3859
(dp3860
g66
(dp3861
g74
I3
ssg75
g3855
sg68
(lp3862
S''
asbasbasbag61
(g77
g63
NtRp3863
(dp3864
g66
(dp3865
sg75
g3719
sg68
(lp3866
g61
(g82
g63
NtRp3867
(dp3868
g66
(dp3869
g86
g87
ssg75
g3863
sg68
(lp3870
g471
asbag61
(g82
g63
NtRp3871
(dp3872
g66
(dp3873
g93
g94
ssg75
g3863
sg68
(lp3874
S':'
asbag61
(g82
g63
NtRp3875
(dp3876
g66
(dp3877
sg75
g3863
sg68
(lp3878
g61
(g62
g63
NtRp3879
(dp3880
g66
(dp3881
g74
I3
ssg75
g3875
sg68
(lp3882
S''
asbasbasbasbasbasbasbasbasbasbasbag61
(g77
g63
NtRp3883
(dp3884
g66
(dp3885
sg75
g3649
sg68
(lp3886
g61
(g82
g63
NtRp3887
(dp3888
g66
(dp3889
g86
g87
ssg75
g3883
sg68
(lp3890
S'delimiters'
p3891
asbag61
(g82
g63
NtRp3892
(dp3893
g66
(dp3894
g93
g94
ssg75
g3883
sg68
(lp3895
S':'
asbag61
(g82
g63
NtRp3896
(dp3897
g66
(dp3898
sg75
g3883
sg68
(lp3899
g61
(g62
g63
NtRp3900
(dp3901
g66
(dp3902
g74
I5
ssg75
g3896
sg68
(lp3903
g61
(g70
g63
NtRp3904
(dp3905
g66
(dp3906
g74
I4
ssg75
Nsg68
(lp3907
g61
(g77
g63
NtRp3908
(dp3909
g66
(dp3910
sg75
g3904
sg68
(lp3911
g61
(g82
g63
NtRp3912
(dp3913
g66
(dp3914
sg75
g3908
sg68
(lp3915
g61
(g62
g63
NtRp3916
(dp3917
g66
(dp3918
g74
I4
ssg75
g3912
sg68
(lp3919
S'{{'
p3920
asbasbasbag61
(g77
g63
NtRp3921
(dp3922
g66
(dp3923
sg75
g3904
sg68
(lp3924
g61
(g82
g63
NtRp3925
(dp3926
g66
(dp3927
sg75
g3921
sg68
(lp3928
g61
(g62
g63
NtRp3929
(dp3930
g66
(dp3931
g74
I4
ssg75
g3925
sg68
(lp3932
S'}}'
p3933
asbasbasbasbasbasbasbag61
(g77
g63
NtRp3934
(dp3935
g66
(dp3936
sg75
g3649
sg68
(lp3937
g61
(g82
g63
NtRp3938
(dp3939
g66
(dp3940
g86
g87
ssg75
g3934
sg68
(lp3941
S'files'
p3942
asbag61
(g82
g63
NtRp3943
(dp3944
g66
(dp3945
g93
g94
ssg75
g3934
sg68
(lp3946
S':'
asbag61
(g82
g63
NtRp3947
(dp3948
g66
(dp3949
sg75
g3934
sg68
(lp3950
g61
(g62
g63
NtRp3951
(dp3952
g66
(dp3953
g74
I5
ssg75
g3947
sg68
(lp3954
g61
(g70
g63
NtRp3955
(dp3956
g66
(dp3957
g74
I4
ssg75
Nsg68
(lp3958
sbasbasbasbag61
(g77
g63
NtRp3959
(dp3960
g66
(dp3961
sg75
g3649
sg68
(lp3962
g61
(g82
g63
NtRp3963
(dp3964
g66
(dp3965
g86
g87
ssg75
g3959
sg68
(lp3966
S'flash'
p3967
asbag61
(g82
g63
NtRp3968
(dp3969
g66
(dp3970
g93
g94
ssg75
g3959
sg68
(lp3971
S':'
asbag61
(g82
g63
NtRp3972
(dp3973
g66
(dp3974
sg75
g3959
sg68
(lp3975
g61
(g62
g63
NtRp3976
(dp3977
g66
(dp3978
g74
I5
ssg75
g3972
sg68
(lp3979
S''
asbasbasbag61
(g77
g63
NtRp3980
(dp3981
g66
(dp3982
sg75
g3649
sg68
(lp3983
g61
(g82
g63
NtRp3984
(dp3985
g66
(dp3986
g86
g87
ssg75
g3980
sg68
(lp3987
S'generic_patterns'
p3988
asbag61
(g82
g63
NtRp3989
(dp3990
g66
(dp3991
g93
g94
ssg75
g3980
sg68
(lp3992
S':'
asbag61
(g82
g63
NtRp3993
(dp3994
g66
(dp3995
sg75
g3980
sg68
(lp3996
g61
(g62
g63
NtRp3997
(dp3998
g66
(dp3999
g74
I5
ssg75
g3993
sg68
(lp4000
g61
(g70
g63
NtRp4001
(dp4002
g66
(dp4003
g74
I4
ssg75
Nsg68
(lp4004
g61
(g77
g63
NtRp4005
(dp4006
g66
(dp4007
sg75
g4001
sg68
(lp4008
g61
(g82
g63
NtRp4009
(dp4010
g66
(dp4011
sg75
g4005
sg68
(lp4012
g61
(g62
g63
NtRp4013
(dp4014
g66
(dp4015
g74
I4
ssg75
g4009
sg68
(lp4016
S'*'
asbasbasbasbasbasbasbag61
(g77
g63
NtRp4017
(dp4018
g66
(dp4019
sg75
g3649
sg68
(lp4020
g61
(g82
g63
NtRp4021
(dp4022
g66
(dp4023
g86
g87
ssg75
g4017
sg68
(lp4024
S'google_analytics_id'
p4025
asbag61
(g82
g63
NtRp4026
(dp4027
g66
(dp4028
g93
g94
ssg75
g4017
sg68
(lp4029
S':'
asbag61
(g82
g63
NtRp4030
(dp4031
g66
(dp4032
sg75
g4017
sg68
(lp4033
g61
(g62
g63
NtRp4034
(dp4035
g66
(dp4036
g74
I5
ssg75
g4030
sg68
(lp4037
S'None'
p4038
asbasbasbag61
(g77
g63
NtRp4039
(dp4040
g66
(dp4041
sg75
g3649
sg68
(lp4042
g61
(g82
g63
NtRp4043
(dp4044
g66
(dp4045
g86
g87
ssg75
g4039
sg68
(lp4046
S'headers'
p4047
asbag61
(g82
g63
NtRp4048
(dp4049
g66
(dp4050
g93
g94
ssg75
g4039
sg68
(lp4051
S':'
asbag61
(g82
g63
NtRp4052
(dp4053
g66
(dp4054
sg75
g4039
sg68
(lp4055
g61
(g62
g63
NtRp4056
(dp4057
g66
(dp4058
g74
I5
ssg75
g4052
sg68
(lp4059
g61
(g70
g63
NtRp4060
(dp4061
g66
(dp4062
g74
I4
ssg75
Nsg68
(lp4063
g61
(g77
g63
NtRp4064
(dp4065
g66
(dp4066
sg75
g4060
sg68
(lp4067
g61
(g82
g63
NtRp4068
(dp4069
g66
(dp4070
g86
g87
ssg75
g4064
sg68
(lp4071
S'X-Powered-By'
p4072
asbag61
(g82
g63
NtRp4073
(dp4074
g66
(dp4075
g93
g94
ssg75
g4064
sg68
(lp4076
S':'
asbag61
(g82
g63
NtRp4077
(dp4078
g66
(dp4079
sg75
g4064
sg68
(lp4080
g61
(g62
g63
NtRp4081
(dp4082
g66
(dp4083
g74
I4
ssg75
g4077
sg68
(lp4084
S'web2py'
p4085
asbasbasbasbasbasbasbag61
(g77
g63
NtRp4086
(dp4087
g66
(dp4088
sg75
g3649
sg68
(lp4089
g61
(g82
g63
NtRp4090
(dp4091
g66
(dp4092
g86
g87
ssg75
g4086
sg68
(lp4093
S'logo'
p4094
asbag61
(g82
g63
NtRp4095
(dp4096
g66
(dp4097
g93
g94
ssg75
g4086
sg68
(lp4098
S':'
asbag61
(g82
g63
NtRp4099
(dp4100
g66
(dp4101
sg75
g4086
sg68
(lp4102
g61
(g62
g63
NtRp4103
(dp4104
g66
(dp4105
g74
I5
ssg75
g4099
sg68
(lp4106
g61
(cgluon.html
A
p4107
g63
NtRp4108
(dp4109
g66
(dp4110
S'_class'
p4111
S'brand'
p4112
sS'_href'
p4113
S'principal'
p4114
ssg75
Nsg68
(lp4115
g61
(cgluon.html
B
p4116
g63
NtRp4117
(dp4118
g66
(dp4119
sg75
g4108
sg68
(lp4120
S'hosts'
p4121
ag61
(cgluon.html
SPAN
p4122
g63
NtRp4123
(dp4124
g66
(dp4125
sg75
g4117
sg68
(lp4126
S'3'
asbaS''
asbacgluon.html
XML_unpickle
p4127
(S's\r\x00\x00\x00&trade;&nbsp;'
tRp4128
asbasbasbasbag61
(g77
g63
NtRp4129
(dp4130
g66
(dp4131
sg75
g3649
sg68
(lp4132
g61
(g82
g63
NtRp4133
(dp4134
g66
(dp4135
g86
g87
ssg75
g4129
sg68
(lp4136
S'menu'
p4137
asbag61
(g82
g63
NtRp4138
(dp4139
g66
(dp4140
g93
g94
ssg75
g4129
sg68
(lp4141
S':'
asbag61
(g82
g63
NtRp4142
(dp4143
g66
(dp4144
sg75
g4129
sg68
(lp4145
g61
(g62
g63
NtRp4146
(dp4147
g66
(dp4148
g74
I5
ssg75
g4142
sg68
(lp4149
g61
(g70
g63
NtRp4150
(dp4151
g66
(dp4152
g74
I4
ssg75
Nsg68
(lp4153
g61
(g77
g63
NtRp4154
(dp4155
g66
(dp4156
sg75
g4150
sg68
(lp4157
g61
(g82
g63
NtRp4158
(dp4159
g66
(dp4160
sg75
g4154
sg68
(lp4161
g61
(g62
g63
NtRp4162
(dp4163
g66
(dp4164
g74
I4
ssg75
g4158
sg68
(lp4165
g61
(g70
g63
NtRp4166
(dp4167
g66
(dp4168
g74
I3
ssg75
Nsg68
(lp4169
g61
(g77
g63
NtRp4170
(dp4171
g66
(dp4172
sg75
g4166
sg68
(lp4173
g61
(g82
g63
NtRp4174
(dp4175
g66
(dp4176
sg75
g4170
sg68
(lp4177
g61
(g62
g63
NtRp4178
(dp4179
g66
(dp4180
g74
I3
ssg75
g4174
sg68
(lp4181
cgluon.languages
lazyT_unpickle
p4182
(S't\x08\x00\x00\x00Clientes'
tRp4183
asbasbasbag61
(g77
g63
NtRp4184
(dp4185
g66
(dp4186
sg75
g4166
sg68
(lp4187
g61
(g82
g63
NtRp4188
(dp4189
g66
(dp4190
sg75
g4184
sg68
(lp4191
g61
(g62
g63
NtRp4192
(dp4193
g66
(dp4194
g74
I3
ssg75
g4188
sg68
(lp4195
g104
asbasbasbag61
(g77
g63
NtRp4196
(dp4197
g66
(dp4198
sg75
g4166
sg68
(lp4199
g61
(g82
g63
NtRp4200
(dp4201
g66
(dp4202
sg75
g4196
sg68
(lp4203
g61
(g62
g63
NtRp4204
(dp4205
g66
(dp4206
g74
I3
ssg75
g4200
sg68
(lp4207
S'/show_cliente'
p4208
asbasbasbag61
(g77
g63
NtRp4209
(dp4210
g66
(dp4211
sg75
g4166
sg68
(lp4212
g61
(g82
g63
NtRp4213
(dp4214
g66
(dp4215
sg75
g4209
sg68
(lp4216
g61
(g62
g63
NtRp4217
(dp4218
g66
(dp4219
g74
I3
ssg75
g4213
sg68
(lp4220
g61
(g70
g63
NtRp4221
(dp4222
g66
(dp4223
g74
I2
ssg75
Nsg68
(lp4224
sbasbasbasbasbasbasbasbag61
(g77
g63
NtRp4225
(dp4226
g66
(dp4227
sg75
g4150
sg68
(lp4228
g61
(g82
g63
NtRp4229
(dp4230
g66
(dp4231
sg75
g4225
sg68
(lp4232
g61
(g62
g63
NtRp4233
(dp4234
g66
(dp4235
g74
I4
ssg75
g4229
sg68
(lp4236
g61
(g70
g63
NtRp4237
(dp4238
g66
(dp4239
g74
I3
ssg75
Nsg68
(lp4240
g61
(g77
g63
NtRp4241
(dp4242
g66
(dp4243
sg75
g4237
sg68
(lp4244
g61
(g82
g63
NtRp4245
(dp4246
g66
(dp4247
sg75
g4241
sg68
(lp4248
g61
(g62
g63
NtRp4249
(dp4250
g66
(dp4251
g74
I3
ssg75
g4245
sg68
(lp4252
g4182
(S't\n\x00\x00\x00Servidores'
tRp4253
asbasbasbag61
(g77
g63
NtRp4254
(dp4255
g66
(dp4256
sg75
g4237
sg68
(lp4257
g61
(g82
g63
NtRp4258
(dp4259
g66
(dp4260
sg75
g4254
sg68
(lp4261
g61
(g62
g63
NtRp4262
(dp4263
g66
(dp4264
g74
I3
ssg75
g4258
sg68
(lp4265
g104
asbasbasbag61
(g77
g63
NtRp4266
(dp4267
g66
(dp4268
sg75
g4237
sg68
(lp4269
g61
(g82
g63
NtRp4270
(dp4271
g66
(dp4272
sg75
g4266
sg68
(lp4273
g61
(g62
g63
NtRp4274
(dp4275
g66
(dp4276
g74
I3
ssg75
g4270
sg68
(lp4277
S'/show_servidor'
p4278
asbasbasbag61
(g77
g63
NtRp4279
(dp4280
g66
(dp4281
sg75
g4237
sg68
(lp4282
g61
(g82
g63
NtRp4283
(dp4284
g66
(dp4285
sg75
g4279
sg68
(lp4286
g61
(g62
g63
NtRp4287
(dp4288
g66
(dp4289
g74
I3
ssg75
g4283
sg68
(lp4290
g61
(g70
g63
NtRp4291
(dp4292
g66
(dp4293
g74
I2
ssg75
Nsg68
(lp4294
sbasbasbasbasbasbasbasbag61
(g77
g63
NtRp4295
(dp4296
g66
(dp4297
sg75
g4150
sg68
(lp4298
g61
(g82
g63
NtRp4299
(dp4300
g66
(dp4301
sg75
g4295
sg68
(lp4302
g61
(g62
g63
NtRp4303
(dp4304
g66
(dp4305
g74
I4
ssg75
g4299
sg68
(lp4306
g61
(g70
g63
NtRp4307
(dp4308
g66
(dp4309
g74
I3
ssg75
Nsg68
(lp4310
g61
(g77
g63
NtRp4311
(dp4312
g66
(dp4313
sg75
g4307
sg68
(lp4314
g61
(g82
g63
NtRp4315
(dp4316
g66
(dp4317
sg75
g4311
sg68
(lp4318
g61
(g62
g63
NtRp4319
(dp4320
g66
(dp4321
g74
I3
ssg75
g4315
sg68
(lp4322
g4182
(S't\x07\x00\x00\x00Distros'
tRp4323
asbasbasbag61
(g77
g63
NtRp4324
(dp4325
g66
(dp4326
sg75
g4307
sg68
(lp4327
g61
(g82
g63
NtRp4328
(dp4329
g66
(dp4330
sg75
g4324
sg68
(lp4331
g61
(g62
g63
NtRp4332
(dp4333
g66
(dp4334
g74
I3
ssg75
g4328
sg68
(lp4335
g104
asbasbasbag61
(g77
g63
NtRp4336
(dp4337
g66
(dp4338
sg75
g4307
sg68
(lp4339
g61
(g82
g63
NtRp4340
(dp4341
g66
(dp4342
sg75
g4336
sg68
(lp4343
g61
(g62
g63
NtRp4344
(dp4345
g66
(dp4346
g74
I3
ssg75
g4340
sg68
(lp4347
S'/show_distro'
p4348
asbasbasbag61
(g77
g63
NtRp4349
(dp4350
g66
(dp4351
sg75
g4307
sg68
(lp4352
g61
(g82
g63
NtRp4353
(dp4354
g66
(dp4355
sg75
g4349
sg68
(lp4356
g61
(g62
g63
NtRp4357
(dp4358
g66
(dp4359
g74
I3
ssg75
g4353
sg68
(lp4360
g61
(g70
g63
NtRp4361
(dp4362
g66
(dp4363
g74
I2
ssg75
Nsg68
(lp4364
sbasbasbasbasbasbasbasbag61
(g77
g63
NtRp4365
(dp4366
g66
(dp4367
sg75
g4150
sg68
(lp4368
g61
(g82
g63
NtRp4369
(dp4370
g66
(dp4371
sg75
g4365
sg68
(lp4372
g61
(g62
g63
NtRp4373
(dp4374
g66
(dp4375
g74
I4
ssg75
g4369
sg68
(lp4376
g61
(g70
g63
NtRp4377
(dp4378
g66
(dp4379
g74
I3
ssg75
Nsg68
(lp4380
g61
(g77
g63
NtRp4381
(dp4382
g66
(dp4383
sg75
g4377
sg68
(lp4384
g61
(g82
g63
NtRp4385
(dp4386
g66
(dp4387
sg75
g4381
sg68
(lp4388
g61
(g62
g63
NtRp4389
(dp4390
g66
(dp4391
g74
I3
ssg75
g4385
sg68
(lp4392
g4182
(S's\x05\x00\x00\x00+host'
tRp4393
asbasbasbag61
(g77
g63
NtRp4394
(dp4395
g66
(dp4396
sg75
g4377
sg68
(lp4397
g61
(g82
g63
NtRp4398
(dp4399
g66
(dp4400
sg75
g4394
sg68
(lp4401
g61
(g62
g63
NtRp4402
(dp4403
g66
(dp4404
g74
I3
ssg75
g4398
sg68
(lp4405
g104
asbasbasbag61
(g77
g63
NtRp4406
(dp4407
g66
(dp4408
sg75
g4377
sg68
(lp4409
g61
(g82
g63
NtRp4410
(dp4411
g66
(dp4412
sg75
g4406
sg68
(lp4413
g61
(g62
g63
NtRp4414
(dp4415
g66
(dp4416
g74
I3
ssg75
g4410
sg68
(lp4417
S'/interface'
p4418
asbasbasbag61
(g77
g63
NtRp4419
(dp4420
g66
(dp4421
sg75
g4377
sg68
(lp4422
g61
(g82
g63
NtRp4423
(dp4424
g66
(dp4425
sg75
g4419
sg68
(lp4426
g61
(g62
g63
NtRp4427
(dp4428
g66
(dp4429
g74
I3
ssg75
g4423
sg68
(lp4430
g61
(g70
g63
NtRp4431
(dp4432
g66
(dp4433
g74
I2
ssg75
Nsg68
(lp4434
sbasbasbasbasbasbasbasbasbasbasbasbag61
(g77
g63
NtRp4435
(dp4436
g66
(dp4437
sg75
g3649
sg68
(lp4438
g61
(g82
g63
NtRp4439
(dp4440
g66
(dp4441
g86
g87
ssg75
g4435
sg68
(lp4442
S'menu2'
p4443
asbag61
(g82
g63
NtRp4444
(dp4445
g66
(dp4446
g93
g94
ssg75
g4435
sg68
(lp4447
S':'
asbag61
(g82
g63
NtRp4448
(dp4449
g66
(dp4450
sg75
g4435
sg68
(lp4451
g61
(g62
g63
NtRp4452
(dp4453
g66
(dp4454
g74
I5
ssg75
g4448
sg68
(lp4455
g61
(g70
g63
NtRp4456
(dp4457
g66
(dp4458
g74
I4
ssg75
Nsg68
(lp4459
g61
(g77
g63
NtRp4460
(dp4461
g66
(dp4462
sg75
g4456
sg68
(lp4463
g61
(g82
g63
NtRp4464
(dp4465
g66
(dp4466
sg75
g4460
sg68
(lp4467
g61
(g62
g63
NtRp4468
(dp4469
g66
(dp4470
g74
I4
ssg75
g4464
sg68
(lp4471
g61
(g70
g63
NtRp4472
(dp4473
g66
(dp4474
g74
I3
ssg75
Nsg68
(lp4475
g61
(g77
g63
NtRp4476
(dp4477
g66
(dp4478
sg75
g4472
sg68
(lp4479
g61
(g82
g63
NtRp4480
(dp4481
g66
(dp4482
sg75
g4476
sg68
(lp4483
g61
(g62
g63
NtRp4484
(dp4485
g66
(dp4486
g74
I3
ssg75
g4480
sg68
(lp4487
g61
(g4122
g63
NtRp4488
(dp4489
g66
(dp4490
g4111
S'dropdown-toggle'
p4491
ssg75
Nsg68
(lp4492
S'Admin'
p4493
asbasbasbasbag61
(g77
g63
NtRp4494
(dp4495
g66
(dp4496
sg75
g4472
sg68
(lp4497
g61
(g82
g63
NtRp4498
(dp4499
g66
(dp4500
sg75
g4494
sg68
(lp4501
g61
(g62
g63
NtRp4502
(dp4503
g66
(dp4504
g74
I3
ssg75
g4498
sg68
(lp4505
g104
asbasbasbag61
(g77
g63
NtRp4506
(dp4507
g66
(dp4508
sg75
g4472
sg68
(lp4509
g61
(g82
g63
NtRp4510
(dp4511
g66
(dp4512
sg75
g4506
sg68
(lp4513
g61
(g62
g63
NtRp4514
(dp4515
g66
(dp4516
g74
I3
ssg75
g4510
sg68
(lp4517
S'#'
asbasbasbag61
(g77
g63
NtRp4518
(dp4519
g66
(dp4520
sg75
g4472
sg68
(lp4521
g61
(g82
g63
NtRp4522
(dp4523
g66
(dp4524
sg75
g4518
sg68
(lp4525
g61
(g62
g63
NtRp4526
(dp4527
g66
(dp4528
g74
I3
ssg75
g4522
sg68
(lp4529
g61
(g70
g63
NtRp4530
(dp4531
g66
(dp4532
g74
I2
ssg75
Nsg68
(lp4533
g61
(g77
g63
NtRp4534
(dp4535
g66
(dp4536
sg75
g4530
sg68
(lp4537
g61
(g82
g63
NtRp4538
(dp4539
g66
(dp4540
sg75
g4534
sg68
(lp4541
g61
(g62
g63
NtRp4542
(dp4543
g66
(dp4544
g74
I2
ssg75
g4538
sg68
(lp4545
g61
(g70
g63
NtRp4546
(dp4547
g66
(dp4548
g74
I1
ssg75
Nsg68
(lp4549
g61
(g77
g63
NtRp4550
(dp4551
g66
(dp4552
sg75
g4546
sg68
(lp4553
g61
(g82
g63
NtRp4554
(dp4555
g66
(dp4556
sg75
g4550
sg68
(lp4557
g61
(g62
g63
NtRp4558
(dp4559
g66
(dp4560
g74
I1
ssg75
g4554
sg68
(lp4561
g4182
(S's\t\x00\x00\x00Usu\xc3\xa1rios'
tRp4562
asbasbasbag61
(g77
g63
NtRp4563
(dp4564
g66
(dp4565
sg75
g4546
sg68
(lp4566
g61
(g82
g63
NtRp4567
(dp4568
g66
(dp4569
sg75
g4563
sg68
(lp4570
g61
(g62
g63
NtRp4571
(dp4572
g66
(dp4573
g74
I1
ssg75
g4567
sg68
(lp4574
I00
asbasbasbag61
(g77
g63
NtRp4575
(dp4576
g66
(dp4577
sg75
g4546
sg68
(lp4578
g61
(g82
g63
NtRp4579
(dp4580
g66
(dp4581
sg75
g4575
sg68
(lp4582
g61
(g62
g63
NtRp4583
(dp4584
g66
(dp4585
g74
I1
ssg75
g4579
sg68
(lp4586
S'/manager/users'
p4587
asbasbasbasbasbasbasbag61
(g77
g63
NtRp4588
(dp4589
g66
(dp4590
sg75
g4530
sg68
(lp4591
g61
(g82
g63
NtRp4592
(dp4593
g66
(dp4594
sg75
g4588
sg68
(lp4595
g61
(g62
g63
NtRp4596
(dp4597
g66
(dp4598
g74
I2
ssg75
g4592
sg68
(lp4599
g61
(g70
g63
NtRp4600
(dp4601
g66
(dp4602
g74
I1
ssg75
Nsg68
(lp4603
g61
(g77
g63
NtRp4604
(dp4605
g66
(dp4606
sg75
g4600
sg68
(lp4607
g61
(g82
g63
NtRp4608
(dp4609
g66
(dp4610
sg75
g4604
sg68
(lp4611
g61
(g62
g63
NtRp4612
(dp4613
g66
(dp4614
g74
I1
ssg75
g4608
sg68
(lp4615
g4182
(S't\x06\x00\x00\x00Grupos'
tRp4616
asbasbasbag61
(g77
g63
NtRp4617
(dp4618
g66
(dp4619
sg75
g4600
sg68
(lp4620
g61
(g82
g63
NtRp4621
(dp4622
g66
(dp4623
sg75
g4617
sg68
(lp4624
g61
(g62
g63
NtRp4625
(dp4626
g66
(dp4627
g74
I1
ssg75
g4621
sg68
(lp4628
I00
asbasbasbag61
(g77
g63
NtRp4629
(dp4630
g66
(dp4631
sg75
g4600
sg68
(lp4632
g61
(g82
g63
NtRp4633
(dp4634
g66
(dp4635
sg75
g4629
sg68
(lp4636
g61
(g62
g63
NtRp4637
(dp4638
g66
(dp4639
g74
I1
ssg75
g4633
sg68
(lp4640
S'/manager/groups'
p4641
asbasbasbasbasbasbasbag61
(g77
g63
NtRp4642
(dp4643
g66
(dp4644
sg75
g4530
sg68
(lp4645
g61
(g82
g63
NtRp4646
(dp4647
g66
(dp4648
sg75
g4642
sg68
(lp4649
g61
(g62
g63
NtRp4650
(dp4651
g66
(dp4652
g74
I2
ssg75
g4646
sg68
(lp4653
g61
(g70
g63
NtRp4654
(dp4655
g66
(dp4656
g74
I1
ssg75
Nsg68
(lp4657
g61
(g77
g63
NtRp4658
(dp4659
g66
(dp4660
sg75
g4654
sg68
(lp4661
g61
(g82
g63
NtRp4662
(dp4663
g66
(dp4664
sg75
g4658
sg68
(lp4665
g61
(g62
g63
NtRp4666
(dp4667
g66
(dp4668
g74
I1
ssg75
g4662
sg68
(lp4669
g4182
(S't\x07\x00\x00\x00Membros'
tRp4670
asbasbasbag61
(g77
g63
NtRp4671
(dp4672
g66
(dp4673
sg75
g4654
sg68
(lp4674
g61
(g82
g63
NtRp4675
(dp4676
g66
(dp4677
sg75
g4671
sg68
(lp4678
g61
(g62
g63
NtRp4679
(dp4680
g66
(dp4681
g74
I1
ssg75
g4675
sg68
(lp4682
I00
asbasbasbag61
(g77
g63
NtRp4683
(dp4684
g66
(dp4685
sg75
g4654
sg68
(lp4686
g61
(g82
g63
NtRp4687
(dp4688
g66
(dp4689
sg75
g4683
sg68
(lp4690
g61
(g62
g63
NtRp4691
(dp4692
g66
(dp4693
g74
I1
ssg75
g4687
sg68
(lp4694
S'/manager/membership'
p4695
asbasbasbasbasbasbasbasbasbasbasbasbasbasbasbag61
(g77
g63
NtRp4696
(dp4697
g66
(dp4698
sg75
g4456
sg68
(lp4699
g61
(g82
g63
NtRp4700
(dp4701
g66
(dp4702
sg75
g4696
sg68
(lp4703
g61
(g62
g63
NtRp4704
(dp4705
g66
(dp4706
g74
I4
ssg75
g4700
sg68
(lp4707
g61
(g70
g63
NtRp4708
(dp4709
g66
(dp4710
g74
I3
ssg75
Nsg68
(lp4711
g61
(g77
g63
NtRp4712
(dp4713
g66
(dp4714
sg75
g4708
sg68
(lp4715
g61
(g82
g63
NtRp4716
(dp4717
g66
(dp4718
sg75
g4712
sg68
(lp4719
g61
(g62
g63
NtRp4720
(dp4721
g66
(dp4722
g74
I3
ssg75
g4716
sg68
(lp4723
g61
(g4122
g63
NtRp4724
(dp4725
g66
(dp4726
g4111
g4491
ssg75
Nsg68
(lp4727
S'Login'
p4728
asbasbasbasbag61
(g77
g63
NtRp4729
(dp4730
g66
(dp4731
sg75
g4708
sg68
(lp4732
g61
(g82
g63
NtRp4733
(dp4734
g66
(dp4735
sg75
g4729
sg68
(lp4736
g61
(g62
g63
NtRp4737
(dp4738
g66
(dp4739
g74
I3
ssg75
g4733
sg68
(lp4740
g104
asbasbasbag61
(g77
g63
NtRp4741
(dp4742
g66
(dp4743
sg75
g4708
sg68
(lp4744
g61
(g82
g63
NtRp4745
(dp4746
g66
(dp4747
sg75
g4741
sg68
(lp4748
g61
(g62
g63
NtRp4749
(dp4750
g66
(dp4751
g74
I3
ssg75
g4745
sg68
(lp4752
S'#'
asbasbasbag61
(g77
g63
NtRp4753
(dp4754
g66
(dp4755
sg75
g4708
sg68
(lp4756
g61
(g82
g63
NtRp4757
(dp4758
g66
(dp4759
sg75
g4753
sg68
(lp4760
g61
(g62
g63
NtRp4761
(dp4762
g66
(dp4763
g74
I3
ssg75
g4757
sg68
(lp4764
g61
(g70
g63
NtRp4765
(dp4766
g66
(dp4767
g74
I2
ssg75
Nsg68
(lp4768
g61
(g77
g63
NtRp4769
(dp4770
g66
(dp4771
sg75
g4765
sg68
(lp4772
g61
(g82
g63
NtRp4773
(dp4774
g66
(dp4775
sg75
g4769
sg68
(lp4776
g61
(g62
g63
NtRp4777
(dp4778
g66
(dp4779
g74
I2
ssg75
g4773
sg68
(lp4780
g61
(g70
g63
NtRp4781
(dp4782
g66
(dp4783
g74
I1
ssg75
Nsg68
(lp4784
g61
(g77
g63
NtRp4785
(dp4786
g66
(dp4787
sg75
g4781
sg68
(lp4788
g61
(g82
g63
NtRp4789
(dp4790
g66
(dp4791
sg75
g4785
sg68
(lp4792
g61
(g62
g63
NtRp4793
(dp4794
g66
(dp4795
g74
I1
ssg75
g4789
sg68
(lp4796
g4182
(S't\x06\x00\x00\x00Logout'
tRp4797
asbasbasbag61
(g77
g63
NtRp4798
(dp4799
g66
(dp4800
sg75
g4781
sg68
(lp4801
g61
(g82
g63
NtRp4802
(dp4803
g66
(dp4804
sg75
g4798
sg68
(lp4805
g61
(g62
g63
NtRp4806
(dp4807
g66
(dp4808
g74
I1
ssg75
g4802
sg68
(lp4809
I00
asbasbasbag61
(g77
g63
NtRp4810
(dp4811
g66
(dp4812
sg75
g4781
sg68
(lp4813
g61
(g82
g63
NtRp4814
(dp4815
g66
(dp4816
sg75
g4810
sg68
(lp4817
g61
(g62
g63
NtRp4818
(dp4819
g66
(dp4820
g74
I1
ssg75
g4814
sg68
(lp4821
S'/initial/user/logout'
p4822
asbasbasbasbasbasbasbasbasbasbasbasbasbasbasbasbasbasbasbag61
(g77
g63
NtRp4823
(dp4824
g66
(dp4825
sg75
g3649
sg68
(lp4826
g61
(g82
g63
NtRp4827
(dp4828
g66
(dp4829
g86
g87
ssg75
g4823
sg68
(lp4830
S'meta'
p4831
asbag61
(g82
g63
NtRp4832
(dp4833
g66
(dp4834
g93
g94
ssg75
g4823
sg68
(lp4835
S':'
asbag61
(g82
g63
NtRp4836
(dp4837
g66
(dp4838
sg75
g4823
sg68
(lp4839
g61
(g62
g63
NtRp4840
(dp4841
g66
(dp4842
g74
I5
ssg75
g4836
sg68
(lp4843
g61
(g70
g63
NtRp4844
(dp4845
g66
(dp4846
g74
I4
ssg75
Nsg68
(lp4847
g61
(g77
g63
NtRp4848
(dp4849
g66
(dp4850
sg75
g4844
sg68
(lp4851
g61
(g82
g63
NtRp4852
(dp4853
g66
(dp4854
g86
g87
ssg75
g4848
sg68
(lp4855
S'author'
p4856
asbag61
(g82
g63
NtRp4857
(dp4858
g66
(dp4859
g93
g94
ssg75
g4848
sg68
(lp4860
S':'
asbag61
(g82
g63
NtRp4861
(dp4862
g66
(dp4863
sg75
g4848
sg68
(lp4864
g61
(g62
g63
NtRp4865
(dp4866
g66
(dp4867
g74
I4
ssg75
g4861
sg68
(lp4868
S'Your Name <you@example.com>'
p4869
asbasbasbag61
(g77
g63
NtRp4870
(dp4871
g66
(dp4872
sg75
g4844
sg68
(lp4873
g61
(g82
g63
NtRp4874
(dp4875
g66
(dp4876
g86
g87
ssg75
g4870
sg68
(lp4877
S'description'
p4878
asbag61
(g82
g63
NtRp4879
(dp4880
g66
(dp4881
g93
g94
ssg75
g4870
sg68
(lp4882
S':'
asbag61
(g82
g63
NtRp4883
(dp4884
g66
(dp4885
sg75
g4870
sg68
(lp4886
g61
(g62
g63
NtRp4887
(dp4888
g66
(dp4889
g74
I4
ssg75
g4883
sg68
(lp4890
S'a cool new app'
p4891
asbasbasbag61
(g77
g63
NtRp4892
(dp4893
g66
(dp4894
sg75
g4844
sg68
(lp4895
g61
(g82
g63
NtRp4896
(dp4897
g66
(dp4898
g86
g87
ssg75
g4892
sg68
(lp4899
S'generator'
p4900
asbag61
(g82
g63
NtRp4901
(dp4902
g66
(dp4903
g93
g94
ssg75
g4892
sg68
(lp4904
S':'
asbag61
(g82
g63
NtRp4905
(dp4906
g66
(dp4907
sg75
g4892
sg68
(lp4908
g61
(g62
g63
NtRp4909
(dp4910
g66
(dp4911
g74
I4
ssg75
g4905
sg68
(lp4912
S'Web2py Web Framework'
p4913
asbasbasbag61
(g77
g63
NtRp4914
(dp4915
g66
(dp4916
sg75
g4844
sg68
(lp4917
g61
(g82
g63
NtRp4918
(dp4919
g66
(dp4920
g86
g87
ssg75
g4914
sg68
(lp4921
S'keywords'
p4922
asbag61
(g82
g63
NtRp4923
(dp4924
g66
(dp4925
g93
g94
ssg75
g4914
sg68
(lp4926
S':'
asbag61
(g82
g63
NtRp4927
(dp4928
g66
(dp4929
sg75
g4914
sg68
(lp4930
g61
(g62
g63
NtRp4931
(dp4932
g66
(dp4933
g74
I4
ssg75
g4927
sg68
(lp4934
S'web2py, python, framework'
p4935
asbasbasbasbasbasbasbag61
(g77
g63
NtRp4936
(dp4937
g66
(dp4938
sg75
g3649
sg68
(lp4939
g61
(g82
g63
NtRp4940
(dp4941
g66
(dp4942
g86
g87
ssg75
g4936
sg68
(lp4943
S'models_to_run'
p4944
asbag61
(g82
g63
NtRp4945
(dp4946
g66
(dp4947
g93
g94
ssg75
g4936
sg68
(lp4948
S':'
asbag61
(g82
g63
NtRp4949
(dp4950
g66
(dp4951
sg75
g4936
sg68
(lp4952
g61
(g62
g63
NtRp4953
(dp4954
g66
(dp4955
g74
I5
ssg75
g4949
sg68
(lp4956
g61
(g70
g63
NtRp4957
(dp4958
g66
(dp4959
g74
I4
ssg75
Nsg68
(lp4960
g61
(g77
g63
NtRp4961
(dp4962
g66
(dp4963
sg75
g4957
sg68
(lp4964
g61
(g82
g63
NtRp4965
(dp4966
g66
(dp4967
sg75
g4961
sg68
(lp4968
g61
(g62
g63
NtRp4969
(dp4970
g66
(dp4971
g74
I4
ssg75
g4965
sg68
(lp4972
S'^\\w+\\.py$'
p4973
asbasbasbag61
(g77
g63
NtRp4974
(dp4975
g66
(dp4976
sg75
g4957
sg68
(lp4977
g61
(g82
g63
NtRp4978
(dp4979
g66
(dp4980
sg75
g4974
sg68
(lp4981
g61
(g62
g63
NtRp4982
(dp4983
g66
(dp4984
g74
I4
ssg75
g4978
sg68
(lp4985
S'^initial/\\w+\\.py$'
p4986
asbasbasbag61
(g77
g63
NtRp4987
(dp4988
g66
(dp4989
sg75
g4957
sg68
(lp4990
g61
(g82
g63
NtRp4991
(dp4992
g66
(dp4993
sg75
g4987
sg68
(lp4994
g61
(g62
g63
NtRp4995
(dp4996
g66
(dp4997
g74
I4
ssg75
g4991
sg68
(lp4998
S'^initial/show_cliente/\\w+\\.py$'
p4999
asbasbasbasbasbasbasbag61
(g77
g63
NtRp5000
(dp5001
g66
(dp5002
sg75
g3649
sg68
(lp5003
g61
(g82
g63
NtRp5004
(dp5005
g66
(dp5006
g86
g87
ssg75
g5000
sg68
(lp5007
S'postprocessing'
p5008
asbag61
(g82
g63
NtRp5009
(dp5010
g66
(dp5011
g93
g94
ssg75
g5000
sg68
(lp5012
S':'
asbag61
(g82
g63
NtRp5013
(dp5014
g66
(dp5015
sg75
g5000
sg68
(lp5016
g61
(g62
g63
NtRp5017
(dp5018
g66
(dp5019
g74
I5
ssg75
g5013
sg68
(lp5020
g61
(g70
g63
NtRp5021
(dp5022
g66
(dp5023
g74
I4
ssg75
Nsg68
(lp5024
sbasbasbasbag61
(g77
g63
NtRp5025
(dp5026
g66
(dp5027
sg75
g3649
sg68
(lp5028
g61
(g82
g63
NtRp5029
(dp5030
g66
(dp5031
g86
g87
ssg75
g5025
sg68
(lp5032
S'session_cookie_expires'
p5033
asbag61
(g82
g63
NtRp5034
(dp5035
g66
(dp5036
g93
g94
ssg75
g5025
sg68
(lp5037
S':'
asbag61
(g82
g63
NtRp5038
(dp5039
g66
(dp5040
sg75
g5025
sg68
(lp5041
g61
(g62
g63
NtRp5042
(dp5043
g66
(dp5044
g74
I5
ssg75
g5038
sg68
(lp5045
S'None'
p5046
asbasbasbag61
(g77
g63
NtRp5047
(dp5048
g66
(dp5049
sg75
g3649
sg68
(lp5050
g61
(g82
g63
NtRp5051
(dp5052
g66
(dp5053
g86
g87
ssg75
g5047
sg68
(lp5054
S'session_data_name'
p5055
asbag61
(g82
g63
NtRp5056
(dp5057
g66
(dp5058
g93
g94
ssg75
g5047
sg68
(lp5059
S':'
asbag61
(g82
g63
NtRp5060
(dp5061
g66
(dp5062
sg75
g5047
sg68
(lp5063
g61
(g62
g63
NtRp5064
(dp5065
g66
(dp5066
g74
I5
ssg75
g5060
sg68
(lp5067
S'session_data_projeto'
p5068
asbasbasbag61
(g77
g63
NtRp5069
(dp5070
g66
(dp5071
sg75
g3649
sg68
(lp5072
g61
(g82
g63
NtRp5073
(dp5074
g66
(dp5075
g86
g87
ssg75
g5069
sg68
(lp5076
S'session_file'
p5077
asbag61
(g82
g63
NtRp5078
(dp5079
g66
(dp5080
g93
g94
ssg75
g5069
sg68
(lp5081
S':'
asbag61
(g82
g63
NtRp5082
(dp5083
g66
(dp5084
sg75
g5069
sg68
(lp5085
g61
(g62
g63
NtRp5086
(dp5087
g66
(dp5088
g74
I5
ssg75
g5082
sg68
(lp5089
S"<open file '/var/www/conferencia/applications/projeto/sessions/127.0.0.1-0fe02c32-0739-4f06-a369-3bba6377da8b', mode 'rb+' at 0x7f32e411b300>"
p5090
asbasbasbag61
(g77
g63
NtRp5091
(dp5092
g66
(dp5093
sg75
g3649
sg68
(lp5094
g61
(g82
g63
NtRp5095
(dp5096
g66
(dp5097
g86
g87
ssg75
g5091
sg68
(lp5098
S'session_filename'
p5099
asbag61
(g82
g63
NtRp5100
(dp5101
g66
(dp5102
g93
g94
ssg75
g5091
sg68
(lp5103
S':'
asbag61
(g82
g63
NtRp5104
(dp5105
g66
(dp5106
sg75
g5091
sg68
(lp5107
g61
(g62
g63
NtRp5108
(dp5109
g66
(dp5110
g74
I5
ssg75
g5104
sg68
(lp5111
S'/var/www/conferencia/applications/projeto/sessions/127.0.0.1-0fe02c32-0739-4f06-a369-3bba6377da8b'
p5112
asbasbasbag61
(g77
g63
NtRp5113
(dp5114
g66
(dp5115
sg75
g3649
sg68
(lp5116
g61
(g82
g63
NtRp5117
(dp5118
g66
(dp5119
g86
g87
ssg75
g5113
sg68
(lp5120
S'session_id'
p5121
asbag61
(g82
g63
NtRp5122
(dp5123
g66
(dp5124
g93
g94
ssg75
g5113
sg68
(lp5125
S':'
asbag61
(g82
g63
NtRp5126
(dp5127
g66
(dp5128
sg75
g5113
sg68
(lp5129
g61
(g62
g63
NtRp5130
(dp5131
g66
(dp5132
g74
I5
ssg75
g5126
sg68
(lp5133
g505
asbasbasbag61
(g77
g63
NtRp5134
(dp5135
g66
(dp5136
sg75
g3649
sg68
(lp5137
g61
(g82
g63
NtRp5138
(dp5139
g66
(dp5140
g86
g87
ssg75
g5134
sg68
(lp5141
S'session_id_name'
p5142
asbag61
(g82
g63
NtRp5143
(dp5144
g66
(dp5145
g93
g94
ssg75
g5134
sg68
(lp5146
S':'
asbag61
(g82
g63
NtRp5147
(dp5148
g66
(dp5149
sg75
g5134
sg68
(lp5150
g61
(g62
g63
NtRp5151
(dp5152
g66
(dp5153
g74
I5
ssg75
g5147
sg68
(lp5154
g3706
asbasbasbag61
(g77
g63
NtRp5155
(dp5156
g66
(dp5157
sg75
g3649
sg68
(lp5158
g61
(g82
g63
NtRp5159
(dp5160
g66
(dp5161
g86
g87
ssg75
g5155
sg68
(lp5162
S'session_locked'
p5163
asbag61
(g82
g63
NtRp5164
(dp5165
g66
(dp5166
g93
g94
ssg75
g5155
sg68
(lp5167
S':'
asbag61
(g82
g63
NtRp5168
(dp5169
g66
(dp5170
sg75
g5155
sg68
(lp5171
g61
(g62
g63
NtRp5172
(dp5173
g66
(dp5174
g74
I5
ssg75
g5168
sg68
(lp5175
g1774
asbasbasbag61
(g77
g63
NtRp5176
(dp5177
g66
(dp5178
sg75
g3649
sg68
(lp5179
g61
(g82
g63
NtRp5180
(dp5181
g66
(dp5182
g86
g87
ssg75
g5176
sg68
(lp5183
S'session_new'
p5184
asbag61
(g82
g63
NtRp5185
(dp5186
g66
(dp5187
g93
g94
ssg75
g5176
sg68
(lp5188
S':'
asbag61
(g82
g63
NtRp5189
(dp5190
g66
(dp5191
sg75
g5176
sg68
(lp5192
g61
(g62
g63
NtRp5193
(dp5194
g66
(dp5195
g74
I5
ssg75
g5189
sg68
(lp5196
g104
asbasbasbag61
(g77
g63
NtRp5197
(dp5198
g66
(dp5199
sg75
g3649
sg68
(lp5200
g61
(g82
g63
NtRp5201
(dp5202
g66
(dp5203
g86
g87
ssg75
g5197
sg68
(lp5204
S'session_storage_type'
p5205
asbag61
(g82
g63
NtRp5206
(dp5207
g66
(dp5208
g93
g94
ssg75
g5197
sg68
(lp5209
S':'
asbag61
(g82
g63
NtRp5210
(dp5211
g66
(dp5212
sg75
g5197
sg68
(lp5213
g61
(g62
g63
NtRp5214
(dp5215
g66
(dp5216
g74
I5
ssg75
g5210
sg68
(lp5217
g3402
asbasbasbag61
(g77
g63
NtRp5218
(dp5219
g66
(dp5220
sg75
g3649
sg68
(lp5221
g61
(g82
g63
NtRp5222
(dp5223
g66
(dp5224
g86
g87
ssg75
g5218
sg68
(lp5225
S'status'
p5226
asbag61
(g82
g63
NtRp5227
(dp5228
g66
(dp5229
g93
g94
ssg75
g5218
sg68
(lp5230
S':'
asbag61
(g82
g63
NtRp5231
(dp5232
g66
(dp5233
sg75
g5218
sg68
(lp5234
g61
(g62
g63
NtRp5235
(dp5236
g66
(dp5237
g74
I5
ssg75
g5231
sg68
(lp5238
S'200'
p5239
asbasbasbag61
(g77
g63
NtRp5240
(dp5241
g66
(dp5242
sg75
g3649
sg68
(lp5243
g61
(g82
g63
NtRp5244
(dp5245
g66
(dp5246
g86
g87
ssg75
g5240
sg68
(lp5247
S'subtitle'
p5248
asbag61
(g82
g63
NtRp5249
(dp5250
g66
(dp5251
g93
g94
ssg75
g5240
sg68
(lp5252
S':'
asbag61
(g82
g63
NtRp5253
(dp5254
g66
(dp5255
sg75
g5240
sg68
(lp5256
g61
(g62
g63
NtRp5257
(dp5258
g66
(dp5259
g74
I5
ssg75
g5253
sg68
(lp5260
g4182
(S's\r\x00\x00\x00customize me!'
tRp5261
asbasbasbag61
(g77
g63
NtRp5262
(dp5263
g66
(dp5264
sg75
g3649
sg68
(lp5265
g61
(g82
g63
NtRp5266
(dp5267
g66
(dp5268
g86
g87
ssg75
g5262
sg68
(lp5269
S'title'
p5270
asbag61
(g82
g63
NtRp5271
(dp5272
g66
(dp5273
g93
g94
ssg75
g5262
sg68
(lp5274
S':'
asbag61
(g82
g63
NtRp5275
(dp5276
g66
(dp5277
sg75
g5262
sg68
(lp5278
g61
(g62
g63
NtRp5279
(dp5280
g66
(dp5281
g74
I5
ssg75
g5275
sg68
(lp5282
S'Eventos'
p5283
asbasbasbag61
(g77
g63
NtRp5284
(dp5285
g66
(dp5286
sg75
g3649
sg68
(lp5287
g61
(g82
g63
NtRp5288
(dp5289
g66
(dp5290
g86
g87
ssg75
g5284
sg68
(lp5291
S'view'
p5292
asbag61
(g82
g63
NtRp5293
(dp5294
g66
(dp5295
g93
g94
ssg75
g5284
sg68
(lp5296
S':'
asbag61
(g82
g63
NtRp5297
(dp5298
g66
(dp5299
sg75
g5284
sg68
(lp5300
g61
(g62
g63
NtRp5301
(dp5302
g66
(dp5303
g74
I5
ssg75
g5297
sg68
(lp5304
S'initial/show_cliente.html'
p5305
asbasbasbasbasbsS'locals'
p5306
(dp5307
S'query'
p5308
S'"INSERT INTO meetme(membros_user,endtime,starttim...||\',\'2013-04-17 18:46:46\',\'2013-04-03 18:46:43\');"'
p5309
sS'self'
p5310
S'<gluon.dal.PostgreSQLAdapter object>'
p5311
sS'e'
S'ProgrammingError(\'ERROR\', \'23502\', \'null value in column "confno" violates not-null constraint\')'
p5312
sS'fields'
p5313
S'[(<gluon.dal.Field object>, []), (<gluon.dal.Field object>, datetime.datetime(2013, 4, 17, 18, 46, 46)), (<gluon.dal.Field object>, datetime.datetime(2013, 4, 3, 18, 46, 43))]'
p5314
sS'table'
p5315
S'<Table meetme (confno,starttime,endtime,membros_user)>'
p5316
sssS'traceback'
p5317
S'Traceback (most recent call last):\n  File "/var/www/conferencia/gluon/restricted.py", line 212, in restricted\n    exec ccode in environment\n  File "/var/www/conferencia/applications/projeto/controllers/initial.py", line 328, in <module>\n  File "/var/www/conferencia/gluon/globals.py", line 193, in <lambda>\n    self._caller = lambda f: f()\n  File "/var/www/conferencia/applications/projeto/controllers/initial.py", line 9, in show_cliente\n    ignore_rw = True, maxtextlength=36,\n  File "/var/www/conferencia/gluon/sqlhtml.py", line 1881, in grid\n    onsuccess=oncreate)\n  File "/var/www/conferencia/gluon/html.py", line 2179, in process\n    self.validate(**kwargs)\n  File "/var/www/conferencia/gluon/html.py", line 2118, in validate\n    if self.accepts(**kwargs):\n  File "/var/www/conferencia/gluon/sqlhtml.py", line 1474, in accepts\n    pk = self.table.insert(**fields)\n  File "/var/www/conferencia/gluon/dal.py", line 7918, in insert\n    ret =  self._db._adapter.insert(self,self._listify(fields))\n  File "/var/www/conferencia/gluon/dal.py", line 1176, in insert\n    raise e\nProgrammingError: (\'ERROR\', \'23502\', \'null value in column "confno" violates not-null constraint\')\n'
p5318
s.