(dp1
S'output'
p2
S'<class \'gluon.contrib.pg8000.errors.ProgrammingError\'> (\'ERROR\', \'42P16\', \'multiple primary keys for table "meetme" are not allowed\')'
p3
sS'layer'
p4
S'/var/www/conferencia/applications/projeto/models/models.py'
p5
sS'code'
p6
S'usuario = db.define_table("usuario",\n      Field("nome", notnull=True, unique=True),\n      Field("pin"),\n      Field("email"),\n      #auth.signature\n      format="%(nome)s")\n\n\nmeetme = db.define_table("meetme",\n      Field("confno", type=\'id\'), \n      Field("starttime", "datetime"),\n      Field("endtime", "datetime"),\n      Field("membros_user", \'list:reference usuario\'),\n      primarykey=[\'confno\']\n      )\n\n\n\n'
p7
sS'snapshot'
p8
(dp9
S'exception'
p10
(dp11
S'__module__'
p12
S"'gluon.contrib.pg8000.errors'"
p13
sS'__getslice__'
p14
S"<method-wrapper '__getslice__' of ProgrammingError object>"
p15
sS'__str__'
p16
S"<method-wrapper '__str__' of ProgrammingError object>"
p17
sS'__reduce__'
p18
S'<built-in method __reduce__ of ProgrammingError object>'
p19
sS'__dict__'
p20
S'{}'
p21
sS'__sizeof__'
p22
S'<built-in method __sizeof__ of ProgrammingError object>'
p23
sS'__weakref__'
p24
S'None'
p25
sS'__init__'
p26
S"<method-wrapper '__init__' of ProgrammingError object>"
p27
sS'__setattr__'
p28
S"<method-wrapper '__setattr__' of ProgrammingError object>"
p29
sS'__reduce_ex__'
p30
S'<built-in method __reduce_ex__ of ProgrammingError object>'
p31
sS'__new__'
p32
S'<built-in method __new__ of type object>'
p33
sS'__format__'
p34
S'<built-in method __format__ of ProgrammingError object>'
p35
sS'__class__'
p36
S"<class 'gluon.contrib.pg8000.errors.ProgrammingError'>"
p37
sS'__doc__'
p38
S'None'
p39
sS'__getitem__'
p40
S"<method-wrapper '__getitem__' of ProgrammingError object>"
p41
sS'__setstate__'
p42
S'<built-in method __setstate__ of ProgrammingError object>'
p43
sS'__getattribute__'
p44
S"<method-wrapper '__getattribute__' of ProgrammingError object>"
p45
sS'args'
p46
S'(\'ERROR\', \'42P16\', \'multiple primary keys for table "meetme" are not allowed\')'
p47
sS'__subclasshook__'
p48
S'<built-in method __subclasshook__ of type object>'
p49
sS'__unicode__'
p50
S'<built-in method __unicode__ of ProgrammingError object>'
p51
sS'__delattr__'
p52
S"<method-wrapper '__delattr__' of ProgrammingError object>"
p53
sS'__repr__'
p54
S"<method-wrapper '__repr__' of ProgrammingError object>"
p55
sS'__hash__'
p56
S"<method-wrapper '__hash__' of ProgrammingError object>"
p57
ssS'evalue'
p58
S'(\'ERROR\', \'42P16\', \'multiple primary keys for table "meetme" are not allowed\')'
p59
sS'request'
p60
ccopy_reg
_reconstructor
p61
(cgluon.html
BEAUTIFY
p62
c__builtin__
object
p63
NtRp64
(dp65
S'attributes'
p66
(dp67
sS'components'
p68
(lp69
g61
(cgluon.html
TABLE
p70
g63
NtRp71
(dp72
g66
(dp73
S'level'
p74
I5
ssS'parent'
p75
Nsg68
(lp76
g61
(cgluon.html
TR
p77
g63
NtRp78
(dp79
g66
(dp80
sg75
g71
sg68
(lp81
g61
(cgluon.html
TD
p82
g63
NtRp83
(dp84
g66
(dp85
S'_style'
p86
S'font-weight:bold;vertical-align:top'
p87
ssg75
g78
sg68
(lp88
S'ajax'
p89
asbag61
(g82
g63
NtRp90
(dp91
g66
(dp92
S'_valign'
p93
S'top'
p94
ssg75
g78
sg68
(lp95
S':'
asbag61
(g82
g63
NtRp96
(dp97
g66
(dp98
sg75
g78
sg68
(lp99
g61
(g62
g63
NtRp100
(dp101
g66
(dp102
g74
I5
ssg75
g96
sg68
(lp103
S'False'
p104
asbasbasbag61
(g77
g63
NtRp105
(dp106
g66
(dp107
sg75
g71
sg68
(lp108
g61
(g82
g63
NtRp109
(dp110
g66
(dp111
g86
g87
ssg75
g105
sg68
(lp112
S'application'
p113
asbag61
(g82
g63
NtRp114
(dp115
g66
(dp116
g93
g94
ssg75
g105
sg68
(lp117
S':'
asbag61
(g82
g63
NtRp118
(dp119
g66
(dp120
sg75
g105
sg68
(lp121
g61
(g62
g63
NtRp122
(dp123
g66
(dp124
g74
I5
ssg75
g118
sg68
(lp125
S'projeto'
p126
asbasbasbag61
(g77
g63
NtRp127
(dp128
g66
(dp129
sg75
g71
sg68
(lp130
g61
(g82
g63
NtRp131
(dp132
g66
(dp133
g86
g87
ssg75
g127
sg68
(lp134
g46
asbag61
(g82
g63
NtRp135
(dp136
g66
(dp137
g93
g94
ssg75
g127
sg68
(lp138
S':'
asbag61
(g82
g63
NtRp139
(dp140
g66
(dp141
sg75
g127
sg68
(lp142
g61
(g62
g63
NtRp143
(dp144
g66
(dp145
g74
I5
ssg75
g139
sg68
(lp146
g61
(g70
g63
NtRp147
(dp148
g66
(dp149
g74
I4
ssg75
Nsg68
(lp150
sbasbasbasbag61
(g77
g63
NtRp151
(dp152
g66
(dp153
sg75
g71
sg68
(lp154
g61
(g82
g63
NtRp155
(dp156
g66
(dp157
g86
g87
ssg75
g151
sg68
(lp158
S'body'
p159
asbag61
(g82
g63
NtRp160
(dp161
g66
(dp162
g93
g94
ssg75
g151
sg68
(lp163
S':'
asbag61
(g82
g63
NtRp164
(dp165
g66
(dp166
sg75
g151
sg68
(lp167
g61
(g62
g63
NtRp168
(dp169
g66
(dp170
g74
I5
ssg75
g164
sg68
(lp171
S'<cStringIO.StringO object at 0x2dc2298>'
p172
asbasbasbag61
(g77
g63
NtRp173
(dp174
g66
(dp175
sg75
g71
sg68
(lp176
g61
(g82
g63
NtRp177
(dp178
g66
(dp179
g86
g87
ssg75
g173
sg68
(lp180
S'cid'
p181
asbag61
(g82
g63
NtRp182
(dp183
g66
(dp184
g93
g94
ssg75
g173
sg68
(lp185
S':'
asbag61
(g82
g63
NtRp186
(dp187
g66
(dp188
sg75
g173
sg68
(lp189
g61
(g62
g63
NtRp190
(dp191
g66
(dp192
g74
I5
ssg75
g186
sg68
(lp193
S'None'
p194
asbasbasbag61
(g77
g63
NtRp195
(dp196
g66
(dp197
sg75
g71
sg68
(lp198
g61
(g82
g63
NtRp199
(dp200
g66
(dp201
g86
g87
ssg75
g195
sg68
(lp202
S'client'
p203
asbag61
(g82
g63
NtRp204
(dp205
g66
(dp206
g93
g94
ssg75
g195
sg68
(lp207
S':'
asbag61
(g82
g63
NtRp208
(dp209
g66
(dp210
sg75
g195
sg68
(lp211
g61
(g62
g63
NtRp212
(dp213
g66
(dp214
g74
I5
ssg75
g208
sg68
(lp215
S'127.0.0.1'
p216
asbasbasbag61
(g77
g63
NtRp217
(dp218
g66
(dp219
sg75
g71
sg68
(lp220
g61
(g82
g63
NtRp221
(dp222
g66
(dp223
g86
g87
ssg75
g217
sg68
(lp224
S'controller'
p225
asbag61
(g82
g63
NtRp226
(dp227
g66
(dp228
g93
g94
ssg75
g217
sg68
(lp229
S':'
asbag61
(g82
g63
NtRp230
(dp231
g66
(dp232
sg75
g217
sg68
(lp233
g61
(g62
g63
NtRp234
(dp235
g66
(dp236
g74
I5
ssg75
g230
sg68
(lp237
S'initial'
p238
asbasbasbag61
(g77
g63
NtRp239
(dp240
g66
(dp241
sg75
g71
sg68
(lp242
g61
(g82
g63
NtRp243
(dp244
g66
(dp245
g86
g87
ssg75
g239
sg68
(lp246
S'cookies'
p247
asbag61
(g82
g63
NtRp248
(dp249
g66
(dp250
g93
g94
ssg75
g239
sg68
(lp251
S':'
asbag61
(g82
g63
NtRp252
(dp253
g66
(dp254
sg75
g239
sg68
(lp255
g61
(g62
g63
NtRp256
(dp257
g66
(dp258
g74
I5
ssg75
g252
sg68
(lp259
g61
(g70
g63
NtRp260
(dp261
g66
(dp262
g74
I4
ssg75
Nsg68
(lp263
g61
(g77
g63
NtRp264
(dp265
g66
(dp266
sg75
g260
sg68
(lp267
g61
(g82
g63
NtRp268
(dp269
g66
(dp270
g86
g87
ssg75
g264
sg68
(lp271
S'session_id_admin'
p272
asbag61
(g82
g63
NtRp273
(dp274
g66
(dp275
g93
g94
ssg75
g264
sg68
(lp276
S':'
asbag61
(g82
g63
NtRp277
(dp278
g66
(dp279
sg75
g264
sg68
(lp280
g61
(g62
g63
NtRp281
(dp282
g66
(dp283
g74
I4
ssg75
g277
sg68
(lp284
S'127.0.0.1-f08163e7-63a0-4e97-8334-13b9dc892d78'
p285
ag61
(g70
g63
NtRp286
(dp287
g66
(dp288
g74
I3
ssg75
Nsg68
(lp289
g61
(g77
g63
NtRp290
(dp291
g66
(dp292
sg75
g286
sg68
(lp293
g61
(g82
g63
NtRp294
(dp295
g66
(dp296
g86
g87
ssg75
g290
sg68
(lp297
S'comment'
p298
asbag61
(g82
g63
NtRp299
(dp300
g66
(dp301
g93
g94
ssg75
g290
sg68
(lp302
S':'
asbag61
(g82
g63
NtRp303
(dp304
g66
(dp305
sg75
g290
sg68
(lp306
g61
(g62
g63
NtRp307
(dp308
g66
(dp309
g74
I3
ssg75
g303
sg68
(lp310
S''
asbasbasbag61
(g77
g63
NtRp311
(dp312
g66
(dp313
sg75
g286
sg68
(lp314
g61
(g82
g63
NtRp315
(dp316
g66
(dp317
g86
g87
ssg75
g311
sg68
(lp318
S'domain'
p319
asbag61
(g82
g63
NtRp320
(dp321
g66
(dp322
g93
g94
ssg75
g311
sg68
(lp323
S':'
asbag61
(g82
g63
NtRp324
(dp325
g66
(dp326
sg75
g311
sg68
(lp327
g61
(g62
g63
NtRp328
(dp329
g66
(dp330
g74
I3
ssg75
g324
sg68
(lp331
S''
asbasbasbag61
(g77
g63
NtRp332
(dp333
g66
(dp334
sg75
g286
sg68
(lp335
g61
(g82
g63
NtRp336
(dp337
g66
(dp338
g86
g87
ssg75
g332
sg68
(lp339
S'expires'
p340
asbag61
(g82
g63
NtRp341
(dp342
g66
(dp343
g93
g94
ssg75
g332
sg68
(lp344
S':'
asbag61
(g82
g63
NtRp345
(dp346
g66
(dp347
sg75
g332
sg68
(lp348
g61
(g62
g63
NtRp349
(dp350
g66
(dp351
g74
I3
ssg75
g345
sg68
(lp352
S''
asbasbasbag61
(g77
g63
NtRp353
(dp354
g66
(dp355
sg75
g286
sg68
(lp356
g61
(g82
g63
NtRp357
(dp358
g66
(dp359
g86
g87
ssg75
g353
sg68
(lp360
S'httponly'
p361
asbag61
(g82
g63
NtRp362
(dp363
g66
(dp364
g93
g94
ssg75
g353
sg68
(lp365
S':'
asbag61
(g82
g63
NtRp366
(dp367
g66
(dp368
sg75
g353
sg68
(lp369
g61
(g62
g63
NtRp370
(dp371
g66
(dp372
g74
I3
ssg75
g366
sg68
(lp373
S''
asbasbasbag61
(g77
g63
NtRp374
(dp375
g66
(dp376
sg75
g286
sg68
(lp377
g61
(g82
g63
NtRp378
(dp379
g66
(dp380
g86
g87
ssg75
g374
sg68
(lp381
S'max-age'
p382
asbag61
(g82
g63
NtRp383
(dp384
g66
(dp385
g93
g94
ssg75
g374
sg68
(lp386
S':'
asbag61
(g82
g63
NtRp387
(dp388
g66
(dp389
sg75
g374
sg68
(lp390
g61
(g62
g63
NtRp391
(dp392
g66
(dp393
g74
I3
ssg75
g387
sg68
(lp394
S''
asbasbasbag61
(g77
g63
NtRp395
(dp396
g66
(dp397
sg75
g286
sg68
(lp398
g61
(g82
g63
NtRp399
(dp400
g66
(dp401
g86
g87
ssg75
g395
sg68
(lp402
S'path'
p403
asbag61
(g82
g63
NtRp404
(dp405
g66
(dp406
g93
g94
ssg75
g395
sg68
(lp407
S':'
asbag61
(g82
g63
NtRp408
(dp409
g66
(dp410
sg75
g395
sg68
(lp411
g61
(g62
g63
NtRp412
(dp413
g66
(dp414
g74
I3
ssg75
g408
sg68
(lp415
S''
asbasbasbag61
(g77
g63
NtRp416
(dp417
g66
(dp418
sg75
g286
sg68
(lp419
g61
(g82
g63
NtRp420
(dp421
g66
(dp422
g86
g87
ssg75
g416
sg68
(lp423
S'secure'
p424
asbag61
(g82
g63
NtRp425
(dp426
g66
(dp427
g93
g94
ssg75
g416
sg68
(lp428
S':'
asbag61
(g82
g63
NtRp429
(dp430
g66
(dp431
sg75
g416
sg68
(lp432
g61
(g62
g63
NtRp433
(dp434
g66
(dp435
g74
I3
ssg75
g429
sg68
(lp436
S''
asbasbasbag61
(g77
g63
NtRp437
(dp438
g66
(dp439
sg75
g286
sg68
(lp440
g61
(g82
g63
NtRp441
(dp442
g66
(dp443
g86
g87
ssg75
g437
sg68
(lp444
S'version'
p445
asbag61
(g82
g63
NtRp446
(dp447
g66
(dp448
g93
g94
ssg75
g437
sg68
(lp449
S':'
asbag61
(g82
g63
NtRp450
(dp451
g66
(dp452
sg75
g437
sg68
(lp453
g61
(g62
g63
NtRp454
(dp455
g66
(dp456
g74
I3
ssg75
g450
sg68
(lp457
S''
asbasbasbasbasbasbasbag61
(g77
g63
NtRp458
(dp459
g66
(dp460
sg75
g260
sg68
(lp461
g61
(g82
g63
NtRp462
(dp463
g66
(dp464
g86
g87
ssg75
g458
sg68
(lp465
S'session_id_projeto'
p466
asbag61
(g82
g63
NtRp467
(dp468
g66
(dp469
g93
g94
ssg75
g458
sg68
(lp470
S':'
asbag61
(g82
g63
NtRp471
(dp472
g66
(dp473
sg75
g458
sg68
(lp474
g61
(g62
g63
NtRp475
(dp476
g66
(dp477
g74
I4
ssg75
g471
sg68
(lp478
S'127.0.0.1-0fe02c32-0739-4f06-a369-3bba6377da8b'
p479
ag61
(g70
g63
NtRp480
(dp481
g66
(dp482
g74
I3
ssg75
Nsg68
(lp483
g61
(g77
g63
NtRp484
(dp485
g66
(dp486
sg75
g480
sg68
(lp487
g61
(g82
g63
NtRp488
(dp489
g66
(dp490
g86
g87
ssg75
g484
sg68
(lp491
g298
asbag61
(g82
g63
NtRp492
(dp493
g66
(dp494
g93
g94
ssg75
g484
sg68
(lp495
S':'
asbag61
(g82
g63
NtRp496
(dp497
g66
(dp498
sg75
g484
sg68
(lp499
g61
(g62
g63
NtRp500
(dp501
g66
(dp502
g74
I3
ssg75
g496
sg68
(lp503
S''
asbasbasbag61
(g77
g63
NtRp504
(dp505
g66
(dp506
sg75
g480
sg68
(lp507
g61
(g82
g63
NtRp508
(dp509
g66
(dp510
g86
g87
ssg75
g504
sg68
(lp511
g319
asbag61
(g82
g63
NtRp512
(dp513
g66
(dp514
g93
g94
ssg75
g504
sg68
(lp515
S':'
asbag61
(g82
g63
NtRp516
(dp517
g66
(dp518
sg75
g504
sg68
(lp519
g61
(g62
g63
NtRp520
(dp521
g66
(dp522
g74
I3
ssg75
g516
sg68
(lp523
S''
asbasbasbag61
(g77
g63
NtRp524
(dp525
g66
(dp526
sg75
g480
sg68
(lp527
g61
(g82
g63
NtRp528
(dp529
g66
(dp530
g86
g87
ssg75
g524
sg68
(lp531
g340
asbag61
(g82
g63
NtRp532
(dp533
g66
(dp534
g93
g94
ssg75
g524
sg68
(lp535
S':'
asbag61
(g82
g63
NtRp536
(dp537
g66
(dp538
sg75
g524
sg68
(lp539
g61
(g62
g63
NtRp540
(dp541
g66
(dp542
g74
I3
ssg75
g536
sg68
(lp543
S''
asbasbasbag61
(g77
g63
NtRp544
(dp545
g66
(dp546
sg75
g480
sg68
(lp547
g61
(g82
g63
NtRp548
(dp549
g66
(dp550
g86
g87
ssg75
g544
sg68
(lp551
g361
asbag61
(g82
g63
NtRp552
(dp553
g66
(dp554
g93
g94
ssg75
g544
sg68
(lp555
S':'
asbag61
(g82
g63
NtRp556
(dp557
g66
(dp558
sg75
g544
sg68
(lp559
g61
(g62
g63
NtRp560
(dp561
g66
(dp562
g74
I3
ssg75
g556
sg68
(lp563
S''
asbasbasbag61
(g77
g63
NtRp564
(dp565
g66
(dp566
sg75
g480
sg68
(lp567
g61
(g82
g63
NtRp568
(dp569
g66
(dp570
g86
g87
ssg75
g564
sg68
(lp571
g382
asbag61
(g82
g63
NtRp572
(dp573
g66
(dp574
g93
g94
ssg75
g564
sg68
(lp575
S':'
asbag61
(g82
g63
NtRp576
(dp577
g66
(dp578
sg75
g564
sg68
(lp579
g61
(g62
g63
NtRp580
(dp581
g66
(dp582
g74
I3
ssg75
g576
sg68
(lp583
S''
asbasbasbag61
(g77
g63
NtRp584
(dp585
g66
(dp586
sg75
g480
sg68
(lp587
g61
(g82
g63
NtRp588
(dp589
g66
(dp590
g86
g87
ssg75
g584
sg68
(lp591
g403
asbag61
(g82
g63
NtRp592
(dp593
g66
(dp594
g93
g94
ssg75
g584
sg68
(lp595
S':'
asbag61
(g82
g63
NtRp596
(dp597
g66
(dp598
sg75
g584
sg68
(lp599
g61
(g62
g63
NtRp600
(dp601
g66
(dp602
g74
I3
ssg75
g596
sg68
(lp603
S''
asbasbasbag61
(g77
g63
NtRp604
(dp605
g66
(dp606
sg75
g480
sg68
(lp607
g61
(g82
g63
NtRp608
(dp609
g66
(dp610
g86
g87
ssg75
g604
sg68
(lp611
g424
asbag61
(g82
g63
NtRp612
(dp613
g66
(dp614
g93
g94
ssg75
g604
sg68
(lp615
S':'
asbag61
(g82
g63
NtRp616
(dp617
g66
(dp618
sg75
g604
sg68
(lp619
g61
(g62
g63
NtRp620
(dp621
g66
(dp622
g74
I3
ssg75
g616
sg68
(lp623
S''
asbasbasbag61
(g77
g63
NtRp624
(dp625
g66
(dp626
sg75
g480
sg68
(lp627
g61
(g82
g63
NtRp628
(dp629
g66
(dp630
g86
g87
ssg75
g624
sg68
(lp631
g445
asbag61
(g82
g63
NtRp632
(dp633
g66
(dp634
g93
g94
ssg75
g624
sg68
(lp635
S':'
asbag61
(g82
g63
NtRp636
(dp637
g66
(dp638
sg75
g624
sg68
(lp639
g61
(g62
g63
NtRp640
(dp641
g66
(dp642
g74
I3
ssg75
g636
sg68
(lp643
S''
asbasbasbasbasbasbasbasbasbasbasbag61
(g77
g63
NtRp644
(dp645
g66
(dp646
sg75
g71
sg68
(lp647
g61
(g82
g63
NtRp648
(dp649
g66
(dp650
g86
g87
ssg75
g644
sg68
(lp651
S'env'
p652
asbag61
(g82
g63
NtRp653
(dp654
g66
(dp655
g93
g94
ssg75
g644
sg68
(lp656
S':'
asbag61
(g82
g63
NtRp657
(dp658
g66
(dp659
sg75
g644
sg68
(lp660
g61
(g62
g63
NtRp661
(dp662
g66
(dp663
g74
I5
ssg75
g657
sg68
(lp664
g61
(g70
g63
NtRp665
(dp666
g66
(dp667
g74
I4
ssg75
Nsg68
(lp668
g61
(g77
g63
NtRp669
(dp670
g66
(dp671
sg75
g665
sg68
(lp672
g61
(g82
g63
NtRp673
(dp674
g66
(dp675
g86
g87
ssg75
g669
sg68
(lp676
S'app_folders'
p677
asbag61
(g82
g63
NtRp678
(dp679
g66
(dp680
g93
g94
ssg75
g669
sg68
(lp681
S':'
asbag61
(g82
g63
NtRp682
(dp683
g66
(dp684
sg75
g669
sg68
(lp685
g61
(g62
g63
NtRp686
(dp687
g66
(dp688
g74
I4
ssg75
g682
sg68
(lp689
S"set(['/var/www/conferencia/applications/projeto/'])"
p690
asbasbasbag61
(g77
g63
NtRp691
(dp692
g66
(dp693
sg75
g665
sg68
(lp694
g61
(g82
g63
NtRp695
(dp696
g66
(dp697
g86
g87
ssg75
g691
sg68
(lp698
S'applications_parent'
p699
asbag61
(g82
g63
NtRp700
(dp701
g66
(dp702
g93
g94
ssg75
g691
sg68
(lp703
S':'
asbag61
(g82
g63
NtRp704
(dp705
g66
(dp706
sg75
g691
sg68
(lp707
g61
(g62
g63
NtRp708
(dp709
g66
(dp710
g74
I4
ssg75
g704
sg68
(lp711
S'/var/www/conferencia'
p712
asbasbasbag61
(g77
g63
NtRp713
(dp714
g66
(dp715
sg75
g665
sg68
(lp716
g61
(g82
g63
NtRp717
(dp718
g66
(dp719
g86
g87
ssg75
g713
sg68
(lp720
S'cmd_args'
p721
asbag61
(g82
g63
NtRp722
(dp723
g66
(dp724
g93
g94
ssg75
g713
sg68
(lp725
S':'
asbag61
(g82
g63
NtRp726
(dp727
g66
(dp728
sg75
g713
sg68
(lp729
g61
(g62
g63
NtRp730
(dp731
g66
(dp732
g74
I4
ssg75
g726
sg68
(lp733
g61
(g70
g63
NtRp734
(dp735
g66
(dp736
g74
I3
ssg75
Nsg68
(lp737
sbasbasbasbag61
(g77
g63
NtRp738
(dp739
g66
(dp740
sg75
g665
sg68
(lp741
g61
(g82
g63
NtRp742
(dp743
g66
(dp744
g86
g87
ssg75
g738
sg68
(lp745
S'cmd_options'
p746
asbag61
(g82
g63
NtRp747
(dp748
g66
(dp749
g93
g94
ssg75
g738
sg68
(lp750
S':'
asbag61
(g82
g63
NtRp751
(dp752
g66
(dp753
sg75
g738
sg68
(lp754
g61
(g62
g63
NtRp755
(dp756
g66
(dp757
g74
I4
ssg75
g751
sg68
(lp758
S"<Values at 0x2d85248: {'verbose': False, 'ip': '127.0.0.1', 'with_scheduler': False, 'ips': [], 'shutdown_timeout': 5, 'taskbar': False, 'port': 8000, 'maxthreads': None, 'softcron': False, 'server_name': 'fernando-workstation', 'bpython': False, 'nogui': False, 'pid_filename': 'httpserver.pid', 'extcron': False, 'runcron': False, 'run_system_tests': False, 'test': None, 'folder': '/var/www/conferencia', 'config': '', 'minthreads': None, 'winservice': '', 'shell': None, 'run': '', 'log_filename': 'httpserver.log', 'debuglevel': 30, 'args': [''], 'socket_timeout': 5, 'ssl_ca_certificate': None, 'scheduler': None, 'profiler_filename': None, 'ssl_private_key': '', 'scheduler_groups': None, 'password': '123456', 'request_queue_size': 5, 'ssl_certificate': '', 'cronjob': False, 'numthreads': None, 'quiet': False, 'interfaces': None, 'import_models': False, 'timeout': 10, 'plain': False, 'nobanner': False}>"
p759
asbasbasbag61
(g77
g63
NtRp760
(dp761
g66
(dp762
sg75
g665
sg68
(lp763
g61
(g82
g63
NtRp764
(dp765
g66
(dp766
g86
g87
ssg75
g760
sg68
(lp767
S'db_sessions'
p768
asbag61
(g82
g63
NtRp769
(dp770
g66
(dp771
g93
g94
ssg75
g760
sg68
(lp772
S':'
asbag61
(g82
g63
NtRp773
(dp774
g66
(dp775
sg75
g760
sg68
(lp776
g61
(g62
g63
NtRp777
(dp778
g66
(dp779
g74
I4
ssg75
g773
sg68
(lp780
S'set([])'
p781
asbasbasbag61
(g77
g63
NtRp782
(dp783
g66
(dp784
sg75
g665
sg68
(lp785
g61
(g82
g63
NtRp786
(dp787
g66
(dp788
g86
g87
ssg75
g782
sg68
(lp789
S'debugging'
p790
asbag61
(g82
g63
NtRp791
(dp792
g66
(dp793
g93
g94
ssg75
g782
sg68
(lp794
S':'
asbag61
(g82
g63
NtRp795
(dp796
g66
(dp797
sg75
g782
sg68
(lp798
g61
(g62
g63
NtRp799
(dp800
g66
(dp801
g74
I4
ssg75
g795
sg68
(lp802
g104
asbasbasbag61
(g77
g63
NtRp803
(dp804
g66
(dp805
sg75
g665
sg68
(lp806
g61
(g82
g63
NtRp807
(dp808
g66
(dp809
g86
g87
ssg75
g803
sg68
(lp810
S'gluon_parent'
p811
asbag61
(g82
g63
NtRp812
(dp813
g66
(dp814
g93
g94
ssg75
g803
sg68
(lp815
S':'
asbag61
(g82
g63
NtRp816
(dp817
g66
(dp818
sg75
g803
sg68
(lp819
g61
(g62
g63
NtRp820
(dp821
g66
(dp822
g74
I4
ssg75
g816
sg68
(lp823
S'/var/www/conferencia'
p824
asbasbasbag61
(g77
g63
NtRp825
(dp826
g66
(dp827
sg75
g665
sg68
(lp828
g61
(g82
g63
NtRp829
(dp830
g66
(dp831
g86
g87
ssg75
g825
sg68
(lp832
S'http_accept'
p833
asbag61
(g82
g63
NtRp834
(dp835
g66
(dp836
g93
g94
ssg75
g825
sg68
(lp837
S':'
asbag61
(g82
g63
NtRp838
(dp839
g66
(dp840
sg75
g825
sg68
(lp841
g61
(g62
g63
NtRp842
(dp843
g66
(dp844
g74
I4
ssg75
g838
sg68
(lp845
S'text/html,application/xhtml+xml,application/xml;q=0.9,*/*;q=0.8'
p846
asbasbasbag61
(g77
g63
NtRp847
(dp848
g66
(dp849
sg75
g665
sg68
(lp850
g61
(g82
g63
NtRp851
(dp852
g66
(dp853
g86
g87
ssg75
g847
sg68
(lp854
S'http_accept_charset'
p855
asbag61
(g82
g63
NtRp856
(dp857
g66
(dp858
g93
g94
ssg75
g847
sg68
(lp859
S':'
asbag61
(g82
g63
NtRp860
(dp861
g66
(dp862
sg75
g847
sg68
(lp863
g61
(g62
g63
NtRp864
(dp865
g66
(dp866
g74
I4
ssg75
g860
sg68
(lp867
S'ISO-8859-1,utf-8;q=0.7,*;q=0.3'
p868
asbasbasbag61
(g77
g63
NtRp869
(dp870
g66
(dp871
sg75
g665
sg68
(lp872
g61
(g82
g63
NtRp873
(dp874
g66
(dp875
g86
g87
ssg75
g869
sg68
(lp876
S'http_accept_encoding'
p877
asbag61
(g82
g63
NtRp878
(dp879
g66
(dp880
g93
g94
ssg75
g869
sg68
(lp881
S':'
asbag61
(g82
g63
NtRp882
(dp883
g66
(dp884
sg75
g869
sg68
(lp885
g61
(g62
g63
NtRp886
(dp887
g66
(dp888
g74
I4
ssg75
g882
sg68
(lp889
S'gzip,deflate,sdch'
p890
asbasbasbag61
(g77
g63
NtRp891
(dp892
g66
(dp893
sg75
g665
sg68
(lp894
g61
(g82
g63
NtRp895
(dp896
g66
(dp897
g86
g87
ssg75
g891
sg68
(lp898
S'http_accept_language'
p899
asbag61
(g82
g63
NtRp900
(dp901
g66
(dp902
g93
g94
ssg75
g891
sg68
(lp903
S':'
asbag61
(g82
g63
NtRp904
(dp905
g66
(dp906
sg75
g891
sg68
(lp907
g61
(g62
g63
NtRp908
(dp909
g66
(dp910
g74
I4
ssg75
g904
sg68
(lp911
S'pt-BR,pt;q=0.8,en-US;q=0.6,en;q=0.4'
p912
asbasbasbag61
(g77
g63
NtRp913
(dp914
g66
(dp915
sg75
g665
sg68
(lp916
g61
(g82
g63
NtRp917
(dp918
g66
(dp919
g86
g87
ssg75
g913
sg68
(lp920
S'http_cache_control'
p921
asbag61
(g82
g63
NtRp922
(dp923
g66
(dp924
g93
g94
ssg75
g913
sg68
(lp925
S':'
asbag61
(g82
g63
NtRp926
(dp927
g66
(dp928
sg75
g913
sg68
(lp929
g61
(g62
g63
NtRp930
(dp931
g66
(dp932
g74
I4
ssg75
g926
sg68
(lp933
S'max-age=0'
p934
asbasbasbag61
(g77
g63
NtRp935
(dp936
g66
(dp937
sg75
g665
sg68
(lp938
g61
(g82
g63
NtRp939
(dp940
g66
(dp941
g86
g87
ssg75
g935
sg68
(lp942
S'http_connection'
p943
asbag61
(g82
g63
NtRp944
(dp945
g66
(dp946
g93
g94
ssg75
g935
sg68
(lp947
S':'
asbag61
(g82
g63
NtRp948
(dp949
g66
(dp950
sg75
g935
sg68
(lp951
g61
(g62
g63
NtRp952
(dp953
g66
(dp954
g74
I4
ssg75
g948
sg68
(lp955
S'keep-alive'
p956
asbasbasbag61
(g77
g63
NtRp957
(dp958
g66
(dp959
sg75
g665
sg68
(lp960
g61
(g82
g63
NtRp961
(dp962
g66
(dp963
g86
g87
ssg75
g957
sg68
(lp964
S'http_cookie'
p965
asbag61
(g82
g63
NtRp966
(dp967
g66
(dp968
g93
g94
ssg75
g957
sg68
(lp969
S':'
asbag61
(g82
g63
NtRp970
(dp971
g66
(dp972
sg75
g957
sg68
(lp973
g61
(g62
g63
NtRp974
(dp975
g66
(dp976
g74
I4
ssg75
g970
sg68
(lp977
S'session_id_projeto=127.0.0.1-0fe02c32-0739-4f06-a369-3bba6377da8b; session_id_admin=127.0.0.1-f08163e7-63a0-4e97-8334-13b9dc892d78'
p978
asbasbasbag61
(g77
g63
NtRp979
(dp980
g66
(dp981
sg75
g665
sg68
(lp982
g61
(g82
g63
NtRp983
(dp984
g66
(dp985
g86
g87
ssg75
g979
sg68
(lp986
S'http_host'
p987
asbag61
(g82
g63
NtRp988
(dp989
g66
(dp990
g93
g94
ssg75
g979
sg68
(lp991
S':'
asbag61
(g82
g63
NtRp992
(dp993
g66
(dp994
sg75
g979
sg68
(lp995
g61
(g62
g63
NtRp996
(dp997
g66
(dp998
g74
I4
ssg75
g992
sg68
(lp999
S'127.0.0.1:8000'
p1000
asbasbasbag61
(g77
g63
NtRp1001
(dp1002
g66
(dp1003
sg75
g665
sg68
(lp1004
g61
(g82
g63
NtRp1005
(dp1006
g66
(dp1007
g86
g87
ssg75
g1001
sg68
(lp1008
S'http_user_agent'
p1009
asbag61
(g82
g63
NtRp1010
(dp1011
g66
(dp1012
g93
g94
ssg75
g1001
sg68
(lp1013
S':'
asbag61
(g82
g63
NtRp1014
(dp1015
g66
(dp1016
sg75
g1001
sg68
(lp1017
g61
(g62
g63
NtRp1018
(dp1019
g66
(dp1020
g74
I4
ssg75
g1014
sg68
(lp1021
S'Mozilla/5.0 (X11; Linux x86_64) AppleWebKit/537.4 (KHTML, like Gecko) Ubuntu/12.10 Chromium/22.0.1229.94 Chrome/22.0.1229.94 Safari/537.4'
p1022
asbasbasbag61
(g77
g63
NtRp1023
(dp1024
g66
(dp1025
sg75
g665
sg68
(lp1026
g61
(g82
g63
NtRp1027
(dp1028
g66
(dp1029
g86
g87
ssg75
g1023
sg68
(lp1030
S'is_jython'
p1031
asbag61
(g82
g63
NtRp1032
(dp1033
g66
(dp1034
g93
g94
ssg75
g1023
sg68
(lp1035
S':'
asbag61
(g82
g63
NtRp1036
(dp1037
g66
(dp1038
sg75
g1023
sg68
(lp1039
g61
(g62
g63
NtRp1040
(dp1041
g66
(dp1042
g74
I4
ssg75
g1036
sg68
(lp1043
g104
asbasbasbag61
(g77
g63
NtRp1044
(dp1045
g66
(dp1046
sg75
g665
sg68
(lp1047
g61
(g82
g63
NtRp1048
(dp1049
g66
(dp1050
g86
g87
ssg75
g1044
sg68
(lp1051
S'is_pypy'
p1052
asbag61
(g82
g63
NtRp1053
(dp1054
g66
(dp1055
g93
g94
ssg75
g1044
sg68
(lp1056
S':'
asbag61
(g82
g63
NtRp1057
(dp1058
g66
(dp1059
sg75
g1044
sg68
(lp1060
g61
(g62
g63
NtRp1061
(dp1062
g66
(dp1063
g74
I4
ssg75
g1057
sg68
(lp1064
g104
asbasbasbag61
(g77
g63
NtRp1065
(dp1066
g66
(dp1067
sg75
g665
sg68
(lp1068
g61
(g82
g63
NtRp1069
(dp1070
g66
(dp1071
g86
g87
ssg75
g1065
sg68
(lp1072
S'path_info'
p1073
asbag61
(g82
g63
NtRp1074
(dp1075
g66
(dp1076
g93
g94
ssg75
g1065
sg68
(lp1077
S':'
asbag61
(g82
g63
NtRp1078
(dp1079
g66
(dp1080
sg75
g1065
sg68
(lp1081
g61
(g62
g63
NtRp1082
(dp1083
g66
(dp1084
g74
I4
ssg75
g1078
sg68
(lp1085
S'/'
asbasbasbag61
(g77
g63
NtRp1086
(dp1087
g66
(dp1088
sg75
g665
sg68
(lp1089
g61
(g82
g63
NtRp1090
(dp1091
g66
(dp1092
g86
g87
ssg75
g1086
sg68
(lp1093
S'query_string'
p1094
asbag61
(g82
g63
NtRp1095
(dp1096
g66
(dp1097
g93
g94
ssg75
g1086
sg68
(lp1098
S':'
asbag61
(g82
g63
NtRp1099
(dp1100
g66
(dp1101
sg75
g1086
sg68
(lp1102
g61
(g62
g63
NtRp1103
(dp1104
g66
(dp1105
g74
I4
ssg75
g1099
sg68
(lp1106
S''
asbasbasbag61
(g77
g63
NtRp1107
(dp1108
g66
(dp1109
sg75
g665
sg68
(lp1110
g61
(g82
g63
NtRp1111
(dp1112
g66
(dp1113
g86
g87
ssg75
g1107
sg68
(lp1114
S'remote_addr'
p1115
asbag61
(g82
g63
NtRp1116
(dp1117
g66
(dp1118
g93
g94
ssg75
g1107
sg68
(lp1119
S':'
asbag61
(g82
g63
NtRp1120
(dp1121
g66
(dp1122
sg75
g1107
sg68
(lp1123
g61
(g62
g63
NtRp1124
(dp1125
g66
(dp1126
g74
I4
ssg75
g1120
sg68
(lp1127
g216
asbasbasbag61
(g77
g63
NtRp1128
(dp1129
g66
(dp1130
sg75
g665
sg68
(lp1131
g61
(g82
g63
NtRp1132
(dp1133
g66
(dp1134
g86
g87
ssg75
g1128
sg68
(lp1135
S'remote_port'
p1136
asbag61
(g82
g63
NtRp1137
(dp1138
g66
(dp1139
g93
g94
ssg75
g1128
sg68
(lp1140
S':'
asbag61
(g82
g63
NtRp1141
(dp1142
g66
(dp1143
sg75
g1128
sg68
(lp1144
g61
(g62
g63
NtRp1145
(dp1146
g66
(dp1147
g74
I4
ssg75
g1141
sg68
(lp1148
S'45441'
p1149
asbasbasbag61
(g77
g63
NtRp1150
(dp1151
g66
(dp1152
sg75
g665
sg68
(lp1153
g61
(g82
g63
NtRp1154
(dp1155
g66
(dp1156
g86
g87
ssg75
g1150
sg68
(lp1157
S'request_method'
p1158
asbag61
(g82
g63
NtRp1159
(dp1160
g66
(dp1161
g93
g94
ssg75
g1150
sg68
(lp1162
S':'
asbag61
(g82
g63
NtRp1163
(dp1164
g66
(dp1165
sg75
g1150
sg68
(lp1166
g61
(g62
g63
NtRp1167
(dp1168
g66
(dp1169
g74
I4
ssg75
g1163
sg68
(lp1170
S'GET'
p1171
asbasbasbag61
(g77
g63
NtRp1172
(dp1173
g66
(dp1174
sg75
g665
sg68
(lp1175
g61
(g82
g63
NtRp1176
(dp1177
g66
(dp1178
g86
g87
ssg75
g1172
sg68
(lp1179
S'request_uri'
p1180
asbag61
(g82
g63
NtRp1181
(dp1182
g66
(dp1183
g93
g94
ssg75
g1172
sg68
(lp1184
S':'
asbag61
(g82
g63
NtRp1185
(dp1186
g66
(dp1187
sg75
g1172
sg68
(lp1188
g61
(g62
g63
NtRp1189
(dp1190
g66
(dp1191
g74
I4
ssg75
g1185
sg68
(lp1192
S'/projeto/initial/principal'
p1193
asbasbasbag61
(g77
g63
NtRp1194
(dp1195
g66
(dp1196
sg75
g665
sg68
(lp1197
g61
(g82
g63
NtRp1198
(dp1199
g66
(dp1200
g86
g87
ssg75
g1194
sg68
(lp1201
S'script_name'
p1202
asbag61
(g82
g63
NtRp1203
(dp1204
g66
(dp1205
g93
g94
ssg75
g1194
sg68
(lp1206
S':'
asbag61
(g82
g63
NtRp1207
(dp1208
g66
(dp1209
sg75
g1194
sg68
(lp1210
g61
(g62
g63
NtRp1211
(dp1212
g66
(dp1213
g74
I4
ssg75
g1207
sg68
(lp1214
S''
asbasbasbag61
(g77
g63
NtRp1215
(dp1216
g66
(dp1217
sg75
g665
sg68
(lp1218
g61
(g82
g63
NtRp1219
(dp1220
g66
(dp1221
g86
g87
ssg75
g1215
sg68
(lp1222
S'server_name'
p1223
asbag61
(g82
g63
NtRp1224
(dp1225
g66
(dp1226
g93
g94
ssg75
g1215
sg68
(lp1227
S':'
asbag61
(g82
g63
NtRp1228
(dp1229
g66
(dp1230
sg75
g1215
sg68
(lp1231
g61
(g62
g63
NtRp1232
(dp1233
g66
(dp1234
g74
I4
ssg75
g1228
sg68
(lp1235
S'fernando-workstation'
p1236
asbasbasbag61
(g77
g63
NtRp1237
(dp1238
g66
(dp1239
sg75
g665
sg68
(lp1240
g61
(g82
g63
NtRp1241
(dp1242
g66
(dp1243
g86
g87
ssg75
g1237
sg68
(lp1244
S'server_port'
p1245
asbag61
(g82
g63
NtRp1246
(dp1247
g66
(dp1248
g93
g94
ssg75
g1237
sg68
(lp1249
S':'
asbag61
(g82
g63
NtRp1250
(dp1251
g66
(dp1252
sg75
g1237
sg68
(lp1253
g61
(g62
g63
NtRp1254
(dp1255
g66
(dp1256
g74
I4
ssg75
g1250
sg68
(lp1257
S'8000'
p1258
asbasbasbag61
(g77
g63
NtRp1259
(dp1260
g66
(dp1261
sg75
g665
sg68
(lp1262
g61
(g82
g63
NtRp1263
(dp1264
g66
(dp1265
g86
g87
ssg75
g1259
sg68
(lp1266
S'server_protocol'
p1267
asbag61
(g82
g63
NtRp1268
(dp1269
g66
(dp1270
g93
g94
ssg75
g1259
sg68
(lp1271
S':'
asbag61
(g82
g63
NtRp1272
(dp1273
g66
(dp1274
sg75
g1259
sg68
(lp1275
g61
(g62
g63
NtRp1276
(dp1277
g66
(dp1278
g74
I4
ssg75
g1272
sg68
(lp1279
S'HTTP/1.1'
p1280
asbasbasbag61
(g77
g63
NtRp1281
(dp1282
g66
(dp1283
sg75
g665
sg68
(lp1284
g61
(g82
g63
NtRp1285
(dp1286
g66
(dp1287
g86
g87
ssg75
g1281
sg68
(lp1288
S'server_software'
p1289
asbag61
(g82
g63
NtRp1290
(dp1291
g66
(dp1292
g93
g94
ssg75
g1281
sg68
(lp1293
S':'
asbag61
(g82
g63
NtRp1294
(dp1295
g66
(dp1296
sg75
g1281
sg68
(lp1297
g61
(g62
g63
NtRp1298
(dp1299
g66
(dp1300
g74
I4
ssg75
g1294
sg68
(lp1301
S'Rocket 1.2.6'
p1302
asbasbasbag61
(g77
g63
NtRp1303
(dp1304
g66
(dp1305
sg75
g665
sg68
(lp1306
g61
(g82
g63
NtRp1307
(dp1308
g66
(dp1309
g86
g87
ssg75
g1303
sg68
(lp1310
S'web2py_original_uri'
p1311
asbag61
(g82
g63
NtRp1312
(dp1313
g66
(dp1314
g93
g94
ssg75
g1303
sg68
(lp1315
S':'
asbag61
(g82
g63
NtRp1316
(dp1317
g66
(dp1318
sg75
g1303
sg68
(lp1319
g61
(g62
g63
NtRp1320
(dp1321
g66
(dp1322
g74
I4
ssg75
g1316
sg68
(lp1323
S'/'
asbasbasbag61
(g77
g63
NtRp1324
(dp1325
g66
(dp1326
sg75
g665
sg68
(lp1327
g61
(g82
g63
NtRp1328
(dp1329
g66
(dp1330
g86
g87
ssg75
g1324
sg68
(lp1331
S'web2py_path'
p1332
asbag61
(g82
g63
NtRp1333
(dp1334
g66
(dp1335
g93
g94
ssg75
g1324
sg68
(lp1336
S':'
asbag61
(g82
g63
NtRp1337
(dp1338
g66
(dp1339
sg75
g1324
sg68
(lp1340
g61
(g62
g63
NtRp1341
(dp1342
g66
(dp1343
g74
I4
ssg75
g1337
sg68
(lp1344
g712
asbasbasbag61
(g77
g63
NtRp1345
(dp1346
g66
(dp1347
sg75
g665
sg68
(lp1348
g61
(g82
g63
NtRp1349
(dp1350
g66
(dp1351
g86
g87
ssg75
g1345
sg68
(lp1352
S'web2py_version'
p1353
asbag61
(g82
g63
NtRp1354
(dp1355
g66
(dp1356
g93
g94
ssg75
g1345
sg68
(lp1357
S':'
asbag61
(g82
g63
NtRp1358
(dp1359
g66
(dp1360
sg75
g1345
sg68
(lp1361
g61
(g62
g63
NtRp1362
(dp1363
g66
(dp1364
g74
I4
ssg75
g1358
sg68
(lp1365
g61
(g70
g63
NtRp1366
(dp1367
g66
(dp1368
g74
I3
ssg75
Nsg68
(lp1369
g61
(g77
g63
NtRp1370
(dp1371
g66
(dp1372
sg75
g1366
sg68
(lp1373
g61
(g82
g63
NtRp1374
(dp1375
g66
(dp1376
sg75
g1370
sg68
(lp1377
g61
(g62
g63
NtRp1378
(dp1379
g66
(dp1380
g74
I3
ssg75
g1374
sg68
(lp1381
S'2'
asbasbasbag61
(g77
g63
NtRp1382
(dp1383
g66
(dp1384
sg75
g1366
sg68
(lp1385
g61
(g82
g63
NtRp1386
(dp1387
g66
(dp1388
sg75
g1382
sg68
(lp1389
g61
(g62
g63
NtRp1390
(dp1391
g66
(dp1392
g74
I3
ssg75
g1386
sg68
(lp1393
S'3'
asbasbasbag61
(g77
g63
NtRp1394
(dp1395
g66
(dp1396
sg75
g1366
sg68
(lp1397
g61
(g82
g63
NtRp1398
(dp1399
g66
(dp1400
sg75
g1394
sg68
(lp1401
g61
(g62
g63
NtRp1402
(dp1403
g66
(dp1404
g74
I3
ssg75
g1398
sg68
(lp1405
S'2'
asbasbasbag61
(g77
g63
NtRp1406
(dp1407
g66
(dp1408
sg75
g1366
sg68
(lp1409
g61
(g82
g63
NtRp1410
(dp1411
g66
(dp1412
sg75
g1406
sg68
(lp1413
g61
(g62
g63
NtRp1414
(dp1415
g66
(dp1416
g74
I3
ssg75
g1410
sg68
(lp1417
S'datetime.datetime(2012, 12, 17, 15, 3, 30)'
p1418
asbasbasbag61
(g77
g63
NtRp1419
(dp1420
g66
(dp1421
sg75
g1366
sg68
(lp1422
g61
(g82
g63
NtRp1423
(dp1424
g66
(dp1425
sg75
g1419
sg68
(lp1426
g61
(g62
g63
NtRp1427
(dp1428
g66
(dp1429
g74
I3
ssg75
g1423
sg68
(lp1430
S'stable'
p1431
asbasbasbasbasbasbasbag61
(g77
g63
NtRp1432
(dp1433
g66
(dp1434
sg75
g665
sg68
(lp1435
g61
(g82
g63
NtRp1436
(dp1437
g66
(dp1438
g86
g87
ssg75
g1432
sg68
(lp1439
S'wsgi_errors'
p1440
asbag61
(g82
g63
NtRp1441
(dp1442
g66
(dp1443
g93
g94
ssg75
g1432
sg68
(lp1444
S':'
asbag61
(g82
g63
NtRp1445
(dp1446
g66
(dp1447
sg75
g1432
sg68
(lp1448
g61
(g62
g63
NtRp1449
(dp1450
g66
(dp1451
g74
I4
ssg75
g1445
sg68
(lp1452
S"<open file '<stderr>', mode 'w' at 0x7f0adf901270>"
p1453
asbasbasbag61
(g77
g63
NtRp1454
(dp1455
g66
(dp1456
sg75
g665
sg68
(lp1457
g61
(g82
g63
NtRp1458
(dp1459
g66
(dp1460
g86
g87
ssg75
g1454
sg68
(lp1461
S'wsgi_file_wrapper'
p1462
asbag61
(g82
g63
NtRp1463
(dp1464
g66
(dp1465
g93
g94
ssg75
g1454
sg68
(lp1466
S':'
asbag61
(g82
g63
NtRp1467
(dp1468
g66
(dp1469
sg75
g1454
sg68
(lp1470
g61
(g62
g63
NtRp1471
(dp1472
g66
(dp1473
g74
I4
ssg75
g1467
sg68
(lp1474
S'<class wsgiref.util.FileWrapper at 0x2cfd598>'
p1475
asbasbasbag61
(g77
g63
NtRp1476
(dp1477
g66
(dp1478
sg75
g665
sg68
(lp1479
g61
(g82
g63
NtRp1480
(dp1481
g66
(dp1482
g86
g87
ssg75
g1476
sg68
(lp1483
S'wsgi_input'
p1484
asbag61
(g82
g63
NtRp1485
(dp1486
g66
(dp1487
g93
g94
ssg75
g1476
sg68
(lp1488
S':'
asbag61
(g82
g63
NtRp1489
(dp1490
g66
(dp1491
sg75
g1476
sg68
(lp1492
g61
(g62
g63
NtRp1493
(dp1494
g66
(dp1495
g74
I4
ssg75
g1489
sg68
(lp1496
S'<socket._fileobject object at 0x2140350>'
p1497
asbasbasbag61
(g77
g63
NtRp1498
(dp1499
g66
(dp1500
sg75
g665
sg68
(lp1501
g61
(g82
g63
NtRp1502
(dp1503
g66
(dp1504
g86
g87
ssg75
g1498
sg68
(lp1505
S'wsgi_multiprocess'
p1506
asbag61
(g82
g63
NtRp1507
(dp1508
g66
(dp1509
g93
g94
ssg75
g1498
sg68
(lp1510
S':'
asbag61
(g82
g63
NtRp1511
(dp1512
g66
(dp1513
sg75
g1498
sg68
(lp1514
g61
(g62
g63
NtRp1515
(dp1516
g66
(dp1517
g74
I4
ssg75
g1511
sg68
(lp1518
g104
asbasbasbag61
(g77
g63
NtRp1519
(dp1520
g66
(dp1521
sg75
g665
sg68
(lp1522
g61
(g82
g63
NtRp1523
(dp1524
g66
(dp1525
g86
g87
ssg75
g1519
sg68
(lp1526
S'wsgi_multithread'
p1527
asbag61
(g82
g63
NtRp1528
(dp1529
g66
(dp1530
g93
g94
ssg75
g1519
sg68
(lp1531
S':'
asbag61
(g82
g63
NtRp1532
(dp1533
g66
(dp1534
sg75
g1519
sg68
(lp1535
g61
(g62
g63
NtRp1536
(dp1537
g66
(dp1538
g74
I4
ssg75
g1532
sg68
(lp1539
S'True'
p1540
asbasbasbag61
(g77
g63
NtRp1541
(dp1542
g66
(dp1543
sg75
g665
sg68
(lp1544
g61
(g82
g63
NtRp1545
(dp1546
g66
(dp1547
g86
g87
ssg75
g1541
sg68
(lp1548
S'wsgi_run_once'
p1549
asbag61
(g82
g63
NtRp1550
(dp1551
g66
(dp1552
g93
g94
ssg75
g1541
sg68
(lp1553
S':'
asbag61
(g82
g63
NtRp1554
(dp1555
g66
(dp1556
sg75
g1541
sg68
(lp1557
g61
(g62
g63
NtRp1558
(dp1559
g66
(dp1560
g74
I4
ssg75
g1554
sg68
(lp1561
g104
asbasbasbag61
(g77
g63
NtRp1562
(dp1563
g66
(dp1564
sg75
g665
sg68
(lp1565
g61
(g82
g63
NtRp1566
(dp1567
g66
(dp1568
g86
g87
ssg75
g1562
sg68
(lp1569
S'wsgi_url_scheme'
p1570
asbag61
(g82
g63
NtRp1571
(dp1572
g66
(dp1573
g93
g94
ssg75
g1562
sg68
(lp1574
S':'
asbag61
(g82
g63
NtRp1575
(dp1576
g66
(dp1577
sg75
g1562
sg68
(lp1578
g61
(g62
g63
NtRp1579
(dp1580
g66
(dp1581
g74
I4
ssg75
g1575
sg68
(lp1582
S'http'
p1583
asbasbasbag61
(g77
g63
NtRp1584
(dp1585
g66
(dp1586
sg75
g665
sg68
(lp1587
g61
(g82
g63
NtRp1588
(dp1589
g66
(dp1590
g86
g87
ssg75
g1584
sg68
(lp1591
S'wsgi_version'
p1592
asbag61
(g82
g63
NtRp1593
(dp1594
g66
(dp1595
g93
g94
ssg75
g1584
sg68
(lp1596
S':'
asbag61
(g82
g63
NtRp1597
(dp1598
g66
(dp1599
sg75
g1584
sg68
(lp1600
g61
(g62
g63
NtRp1601
(dp1602
g66
(dp1603
g74
I4
ssg75
g1597
sg68
(lp1604
g61
(g70
g63
NtRp1605
(dp1606
g66
(dp1607
g74
I3
ssg75
Nsg68
(lp1608
g61
(g77
g63
NtRp1609
(dp1610
g66
(dp1611
sg75
g1605
sg68
(lp1612
g61
(g82
g63
NtRp1613
(dp1614
g66
(dp1615
sg75
g1609
sg68
(lp1616
g61
(g62
g63
NtRp1617
(dp1618
g66
(dp1619
g74
I3
ssg75
g1613
sg68
(lp1620
S'1'
asbasbasbag61
(g77
g63
NtRp1621
(dp1622
g66
(dp1623
sg75
g1605
sg68
(lp1624
g61
(g82
g63
NtRp1625
(dp1626
g66
(dp1627
sg75
g1621
sg68
(lp1628
g61
(g62
g63
NtRp1629
(dp1630
g66
(dp1631
g74
I3
ssg75
g1625
sg68
(lp1632
S'0'
asbasbasbasbasbasbasbasbasbasbasbag61
(g77
g63
NtRp1633
(dp1634
g66
(dp1635
sg75
g71
sg68
(lp1636
g61
(g82
g63
NtRp1637
(dp1638
g66
(dp1639
g86
g87
ssg75
g1633
sg68
(lp1640
S'extension'
p1641
asbag61
(g82
g63
NtRp1642
(dp1643
g66
(dp1644
g93
g94
ssg75
g1633
sg68
(lp1645
S':'
asbag61
(g82
g63
NtRp1646
(dp1647
g66
(dp1648
sg75
g1633
sg68
(lp1649
g61
(g62
g63
NtRp1650
(dp1651
g66
(dp1652
g74
I5
ssg75
g1646
sg68
(lp1653
S'html'
p1654
asbasbasbag61
(g77
g63
NtRp1655
(dp1656
g66
(dp1657
sg75
g71
sg68
(lp1658
g61
(g82
g63
NtRp1659
(dp1660
g66
(dp1661
g86
g87
ssg75
g1655
sg68
(lp1662
S'folder'
p1663
asbag61
(g82
g63
NtRp1664
(dp1665
g66
(dp1666
g93
g94
ssg75
g1655
sg68
(lp1667
S':'
asbag61
(g82
g63
NtRp1668
(dp1669
g66
(dp1670
sg75
g1655
sg68
(lp1671
g61
(g62
g63
NtRp1672
(dp1673
g66
(dp1674
g74
I5
ssg75
g1668
sg68
(lp1675
S'/var/www/conferencia/applications/projeto/'
p1676
asbasbasbag61
(g77
g63
NtRp1677
(dp1678
g66
(dp1679
sg75
g71
sg68
(lp1680
g61
(g82
g63
NtRp1681
(dp1682
g66
(dp1683
g86
g87
ssg75
g1677
sg68
(lp1684
S'function'
p1685
asbag61
(g82
g63
NtRp1686
(dp1687
g66
(dp1688
g93
g94
ssg75
g1677
sg68
(lp1689
S':'
asbag61
(g82
g63
NtRp1690
(dp1691
g66
(dp1692
sg75
g1677
sg68
(lp1693
g61
(g62
g63
NtRp1694
(dp1695
g66
(dp1696
g74
I5
ssg75
g1690
sg68
(lp1697
S'principal'
p1698
asbasbasbag61
(g77
g63
NtRp1699
(dp1700
g66
(dp1701
sg75
g71
sg68
(lp1702
g61
(g82
g63
NtRp1703
(dp1704
g66
(dp1705
g86
g87
ssg75
g1699
sg68
(lp1706
S'get_vars'
p1707
asbag61
(g82
g63
NtRp1708
(dp1709
g66
(dp1710
g93
g94
ssg75
g1699
sg68
(lp1711
S':'
asbag61
(g82
g63
NtRp1712
(dp1713
g66
(dp1714
sg75
g1699
sg68
(lp1715
g61
(g62
g63
NtRp1716
(dp1717
g66
(dp1718
g74
I5
ssg75
g1712
sg68
(lp1719
g61
(g70
g63
NtRp1720
(dp1721
g66
(dp1722
g74
I4
ssg75
Nsg68
(lp1723
sbasbasbasbag61
(g77
g63
NtRp1724
(dp1725
g66
(dp1726
sg75
g71
sg68
(lp1727
g61
(g82
g63
NtRp1728
(dp1729
g66
(dp1730
g86
g87
ssg75
g1724
sg68
(lp1731
S'global_settings'
p1732
asbag61
(g82
g63
NtRp1733
(dp1734
g66
(dp1735
g93
g94
ssg75
g1724
sg68
(lp1736
S':'
asbag61
(g82
g63
NtRp1737
(dp1738
g66
(dp1739
sg75
g1724
sg68
(lp1740
g61
(g62
g63
NtRp1741
(dp1742
g66
(dp1743
g74
I5
ssg75
g1737
sg68
(lp1744
g61
(g70
g63
NtRp1745
(dp1746
g66
(dp1747
g74
I4
ssg75
Nsg68
(lp1748
g61
(g77
g63
NtRp1749
(dp1750
g66
(dp1751
sg75
g1745
sg68
(lp1752
g61
(g82
g63
NtRp1753
(dp1754
g66
(dp1755
g86
g87
ssg75
g1749
sg68
(lp1756
g677
asbag61
(g82
g63
NtRp1757
(dp1758
g66
(dp1759
g93
g94
ssg75
g1749
sg68
(lp1760
S':'
asbag61
(g82
g63
NtRp1761
(dp1762
g66
(dp1763
sg75
g1749
sg68
(lp1764
g61
(g62
g63
NtRp1765
(dp1766
g66
(dp1767
g74
I4
ssg75
g1761
sg68
(lp1768
S"set(['/var/www/conferencia/applications/projeto/'])"
p1769
asbasbasbag61
(g77
g63
NtRp1770
(dp1771
g66
(dp1772
sg75
g1745
sg68
(lp1773
g61
(g82
g63
NtRp1774
(dp1775
g66
(dp1776
g86
g87
ssg75
g1770
sg68
(lp1777
g699
asbag61
(g82
g63
NtRp1778
(dp1779
g66
(dp1780
g93
g94
ssg75
g1770
sg68
(lp1781
S':'
asbag61
(g82
g63
NtRp1782
(dp1783
g66
(dp1784
sg75
g1770
sg68
(lp1785
g61
(g62
g63
NtRp1786
(dp1787
g66
(dp1788
g74
I4
ssg75
g1782
sg68
(lp1789
g712
asbasbasbag61
(g77
g63
NtRp1790
(dp1791
g66
(dp1792
sg75
g1745
sg68
(lp1793
g61
(g82
g63
NtRp1794
(dp1795
g66
(dp1796
g86
g87
ssg75
g1790
sg68
(lp1797
g721
asbag61
(g82
g63
NtRp1798
(dp1799
g66
(dp1800
g93
g94
ssg75
g1790
sg68
(lp1801
S':'
asbag61
(g82
g63
NtRp1802
(dp1803
g66
(dp1804
sg75
g1790
sg68
(lp1805
g61
(g62
g63
NtRp1806
(dp1807
g66
(dp1808
g74
I4
ssg75
g1802
sg68
(lp1809
g61
(g70
g63
NtRp1810
(dp1811
g66
(dp1812
g74
I3
ssg75
Nsg68
(lp1813
sbasbasbasbag61
(g77
g63
NtRp1814
(dp1815
g66
(dp1816
sg75
g1745
sg68
(lp1817
g61
(g82
g63
NtRp1818
(dp1819
g66
(dp1820
g86
g87
ssg75
g1814
sg68
(lp1821
g746
asbag61
(g82
g63
NtRp1822
(dp1823
g66
(dp1824
g93
g94
ssg75
g1814
sg68
(lp1825
S':'
asbag61
(g82
g63
NtRp1826
(dp1827
g66
(dp1828
sg75
g1814
sg68
(lp1829
g61
(g62
g63
NtRp1830
(dp1831
g66
(dp1832
g74
I4
ssg75
g1826
sg68
(lp1833
S"<Values at 0x2d85248: {'verbose': False, 'ip': '127.0.0.1', 'with_scheduler': False, 'ips': [], 'shutdown_timeout': 5, 'taskbar': False, 'port': 8000, 'maxthreads': None, 'softcron': False, 'server_name': 'fernando-workstation', 'bpython': False, 'nogui': False, 'pid_filename': 'httpserver.pid', 'extcron': False, 'runcron': False, 'run_system_tests': False, 'test': None, 'folder': '/var/www/conferencia', 'config': '', 'minthreads': None, 'winservice': '', 'shell': None, 'run': '', 'log_filename': 'httpserver.log', 'debuglevel': 30, 'args': [''], 'socket_timeout': 5, 'ssl_ca_certificate': None, 'scheduler': None, 'profiler_filename': None, 'ssl_private_key': '', 'scheduler_groups': None, 'password': '123456', 'request_queue_size': 5, 'ssl_certificate': '', 'cronjob': False, 'numthreads': None, 'quiet': False, 'interfaces': None, 'import_models': False, 'timeout': 10, 'plain': False, 'nobanner': False}>"
p1834
asbasbasbag61
(g77
g63
NtRp1835
(dp1836
g66
(dp1837
sg75
g1745
sg68
(lp1838
g61
(g82
g63
NtRp1839
(dp1840
g66
(dp1841
g86
g87
ssg75
g1835
sg68
(lp1842
g768
asbag61
(g82
g63
NtRp1843
(dp1844
g66
(dp1845
g93
g94
ssg75
g1835
sg68
(lp1846
S':'
asbag61
(g82
g63
NtRp1847
(dp1848
g66
(dp1849
sg75
g1835
sg68
(lp1850
g61
(g62
g63
NtRp1851
(dp1852
g66
(dp1853
g74
I4
ssg75
g1847
sg68
(lp1854
S'set([])'
p1855
asbasbasbag61
(g77
g63
NtRp1856
(dp1857
g66
(dp1858
sg75
g1745
sg68
(lp1859
g61
(g82
g63
NtRp1860
(dp1861
g66
(dp1862
g86
g87
ssg75
g1856
sg68
(lp1863
g790
asbag61
(g82
g63
NtRp1864
(dp1865
g66
(dp1866
g93
g94
ssg75
g1856
sg68
(lp1867
S':'
asbag61
(g82
g63
NtRp1868
(dp1869
g66
(dp1870
sg75
g1856
sg68
(lp1871
g61
(g62
g63
NtRp1872
(dp1873
g66
(dp1874
g74
I4
ssg75
g1868
sg68
(lp1875
g104
asbasbasbag61
(g77
g63
NtRp1876
(dp1877
g66
(dp1878
sg75
g1745
sg68
(lp1879
g61
(g82
g63
NtRp1880
(dp1881
g66
(dp1882
g86
g87
ssg75
g1876
sg68
(lp1883
g811
asbag61
(g82
g63
NtRp1884
(dp1885
g66
(dp1886
g93
g94
ssg75
g1876
sg68
(lp1887
S':'
asbag61
(g82
g63
NtRp1888
(dp1889
g66
(dp1890
sg75
g1876
sg68
(lp1891
g61
(g62
g63
NtRp1892
(dp1893
g66
(dp1894
g74
I4
ssg75
g1888
sg68
(lp1895
g824
asbasbasbag61
(g77
g63
NtRp1896
(dp1897
g66
(dp1898
sg75
g1745
sg68
(lp1899
g61
(g82
g63
NtRp1900
(dp1901
g66
(dp1902
g86
g87
ssg75
g1896
sg68
(lp1903
g1031
asbag61
(g82
g63
NtRp1904
(dp1905
g66
(dp1906
g93
g94
ssg75
g1896
sg68
(lp1907
S':'
asbag61
(g82
g63
NtRp1908
(dp1909
g66
(dp1910
sg75
g1896
sg68
(lp1911
g61
(g62
g63
NtRp1912
(dp1913
g66
(dp1914
g74
I4
ssg75
g1908
sg68
(lp1915
g104
asbasbasbag61
(g77
g63
NtRp1916
(dp1917
g66
(dp1918
sg75
g1745
sg68
(lp1919
g61
(g82
g63
NtRp1920
(dp1921
g66
(dp1922
g86
g87
ssg75
g1916
sg68
(lp1923
g1052
asbag61
(g82
g63
NtRp1924
(dp1925
g66
(dp1926
g93
g94
ssg75
g1916
sg68
(lp1927
S':'
asbag61
(g82
g63
NtRp1928
(dp1929
g66
(dp1930
sg75
g1916
sg68
(lp1931
g61
(g62
g63
NtRp1932
(dp1933
g66
(dp1934
g74
I4
ssg75
g1928
sg68
(lp1935
g104
asbasbasbag61
(g77
g63
NtRp1936
(dp1937
g66
(dp1938
sg75
g1745
sg68
(lp1939
g61
(g82
g63
NtRp1940
(dp1941
g66
(dp1942
g86
g87
ssg75
g1936
sg68
(lp1943
S'local_hosts'
p1944
asbag61
(g82
g63
NtRp1945
(dp1946
g66
(dp1947
g93
g94
ssg75
g1936
sg68
(lp1948
S':'
asbag61
(g82
g63
NtRp1949
(dp1950
g66
(dp1951
sg75
g1936
sg68
(lp1952
g61
(g62
g63
NtRp1953
(dp1954
g66
(dp1955
g74
I4
ssg75
g1949
sg68
(lp1956
g61
(g70
g63
NtRp1957
(dp1958
g66
(dp1959
g74
I3
ssg75
Nsg68
(lp1960
g61
(g77
g63
NtRp1961
(dp1962
g66
(dp1963
sg75
g1957
sg68
(lp1964
g61
(g82
g63
NtRp1965
(dp1966
g66
(dp1967
sg75
g1961
sg68
(lp1968
g61
(g62
g63
NtRp1969
(dp1970
g66
(dp1971
g74
I3
ssg75
g1965
sg68
(lp1972
S'::1'
p1973
asbasbasbag61
(g77
g63
NtRp1974
(dp1975
g66
(dp1976
sg75
g1957
sg68
(lp1977
g61
(g82
g63
NtRp1978
(dp1979
g66
(dp1980
sg75
g1974
sg68
(lp1981
g61
(g62
g63
NtRp1982
(dp1983
g66
(dp1984
g74
I3
ssg75
g1978
sg68
(lp1985
S'::ffff:127.0.0.1'
p1986
asbasbasbag61
(g77
g63
NtRp1987
(dp1988
g66
(dp1989
sg75
g1957
sg68
(lp1990
g61
(g82
g63
NtRp1991
(dp1992
g66
(dp1993
sg75
g1987
sg68
(lp1994
g61
(g62
g63
NtRp1995
(dp1996
g66
(dp1997
g74
I3
ssg75
g1991
sg68
(lp1998
S'127.0.0.1'
p1999
asbasbasbag61
(g77
g63
NtRp2000
(dp2001
g66
(dp2002
sg75
g1957
sg68
(lp2003
g61
(g82
g63
NtRp2004
(dp2005
g66
(dp2006
sg75
g2000
sg68
(lp2007
g61
(g62
g63
NtRp2008
(dp2009
g66
(dp2010
g74
I3
ssg75
g2004
sg68
(lp2011
S'fernando-workstation'
p2012
asbasbasbasbasbasbasbag61
(g77
g63
NtRp2013
(dp2014
g66
(dp2015
sg75
g1745
sg68
(lp2016
g61
(g82
g63
NtRp2017
(dp2018
g66
(dp2019
g86
g87
ssg75
g2013
sg68
(lp2020
g1353
asbag61
(g82
g63
NtRp2021
(dp2022
g66
(dp2023
g93
g94
ssg75
g2013
sg68
(lp2024
S':'
asbag61
(g82
g63
NtRp2025
(dp2026
g66
(dp2027
sg75
g2013
sg68
(lp2028
g61
(g62
g63
NtRp2029
(dp2030
g66
(dp2031
g74
I4
ssg75
g2025
sg68
(lp2032
g61
(g70
g63
NtRp2033
(dp2034
g66
(dp2035
g74
I3
ssg75
Nsg68
(lp2036
g61
(g77
g63
NtRp2037
(dp2038
g66
(dp2039
sg75
g2033
sg68
(lp2040
g61
(g82
g63
NtRp2041
(dp2042
g66
(dp2043
sg75
g2037
sg68
(lp2044
g61
(g62
g63
NtRp2045
(dp2046
g66
(dp2047
g74
I3
ssg75
g2041
sg68
(lp2048
S'2'
asbasbasbag61
(g77
g63
NtRp2049
(dp2050
g66
(dp2051
sg75
g2033
sg68
(lp2052
g61
(g82
g63
NtRp2053
(dp2054
g66
(dp2055
sg75
g2049
sg68
(lp2056
g61
(g62
g63
NtRp2057
(dp2058
g66
(dp2059
g74
I3
ssg75
g2053
sg68
(lp2060
S'3'
asbasbasbag61
(g77
g63
NtRp2061
(dp2062
g66
(dp2063
sg75
g2033
sg68
(lp2064
g61
(g82
g63
NtRp2065
(dp2066
g66
(dp2067
sg75
g2061
sg68
(lp2068
g61
(g62
g63
NtRp2069
(dp2070
g66
(dp2071
g74
I3
ssg75
g2065
sg68
(lp2072
S'2'
asbasbasbag61
(g77
g63
NtRp2073
(dp2074
g66
(dp2075
sg75
g2033
sg68
(lp2076
g61
(g82
g63
NtRp2077
(dp2078
g66
(dp2079
sg75
g2073
sg68
(lp2080
g61
(g62
g63
NtRp2081
(dp2082
g66
(dp2083
g74
I3
ssg75
g2077
sg68
(lp2084
S'datetime.datetime(2012, 12, 17, 15, 3, 30)'
p2085
asbasbasbag61
(g77
g63
NtRp2086
(dp2087
g66
(dp2088
sg75
g2033
sg68
(lp2089
g61
(g82
g63
NtRp2090
(dp2091
g66
(dp2092
sg75
g2086
sg68
(lp2093
g61
(g62
g63
NtRp2094
(dp2095
g66
(dp2096
g74
I3
ssg75
g2090
sg68
(lp2097
g1431
asbasbasbasbasbasbasbasbasbasbasbag61
(g77
g63
NtRp2098
(dp2099
g66
(dp2100
sg75
g71
sg68
(lp2101
g61
(g82
g63
NtRp2102
(dp2103
g66
(dp2104
g86
g87
ssg75
g2098
sg68
(lp2105
S'is_https'
p2106
asbag61
(g82
g63
NtRp2107
(dp2108
g66
(dp2109
g93
g94
ssg75
g2098
sg68
(lp2110
S':'
asbag61
(g82
g63
NtRp2111
(dp2112
g66
(dp2113
sg75
g2098
sg68
(lp2114
g61
(g62
g63
NtRp2115
(dp2116
g66
(dp2117
g74
I5
ssg75
g2111
sg68
(lp2118
g104
asbasbasbag61
(g77
g63
NtRp2119
(dp2120
g66
(dp2121
sg75
g71
sg68
(lp2122
g61
(g82
g63
NtRp2123
(dp2124
g66
(dp2125
g86
g87
ssg75
g2119
sg68
(lp2126
S'is_local'
p2127
asbag61
(g82
g63
NtRp2128
(dp2129
g66
(dp2130
g93
g94
ssg75
g2119
sg68
(lp2131
S':'
asbag61
(g82
g63
NtRp2132
(dp2133
g66
(dp2134
sg75
g2119
sg68
(lp2135
g61
(g62
g63
NtRp2136
(dp2137
g66
(dp2138
g74
I5
ssg75
g2132
sg68
(lp2139
g1540
asbasbasbag61
(g77
g63
NtRp2140
(dp2141
g66
(dp2142
sg75
g71
sg68
(lp2143
g61
(g82
g63
NtRp2144
(dp2145
g66
(dp2146
g86
g87
ssg75
g2140
sg68
(lp2147
S'is_restful'
p2148
asbag61
(g82
g63
NtRp2149
(dp2150
g66
(dp2151
g93
g94
ssg75
g2140
sg68
(lp2152
S':'
asbag61
(g82
g63
NtRp2153
(dp2154
g66
(dp2155
sg75
g2140
sg68
(lp2156
g61
(g62
g63
NtRp2157
(dp2158
g66
(dp2159
g74
I5
ssg75
g2153
sg68
(lp2160
g104
asbasbasbag61
(g77
g63
NtRp2161
(dp2162
g66
(dp2163
sg75
g71
sg68
(lp2164
g61
(g82
g63
NtRp2165
(dp2166
g66
(dp2167
g86
g87
ssg75
g2161
sg68
(lp2168
S'now'
p2169
asbag61
(g82
g63
NtRp2170
(dp2171
g66
(dp2172
g93
g94
ssg75
g2161
sg68
(lp2173
S':'
asbag61
(g82
g63
NtRp2174
(dp2175
g66
(dp2176
sg75
g2161
sg68
(lp2177
g61
(g62
g63
NtRp2178
(dp2179
g66
(dp2180
g74
I5
ssg75
g2174
sg68
(lp2181
S'datetime.datetime(2013, 4, 2, 18, 51, 53, 876519)'
p2182
asbasbasbag61
(g77
g63
NtRp2183
(dp2184
g66
(dp2185
sg75
g71
sg68
(lp2186
g61
(g82
g63
NtRp2187
(dp2188
g66
(dp2189
g86
g87
ssg75
g2183
sg68
(lp2190
S'post_vars'
p2191
asbag61
(g82
g63
NtRp2192
(dp2193
g66
(dp2194
g93
g94
ssg75
g2183
sg68
(lp2195
S':'
asbag61
(g82
g63
NtRp2196
(dp2197
g66
(dp2198
sg75
g2183
sg68
(lp2199
g61
(g62
g63
NtRp2200
(dp2201
g66
(dp2202
g74
I5
ssg75
g2196
sg68
(lp2203
g61
(g70
g63
NtRp2204
(dp2205
g66
(dp2206
g74
I4
ssg75
Nsg68
(lp2207
sbasbasbasbag61
(g77
g63
NtRp2208
(dp2209
g66
(dp2210
sg75
g71
sg68
(lp2211
g61
(g82
g63
NtRp2212
(dp2213
g66
(dp2214
g86
g87
ssg75
g2208
sg68
(lp2215
S'url'
p2216
asbag61
(g82
g63
NtRp2217
(dp2218
g66
(dp2219
g93
g94
ssg75
g2208
sg68
(lp2220
S':'
asbag61
(g82
g63
NtRp2221
(dp2222
g66
(dp2223
sg75
g2208
sg68
(lp2224
g61
(g62
g63
NtRp2225
(dp2226
g66
(dp2227
g74
I5
ssg75
g2221
sg68
(lp2228
S'/'
asbasbasbag61
(g77
g63
NtRp2229
(dp2230
g66
(dp2231
sg75
g71
sg68
(lp2232
g61
(g82
g63
NtRp2233
(dp2234
g66
(dp2235
g86
g87
ssg75
g2229
sg68
(lp2236
S'utcnow'
p2237
asbag61
(g82
g63
NtRp2238
(dp2239
g66
(dp2240
g93
g94
ssg75
g2229
sg68
(lp2241
S':'
asbag61
(g82
g63
NtRp2242
(dp2243
g66
(dp2244
sg75
g2229
sg68
(lp2245
g61
(g62
g63
NtRp2246
(dp2247
g66
(dp2248
g74
I5
ssg75
g2242
sg68
(lp2249
S'datetime.datetime(2013, 4, 2, 21, 51, 53, 876563)'
p2250
asbasbasbag61
(g77
g63
NtRp2251
(dp2252
g66
(dp2253
sg75
g71
sg68
(lp2254
g61
(g82
g63
NtRp2255
(dp2256
g66
(dp2257
g86
g87
ssg75
g2251
sg68
(lp2258
S'uuid'
p2259
asbag61
(g82
g63
NtRp2260
(dp2261
g66
(dp2262
g93
g94
ssg75
g2251
sg68
(lp2263
S':'
asbag61
(g82
g63
NtRp2264
(dp2265
g66
(dp2266
sg75
g2251
sg68
(lp2267
g61
(g62
g63
NtRp2268
(dp2269
g66
(dp2270
g74
I5
ssg75
g2264
sg68
(lp2271
S'projeto/127.0.0.1.2013-04-02.18-51-53.180de9e3-c9fe-42b0-8cb5-23018dec5d1d'
p2272
asbasbasbag61
(g77
g63
NtRp2273
(dp2274
g66
(dp2275
sg75
g71
sg68
(lp2276
g61
(g82
g63
NtRp2277
(dp2278
g66
(dp2279
g86
g87
ssg75
g2273
sg68
(lp2280
S'vars'
p2281
asbag61
(g82
g63
NtRp2282
(dp2283
g66
(dp2284
g93
g94
ssg75
g2273
sg68
(lp2285
S':'
asbag61
(g82
g63
NtRp2286
(dp2287
g66
(dp2288
sg75
g2273
sg68
(lp2289
g61
(g62
g63
NtRp2290
(dp2291
g66
(dp2292
g74
I5
ssg75
g2286
sg68
(lp2293
g61
(g70
g63
NtRp2294
(dp2295
g66
(dp2296
g74
I4
ssg75
Nsg68
(lp2297
sbasbasbasbag61
(g77
g63
NtRp2298
(dp2299
g66
(dp2300
sg75
g71
sg68
(lp2301
g61
(g82
g63
NtRp2302
(dp2303
g66
(dp2304
g86
g87
ssg75
g2298
sg68
(lp2305
S'wsgi'
p2306
asbag61
(g82
g63
NtRp2307
(dp2308
g66
(dp2309
g93
g94
ssg75
g2298
sg68
(lp2310
S':'
asbag61
(g82
g63
NtRp2311
(dp2312
g66
(dp2313
sg75
g2298
sg68
(lp2314
g61
(g62
g63
NtRp2315
(dp2316
g66
(dp2317
g74
I5
ssg75
g2311
sg68
(lp2318
g61
(g70
g63
NtRp2319
(dp2320
g66
(dp2321
g74
I4
ssg75
Nsg68
(lp2322
g61
(g77
g63
NtRp2323
(dp2324
g66
(dp2325
sg75
g2319
sg68
(lp2326
g61
(g82
g63
NtRp2327
(dp2328
g66
(dp2329
g86
g87
ssg75
g2323
sg68
(lp2330
S'environ'
p2331
asbag61
(g82
g63
NtRp2332
(dp2333
g66
(dp2334
g93
g94
ssg75
g2323
sg68
(lp2335
S':'
asbag61
(g82
g63
NtRp2336
(dp2337
g66
(dp2338
sg75
g2323
sg68
(lp2339
g61
(g62
g63
NtRp2340
(dp2341
g66
(dp2342
g74
I4
ssg75
g2336
sg68
(lp2343
g61
(g70
g63
NtRp2344
(dp2345
g66
(dp2346
g74
I3
ssg75
Nsg68
(lp2347
g61
(g77
g63
NtRp2348
(dp2349
g66
(dp2350
sg75
g2344
sg68
(lp2351
g61
(g82
g63
NtRp2352
(dp2353
g66
(dp2354
g86
g87
ssg75
g2348
sg68
(lp2355
S'HTTP_ACCEPT'
p2356
asbag61
(g82
g63
NtRp2357
(dp2358
g66
(dp2359
g93
g94
ssg75
g2348
sg68
(lp2360
S':'
asbag61
(g82
g63
NtRp2361
(dp2362
g66
(dp2363
sg75
g2348
sg68
(lp2364
g61
(g62
g63
NtRp2365
(dp2366
g66
(dp2367
g74
I3
ssg75
g2361
sg68
(lp2368
g846
asbasbasbag61
(g77
g63
NtRp2369
(dp2370
g66
(dp2371
sg75
g2344
sg68
(lp2372
g61
(g82
g63
NtRp2373
(dp2374
g66
(dp2375
g86
g87
ssg75
g2369
sg68
(lp2376
S'HTTP_ACCEPT_CHARSET'
p2377
asbag61
(g82
g63
NtRp2378
(dp2379
g66
(dp2380
g93
g94
ssg75
g2369
sg68
(lp2381
S':'
asbag61
(g82
g63
NtRp2382
(dp2383
g66
(dp2384
sg75
g2369
sg68
(lp2385
g61
(g62
g63
NtRp2386
(dp2387
g66
(dp2388
g74
I3
ssg75
g2382
sg68
(lp2389
g868
asbasbasbag61
(g77
g63
NtRp2390
(dp2391
g66
(dp2392
sg75
g2344
sg68
(lp2393
g61
(g82
g63
NtRp2394
(dp2395
g66
(dp2396
g86
g87
ssg75
g2390
sg68
(lp2397
S'HTTP_ACCEPT_ENCODING'
p2398
asbag61
(g82
g63
NtRp2399
(dp2400
g66
(dp2401
g93
g94
ssg75
g2390
sg68
(lp2402
S':'
asbag61
(g82
g63
NtRp2403
(dp2404
g66
(dp2405
sg75
g2390
sg68
(lp2406
g61
(g62
g63
NtRp2407
(dp2408
g66
(dp2409
g74
I3
ssg75
g2403
sg68
(lp2410
g890
asbasbasbag61
(g77
g63
NtRp2411
(dp2412
g66
(dp2413
sg75
g2344
sg68
(lp2414
g61
(g82
g63
NtRp2415
(dp2416
g66
(dp2417
g86
g87
ssg75
g2411
sg68
(lp2418
S'HTTP_ACCEPT_LANGUAGE'
p2419
asbag61
(g82
g63
NtRp2420
(dp2421
g66
(dp2422
g93
g94
ssg75
g2411
sg68
(lp2423
S':'
asbag61
(g82
g63
NtRp2424
(dp2425
g66
(dp2426
sg75
g2411
sg68
(lp2427
g61
(g62
g63
NtRp2428
(dp2429
g66
(dp2430
g74
I3
ssg75
g2424
sg68
(lp2431
g912
asbasbasbag61
(g77
g63
NtRp2432
(dp2433
g66
(dp2434
sg75
g2344
sg68
(lp2435
g61
(g82
g63
NtRp2436
(dp2437
g66
(dp2438
g86
g87
ssg75
g2432
sg68
(lp2439
S'HTTP_CACHE_CONTROL'
p2440
asbag61
(g82
g63
NtRp2441
(dp2442
g66
(dp2443
g93
g94
ssg75
g2432
sg68
(lp2444
S':'
asbag61
(g82
g63
NtRp2445
(dp2446
g66
(dp2447
sg75
g2432
sg68
(lp2448
g61
(g62
g63
NtRp2449
(dp2450
g66
(dp2451
g74
I3
ssg75
g2445
sg68
(lp2452
g934
asbasbasbag61
(g77
g63
NtRp2453
(dp2454
g66
(dp2455
sg75
g2344
sg68
(lp2456
g61
(g82
g63
NtRp2457
(dp2458
g66
(dp2459
g86
g87
ssg75
g2453
sg68
(lp2460
S'HTTP_CONNECTION'
p2461
asbag61
(g82
g63
NtRp2462
(dp2463
g66
(dp2464
g93
g94
ssg75
g2453
sg68
(lp2465
S':'
asbag61
(g82
g63
NtRp2466
(dp2467
g66
(dp2468
sg75
g2453
sg68
(lp2469
g61
(g62
g63
NtRp2470
(dp2471
g66
(dp2472
g74
I3
ssg75
g2466
sg68
(lp2473
g956
asbasbasbag61
(g77
g63
NtRp2474
(dp2475
g66
(dp2476
sg75
g2344
sg68
(lp2477
g61
(g82
g63
NtRp2478
(dp2479
g66
(dp2480
g86
g87
ssg75
g2474
sg68
(lp2481
S'HTTP_COOKIE'
p2482
asbag61
(g82
g63
NtRp2483
(dp2484
g66
(dp2485
g93
g94
ssg75
g2474
sg68
(lp2486
S':'
asbag61
(g82
g63
NtRp2487
(dp2488
g66
(dp2489
sg75
g2474
sg68
(lp2490
g61
(g62
g63
NtRp2491
(dp2492
g66
(dp2493
g74
I3
ssg75
g2487
sg68
(lp2494
g978
asbasbasbag61
(g77
g63
NtRp2495
(dp2496
g66
(dp2497
sg75
g2344
sg68
(lp2498
g61
(g82
g63
NtRp2499
(dp2500
g66
(dp2501
g86
g87
ssg75
g2495
sg68
(lp2502
S'HTTP_HOST'
p2503
asbag61
(g82
g63
NtRp2504
(dp2505
g66
(dp2506
g93
g94
ssg75
g2495
sg68
(lp2507
S':'
asbag61
(g82
g63
NtRp2508
(dp2509
g66
(dp2510
sg75
g2495
sg68
(lp2511
g61
(g62
g63
NtRp2512
(dp2513
g66
(dp2514
g74
I3
ssg75
g2508
sg68
(lp2515
g1000
asbasbasbag61
(g77
g63
NtRp2516
(dp2517
g66
(dp2518
sg75
g2344
sg68
(lp2519
g61
(g82
g63
NtRp2520
(dp2521
g66
(dp2522
g86
g87
ssg75
g2516
sg68
(lp2523
S'HTTP_USER_AGENT'
p2524
asbag61
(g82
g63
NtRp2525
(dp2526
g66
(dp2527
g93
g94
ssg75
g2516
sg68
(lp2528
S':'
asbag61
(g82
g63
NtRp2529
(dp2530
g66
(dp2531
sg75
g2516
sg68
(lp2532
g61
(g62
g63
NtRp2533
(dp2534
g66
(dp2535
g74
I3
ssg75
g2529
sg68
(lp2536
g1022
asbasbasbag61
(g77
g63
NtRp2537
(dp2538
g66
(dp2539
sg75
g2344
sg68
(lp2540
g61
(g82
g63
NtRp2541
(dp2542
g66
(dp2543
g86
g87
ssg75
g2537
sg68
(lp2544
S'PATH_INFO'
p2545
asbag61
(g82
g63
NtRp2546
(dp2547
g66
(dp2548
g93
g94
ssg75
g2537
sg68
(lp2549
S':'
asbag61
(g82
g63
NtRp2550
(dp2551
g66
(dp2552
sg75
g2537
sg68
(lp2553
g61
(g62
g63
NtRp2554
(dp2555
g66
(dp2556
g74
I3
ssg75
g2550
sg68
(lp2557
S'/'
asbasbasbag61
(g77
g63
NtRp2558
(dp2559
g66
(dp2560
sg75
g2344
sg68
(lp2561
g61
(g82
g63
NtRp2562
(dp2563
g66
(dp2564
g86
g87
ssg75
g2558
sg68
(lp2565
S'QUERY_STRING'
p2566
asbag61
(g82
g63
NtRp2567
(dp2568
g66
(dp2569
g93
g94
ssg75
g2558
sg68
(lp2570
S':'
asbag61
(g82
g63
NtRp2571
(dp2572
g66
(dp2573
sg75
g2558
sg68
(lp2574
g61
(g62
g63
NtRp2575
(dp2576
g66
(dp2577
g74
I3
ssg75
g2571
sg68
(lp2578
S''
asbasbasbag61
(g77
g63
NtRp2579
(dp2580
g66
(dp2581
sg75
g2344
sg68
(lp2582
g61
(g82
g63
NtRp2583
(dp2584
g66
(dp2585
g86
g87
ssg75
g2579
sg68
(lp2586
S'REMOTE_ADDR'
p2587
asbag61
(g82
g63
NtRp2588
(dp2589
g66
(dp2590
g93
g94
ssg75
g2579
sg68
(lp2591
S':'
asbag61
(g82
g63
NtRp2592
(dp2593
g66
(dp2594
sg75
g2579
sg68
(lp2595
g61
(g62
g63
NtRp2596
(dp2597
g66
(dp2598
g74
I3
ssg75
g2592
sg68
(lp2599
g216
asbasbasbag61
(g77
g63
NtRp2600
(dp2601
g66
(dp2602
sg75
g2344
sg68
(lp2603
g61
(g82
g63
NtRp2604
(dp2605
g66
(dp2606
g86
g87
ssg75
g2600
sg68
(lp2607
S'REMOTE_PORT'
p2608
asbag61
(g82
g63
NtRp2609
(dp2610
g66
(dp2611
g93
g94
ssg75
g2600
sg68
(lp2612
S':'
asbag61
(g82
g63
NtRp2613
(dp2614
g66
(dp2615
sg75
g2600
sg68
(lp2616
g61
(g62
g63
NtRp2617
(dp2618
g66
(dp2619
g74
I3
ssg75
g2613
sg68
(lp2620
g1149
asbasbasbag61
(g77
g63
NtRp2621
(dp2622
g66
(dp2623
sg75
g2344
sg68
(lp2624
g61
(g82
g63
NtRp2625
(dp2626
g66
(dp2627
g86
g87
ssg75
g2621
sg68
(lp2628
S'REQUEST_METHOD'
p2629
asbag61
(g82
g63
NtRp2630
(dp2631
g66
(dp2632
g93
g94
ssg75
g2621
sg68
(lp2633
S':'
asbag61
(g82
g63
NtRp2634
(dp2635
g66
(dp2636
sg75
g2621
sg68
(lp2637
g61
(g62
g63
NtRp2638
(dp2639
g66
(dp2640
g74
I3
ssg75
g2634
sg68
(lp2641
g1171
asbasbasbag61
(g77
g63
NtRp2642
(dp2643
g66
(dp2644
sg75
g2344
sg68
(lp2645
g61
(g82
g63
NtRp2646
(dp2647
g66
(dp2648
g86
g87
ssg75
g2642
sg68
(lp2649
S'REQUEST_URI'
p2650
asbag61
(g82
g63
NtRp2651
(dp2652
g66
(dp2653
g93
g94
ssg75
g2642
sg68
(lp2654
S':'
asbag61
(g82
g63
NtRp2655
(dp2656
g66
(dp2657
sg75
g2642
sg68
(lp2658
g61
(g62
g63
NtRp2659
(dp2660
g66
(dp2661
g74
I3
ssg75
g2655
sg68
(lp2662
g1193
asbasbasbag61
(g77
g63
NtRp2663
(dp2664
g66
(dp2665
sg75
g2344
sg68
(lp2666
g61
(g82
g63
NtRp2667
(dp2668
g66
(dp2669
g86
g87
ssg75
g2663
sg68
(lp2670
S'SCRIPT_NAME'
p2671
asbag61
(g82
g63
NtRp2672
(dp2673
g66
(dp2674
g93
g94
ssg75
g2663
sg68
(lp2675
S':'
asbag61
(g82
g63
NtRp2676
(dp2677
g66
(dp2678
sg75
g2663
sg68
(lp2679
g61
(g62
g63
NtRp2680
(dp2681
g66
(dp2682
g74
I3
ssg75
g2676
sg68
(lp2683
S''
asbasbasbag61
(g77
g63
NtRp2684
(dp2685
g66
(dp2686
sg75
g2344
sg68
(lp2687
g61
(g82
g63
NtRp2688
(dp2689
g66
(dp2690
g86
g87
ssg75
g2684
sg68
(lp2691
S'SERVER_NAME'
p2692
asbag61
(g82
g63
NtRp2693
(dp2694
g66
(dp2695
g93
g94
ssg75
g2684
sg68
(lp2696
S':'
asbag61
(g82
g63
NtRp2697
(dp2698
g66
(dp2699
sg75
g2684
sg68
(lp2700
g61
(g62
g63
NtRp2701
(dp2702
g66
(dp2703
g74
I3
ssg75
g2697
sg68
(lp2704
g1236
asbasbasbag61
(g77
g63
NtRp2705
(dp2706
g66
(dp2707
sg75
g2344
sg68
(lp2708
g61
(g82
g63
NtRp2709
(dp2710
g66
(dp2711
g86
g87
ssg75
g2705
sg68
(lp2712
S'SERVER_PORT'
p2713
asbag61
(g82
g63
NtRp2714
(dp2715
g66
(dp2716
g93
g94
ssg75
g2705
sg68
(lp2717
S':'
asbag61
(g82
g63
NtRp2718
(dp2719
g66
(dp2720
sg75
g2705
sg68
(lp2721
g61
(g62
g63
NtRp2722
(dp2723
g66
(dp2724
g74
I3
ssg75
g2718
sg68
(lp2725
g1258
asbasbasbag61
(g77
g63
NtRp2726
(dp2727
g66
(dp2728
sg75
g2344
sg68
(lp2729
g61
(g82
g63
NtRp2730
(dp2731
g66
(dp2732
g86
g87
ssg75
g2726
sg68
(lp2733
S'SERVER_PROTOCOL'
p2734
asbag61
(g82
g63
NtRp2735
(dp2736
g66
(dp2737
g93
g94
ssg75
g2726
sg68
(lp2738
S':'
asbag61
(g82
g63
NtRp2739
(dp2740
g66
(dp2741
sg75
g2726
sg68
(lp2742
g61
(g62
g63
NtRp2743
(dp2744
g66
(dp2745
g74
I3
ssg75
g2739
sg68
(lp2746
g1280
asbasbasbag61
(g77
g63
NtRp2747
(dp2748
g66
(dp2749
sg75
g2344
sg68
(lp2750
g61
(g82
g63
NtRp2751
(dp2752
g66
(dp2753
g86
g87
ssg75
g2747
sg68
(lp2754
S'SERVER_SOFTWARE'
p2755
asbag61
(g82
g63
NtRp2756
(dp2757
g66
(dp2758
g93
g94
ssg75
g2747
sg68
(lp2759
S':'
asbag61
(g82
g63
NtRp2760
(dp2761
g66
(dp2762
sg75
g2747
sg68
(lp2763
g61
(g62
g63
NtRp2764
(dp2765
g66
(dp2766
g74
I3
ssg75
g2760
sg68
(lp2767
g1302
asbasbasbag61
(g77
g63
NtRp2768
(dp2769
g66
(dp2770
sg75
g2344
sg68
(lp2771
g61
(g82
g63
NtRp2772
(dp2773
g66
(dp2774
g86
g87
ssg75
g2768
sg68
(lp2775
S'WEB2PY_ORIGINAL_URI'
p2776
asbag61
(g82
g63
NtRp2777
(dp2778
g66
(dp2779
g93
g94
ssg75
g2768
sg68
(lp2780
S':'
asbag61
(g82
g63
NtRp2781
(dp2782
g66
(dp2783
sg75
g2768
sg68
(lp2784
g61
(g62
g63
NtRp2785
(dp2786
g66
(dp2787
g74
I3
ssg75
g2781
sg68
(lp2788
S'/'
asbasbasbag61
(g77
g63
NtRp2789
(dp2790
g66
(dp2791
sg75
g2344
sg68
(lp2792
g61
(g82
g63
NtRp2793
(dp2794
g66
(dp2795
g86
g87
ssg75
g2789
sg68
(lp2796
S'wsgi.errors'
p2797
asbag61
(g82
g63
NtRp2798
(dp2799
g66
(dp2800
g93
g94
ssg75
g2789
sg68
(lp2801
S':'
asbag61
(g82
g63
NtRp2802
(dp2803
g66
(dp2804
sg75
g2789
sg68
(lp2805
g61
(g62
g63
NtRp2806
(dp2807
g66
(dp2808
g74
I3
ssg75
g2802
sg68
(lp2809
S"<open file '<stderr>', mode 'w' at 0x7f0adf901270>"
p2810
asbasbasbag61
(g77
g63
NtRp2811
(dp2812
g66
(dp2813
sg75
g2344
sg68
(lp2814
g61
(g82
g63
NtRp2815
(dp2816
g66
(dp2817
g86
g87
ssg75
g2811
sg68
(lp2818
S'wsgi.file_wrapper'
p2819
asbag61
(g82
g63
NtRp2820
(dp2821
g66
(dp2822
g93
g94
ssg75
g2811
sg68
(lp2823
S':'
asbag61
(g82
g63
NtRp2824
(dp2825
g66
(dp2826
sg75
g2811
sg68
(lp2827
g61
(g62
g63
NtRp2828
(dp2829
g66
(dp2830
g74
I3
ssg75
g2824
sg68
(lp2831
S'<class wsgiref.util.FileWrapper at 0x2cfd598>'
p2832
asbasbasbag61
(g77
g63
NtRp2833
(dp2834
g66
(dp2835
sg75
g2344
sg68
(lp2836
g61
(g82
g63
NtRp2837
(dp2838
g66
(dp2839
g86
g87
ssg75
g2833
sg68
(lp2840
S'wsgi.input'
p2841
asbag61
(g82
g63
NtRp2842
(dp2843
g66
(dp2844
g93
g94
ssg75
g2833
sg68
(lp2845
S':'
asbag61
(g82
g63
NtRp2846
(dp2847
g66
(dp2848
sg75
g2833
sg68
(lp2849
g61
(g62
g63
NtRp2850
(dp2851
g66
(dp2852
g74
I3
ssg75
g2846
sg68
(lp2853
S'<cStringIO.StringO object at 0x2dc2298>'
p2854
asbasbasbag61
(g77
g63
NtRp2855
(dp2856
g66
(dp2857
sg75
g2344
sg68
(lp2858
g61
(g82
g63
NtRp2859
(dp2860
g66
(dp2861
g86
g87
ssg75
g2855
sg68
(lp2862
S'wsgi.multiprocess'
p2863
asbag61
(g82
g63
NtRp2864
(dp2865
g66
(dp2866
g93
g94
ssg75
g2855
sg68
(lp2867
S':'
asbag61
(g82
g63
NtRp2868
(dp2869
g66
(dp2870
sg75
g2855
sg68
(lp2871
g61
(g62
g63
NtRp2872
(dp2873
g66
(dp2874
g74
I3
ssg75
g2868
sg68
(lp2875
g104
asbasbasbag61
(g77
g63
NtRp2876
(dp2877
g66
(dp2878
sg75
g2344
sg68
(lp2879
g61
(g82
g63
NtRp2880
(dp2881
g66
(dp2882
g86
g87
ssg75
g2876
sg68
(lp2883
S'wsgi.multithread'
p2884
asbag61
(g82
g63
NtRp2885
(dp2886
g66
(dp2887
g93
g94
ssg75
g2876
sg68
(lp2888
S':'
asbag61
(g82
g63
NtRp2889
(dp2890
g66
(dp2891
sg75
g2876
sg68
(lp2892
g61
(g62
g63
NtRp2893
(dp2894
g66
(dp2895
g74
I3
ssg75
g2889
sg68
(lp2896
g1540
asbasbasbag61
(g77
g63
NtRp2897
(dp2898
g66
(dp2899
sg75
g2344
sg68
(lp2900
g61
(g82
g63
NtRp2901
(dp2902
g66
(dp2903
g86
g87
ssg75
g2897
sg68
(lp2904
S'wsgi.run_once'
p2905
asbag61
(g82
g63
NtRp2906
(dp2907
g66
(dp2908
g93
g94
ssg75
g2897
sg68
(lp2909
S':'
asbag61
(g82
g63
NtRp2910
(dp2911
g66
(dp2912
sg75
g2897
sg68
(lp2913
g61
(g62
g63
NtRp2914
(dp2915
g66
(dp2916
g74
I3
ssg75
g2910
sg68
(lp2917
g104
asbasbasbag61
(g77
g63
NtRp2918
(dp2919
g66
(dp2920
sg75
g2344
sg68
(lp2921
g61
(g82
g63
NtRp2922
(dp2923
g66
(dp2924
g86
g87
ssg75
g2918
sg68
(lp2925
S'wsgi.url_scheme'
p2926
asbag61
(g82
g63
NtRp2927
(dp2928
g66
(dp2929
g93
g94
ssg75
g2918
sg68
(lp2930
S':'
asbag61
(g82
g63
NtRp2931
(dp2932
g66
(dp2933
sg75
g2918
sg68
(lp2934
g61
(g62
g63
NtRp2935
(dp2936
g66
(dp2937
g74
I3
ssg75
g2931
sg68
(lp2938
g1583
asbasbasbag61
(g77
g63
NtRp2939
(dp2940
g66
(dp2941
sg75
g2344
sg68
(lp2942
g61
(g82
g63
NtRp2943
(dp2944
g66
(dp2945
g86
g87
ssg75
g2939
sg68
(lp2946
S'wsgi.version'
p2947
asbag61
(g82
g63
NtRp2948
(dp2949
g66
(dp2950
g93
g94
ssg75
g2939
sg68
(lp2951
S':'
asbag61
(g82
g63
NtRp2952
(dp2953
g66
(dp2954
sg75
g2939
sg68
(lp2955
g61
(g62
g63
NtRp2956
(dp2957
g66
(dp2958
g74
I3
ssg75
g2952
sg68
(lp2959
S'1'
asbasbasbasbasbasbasbasbasbasbasbasbasbsS'frames'
p2960
(lp2961
(dp2962
S'file'
p2963
S'/var/www/conferencia/gluon/restricted.py'
p2964
sS'dump'
p2965
(dp2966
S'environment'
p2967
S"{'A': <class 'gluon.html.A'>, 'Auth': <class 'gluon.tools.Auth'>, 'B': <class 'gluon.html.B'>, 'BEAUTIFY': <class 'gluon.html.BEAUTIFY'>, 'BODY': <class 'gluon.html.BODY'>, 'BR': <class 'gluon.html.BR'>, 'BUTTON': <class 'gluon.html.BUTTON'>, 'CAT': <class 'gluon.html.CAT'>, 'CENTER': <class 'gluon.html.CENTER'>, 'CLEANUP': <class 'gluon.validators.CLEANUP'>, ...}"
p2968
sS'ccode'
p2969
S'<code object <module> at 0x2afa030, file "/var/w...a/applications/projeto/models/models.py", line 1>'
p2970
ssS'lnum'
p2971
I212
sS'lines'
p2972
(dp2973
I207
S'    try:'
p2974
sI208
S'        if isinstance(code, types.CodeType):'
p2975
sI209
S'            ccode = code'
p2976
sI210
S'        else:'
p2977
sI211
S'            ccode = compile2(code, layer)'
p2978
sI212
S'        exec ccode in environment'
p2979
sI213
S'    except HTTP:'
p2980
sI214
S'        raise'
p2981
sI215
S'    except RestrictedError:'
p2982
sI216
S'        # do not encapsulate (obfuscate) the original RestrictedError'
p2983
ssS'call'
p2984
S'(code=\'usuario = db.define_table("usuario",\\n      Field...suario\\\'),\\n      primarykey=[\\\'confno\\\']\\n      )\\n\\n\\n\\n\', environment={\'A\': <class \'gluon.html.A\'>, \'Auth\': <class \'gluon.tools.Auth\'>, \'B\': <class \'gluon.html.B\'>, \'BEAUTIFY\': <class \'gluon.html.BEAUTIFY\'>, \'BODY\': <class \'gluon.html.BODY\'>, \'BR\': <class \'gluon.html.BR\'>, \'BUTTON\': <class \'gluon.html.BUTTON\'>, \'CAT\': <class \'gluon.html.CAT\'>, \'CENTER\': <class \'gluon.html.CENTER\'>, \'CLEANUP\': <class \'gluon.validators.CLEANUP\'>, ...}, layer=\'/var/www/conferencia/applications/projeto/models/models.py\')'
p2985
sS'func'
p2986
S'restricted'
p2987
sa(dp2988
g2963
S'/var/www/conferencia/applications/projeto/models/models.py'
p2989
sg2965
(dp2990
S'primarykey'
p2991
S'undefined'
p2992
ssg2971
I14
sg2972
(dp2993
I9
S'meetme = db.define_table("meetme",'
p2994
sI10
S'      Field("confno", type=\'id\'),'
p2995
sI11
S'      Field("starttime", "datetime"),'
p2996
sI12
S'      Field("endtime", "datetime"),'
p2997
sI13
S'      Field("membros_user", \'list:reference usuario\'),'
p2998
sI14
S"      primarykey=['confno']"
p2999
sI15
S'      )'
p3000
sI16
S''
sI17
S''
sI18
S''
ssg2984
S'()'
p3001
sg2986
S'<module>'
p3002
sa(dp3003
g2963
S'/var/www/conferencia/gluon/dal.py'
p3004
sg2965
(dp3005
S'fields'
p3006
S'(<gluon.dal.Field object>, <gluon.dal.Field object>, <gluon.dal.Field object>, <gluon.dal.Field object>)'
p3007
sS'self'
p3008
S'<DAL uri="postgres:pg8000://******:123456@127.0.0.1/conferencia">'
p3009
sS'args'
p3010
S"{'primarykey': ['confno']}"
p3011
sS'tablename'
p3012
S"'meetme'"
p3013
sS'table'
p3014
g2992
sS'self.lazy_define_table'
p3015
S'<bound method DAL.lazy_define_table of <DAL uri=...s:pg8000://******:123456@127.0.0.1/conferencia">>'
p3016
ssg2971
I7186
sg2972
(dp3017
I7181
S'                    % (tablename,invalid_args))'
p3018
sI7182
S'        if self._lazy_tables and not tablename in self._LAZY_TABLES:'
p3019
sI7183
S'            self._LAZY_TABLES[tablename] = (tablename,fields,args)'
p3020
sI7184
S'            table = None'
p3021
sI7185
S'        else:'
p3022
sI7186
S'            table = self.lazy_define_table(tablename,*fields,**args)'
p3023
sI7187
S'        if not tablename in self.tables:'
p3024
sI7188
S'            self.tables.append(tablename)'
p3025
sI7189
S'        return table'
p3026
sI7190
S''
ssg2984
S'(self=<DAL uri="postgres:pg8000://******:123456@127.0.0.1/conferencia">, tablename=\'meetme\', *fields=(<gluon.dal.Field object>, <gluon.dal.Field object>, <gluon.dal.Field object>, <gluon.dal.Field object>), **args={\'primarykey\': [\'confno\']})'
p3027
sg2986
S'define_table'
p3028
sa(dp3029
g2963
S'/var/www/conferencia/gluon/dal.py'
p3030
sg2965
(dp3031
S'polymodel'
p3032
S'None'
p3033
ssg2971
I7222
sg2972
(dp3034
I7217
S"            polymodel = args_get('polymodel',None)"
p3035
sI7218
S'            try:'
p3036
sI7219
S'                GLOBAL_LOCKER.acquire()'
p3037
sI7220
S'                self._adapter.create_table(table,migrate=migrate,'
p3038
sI7221
S'                                           fake_migrate=fake_migrate,'
p3039
sI7222
S'                                           polymodel=polymodel)'
p3040
sI7223
S'            finally:'
p3041
sI7224
S'                GLOBAL_LOCKER.release()'
p3042
sI7225
S'        else:'
p3043
sI7226
S'            table._dbt = None'
p3044
ssg2984
S'(self=<DAL uri="postgres:pg8000://******:123456@127.0.0.1/conferencia">, tablename=\'meetme\', *fields=(<gluon.dal.Field object>, <gluon.dal.Field object>, <gluon.dal.Field object>, <gluon.dal.Field object>), **args={\'primarykey\': [\'confno\']})'
p3045
sg2986
S'lazy_define_table'
p3046
sa(dp3047
g2963
S'/var/www/conferencia/gluon/dal.py'
p3048
sg2965
(dp3049
S'query'
p3050
S"'CREATE TABLE meetme(\\n    confno SERIAL PRIMARY K...    membros_user TEXT,\\n    PRIMARY KEY(confno)) ;'"
p3051
sS'self'
p3052
S'<gluon.dal.PostgreSQLAdapter object>'
p3053
sS'table'
p3054
S'<Table meetme (confno,starttime,endtime,membros_user)>'
p3055
sS'self.create_sequence_and_triggers'
p3056
S'<bound method PostgreSQLAdapter.create_sequence_...triggers of <gluon.dal.PostgreSQLAdapter object>>'
p3057
ssg2971
I935
sg2972
(dp3058
I930
S'            if table._dbt:'
p3059
sI931
S"                logfile.write('timestamp: %s\\n'"
p3060
sI932
S'                               % datetime.datetime.today().isoformat())'
p3061
sI933
S"                logfile.write(query + '\\n')"
p3062
sI934
S'            if not fake_migrate:'
p3063
sI935
S'                self.create_sequence_and_triggers(query,table)'
p3064
sI936
S'                table._db.commit()'
p3065
sI937
S'                # Postgres geom fields are added now,'
p3066
sI938
S'                # after the table has been created'
p3067
sI939
S'                for query in postcreation_fields:'
p3068
ssg2984
S'(self=<gluon.dal.PostgreSQLAdapter object>, table=<Table meetme (confno,starttime,endtime,membros_user)>, migrate=True, fake_migrate=False, polymodel=None)'
p3069
sg2986
S'create_table'
p3070
sa(dp3071
g2963
S'/var/www/conferencia/gluon/dal.py'
p3072
sg2965
(dp3073
S'query'
p3074
S"'CREATE TABLE meetme(\\n    confno SERIAL PRIMARY K...    membros_user TEXT,\\n    PRIMARY KEY(confno)) ;'"
p3075
sS'self'
p3076
S'<gluon.dal.PostgreSQLAdapter object>'
p3077
sS'self.execute'
p3078
S'<bound method PostgreSQLAdapter.execute of <gluon.dal.PostgreSQLAdapter object>>'
p3079
ssg2971
I2483
sg2972
(dp3080
I2478
S'    def create_sequence_and_triggers(self, query, table, **args):'
p3081
sI2479
S'        # following lines should only be executed if table._sequence_name does not exist'
p3082
sI2480
S"        # self.execute('CREATE SEQUENCE %s;' % table._sequence_name)"
p3083
sI2481
S'        # self.execute("ALTER TABLE %s ALTER COLUMN %s SET DEFAULT NEXTVAL(\'%s\');" \\'
p3084
sI2482
S'        #              % (table._tablename, table._fieldname, table._sequence_name))'
p3085
sI2483
S'        self.execute(query)'
p3086
sI2484
S''
sI2485
S"    REGEX_URI = re.compile('^(?P<user>[^:@]+)(\\:(?P<password>[^@]*))?@(?P<host>[^\\:@]+)(\\:(?P<port>[0-9]+))?/(?P<db>[^\\?]+)(\\?sslmode=(?P<sslmode>.+))?$')"
p3087
sI2486
S''
sI2487
S"    def __init__(self,db,uri,pool_size=0,folder=None,db_codec ='UTF-8',"
p3088
ssg2984
S"(self=<gluon.dal.PostgreSQLAdapter object>, query='CREATE TABLE meetme(\\n    confno SERIAL PRIMARY K...    membros_user TEXT,\\n    PRIMARY KEY(confno)) ;', table=<Table meetme (confno,starttime,endtime,membros_user)>, **args={})"
p3089
sg2986
S'create_sequence_and_triggers'
p3090
sa(dp3091
g2963
S'/var/www/conferencia/gluon/dal.py'
p3092
sg2965
(dp3093
S'a'
S"('CREATE TABLE meetme(\\n    confno SERIAL PRIMARY K...    membros_user TEXT,\\n    PRIMARY KEY(confno)) ;',)"
p3094
sS'self'
p3095
S'<gluon.dal.PostgreSQLAdapter object>'
p3096
sS'b'
g21
sS'self.log_execute'
p3097
S'<bound method PostgreSQLAdapter.log_execute of <gluon.dal.PostgreSQLAdapter object>>'
p3098
ssg2971
I1709
sg2972
(dp3099
I1704
S'        self.db._timings.append((command,time.time()-t0))'
p3100
sI1705
S'        del self.db._timings[:-TIMINGSSIZE]'
p3101
sI1706
S'        return ret'
p3102
sI1707
S''
sI1708
S'    def execute(self, *a, **b):'
p3103
sI1709
S'        return self.log_execute(*a, **b)'
p3104
sI1710
S''
sI1711
S'    def represent(self, obj, fieldtype):'
p3105
sI1712
S'        field_is_type = fieldtype.startswith'
p3106
sI1713
S'        if isinstance(obj, CALLABLETYPES):'
p3107
ssg2984
S"(self=<gluon.dal.PostgreSQLAdapter object>, *a=('CREATE TABLE meetme(\\n    confno SERIAL PRIMARY K...    membros_user TEXT,\\n    PRIMARY KEY(confno)) ;',), **b={})"
p3108
sg2986
S'execute'
p3109
sa(dp3110
g2963
S'/var/www/conferencia/gluon/dal.py'
p3111
sg2965
(dp3112
S'a'
S"('CREATE TABLE meetme(\\n    confno SERIAL PRIMARY K...    membros_user TEXT,\\n    PRIMARY KEY(confno)) ;',)"
p3113
sS'b'
g21
sS'self'
p3114
S'<gluon.dal.PostgreSQLAdapter object>'
p3115
sS'ret'
p3116
g2992
sS'self.cursor'
p3117
S'<gluon.contrib.pg8000.dbapi.CursorWrapper object>'
p3118
sS'self.cursor.execute'
p3119
S'<bound method CursorWrapper._fn of <gluon.contrib.pg8000.dbapi.CursorWrapper object>>'
p3120
ssg2971
I1703
sg2972
(dp3121
I1698
S'        command = a[0]'
p3122
sI1699
S'        if self.db._debug:'
p3123
sI1700
S"            LOGGER.debug('SQL: %s' % command)"
p3124
sI1701
S'        self.db._lastsql = command'
p3125
sI1702
S'        t0 = time.time()'
p3126
sI1703
S'        ret = self.cursor.execute(*a, **b)'
p3127
sI1704
S'        self.db._timings.append((command,time.time()-t0))'
p3128
sI1705
S'        del self.db._timings[:-TIMINGSSIZE]'
p3129
sI1706
S'        return ret'
p3130
sI1707
S''
ssg2984
S"(self=<gluon.dal.PostgreSQLAdapter object>, *a=('CREATE TABLE meetme(\\n    confno SERIAL PRIMARY K...    membros_user TEXT,\\n    PRIMARY KEY(confno)) ;',), **b={})"
p3131
sg2986
S'log_execute'
p3132
sa(dp3133
g2963
S'/var/www/conferencia/gluon/contrib/pg8000/dbapi.py'
p3134
sg2965
(dp3135
S'self'
p3136
S'<gluon.contrib.pg8000.dbapi.CursorWrapper object>'
p3137
sS'args'
p3138
S"('CREATE TABLE meetme(\\n    confno SERIAL PRIMARY K...    membros_user TEXT,\\n    PRIMARY KEY(confno)) ;',)"
p3139
sS'fn'
p3140
S'<function execute>'
p3141
sS'kwargs'
p3142
g21
ssg2971
I246
sg2972
(dp3143
I241
S''
sI242
S'def require_open_cursor(fn):'
p3144
sI243
S'    def _fn(self, *args, **kwargs):'
p3145
sI244
S'        if self.cursor == None:'
p3146
sI245
S'            raise CursorClosedError()'
p3147
sI246
S'        return fn(self, *args, **kwargs)'
p3148
sI247
S'    return _fn'
p3149
sI248
S''
sI249
S'##'
p3150
sI250
S'# The class of object returned by the {@link #ConnectionWrapper.cursor cursor method}.'
p3151
ssg2984
S"(self=<gluon.contrib.pg8000.dbapi.CursorWrapper object>, *args=('CREATE TABLE meetme(\\n    confno SERIAL PRIMARY K...    membros_user TEXT,\\n    PRIMARY KEY(confno)) ;',), **kwargs={})"
p3152
sg2986
S'_fn'
p3153
sa(dp3154
g2963
S'/var/www/conferencia/gluon/contrib/pg8000/dbapi.py'
p3155
sg2965
(dp3156
S'self._execute'
p3157
S'<bound method CursorWrapper._execute of <gluon.contrib.pg8000.dbapi.CursorWrapper object>>'
p3158
sS'self'
p3159
S'<gluon.contrib.pg8000.dbapi.CursorWrapper object>'
p3160
sS'args'
p3161
S'()'
p3162
sS'operation'
p3163
S"'CREATE TABLE meetme(\\n    confno SERIAL PRIMARY K...    membros_user TEXT,\\n    PRIMARY KEY(confno)) ;'"
p3164
ssg2971
I317
sg2972
(dp3165
I320
S'        new_query, new_args = convert_paramstyle(paramstyle, operation, args)'
p3166
sI321
S'        try:'
p3167
sI312
S'    @require_open_cursor'
p3168
sI313
S'    def execute(self, operation, args=()):'
p3169
sI314
S'        if not self._connection.in_transaction:'
p3170
sI315
S'            self._connection.begin()'
p3171
sI316
S'        self._override_rowcount = None'
p3172
sI317
S'        self._execute(operation, args)'
p3173
sI318
S''
sI319
S'    def _execute(self, operation, args=()):'
p3174
ssg2984
S"(self=<gluon.contrib.pg8000.dbapi.CursorWrapper object>, operation='CREATE TABLE meetme(\\n    confno SERIAL PRIMARY K...    membros_user TEXT,\\n    PRIMARY KEY(confno)) ;', args=())"
p3175
sg2986
g3109
sa(dp3176
g2963
S'/var/www/conferencia/gluon/contrib/pg8000/dbapi.py'
p3177
sg2965
(dp3178
S'new_args'
p3179
S'()'
p3180
sS'self.cursor'
p3181
S'<gluon.contrib.pg8000.interface.Cursor object>'
p3182
sS'self'
p3183
S'<gluon.contrib.pg8000.dbapi.CursorWrapper object>'
p3184
sS'new_query'
p3185
S"'CREATE TABLE meetme(\\n    confno SERIAL PRIMARY K...    membros_user TEXT,\\n    PRIMARY KEY(confno)) ;'"
p3186
sS'self.cursor.execute'
p3187
S'<bound method Cursor.execute of <gluon.contrib.pg8000.interface.Cursor object>>'
p3188
ssg2971
I322
sg2972
(dp3189
I320
S'        new_query, new_args = convert_paramstyle(paramstyle, operation, args)'
p3190
sI321
S'        try:'
p3191
sI322
S'            self.cursor.execute(new_query, *new_args)'
p3192
sI323
S'        except ConnectionClosedError:'
p3193
sI324
S"            # can't rollback in this case"
p3194
sI325
S'            raise'
p3195
sI326
S'        except:'
p3196
sI317
S'        self._execute(operation, args)'
p3197
sI318
S''
sI319
S'    def _execute(self, operation, args=()):'
p3198
ssg2984
S"(self=<gluon.contrib.pg8000.dbapi.CursorWrapper object>, operation='CREATE TABLE meetme(\\n    confno SERIAL PRIMARY K...    membros_user TEXT,\\n    PRIMARY KEY(confno)) ;', args=())"
p3199
sg2986
S'_execute'
p3200
sa(dp3201
g2963
S'/var/www/conferencia/gluon/contrib/pg8000/interface.py'
p3202
sg2965
(dp3203
S'self._stmt.execute'
p3204
S'<bound method PreparedStatement.execute of <gluo...ntrib.pg8000.interface.PreparedStatement object>>'
p3205
sS'kwargs'
p3206
g21
sS'self'
p3207
S'<gluon.contrib.pg8000.interface.Cursor object>'
p3208
sS'args'
p3209
S'()'
p3210
sS'self._stmt'
p3211
S'<gluon.contrib.pg8000.interface.PreparedStatement object>'
p3212
ssg2971
I399
sg2972
(dp3213
I394
S'                ## print "SimpleQuery:", query'
p3214
sI395
S'                self._stmt = SimpleStatement(self.connection, query)'
p3215
sI396
S'            else:'
p3216
sI397
S'                # use PostgreSQL Extended Query Protocol'
p3217
sI398
S'                self._stmt = PreparedStatement(self.connection, query, statement_name="", *[{"type": type(x), "value": x} for x in args])'
p3218
sI399
S'            self._stmt.execute(*args, **kwargs)'
p3219
sI400
S'        finally:'
p3220
sI401
S'            self.connection._unnamed_prepared_statement_lock.release()'
p3221
sI402
S''
sI403
S'    ##'
p3222
ssg2984
S"(self=<gluon.contrib.pg8000.interface.Cursor object>, query='CREATE TABLE meetme(\\n    confno SERIAL PRIMARY K...    membros_user TEXT,\\n    PRIMARY KEY(confno)) ;', *args=(), **kwargs={})"
p3223
sg2986
g3109
sa(dp3224
g2963
S'/var/www/conferencia/gluon/contrib/pg8000/interface.py'
p3225
sg2965
(dp3226
S'kwargs.get'
p3227
S'<built-in method get of dict object>'
p3228
sS'args'
p3229
S'()'
p3230
sS'self.c'
p3231
S'<gluon.contrib.pg8000.protocol.Connection object>'
p3232
sS'self'
p3233
S'<gluon.contrib.pg8000.interface.PreparedStatement object>'
p3234
sS'cmd'
p3235
g2992
sS'self._row_desc'
p3236
S'None'
p3237
sS'self.c.bind'
p3238
S'<bound method Connection._fn of <gluon.contrib.pg8000.protocol.Connection object>>'
p3239
sS'self._statement_name'
p3240
S"''"
p3241
sS'self._parse_row_desc'
p3242
S'(None, [])'
p3243
sS'kwargs'
p3244
g21
sS'self._portal_name'
p3245
S"'pg8000_portal_4'"
p3246
ssg2971
I169
sg2972
(dp3247
I164
S'                self._ongoing_row_count = 0'
p3248
sI165
S'            if self._portal_name != None:'
p3249
sI166
S'                self.c.close_portal(self._portal_name)'
p3250
sI167
S'            self._command_complete = False'
p3251
sI168
S'            self._portal_name = "pg8000_portal_%s" % self._statement_number'
p3252
sI169
S'            self._row_desc, cmd = self.c.bind(self._portal_name, self._statement_name, args, self._parse_row_desc, kwargs.get("stream"))'
p3253
sI170
S'            if self._row_desc:'
p3254
sI171
S'                # We execute our cursor right away to fill up our cache.  This'
p3255
sI172
S'                # prevents the cursor from being destroyed, apparently, by a rogue'
p3256
sI173
S'                # Sync between Bind and Execute.  Since it is quite likely that'
p3257
ssg2984
S'(self=<gluon.contrib.pg8000.interface.PreparedStatement object>, *args=(), **kwargs={})'
p3258
sg2986
g3109
sa(dp3259
g2963
S'/var/www/conferencia/gluon/contrib/pg8000/protocol.py'
p3260
sg2965
(dp3261
S'self'
p3262
S'<gluon.contrib.pg8000.protocol.Connection object>'
p3263
sS'args'
p3264
S"('pg8000_portal_4', '', (), (None, []), None)"
p3265
sS'fn'
p3266
S'<function bind>'
p3267
sS'kwargs'
p3268
g21
ssg2971
I943
sg2972
(dp3269
I938
S''
sI939
S'def sync_on_error(fn):'
p3270
sI940
S'    def _fn(self, *args, **kwargs):'
p3271
sI941
S'        try:'
p3272
sI942
S'            self._sock_lock.acquire()'
p3273
sI943
S'            return fn(self, *args, **kwargs)'
p3274
sI944
S'        except:'
p3275
sI945
S'            self._sync()'
p3276
sI946
S'            raise'
p3277
sI947
S'        finally:'
p3278
ssg2984
S"(self=<gluon.contrib.pg8000.protocol.Connection object>, *args=('pg8000_portal_4', '', (), (None, []), None), **kwargs={})"
p3279
sg2986
g3153
sa(dp3280
g2963
S'/var/www/conferencia/gluon/contrib/pg8000/protocol.py'
p3281
sg2965
(dp3282
S'reader.handle_messages'
p3283
S'<bound method MessageReader.handle_messages of <gluon.contrib.pg8000.protocol.MessageReader object>>'
p3284
sS'reader'
p3285
S'<gluon.contrib.pg8000.protocol.MessageReader object>'
p3286
ssg2971
I1142
sg2972
(dp3287
I1137
S''
sI1138
S'        # Return the new row desc, since it will have the format types we'
p3288
sI1139
S'        # asked the server for'
p3289
sI1140
S'        reader.add_message(RowDescription, lambda msg: (msg, None))'
p3290
sI1141
S''
sI1142
S'        return reader.handle_messages()'
p3291
sI1143
S''
sI1144
S'    def _copy_in_response(self, copyin, fileobj, old_reader):'
p3292
sI1145
S'        if fileobj == None:'
p3293
sI1146
S'            raise CopyQueryWithoutStreamError()'
p3294
ssg2984
S"(self=<gluon.contrib.pg8000.protocol.Connection object>, portal='pg8000_portal_4', statement='', params=(), parse_data=(None, []), copy_stream=None)"
p3295
sg2986
S'bind'
p3296
sa(dp3297
g2963
S'/var/www/conferencia/gluon/contrib/pg8000/protocol.py'
p3298
sg2965
(dp3299
S'msg'
p3300
S'<gluon.contrib.pg8000.protocol.NoData object>'
p3301
sS'handler'
p3302
S'<bound method Connection._bind_nodata of <gluon.contrib.pg8000.protocol.Connection object>>'
p3303
sS'retval'
p3304
S'0'
sS'args'
p3305
S"('pg8000_portal_4', <gluon.contrib.pg8000.protocol.MessageReader object>, None)"
p3306
sS'kwargs'
p3307
g21
ssg2971
I911
sg2972
(dp3308
I906
S'            msg = self._conn._read_message()'
p3309
sI907
S'            msg_handled = False'
p3310
sI908
S'            for (msg_class, handler, args, kwargs) in self._msgs:'
p3311
sI909
S'                if isinstance(msg, msg_class):'
p3312
sI910
S'                    msg_handled = True'
p3313
sI911
S'                    retval = handler(msg, *args, **kwargs)'
p3314
sI912
S'                    if retval:'
p3315
sI913
S'                        # The handler returned a true value, meaning that the'
p3316
sI914
S'                        # message loop should be aborted.'
p3317
sI915
S'                        if exc != None:'
p3318
ssg2984
S'(self=<gluon.contrib.pg8000.protocol.MessageReader object>)'
p3319
sg2986
S'handle_messages'
p3320
sa(dp3321
g2963
S'/var/www/conferencia/gluon/contrib/pg8000/protocol.py'
p3322
sg2965
(dp3323
S'reader.handle_messages'
p3324
S'<bound method MessageReader.handle_messages of <gluon.contrib.pg8000.protocol.MessageReader object>>'
p3325
sS'reader'
p3326
S'<gluon.contrib.pg8000.protocol.MessageReader object>'
p3327
ssg2971
I1181
sg2972
(dp3328
I1184
S''
sI1185
S'    @sync_on_error'
p3329
sI1176
S'        reader.add_message(CopyOutResponse, self._copy_out_response, copy_stream, reader)'
p3330
sI1177
S'        reader.add_message(CopyInResponse, self._copy_in_response, copy_stream, reader)'
p3331
sI1178
S"        reader.add_message(CommandComplete, lambda msg, out: out.setdefault('msg', msg) and False, output)"
p3332
sI1179
S'        reader.add_message(ReadyForQuery, lambda msg: 1)'
p3333
sI1180
S'        reader.delay_raising_exception = True'
p3334
sI1181
S'        reader.handle_messages()'
p3335
sI1182
S''
sI1183
S"        old_reader.return_value((None, output['msg']))"
p3336
ssg2984
S"(self=<gluon.contrib.pg8000.protocol.Connection object>, msg=<gluon.contrib.pg8000.protocol.NoData object>, portal='pg8000_portal_4', old_reader=<gluon.contrib.pg8000.protocol.MessageReader object>, copy_stream=None)"
p3337
sg2986
S'_bind_nodata'
p3338
sa(dp3339
g2963
S'/var/www/conferencia/gluon/contrib/pg8000/protocol.py'
p3340
sg2965
(dp3341
S'exc'
p3342
S'ProgrammingError(\'ERROR\', \'42P16\', \'multiple primary keys for table "meetme" are not allowed\')'
p3343
ssg2971
I916
sg2972
(dp3344
I911
S'                    retval = handler(msg, *args, **kwargs)'
p3345
sI912
S'                    if retval:'
p3346
sI913
S'                        # The handler returned a true value, meaning that the'
p3347
sI914
S'                        # message loop should be aborted.'
p3348
sI915
S'                        if exc != None:'
p3349
sI916
S'                            raise exc'
p3350
sI917
S'                        return retval'
p3351
sI918
S'                    elif hasattr(self, "_retval"):'
p3352
sI919
S'                        # The handler told us to return -- used for non-true'
p3353
sI920
S'                        # return values'
p3354
ssg2984
S'(self=<gluon.contrib.pg8000.protocol.MessageReader object>)'
p3355
sg2986
g3320
sasS'pyver'
p3356
S'Python 2.7.3: /usr/bin/python'
p3357
sS'session'
p3358
g61
(g62
g63
NtRp3359
(dp3360
g66
(dp3361
sg68
(lp3362
g61
(g70
g63
NtRp3363
(dp3364
g66
(dp3365
g74
I5
ssg75
Nsg68
(lp3366
g61
(g77
g63
NtRp3367
(dp3368
g66
(dp3369
sg75
g3363
sg68
(lp3370
g61
(g82
g63
NtRp3371
(dp3372
g66
(dp3373
g86
g87
ssg75
g3367
sg68
(lp3374
S'flash'
p3375
asbag61
(g82
g63
NtRp3376
(dp3377
g66
(dp3378
g93
g94
ssg75
g3367
sg68
(lp3379
S':'
asbag61
(g82
g63
NtRp3380
(dp3381
g66
(dp3382
sg75
g3367
sg68
(lp3383
g61
(g62
g63
NtRp3384
(dp3385
g66
(dp3386
g74
I5
ssg75
g3380
sg68
(lp3387
S'None'
p3388
asbasbasbasbasbsS'etype'
p3389
S"<class 'gluon.contrib.pg8000.errors.ProgrammingError'>"
p3390
sS'date'
p3391
S'Tue Apr  2 18:52:04 2013'
p3392
sS'response'
p3393
g61
(g62
g63
NtRp3394
(dp3395
g66
(dp3396
sg68
(lp3397
g61
(g70
g63
NtRp3398
(dp3399
g66
(dp3400
g74
I5
ssg75
Nsg68
(lp3401
g61
(g77
g63
NtRp3402
(dp3403
g66
(dp3404
sg75
g3398
sg68
(lp3405
g61
(g82
g63
NtRp3406
(dp3407
g66
(dp3408
g86
g87
ssg75
g3402
sg68
(lp3409
g159
asbag61
(g82
g63
NtRp3410
(dp3411
g66
(dp3412
g93
g94
ssg75
g3402
sg68
(lp3413
S':'
asbag61
(g82
g63
NtRp3414
(dp3415
g66
(dp3416
sg75
g3402
sg68
(lp3417
g61
(g62
g63
NtRp3418
(dp3419
g66
(dp3420
g74
I5
ssg75
g3414
sg68
(lp3421
S'<cStringIO.StringO object at 0x2d9afb8>'
p3422
asbasbasbag61
(g77
g63
NtRp3423
(dp3424
g66
(dp3425
sg75
g3398
sg68
(lp3426
g61
(g82
g63
NtRp3427
(dp3428
g66
(dp3429
g86
g87
ssg75
g3423
sg68
(lp3430
g247
asbag61
(g82
g63
NtRp3431
(dp3432
g66
(dp3433
g93
g94
ssg75
g3423
sg68
(lp3434
S':'
asbag61
(g82
g63
NtRp3435
(dp3436
g66
(dp3437
sg75
g3423
sg68
(lp3438
g61
(g62
g63
NtRp3439
(dp3440
g66
(dp3441
g74
I5
ssg75
g3435
sg68
(lp3442
g61
(g70
g63
NtRp3443
(dp3444
g66
(dp3445
g74
I4
ssg75
Nsg68
(lp3446
g61
(g77
g63
NtRp3447
(dp3448
g66
(dp3449
sg75
g3443
sg68
(lp3450
g61
(g82
g63
NtRp3451
(dp3452
g66
(dp3453
g86
g87
ssg75
g3447
sg68
(lp3454
S'session_id_projeto'
p3455
asbag61
(g82
g63
NtRp3456
(dp3457
g66
(dp3458
g93
g94
ssg75
g3447
sg68
(lp3459
S':'
asbag61
(g82
g63
NtRp3460
(dp3461
g66
(dp3462
sg75
g3447
sg68
(lp3463
g61
(g62
g63
NtRp3464
(dp3465
g66
(dp3466
g74
I4
ssg75
g3460
sg68
(lp3467
g479
ag61
(g70
g63
NtRp3468
(dp3469
g66
(dp3470
g74
I3
ssg75
Nsg68
(lp3471
g61
(g77
g63
NtRp3472
(dp3473
g66
(dp3474
sg75
g3468
sg68
(lp3475
g61
(g82
g63
NtRp3476
(dp3477
g66
(dp3478
g86
g87
ssg75
g3472
sg68
(lp3479
g298
asbag61
(g82
g63
NtRp3480
(dp3481
g66
(dp3482
g93
g94
ssg75
g3472
sg68
(lp3483
S':'
asbag61
(g82
g63
NtRp3484
(dp3485
g66
(dp3486
sg75
g3472
sg68
(lp3487
g61
(g62
g63
NtRp3488
(dp3489
g66
(dp3490
g74
I3
ssg75
g3484
sg68
(lp3491
S''
asbasbasbag61
(g77
g63
NtRp3492
(dp3493
g66
(dp3494
sg75
g3468
sg68
(lp3495
g61
(g82
g63
NtRp3496
(dp3497
g66
(dp3498
g86
g87
ssg75
g3492
sg68
(lp3499
g319
asbag61
(g82
g63
NtRp3500
(dp3501
g66
(dp3502
g93
g94
ssg75
g3492
sg68
(lp3503
S':'
asbag61
(g82
g63
NtRp3504
(dp3505
g66
(dp3506
sg75
g3492
sg68
(lp3507
g61
(g62
g63
NtRp3508
(dp3509
g66
(dp3510
g74
I3
ssg75
g3504
sg68
(lp3511
S''
asbasbasbag61
(g77
g63
NtRp3512
(dp3513
g66
(dp3514
sg75
g3468
sg68
(lp3515
g61
(g82
g63
NtRp3516
(dp3517
g66
(dp3518
g86
g87
ssg75
g3512
sg68
(lp3519
g340
asbag61
(g82
g63
NtRp3520
(dp3521
g66
(dp3522
g93
g94
ssg75
g3512
sg68
(lp3523
S':'
asbag61
(g82
g63
NtRp3524
(dp3525
g66
(dp3526
sg75
g3512
sg68
(lp3527
g61
(g62
g63
NtRp3528
(dp3529
g66
(dp3530
g74
I3
ssg75
g3524
sg68
(lp3531
S''
asbasbasbag61
(g77
g63
NtRp3532
(dp3533
g66
(dp3534
sg75
g3468
sg68
(lp3535
g61
(g82
g63
NtRp3536
(dp3537
g66
(dp3538
g86
g87
ssg75
g3532
sg68
(lp3539
g361
asbag61
(g82
g63
NtRp3540
(dp3541
g66
(dp3542
g93
g94
ssg75
g3532
sg68
(lp3543
S':'
asbag61
(g82
g63
NtRp3544
(dp3545
g66
(dp3546
sg75
g3532
sg68
(lp3547
g61
(g62
g63
NtRp3548
(dp3549
g66
(dp3550
g74
I3
ssg75
g3544
sg68
(lp3551
S''
asbasbasbag61
(g77
g63
NtRp3552
(dp3553
g66
(dp3554
sg75
g3468
sg68
(lp3555
g61
(g82
g63
NtRp3556
(dp3557
g66
(dp3558
g86
g87
ssg75
g3552
sg68
(lp3559
g382
asbag61
(g82
g63
NtRp3560
(dp3561
g66
(dp3562
g93
g94
ssg75
g3552
sg68
(lp3563
S':'
asbag61
(g82
g63
NtRp3564
(dp3565
g66
(dp3566
sg75
g3552
sg68
(lp3567
g61
(g62
g63
NtRp3568
(dp3569
g66
(dp3570
g74
I3
ssg75
g3564
sg68
(lp3571
S''
asbasbasbag61
(g77
g63
NtRp3572
(dp3573
g66
(dp3574
sg75
g3468
sg68
(lp3575
g61
(g82
g63
NtRp3576
(dp3577
g66
(dp3578
g86
g87
ssg75
g3572
sg68
(lp3579
g403
asbag61
(g82
g63
NtRp3580
(dp3581
g66
(dp3582
g93
g94
ssg75
g3572
sg68
(lp3583
S':'
asbag61
(g82
g63
NtRp3584
(dp3585
g66
(dp3586
sg75
g3572
sg68
(lp3587
g61
(g62
g63
NtRp3588
(dp3589
g66
(dp3590
g74
I3
ssg75
g3584
sg68
(lp3591
S'/'
asbasbasbag61
(g77
g63
NtRp3592
(dp3593
g66
(dp3594
sg75
g3468
sg68
(lp3595
g61
(g82
g63
NtRp3596
(dp3597
g66
(dp3598
g86
g87
ssg75
g3592
sg68
(lp3599
g424
asbag61
(g82
g63
NtRp3600
(dp3601
g66
(dp3602
g93
g94
ssg75
g3592
sg68
(lp3603
S':'
asbag61
(g82
g63
NtRp3604
(dp3605
g66
(dp3606
sg75
g3592
sg68
(lp3607
g61
(g62
g63
NtRp3608
(dp3609
g66
(dp3610
g74
I3
ssg75
g3604
sg68
(lp3611
S''
asbasbasbag61
(g77
g63
NtRp3612
(dp3613
g66
(dp3614
sg75
g3468
sg68
(lp3615
g61
(g82
g63
NtRp3616
(dp3617
g66
(dp3618
g86
g87
ssg75
g3612
sg68
(lp3619
g445
asbag61
(g82
g63
NtRp3620
(dp3621
g66
(dp3622
g93
g94
ssg75
g3612
sg68
(lp3623
S':'
asbag61
(g82
g63
NtRp3624
(dp3625
g66
(dp3626
sg75
g3612
sg68
(lp3627
g61
(g62
g63
NtRp3628
(dp3629
g66
(dp3630
g74
I3
ssg75
g3624
sg68
(lp3631
S''
asbasbasbasbasbasbasbasbasbasbasbag61
(g77
g63
NtRp3632
(dp3633
g66
(dp3634
sg75
g3398
sg68
(lp3635
g61
(g82
g63
NtRp3636
(dp3637
g66
(dp3638
g86
g87
ssg75
g3632
sg68
(lp3639
S'delimiters'
p3640
asbag61
(g82
g63
NtRp3641
(dp3642
g66
(dp3643
g93
g94
ssg75
g3632
sg68
(lp3644
S':'
asbag61
(g82
g63
NtRp3645
(dp3646
g66
(dp3647
sg75
g3632
sg68
(lp3648
g61
(g62
g63
NtRp3649
(dp3650
g66
(dp3651
g74
I5
ssg75
g3645
sg68
(lp3652
g61
(g70
g63
NtRp3653
(dp3654
g66
(dp3655
g74
I4
ssg75
Nsg68
(lp3656
g61
(g77
g63
NtRp3657
(dp3658
g66
(dp3659
sg75
g3653
sg68
(lp3660
g61
(g82
g63
NtRp3661
(dp3662
g66
(dp3663
sg75
g3657
sg68
(lp3664
g61
(g62
g63
NtRp3665
(dp3666
g66
(dp3667
g74
I4
ssg75
g3661
sg68
(lp3668
S'{{'
p3669
asbasbasbag61
(g77
g63
NtRp3670
(dp3671
g66
(dp3672
sg75
g3653
sg68
(lp3673
g61
(g82
g63
NtRp3674
(dp3675
g66
(dp3676
sg75
g3670
sg68
(lp3677
g61
(g62
g63
NtRp3678
(dp3679
g66
(dp3680
g74
I4
ssg75
g3674
sg68
(lp3681
S'}}'
p3682
asbasbasbasbasbasbasbag61
(g77
g63
NtRp3683
(dp3684
g66
(dp3685
sg75
g3398
sg68
(lp3686
g61
(g82
g63
NtRp3687
(dp3688
g66
(dp3689
g86
g87
ssg75
g3683
sg68
(lp3690
S'files'
p3691
asbag61
(g82
g63
NtRp3692
(dp3693
g66
(dp3694
g93
g94
ssg75
g3683
sg68
(lp3695
S':'
asbag61
(g82
g63
NtRp3696
(dp3697
g66
(dp3698
sg75
g3683
sg68
(lp3699
g61
(g62
g63
NtRp3700
(dp3701
g66
(dp3702
g74
I5
ssg75
g3696
sg68
(lp3703
g61
(g70
g63
NtRp3704
(dp3705
g66
(dp3706
g74
I4
ssg75
Nsg68
(lp3707
sbasbasbasbag61
(g77
g63
NtRp3708
(dp3709
g66
(dp3710
sg75
g3398
sg68
(lp3711
g61
(g82
g63
NtRp3712
(dp3713
g66
(dp3714
g86
g87
ssg75
g3708
sg68
(lp3715
S'flash'
p3716
asbag61
(g82
g63
NtRp3717
(dp3718
g66
(dp3719
g93
g94
ssg75
g3708
sg68
(lp3720
S':'
asbag61
(g82
g63
NtRp3721
(dp3722
g66
(dp3723
sg75
g3708
sg68
(lp3724
g61
(g62
g63
NtRp3725
(dp3726
g66
(dp3727
g74
I5
ssg75
g3721
sg68
(lp3728
S''
asbasbasbag61
(g77
g63
NtRp3729
(dp3730
g66
(dp3731
sg75
g3398
sg68
(lp3732
g61
(g82
g63
NtRp3733
(dp3734
g66
(dp3735
g86
g87
ssg75
g3729
sg68
(lp3736
S'generic_patterns'
p3737
asbag61
(g82
g63
NtRp3738
(dp3739
g66
(dp3740
g93
g94
ssg75
g3729
sg68
(lp3741
S':'
asbag61
(g82
g63
NtRp3742
(dp3743
g66
(dp3744
sg75
g3729
sg68
(lp3745
g61
(g62
g63
NtRp3746
(dp3747
g66
(dp3748
g74
I5
ssg75
g3742
sg68
(lp3749
g61
(g70
g63
NtRp3750
(dp3751
g66
(dp3752
g74
I4
ssg75
Nsg68
(lp3753
g61
(g77
g63
NtRp3754
(dp3755
g66
(dp3756
sg75
g3750
sg68
(lp3757
g61
(g82
g63
NtRp3758
(dp3759
g66
(dp3760
sg75
g3754
sg68
(lp3761
g61
(g62
g63
NtRp3762
(dp3763
g66
(dp3764
g74
I4
ssg75
g3758
sg68
(lp3765
S'*'
asbasbasbasbasbasbasbag61
(g77
g63
NtRp3766
(dp3767
g66
(dp3768
sg75
g3398
sg68
(lp3769
g61
(g82
g63
NtRp3770
(dp3771
g66
(dp3772
g86
g87
ssg75
g3766
sg68
(lp3773
S'google_analytics_id'
p3774
asbag61
(g82
g63
NtRp3775
(dp3776
g66
(dp3777
g93
g94
ssg75
g3766
sg68
(lp3778
S':'
asbag61
(g82
g63
NtRp3779
(dp3780
g66
(dp3781
sg75
g3766
sg68
(lp3782
g61
(g62
g63
NtRp3783
(dp3784
g66
(dp3785
g74
I5
ssg75
g3779
sg68
(lp3786
S'None'
p3787
asbasbasbag61
(g77
g63
NtRp3788
(dp3789
g66
(dp3790
sg75
g3398
sg68
(lp3791
g61
(g82
g63
NtRp3792
(dp3793
g66
(dp3794
g86
g87
ssg75
g3788
sg68
(lp3795
S'headers'
p3796
asbag61
(g82
g63
NtRp3797
(dp3798
g66
(dp3799
g93
g94
ssg75
g3788
sg68
(lp3800
S':'
asbag61
(g82
g63
NtRp3801
(dp3802
g66
(dp3803
sg75
g3788
sg68
(lp3804
g61
(g62
g63
NtRp3805
(dp3806
g66
(dp3807
g74
I5
ssg75
g3801
sg68
(lp3808
g61
(g70
g63
NtRp3809
(dp3810
g66
(dp3811
g74
I4
ssg75
Nsg68
(lp3812
g61
(g77
g63
NtRp3813
(dp3814
g66
(dp3815
sg75
g3809
sg68
(lp3816
g61
(g82
g63
NtRp3817
(dp3818
g66
(dp3819
g86
g87
ssg75
g3813
sg68
(lp3820
S'X-Powered-By'
p3821
asbag61
(g82
g63
NtRp3822
(dp3823
g66
(dp3824
g93
g94
ssg75
g3813
sg68
(lp3825
S':'
asbag61
(g82
g63
NtRp3826
(dp3827
g66
(dp3828
sg75
g3813
sg68
(lp3829
g61
(g62
g63
NtRp3830
(dp3831
g66
(dp3832
g74
I4
ssg75
g3826
sg68
(lp3833
S'web2py'
p3834
asbasbasbasbasbasbasbag61
(g77
g63
NtRp3835
(dp3836
g66
(dp3837
sg75
g3398
sg68
(lp3838
g61
(g82
g63
NtRp3839
(dp3840
g66
(dp3841
g86
g87
ssg75
g3835
sg68
(lp3842
S'logo'
p3843
asbag61
(g82
g63
NtRp3844
(dp3845
g66
(dp3846
g93
g94
ssg75
g3835
sg68
(lp3847
S':'
asbag61
(g82
g63
NtRp3848
(dp3849
g66
(dp3850
sg75
g3835
sg68
(lp3851
g61
(g62
g63
NtRp3852
(dp3853
g66
(dp3854
g74
I5
ssg75
g3848
sg68
(lp3855
g61
(cgluon.html
A
p3856
g63
NtRp3857
(dp3858
g66
(dp3859
S'_class'
p3860
S'brand'
p3861
sS'_href'
p3862
g1698
ssg75
Nsg68
(lp3863
g61
(cgluon.html
B
p3864
g63
NtRp3865
(dp3866
g66
(dp3867
sg75
g3857
sg68
(lp3868
S'hosts'
p3869
ag61
(cgluon.html
SPAN
p3870
g63
NtRp3871
(dp3872
g66
(dp3873
sg75
g3865
sg68
(lp3874
S'3'
asbaS''
asbacgluon.html
XML_unpickle
p3875
(S's\r\x00\x00\x00&trade;&nbsp;'
tRp3876
asbasbasbasbag61
(g77
g63
NtRp3877
(dp3878
g66
(dp3879
sg75
g3398
sg68
(lp3880
g61
(g82
g63
NtRp3881
(dp3882
g66
(dp3883
g86
g87
ssg75
g3877
sg68
(lp3884
S'menu'
p3885
asbag61
(g82
g63
NtRp3886
(dp3887
g66
(dp3888
g93
g94
ssg75
g3877
sg68
(lp3889
S':'
asbag61
(g82
g63
NtRp3890
(dp3891
g66
(dp3892
sg75
g3877
sg68
(lp3893
g61
(g62
g63
NtRp3894
(dp3895
g66
(dp3896
g74
I5
ssg75
g3890
sg68
(lp3897
g61
(g70
g63
NtRp3898
(dp3899
g66
(dp3900
g74
I4
ssg75
Nsg68
(lp3901
g61
(g77
g63
NtRp3902
(dp3903
g66
(dp3904
sg75
g3898
sg68
(lp3905
g61
(g82
g63
NtRp3906
(dp3907
g66
(dp3908
sg75
g3902
sg68
(lp3909
g61
(g62
g63
NtRp3910
(dp3911
g66
(dp3912
g74
I4
ssg75
g3906
sg68
(lp3913
g61
(g70
g63
NtRp3914
(dp3915
g66
(dp3916
g74
I3
ssg75
Nsg68
(lp3917
g61
(g77
g63
NtRp3918
(dp3919
g66
(dp3920
sg75
g3914
sg68
(lp3921
g61
(g82
g63
NtRp3922
(dp3923
g66
(dp3924
sg75
g3918
sg68
(lp3925
g61
(g62
g63
NtRp3926
(dp3927
g66
(dp3928
g74
I3
ssg75
g3922
sg68
(lp3929
cgluon.languages
lazyT_unpickle
p3930
(S't\x08\x00\x00\x00Clientes'
tRp3931
asbasbasbag61
(g77
g63
NtRp3932
(dp3933
g66
(dp3934
sg75
g3914
sg68
(lp3935
g61
(g82
g63
NtRp3936
(dp3937
g66
(dp3938
sg75
g3932
sg68
(lp3939
g61
(g62
g63
NtRp3940
(dp3941
g66
(dp3942
g74
I3
ssg75
g3936
sg68
(lp3943
g104
asbasbasbag61
(g77
g63
NtRp3944
(dp3945
g66
(dp3946
sg75
g3914
sg68
(lp3947
g61
(g82
g63
NtRp3948
(dp3949
g66
(dp3950
sg75
g3944
sg68
(lp3951
g61
(g62
g63
NtRp3952
(dp3953
g66
(dp3954
g74
I3
ssg75
g3948
sg68
(lp3955
S'/show_cliente'
p3956
asbasbasbag61
(g77
g63
NtRp3957
(dp3958
g66
(dp3959
sg75
g3914
sg68
(lp3960
g61
(g82
g63
NtRp3961
(dp3962
g66
(dp3963
sg75
g3957
sg68
(lp3964
g61
(g62
g63
NtRp3965
(dp3966
g66
(dp3967
g74
I3
ssg75
g3961
sg68
(lp3968
g61
(g70
g63
NtRp3969
(dp3970
g66
(dp3971
g74
I2
ssg75
Nsg68
(lp3972
sbasbasbasbasbasbasbasbag61
(g77
g63
NtRp3973
(dp3974
g66
(dp3975
sg75
g3898
sg68
(lp3976
g61
(g82
g63
NtRp3977
(dp3978
g66
(dp3979
sg75
g3973
sg68
(lp3980
g61
(g62
g63
NtRp3981
(dp3982
g66
(dp3983
g74
I4
ssg75
g3977
sg68
(lp3984
g61
(g70
g63
NtRp3985
(dp3986
g66
(dp3987
g74
I3
ssg75
Nsg68
(lp3988
g61
(g77
g63
NtRp3989
(dp3990
g66
(dp3991
sg75
g3985
sg68
(lp3992
g61
(g82
g63
NtRp3993
(dp3994
g66
(dp3995
sg75
g3989
sg68
(lp3996
g61
(g62
g63
NtRp3997
(dp3998
g66
(dp3999
g74
I3
ssg75
g3993
sg68
(lp4000
g3930
(S't\n\x00\x00\x00Servidores'
tRp4001
asbasbasbag61
(g77
g63
NtRp4002
(dp4003
g66
(dp4004
sg75
g3985
sg68
(lp4005
g61
(g82
g63
NtRp4006
(dp4007
g66
(dp4008
sg75
g4002
sg68
(lp4009
g61
(g62
g63
NtRp4010
(dp4011
g66
(dp4012
g74
I3
ssg75
g4006
sg68
(lp4013
g104
asbasbasbag61
(g77
g63
NtRp4014
(dp4015
g66
(dp4016
sg75
g3985
sg68
(lp4017
g61
(g82
g63
NtRp4018
(dp4019
g66
(dp4020
sg75
g4014
sg68
(lp4021
g61
(g62
g63
NtRp4022
(dp4023
g66
(dp4024
g74
I3
ssg75
g4018
sg68
(lp4025
S'/show_servidor'
p4026
asbasbasbag61
(g77
g63
NtRp4027
(dp4028
g66
(dp4029
sg75
g3985
sg68
(lp4030
g61
(g82
g63
NtRp4031
(dp4032
g66
(dp4033
sg75
g4027
sg68
(lp4034
g61
(g62
g63
NtRp4035
(dp4036
g66
(dp4037
g74
I3
ssg75
g4031
sg68
(lp4038
g61
(g70
g63
NtRp4039
(dp4040
g66
(dp4041
g74
I2
ssg75
Nsg68
(lp4042
sbasbasbasbasbasbasbasbag61
(g77
g63
NtRp4043
(dp4044
g66
(dp4045
sg75
g3898
sg68
(lp4046
g61
(g82
g63
NtRp4047
(dp4048
g66
(dp4049
sg75
g4043
sg68
(lp4050
g61
(g62
g63
NtRp4051
(dp4052
g66
(dp4053
g74
I4
ssg75
g4047
sg68
(lp4054
g61
(g70
g63
NtRp4055
(dp4056
g66
(dp4057
g74
I3
ssg75
Nsg68
(lp4058
g61
(g77
g63
NtRp4059
(dp4060
g66
(dp4061
sg75
g4055
sg68
(lp4062
g61
(g82
g63
NtRp4063
(dp4064
g66
(dp4065
sg75
g4059
sg68
(lp4066
g61
(g62
g63
NtRp4067
(dp4068
g66
(dp4069
g74
I3
ssg75
g4063
sg68
(lp4070
g3930
(S't\x07\x00\x00\x00Distros'
tRp4071
asbasbasbag61
(g77
g63
NtRp4072
(dp4073
g66
(dp4074
sg75
g4055
sg68
(lp4075
g61
(g82
g63
NtRp4076
(dp4077
g66
(dp4078
sg75
g4072
sg68
(lp4079
g61
(g62
g63
NtRp4080
(dp4081
g66
(dp4082
g74
I3
ssg75
g4076
sg68
(lp4083
g104
asbasbasbag61
(g77
g63
NtRp4084
(dp4085
g66
(dp4086
sg75
g4055
sg68
(lp4087
g61
(g82
g63
NtRp4088
(dp4089
g66
(dp4090
sg75
g4084
sg68
(lp4091
g61
(g62
g63
NtRp4092
(dp4093
g66
(dp4094
g74
I3
ssg75
g4088
sg68
(lp4095
S'/show_distro'
p4096
asbasbasbag61
(g77
g63
NtRp4097
(dp4098
g66
(dp4099
sg75
g4055
sg68
(lp4100
g61
(g82
g63
NtRp4101
(dp4102
g66
(dp4103
sg75
g4097
sg68
(lp4104
g61
(g62
g63
NtRp4105
(dp4106
g66
(dp4107
g74
I3
ssg75
g4101
sg68
(lp4108
g61
(g70
g63
NtRp4109
(dp4110
g66
(dp4111
g74
I2
ssg75
Nsg68
(lp4112
sbasbasbasbasbasbasbasbag61
(g77
g63
NtRp4113
(dp4114
g66
(dp4115
sg75
g3898
sg68
(lp4116
g61
(g82
g63
NtRp4117
(dp4118
g66
(dp4119
sg75
g4113
sg68
(lp4120
g61
(g62
g63
NtRp4121
(dp4122
g66
(dp4123
g74
I4
ssg75
g4117
sg68
(lp4124
g61
(g70
g63
NtRp4125
(dp4126
g66
(dp4127
g74
I3
ssg75
Nsg68
(lp4128
g61
(g77
g63
NtRp4129
(dp4130
g66
(dp4131
sg75
g4125
sg68
(lp4132
g61
(g82
g63
NtRp4133
(dp4134
g66
(dp4135
sg75
g4129
sg68
(lp4136
g61
(g62
g63
NtRp4137
(dp4138
g66
(dp4139
g74
I3
ssg75
g4133
sg68
(lp4140
g3930
(S's\x05\x00\x00\x00+host'
tRp4141
asbasbasbag61
(g77
g63
NtRp4142
(dp4143
g66
(dp4144
sg75
g4125
sg68
(lp4145
g61
(g82
g63
NtRp4146
(dp4147
g66
(dp4148
sg75
g4142
sg68
(lp4149
g61
(g62
g63
NtRp4150
(dp4151
g66
(dp4152
g74
I3
ssg75
g4146
sg68
(lp4153
g104
asbasbasbag61
(g77
g63
NtRp4154
(dp4155
g66
(dp4156
sg75
g4125
sg68
(lp4157
g61
(g82
g63
NtRp4158
(dp4159
g66
(dp4160
sg75
g4154
sg68
(lp4161
g61
(g62
g63
NtRp4162
(dp4163
g66
(dp4164
g74
I3
ssg75
g4158
sg68
(lp4165
S'/interface'
p4166
asbasbasbag61
(g77
g63
NtRp4167
(dp4168
g66
(dp4169
sg75
g4125
sg68
(lp4170
g61
(g82
g63
NtRp4171
(dp4172
g66
(dp4173
sg75
g4167
sg68
(lp4174
g61
(g62
g63
NtRp4175
(dp4176
g66
(dp4177
g74
I3
ssg75
g4171
sg68
(lp4178
g61
(g70
g63
NtRp4179
(dp4180
g66
(dp4181
g74
I2
ssg75
Nsg68
(lp4182
sbasbasbasbasbasbasbasbasbasbasbasbag61
(g77
g63
NtRp4183
(dp4184
g66
(dp4185
sg75
g3398
sg68
(lp4186
g61
(g82
g63
NtRp4187
(dp4188
g66
(dp4189
g86
g87
ssg75
g4183
sg68
(lp4190
S'menu2'
p4191
asbag61
(g82
g63
NtRp4192
(dp4193
g66
(dp4194
g93
g94
ssg75
g4183
sg68
(lp4195
S':'
asbag61
(g82
g63
NtRp4196
(dp4197
g66
(dp4198
sg75
g4183
sg68
(lp4199
g61
(g62
g63
NtRp4200
(dp4201
g66
(dp4202
g74
I5
ssg75
g4196
sg68
(lp4203
g61
(g70
g63
NtRp4204
(dp4205
g66
(dp4206
g74
I4
ssg75
Nsg68
(lp4207
g61
(g77
g63
NtRp4208
(dp4209
g66
(dp4210
sg75
g4204
sg68
(lp4211
g61
(g82
g63
NtRp4212
(dp4213
g66
(dp4214
sg75
g4208
sg68
(lp4215
g61
(g62
g63
NtRp4216
(dp4217
g66
(dp4218
g74
I4
ssg75
g4212
sg68
(lp4219
g61
(g70
g63
NtRp4220
(dp4221
g66
(dp4222
g74
I3
ssg75
Nsg68
(lp4223
g61
(g77
g63
NtRp4224
(dp4225
g66
(dp4226
sg75
g4220
sg68
(lp4227
g61
(g82
g63
NtRp4228
(dp4229
g66
(dp4230
sg75
g4224
sg68
(lp4231
g61
(g62
g63
NtRp4232
(dp4233
g66
(dp4234
g74
I3
ssg75
g4228
sg68
(lp4235
g61
(g3870
g63
NtRp4236
(dp4237
g66
(dp4238
g3860
S'dropdown-toggle'
p4239
ssg75
Nsg68
(lp4240
S'Admin'
p4241
asbasbasbasbag61
(g77
g63
NtRp4242
(dp4243
g66
(dp4244
sg75
g4220
sg68
(lp4245
g61
(g82
g63
NtRp4246
(dp4247
g66
(dp4248
sg75
g4242
sg68
(lp4249
g61
(g62
g63
NtRp4250
(dp4251
g66
(dp4252
g74
I3
ssg75
g4246
sg68
(lp4253
g104
asbasbasbag61
(g77
g63
NtRp4254
(dp4255
g66
(dp4256
sg75
g4220
sg68
(lp4257
g61
(g82
g63
NtRp4258
(dp4259
g66
(dp4260
sg75
g4254
sg68
(lp4261
g61
(g62
g63
NtRp4262
(dp4263
g66
(dp4264
g74
I3
ssg75
g4258
sg68
(lp4265
S'#'
asbasbasbag61
(g77
g63
NtRp4266
(dp4267
g66
(dp4268
sg75
g4220
sg68
(lp4269
g61
(g82
g63
NtRp4270
(dp4271
g66
(dp4272
sg75
g4266
sg68
(lp4273
g61
(g62
g63
NtRp4274
(dp4275
g66
(dp4276
g74
I3
ssg75
g4270
sg68
(lp4277
g61
(g70
g63
NtRp4278
(dp4279
g66
(dp4280
g74
I2
ssg75
Nsg68
(lp4281
g61
(g77
g63
NtRp4282
(dp4283
g66
(dp4284
sg75
g4278
sg68
(lp4285
g61
(g82
g63
NtRp4286
(dp4287
g66
(dp4288
sg75
g4282
sg68
(lp4289
g61
(g62
g63
NtRp4290
(dp4291
g66
(dp4292
g74
I2
ssg75
g4286
sg68
(lp4293
g61
(g70
g63
NtRp4294
(dp4295
g66
(dp4296
g74
I1
ssg75
Nsg68
(lp4297
g61
(g77
g63
NtRp4298
(dp4299
g66
(dp4300
sg75
g4294
sg68
(lp4301
g61
(g82
g63
NtRp4302
(dp4303
g66
(dp4304
sg75
g4298
sg68
(lp4305
g61
(g62
g63
NtRp4306
(dp4307
g66
(dp4308
g74
I1
ssg75
g4302
sg68
(lp4309
g3930
(S's\t\x00\x00\x00Usu\xc3\xa1rios'
tRp4310
asbasbasbag61
(g77
g63
NtRp4311
(dp4312
g66
(dp4313
sg75
g4294
sg68
(lp4314
g61
(g82
g63
NtRp4315
(dp4316
g66
(dp4317
sg75
g4311
sg68
(lp4318
g61
(g62
g63
NtRp4319
(dp4320
g66
(dp4321
g74
I1
ssg75
g4315
sg68
(lp4322
I00
asbasbasbag61
(g77
g63
NtRp4323
(dp4324
g66
(dp4325
sg75
g4294
sg68
(lp4326
g61
(g82
g63
NtRp4327
(dp4328
g66
(dp4329
sg75
g4323
sg68
(lp4330
g61
(g62
g63
NtRp4331
(dp4332
g66
(dp4333
g74
I1
ssg75
g4327
sg68
(lp4334
S'/manager/users'
p4335
asbasbasbasbasbasbasbag61
(g77
g63
NtRp4336
(dp4337
g66
(dp4338
sg75
g4278
sg68
(lp4339
g61
(g82
g63
NtRp4340
(dp4341
g66
(dp4342
sg75
g4336
sg68
(lp4343
g61
(g62
g63
NtRp4344
(dp4345
g66
(dp4346
g74
I2
ssg75
g4340
sg68
(lp4347
g61
(g70
g63
NtRp4348
(dp4349
g66
(dp4350
g74
I1
ssg75
Nsg68
(lp4351
g61
(g77
g63
NtRp4352
(dp4353
g66
(dp4354
sg75
g4348
sg68
(lp4355
g61
(g82
g63
NtRp4356
(dp4357
g66
(dp4358
sg75
g4352
sg68
(lp4359
g61
(g62
g63
NtRp4360
(dp4361
g66
(dp4362
g74
I1
ssg75
g4356
sg68
(lp4363
g3930
(S't\x06\x00\x00\x00Grupos'
tRp4364
asbasbasbag61
(g77
g63
NtRp4365
(dp4366
g66
(dp4367
sg75
g4348
sg68
(lp4368
g61
(g82
g63
NtRp4369
(dp4370
g66
(dp4371
sg75
g4365
sg68
(lp4372
g61
(g62
g63
NtRp4373
(dp4374
g66
(dp4375
g74
I1
ssg75
g4369
sg68
(lp4376
I00
asbasbasbag61
(g77
g63
NtRp4377
(dp4378
g66
(dp4379
sg75
g4348
sg68
(lp4380
g61
(g82
g63
NtRp4381
(dp4382
g66
(dp4383
sg75
g4377
sg68
(lp4384
g61
(g62
g63
NtRp4385
(dp4386
g66
(dp4387
g74
I1
ssg75
g4381
sg68
(lp4388
S'/manager/groups'
p4389
asbasbasbasbasbasbasbag61
(g77
g63
NtRp4390
(dp4391
g66
(dp4392
sg75
g4278
sg68
(lp4393
g61
(g82
g63
NtRp4394
(dp4395
g66
(dp4396
sg75
g4390
sg68
(lp4397
g61
(g62
g63
NtRp4398
(dp4399
g66
(dp4400
g74
I2
ssg75
g4394
sg68
(lp4401
g61
(g70
g63
NtRp4402
(dp4403
g66
(dp4404
g74
I1
ssg75
Nsg68
(lp4405
g61
(g77
g63
NtRp4406
(dp4407
g66
(dp4408
sg75
g4402
sg68
(lp4409
g61
(g82
g63
NtRp4410
(dp4411
g66
(dp4412
sg75
g4406
sg68
(lp4413
g61
(g62
g63
NtRp4414
(dp4415
g66
(dp4416
g74
I1
ssg75
g4410
sg68
(lp4417
g3930
(S't\x07\x00\x00\x00Membros'
tRp4418
asbasbasbag61
(g77
g63
NtRp4419
(dp4420
g66
(dp4421
sg75
g4402
sg68
(lp4422
g61
(g82
g63
NtRp4423
(dp4424
g66
(dp4425
sg75
g4419
sg68
(lp4426
g61
(g62
g63
NtRp4427
(dp4428
g66
(dp4429
g74
I1
ssg75
g4423
sg68
(lp4430
I00
asbasbasbag61
(g77
g63
NtRp4431
(dp4432
g66
(dp4433
sg75
g4402
sg68
(lp4434
g61
(g82
g63
NtRp4435
(dp4436
g66
(dp4437
sg75
g4431
sg68
(lp4438
g61
(g62
g63
NtRp4439
(dp4440
g66
(dp4441
g74
I1
ssg75
g4435
sg68
(lp4442
S'/manager/membership'
p4443
asbasbasbasbasbasbasbasbasbasbasbasbasbasbasbag61
(g77
g63
NtRp4444
(dp4445
g66
(dp4446
sg75
g4204
sg68
(lp4447
g61
(g82
g63
NtRp4448
(dp4449
g66
(dp4450
sg75
g4444
sg68
(lp4451
g61
(g62
g63
NtRp4452
(dp4453
g66
(dp4454
g74
I4
ssg75
g4448
sg68
(lp4455
g61
(g70
g63
NtRp4456
(dp4457
g66
(dp4458
g74
I3
ssg75
Nsg68
(lp4459
g61
(g77
g63
NtRp4460
(dp4461
g66
(dp4462
sg75
g4456
sg68
(lp4463
g61
(g82
g63
NtRp4464
(dp4465
g66
(dp4466
sg75
g4460
sg68
(lp4467
g61
(g62
g63
NtRp4468
(dp4469
g66
(dp4470
g74
I3
ssg75
g4464
sg68
(lp4471
g61
(g3870
g63
NtRp4472
(dp4473
g66
(dp4474
g3860
g4239
ssg75
Nsg68
(lp4475
S'Login'
p4476
asbasbasbasbag61
(g77
g63
NtRp4477
(dp4478
g66
(dp4479
sg75
g4456
sg68
(lp4480
g61
(g82
g63
NtRp4481
(dp4482
g66
(dp4483
sg75
g4477
sg68
(lp4484
g61
(g62
g63
NtRp4485
(dp4486
g66
(dp4487
g74
I3
ssg75
g4481
sg68
(lp4488
g104
asbasbasbag61
(g77
g63
NtRp4489
(dp4490
g66
(dp4491
sg75
g4456
sg68
(lp4492
g61
(g82
g63
NtRp4493
(dp4494
g66
(dp4495
sg75
g4489
sg68
(lp4496
g61
(g62
g63
NtRp4497
(dp4498
g66
(dp4499
g74
I3
ssg75
g4493
sg68
(lp4500
S'#'
asbasbasbag61
(g77
g63
NtRp4501
(dp4502
g66
(dp4503
sg75
g4456
sg68
(lp4504
g61
(g82
g63
NtRp4505
(dp4506
g66
(dp4507
sg75
g4501
sg68
(lp4508
g61
(g62
g63
NtRp4509
(dp4510
g66
(dp4511
g74
I3
ssg75
g4505
sg68
(lp4512
g61
(g70
g63
NtRp4513
(dp4514
g66
(dp4515
g74
I2
ssg75
Nsg68
(lp4516
g61
(g77
g63
NtRp4517
(dp4518
g66
(dp4519
sg75
g4513
sg68
(lp4520
g61
(g82
g63
NtRp4521
(dp4522
g66
(dp4523
sg75
g4517
sg68
(lp4524
g61
(g62
g63
NtRp4525
(dp4526
g66
(dp4527
g74
I2
ssg75
g4521
sg68
(lp4528
g61
(g70
g63
NtRp4529
(dp4530
g66
(dp4531
g74
I1
ssg75
Nsg68
(lp4532
g61
(g77
g63
NtRp4533
(dp4534
g66
(dp4535
sg75
g4529
sg68
(lp4536
g61
(g82
g63
NtRp4537
(dp4538
g66
(dp4539
sg75
g4533
sg68
(lp4540
g61
(g62
g63
NtRp4541
(dp4542
g66
(dp4543
g74
I1
ssg75
g4537
sg68
(lp4544
g3930
(S't\x06\x00\x00\x00Logout'
tRp4545
asbasbasbag61
(g77
g63
NtRp4546
(dp4547
g66
(dp4548
sg75
g4529
sg68
(lp4549
g61
(g82
g63
NtRp4550
(dp4551
g66
(dp4552
sg75
g4546
sg68
(lp4553
g61
(g62
g63
NtRp4554
(dp4555
g66
(dp4556
g74
I1
ssg75
g4550
sg68
(lp4557
I00
asbasbasbag61
(g77
g63
NtRp4558
(dp4559
g66
(dp4560
sg75
g4529
sg68
(lp4561
g61
(g82
g63
NtRp4562
(dp4563
g66
(dp4564
sg75
g4558
sg68
(lp4565
g61
(g62
g63
NtRp4566
(dp4567
g66
(dp4568
g74
I1
ssg75
g4562
sg68
(lp4569
S'/initial/user/logout'
p4570
asbasbasbasbasbasbasbasbasbasbasbasbasbasbasbasbasbasbasbag61
(g77
g63
NtRp4571
(dp4572
g66
(dp4573
sg75
g3398
sg68
(lp4574
g61
(g82
g63
NtRp4575
(dp4576
g66
(dp4577
g86
g87
ssg75
g4571
sg68
(lp4578
S'meta'
p4579
asbag61
(g82
g63
NtRp4580
(dp4581
g66
(dp4582
g93
g94
ssg75
g4571
sg68
(lp4583
S':'
asbag61
(g82
g63
NtRp4584
(dp4585
g66
(dp4586
sg75
g4571
sg68
(lp4587
g61
(g62
g63
NtRp4588
(dp4589
g66
(dp4590
g74
I5
ssg75
g4584
sg68
(lp4591
g61
(g70
g63
NtRp4592
(dp4593
g66
(dp4594
g74
I4
ssg75
Nsg68
(lp4595
g61
(g77
g63
NtRp4596
(dp4597
g66
(dp4598
sg75
g4592
sg68
(lp4599
g61
(g82
g63
NtRp4600
(dp4601
g66
(dp4602
g86
g87
ssg75
g4596
sg68
(lp4603
S'author'
p4604
asbag61
(g82
g63
NtRp4605
(dp4606
g66
(dp4607
g93
g94
ssg75
g4596
sg68
(lp4608
S':'
asbag61
(g82
g63
NtRp4609
(dp4610
g66
(dp4611
sg75
g4596
sg68
(lp4612
g61
(g62
g63
NtRp4613
(dp4614
g66
(dp4615
g74
I4
ssg75
g4609
sg68
(lp4616
S'Your Name <you@example.com>'
p4617
asbasbasbag61
(g77
g63
NtRp4618
(dp4619
g66
(dp4620
sg75
g4592
sg68
(lp4621
g61
(g82
g63
NtRp4622
(dp4623
g66
(dp4624
g86
g87
ssg75
g4618
sg68
(lp4625
S'description'
p4626
asbag61
(g82
g63
NtRp4627
(dp4628
g66
(dp4629
g93
g94
ssg75
g4618
sg68
(lp4630
S':'
asbag61
(g82
g63
NtRp4631
(dp4632
g66
(dp4633
sg75
g4618
sg68
(lp4634
g61
(g62
g63
NtRp4635
(dp4636
g66
(dp4637
g74
I4
ssg75
g4631
sg68
(lp4638
S'a cool new app'
p4639
asbasbasbag61
(g77
g63
NtRp4640
(dp4641
g66
(dp4642
sg75
g4592
sg68
(lp4643
g61
(g82
g63
NtRp4644
(dp4645
g66
(dp4646
g86
g87
ssg75
g4640
sg68
(lp4647
S'generator'
p4648
asbag61
(g82
g63
NtRp4649
(dp4650
g66
(dp4651
g93
g94
ssg75
g4640
sg68
(lp4652
S':'
asbag61
(g82
g63
NtRp4653
(dp4654
g66
(dp4655
sg75
g4640
sg68
(lp4656
g61
(g62
g63
NtRp4657
(dp4658
g66
(dp4659
g74
I4
ssg75
g4653
sg68
(lp4660
S'Web2py Web Framework'
p4661
asbasbasbag61
(g77
g63
NtRp4662
(dp4663
g66
(dp4664
sg75
g4592
sg68
(lp4665
g61
(g82
g63
NtRp4666
(dp4667
g66
(dp4668
g86
g87
ssg75
g4662
sg68
(lp4669
S'keywords'
p4670
asbag61
(g82
g63
NtRp4671
(dp4672
g66
(dp4673
g93
g94
ssg75
g4662
sg68
(lp4674
S':'
asbag61
(g82
g63
NtRp4675
(dp4676
g66
(dp4677
sg75
g4662
sg68
(lp4678
g61
(g62
g63
NtRp4679
(dp4680
g66
(dp4681
g74
I4
ssg75
g4675
sg68
(lp4682
S'web2py, python, framework'
p4683
asbasbasbasbasbasbasbag61
(g77
g63
NtRp4684
(dp4685
g66
(dp4686
sg75
g3398
sg68
(lp4687
g61
(g82
g63
NtRp4688
(dp4689
g66
(dp4690
g86
g87
ssg75
g4684
sg68
(lp4691
S'models_to_run'
p4692
asbag61
(g82
g63
NtRp4693
(dp4694
g66
(dp4695
g93
g94
ssg75
g4684
sg68
(lp4696
S':'
asbag61
(g82
g63
NtRp4697
(dp4698
g66
(dp4699
sg75
g4684
sg68
(lp4700
g61
(g62
g63
NtRp4701
(dp4702
g66
(dp4703
g74
I5
ssg75
g4697
sg68
(lp4704
g61
(g70
g63
NtRp4705
(dp4706
g66
(dp4707
g74
I4
ssg75
Nsg68
(lp4708
g61
(g77
g63
NtRp4709
(dp4710
g66
(dp4711
sg75
g4705
sg68
(lp4712
g61
(g82
g63
NtRp4713
(dp4714
g66
(dp4715
sg75
g4709
sg68
(lp4716
g61
(g62
g63
NtRp4717
(dp4718
g66
(dp4719
g74
I4
ssg75
g4713
sg68
(lp4720
S'^\\w+\\.py$'
p4721
asbasbasbag61
(g77
g63
NtRp4722
(dp4723
g66
(dp4724
sg75
g4705
sg68
(lp4725
g61
(g82
g63
NtRp4726
(dp4727
g66
(dp4728
sg75
g4722
sg68
(lp4729
g61
(g62
g63
NtRp4730
(dp4731
g66
(dp4732
g74
I4
ssg75
g4726
sg68
(lp4733
S'^initial/\\w+\\.py$'
p4734
asbasbasbag61
(g77
g63
NtRp4735
(dp4736
g66
(dp4737
sg75
g4705
sg68
(lp4738
g61
(g82
g63
NtRp4739
(dp4740
g66
(dp4741
sg75
g4735
sg68
(lp4742
g61
(g62
g63
NtRp4743
(dp4744
g66
(dp4745
g74
I4
ssg75
g4739
sg68
(lp4746
S'^initial/principal/\\w+\\.py$'
p4747
asbasbasbasbasbasbasbag61
(g77
g63
NtRp4748
(dp4749
g66
(dp4750
sg75
g3398
sg68
(lp4751
g61
(g82
g63
NtRp4752
(dp4753
g66
(dp4754
g86
g87
ssg75
g4748
sg68
(lp4755
S'postprocessing'
p4756
asbag61
(g82
g63
NtRp4757
(dp4758
g66
(dp4759
g93
g94
ssg75
g4748
sg68
(lp4760
S':'
asbag61
(g82
g63
NtRp4761
(dp4762
g66
(dp4763
sg75
g4748
sg68
(lp4764
g61
(g62
g63
NtRp4765
(dp4766
g66
(dp4767
g74
I5
ssg75
g4761
sg68
(lp4768
g61
(g70
g63
NtRp4769
(dp4770
g66
(dp4771
g74
I4
ssg75
Nsg68
(lp4772
sbasbasbasbag61
(g77
g63
NtRp4773
(dp4774
g66
(dp4775
sg75
g3398
sg68
(lp4776
g61
(g82
g63
NtRp4777
(dp4778
g66
(dp4779
g86
g87
ssg75
g4773
sg68
(lp4780
S'session_cookie_expires'
p4781
asbag61
(g82
g63
NtRp4782
(dp4783
g66
(dp4784
g93
g94
ssg75
g4773
sg68
(lp4785
S':'
asbag61
(g82
g63
NtRp4786
(dp4787
g66
(dp4788
sg75
g4773
sg68
(lp4789
g61
(g62
g63
NtRp4790
(dp4791
g66
(dp4792
g74
I5
ssg75
g4786
sg68
(lp4793
S'None'
p4794
asbasbasbag61
(g77
g63
NtRp4795
(dp4796
g66
(dp4797
sg75
g3398
sg68
(lp4798
g61
(g82
g63
NtRp4799
(dp4800
g66
(dp4801
g86
g87
ssg75
g4795
sg68
(lp4802
S'session_data_name'
p4803
asbag61
(g82
g63
NtRp4804
(dp4805
g66
(dp4806
g93
g94
ssg75
g4795
sg68
(lp4807
S':'
asbag61
(g82
g63
NtRp4808
(dp4809
g66
(dp4810
sg75
g4795
sg68
(lp4811
g61
(g62
g63
NtRp4812
(dp4813
g66
(dp4814
g74
I5
ssg75
g4808
sg68
(lp4815
S'session_data_projeto'
p4816
asbasbasbag61
(g77
g63
NtRp4817
(dp4818
g66
(dp4819
sg75
g3398
sg68
(lp4820
g61
(g82
g63
NtRp4821
(dp4822
g66
(dp4823
g86
g87
ssg75
g4817
sg68
(lp4824
S'session_file'
p4825
asbag61
(g82
g63
NtRp4826
(dp4827
g66
(dp4828
g93
g94
ssg75
g4817
sg68
(lp4829
S':'
asbag61
(g82
g63
NtRp4830
(dp4831
g66
(dp4832
sg75
g4817
sg68
(lp4833
g61
(g62
g63
NtRp4834
(dp4835
g66
(dp4836
g74
I5
ssg75
g4830
sg68
(lp4837
S"<open file '/var/www/conferencia/applications/projeto/sessions/127.0.0.1-0fe02c32-0739-4f06-a369-3bba6377da8b', mode 'rb+' at 0x2c65660>"
p4838
asbasbasbag61
(g77
g63
NtRp4839
(dp4840
g66
(dp4841
sg75
g3398
sg68
(lp4842
g61
(g82
g63
NtRp4843
(dp4844
g66
(dp4845
g86
g87
ssg75
g4839
sg68
(lp4846
S'session_filename'
p4847
asbag61
(g82
g63
NtRp4848
(dp4849
g66
(dp4850
g93
g94
ssg75
g4839
sg68
(lp4851
S':'
asbag61
(g82
g63
NtRp4852
(dp4853
g66
(dp4854
sg75
g4839
sg68
(lp4855
g61
(g62
g63
NtRp4856
(dp4857
g66
(dp4858
g74
I5
ssg75
g4852
sg68
(lp4859
S'/var/www/conferencia/applications/projeto/sessions/127.0.0.1-0fe02c32-0739-4f06-a369-3bba6377da8b'
p4860
asbasbasbag61
(g77
g63
NtRp4861
(dp4862
g66
(dp4863
sg75
g3398
sg68
(lp4864
g61
(g82
g63
NtRp4865
(dp4866
g66
(dp4867
g86
g87
ssg75
g4861
sg68
(lp4868
S'session_id'
p4869
asbag61
(g82
g63
NtRp4870
(dp4871
g66
(dp4872
g93
g94
ssg75
g4861
sg68
(lp4873
S':'
asbag61
(g82
g63
NtRp4874
(dp4875
g66
(dp4876
sg75
g4861
sg68
(lp4877
g61
(g62
g63
NtRp4878
(dp4879
g66
(dp4880
g74
I5
ssg75
g4874
sg68
(lp4881
g479
asbasbasbag61
(g77
g63
NtRp4882
(dp4883
g66
(dp4884
sg75
g3398
sg68
(lp4885
g61
(g82
g63
NtRp4886
(dp4887
g66
(dp4888
g86
g87
ssg75
g4882
sg68
(lp4889
S'session_id_name'
p4890
asbag61
(g82
g63
NtRp4891
(dp4892
g66
(dp4893
g93
g94
ssg75
g4882
sg68
(lp4894
S':'
asbag61
(g82
g63
NtRp4895
(dp4896
g66
(dp4897
sg75
g4882
sg68
(lp4898
g61
(g62
g63
NtRp4899
(dp4900
g66
(dp4901
g74
I5
ssg75
g4895
sg68
(lp4902
g3455
asbasbasbag61
(g77
g63
NtRp4903
(dp4904
g66
(dp4905
sg75
g3398
sg68
(lp4906
g61
(g82
g63
NtRp4907
(dp4908
g66
(dp4909
g86
g87
ssg75
g4903
sg68
(lp4910
S'session_locked'
p4911
asbag61
(g82
g63
NtRp4912
(dp4913
g66
(dp4914
g93
g94
ssg75
g4903
sg68
(lp4915
S':'
asbag61
(g82
g63
NtRp4916
(dp4917
g66
(dp4918
sg75
g4903
sg68
(lp4919
g61
(g62
g63
NtRp4920
(dp4921
g66
(dp4922
g74
I5
ssg75
g4916
sg68
(lp4923
g1540
asbasbasbag61
(g77
g63
NtRp4924
(dp4925
g66
(dp4926
sg75
g3398
sg68
(lp4927
g61
(g82
g63
NtRp4928
(dp4929
g66
(dp4930
g86
g87
ssg75
g4924
sg68
(lp4931
S'session_new'
p4932
asbag61
(g82
g63
NtRp4933
(dp4934
g66
(dp4935
g93
g94
ssg75
g4924
sg68
(lp4936
S':'
asbag61
(g82
g63
NtRp4937
(dp4938
g66
(dp4939
sg75
g4924
sg68
(lp4940
g61
(g62
g63
NtRp4941
(dp4942
g66
(dp4943
g74
I5
ssg75
g4937
sg68
(lp4944
g104
asbasbasbag61
(g77
g63
NtRp4945
(dp4946
g66
(dp4947
sg75
g3398
sg68
(lp4948
g61
(g82
g63
NtRp4949
(dp4950
g66
(dp4951
g86
g87
ssg75
g4945
sg68
(lp4952
S'session_storage_type'
p4953
asbag61
(g82
g63
NtRp4954
(dp4955
g66
(dp4956
g93
g94
ssg75
g4945
sg68
(lp4957
S':'
asbag61
(g82
g63
NtRp4958
(dp4959
g66
(dp4960
sg75
g4945
sg68
(lp4961
g61
(g62
g63
NtRp4962
(dp4963
g66
(dp4964
g74
I5
ssg75
g4958
sg68
(lp4965
g2963
asbasbasbag61
(g77
g63
NtRp4966
(dp4967
g66
(dp4968
sg75
g3398
sg68
(lp4969
g61
(g82
g63
NtRp4970
(dp4971
g66
(dp4972
g86
g87
ssg75
g4966
sg68
(lp4973
S'status'
p4974
asbag61
(g82
g63
NtRp4975
(dp4976
g66
(dp4977
g93
g94
ssg75
g4966
sg68
(lp4978
S':'
asbag61
(g82
g63
NtRp4979
(dp4980
g66
(dp4981
sg75
g4966
sg68
(lp4982
g61
(g62
g63
NtRp4983
(dp4984
g66
(dp4985
g74
I5
ssg75
g4979
sg68
(lp4986
S'200'
p4987
asbasbasbag61
(g77
g63
NtRp4988
(dp4989
g66
(dp4990
sg75
g3398
sg68
(lp4991
g61
(g82
g63
NtRp4992
(dp4993
g66
(dp4994
g86
g87
ssg75
g4988
sg68
(lp4995
S'subtitle'
p4996
asbag61
(g82
g63
NtRp4997
(dp4998
g66
(dp4999
g93
g94
ssg75
g4988
sg68
(lp5000
S':'
asbag61
(g82
g63
NtRp5001
(dp5002
g66
(dp5003
sg75
g4988
sg68
(lp5004
g61
(g62
g63
NtRp5005
(dp5006
g66
(dp5007
g74
I5
ssg75
g5001
sg68
(lp5008
g3930
(S's\r\x00\x00\x00customize me!'
tRp5009
asbasbasbag61
(g77
g63
NtRp5010
(dp5011
g66
(dp5012
sg75
g3398
sg68
(lp5013
g61
(g82
g63
NtRp5014
(dp5015
g66
(dp5016
g86
g87
ssg75
g5010
sg68
(lp5017
S'title'
p5018
asbag61
(g82
g63
NtRp5019
(dp5020
g66
(dp5021
g93
g94
ssg75
g5010
sg68
(lp5022
S':'
asbag61
(g82
g63
NtRp5023
(dp5024
g66
(dp5025
sg75
g5010
sg68
(lp5026
g61
(g62
g63
NtRp5027
(dp5028
g66
(dp5029
g74
I5
ssg75
g5023
sg68
(lp5030
S'Projeto'
p5031
asbasbasbag61
(g77
g63
NtRp5032
(dp5033
g66
(dp5034
sg75
g3398
sg68
(lp5035
g61
(g82
g63
NtRp5036
(dp5037
g66
(dp5038
g86
g87
ssg75
g5032
sg68
(lp5039
S'view'
p5040
asbag61
(g82
g63
NtRp5041
(dp5042
g66
(dp5043
g93
g94
ssg75
g5032
sg68
(lp5044
S':'
asbag61
(g82
g63
NtRp5045
(dp5046
g66
(dp5047
sg75
g5032
sg68
(lp5048
g61
(g62
g63
NtRp5049
(dp5050
g66
(dp5051
g74
I5
ssg75
g5045
sg68
(lp5052
S'initial/principal.html'
p5053
asbasbasbasbasbsS'locals'
p5054
(dp5055
S'exc'
p5056
S'ProgrammingError(\'ERROR\', \'42P16\', \'multiple primary keys for table "meetme" are not allowed\')'
p5057
sS'msg_class'
p5058
S"<class 'gluon.contrib.pg8000.protocol.ReadyForQuery'>"
p5059
sS'self'
p5060
S'<gluon.contrib.pg8000.protocol.MessageReader object>'
p5061
sg46
S'()'
p5062
sS'handler'
p5063
S'<function <lambda>>'
p5064
sS'kwargs'
p5065
g21
sS'msg'
p5066
S'<ReadyForQuery Idle in Failed Transaction>'
p5067
sS'msg_handled'
p5068
g1540
sS'retval'
p5069
S'1'
sssS'traceback'
p5070
S'Traceback (most recent call last):\n  File "/var/www/conferencia/gluon/restricted.py", line 212, in restricted\n    exec ccode in environment\n  File "/var/www/conferencia/applications/projeto/models/models.py", line 14, in <module>\n    primarykey=[\'confno\']\n  File "/var/www/conferencia/gluon/dal.py", line 7186, in define_table\n    table = self.lazy_define_table(tablename,*fields,**args)\n  File "/var/www/conferencia/gluon/dal.py", line 7222, in lazy_define_table\n    polymodel=polymodel)\n  File "/var/www/conferencia/gluon/dal.py", line 935, in create_table\n    self.create_sequence_and_triggers(query,table)\n  File "/var/www/conferencia/gluon/dal.py", line 2483, in create_sequence_and_triggers\n    self.execute(query)\n  File "/var/www/conferencia/gluon/dal.py", line 1709, in execute\n    return self.log_execute(*a, **b)\n  File "/var/www/conferencia/gluon/dal.py", line 1703, in log_execute\n    ret = self.cursor.execute(*a, **b)\n  File "/var/www/conferencia/gluon/contrib/pg8000/dbapi.py", line 246, in _fn\n    return fn(self, *args, **kwargs)\n  File "/var/www/conferencia/gluon/contrib/pg8000/dbapi.py", line 317, in execute\n    self._execute(operation, args)\n  File "/var/www/conferencia/gluon/contrib/pg8000/dbapi.py", line 322, in _execute\n    self.cursor.execute(new_query, *new_args)\n  File "/var/www/conferencia/gluon/contrib/pg8000/interface.py", line 399, in execute\n    self._stmt.execute(*args, **kwargs)\n  File "/var/www/conferencia/gluon/contrib/pg8000/interface.py", line 169, in execute\n    self._row_desc, cmd = self.c.bind(self._portal_name, self._statement_name, args, self._parse_row_desc, kwargs.get("stream"))\n  File "/var/www/conferencia/gluon/contrib/pg8000/protocol.py", line 943, in _fn\n    return fn(self, *args, **kwargs)\n  File "/var/www/conferencia/gluon/contrib/pg8000/protocol.py", line 1142, in bind\n    return reader.handle_messages()\n  File "/var/www/conferencia/gluon/contrib/pg8000/protocol.py", line 911, in handle_messages\n    retval = handler(msg, *args, **kwargs)\n  File "/var/www/conferencia/gluon/contrib/pg8000/protocol.py", line 1181, in _bind_nodata\n    reader.handle_messages()\n  File "/var/www/conferencia/gluon/contrib/pg8000/protocol.py", line 916, in handle_messages\n    raise exc\nProgrammingError: (\'ERROR\', \'42P16\', \'multiple primary keys for table "meetme" are not allowed\')\n'
p5071
s.