(dp1
S'output'
p2
S'<class \'gluon.contrib.pg8000.errors.ProgrammingError\'> (\'ERROR\', \'42P01\', \'relation "usuario" does not exist\')'
p3
sS'layer'
p4
S'/var/www/conferencia/applications/projeto/controllers/initial.py'
p5
sS'code'
p6
S'# coding: utf-8\n\ndef show_cliente():\n\tresponse.title="Eventos"\n\n\tgrid = SQLFORM.grid(db.meetme,\n\t\tuser_signature=False, searchable=True, csv=False, \n\t\tpaginate=50, details=False,  \n\t\tignore_rw = True, maxtextlength=36, \n    \t)\n\treturn response.render("initial/show_grid.html", grid=grid)\n\n@auth.requires_login()\ndef show_servidor():\n\tresponse.title="Servidores"\n\n\tdb.args=Servidor.id.readable=False\n\tgrid = SQLFORM.grid(Servidor,\n\t\tuser_signature=True, searchable=True, csv=False,\n\t\tpaginate=50, details=False, \n\t\tignore_rw = True, maxtextlength=26,\n\t\tcreate=auth.has_membership("admin"),\n\t\teditable=auth.has_membership("admin"),\n\t\tdeletable=auth.has_membership("admin"),  \n    \tlinks = [lambda row: A(\'hosts\', _class=\'btn\', \n    \t\t_title=\'ver servidores\', \n    \t\t_href=URL("initial", "/servidor_host", \n    \t\tvars=dict(f=row.id, n1=\'Servidores\', p1=\'show_servidor\')))]\n\t\t)\n\treturn response.render("initial/show_grid.html", grid=grid)\n\n@auth.requires_login()\ndef show_distro():\n\tresponse.title="Distribui\xc3\xa7\xc3\xb5es"\n\n\tdb.args=Distro.id.readable=False\n\tdb.args=Distro.img.readable=False\n\tgrid = SQLFORM.grid(Distro,\n\t\tuser_signature=True, searchable=True, csv=False,\n\t\tpaginate=50, details=False, ignore_rw = True, \n\t\tmaxtextlength=26, links_placement=\'left\',\n\t\tcreate=auth.has_membership("admin"),\n\t\teditable=auth.has_membership("admin"),\n\t\tdeletable=auth.has_membership("admin"),  \n    \tlinks = [lambda row: A(\'hosts\', \n    \t\t_class=\'btn\', \n    \t\t_title=\'ver servidores\', \n    \t\t_href=URL("initial", "/distro_host", \n    \t\tvars=dict(f=row.id, n1=\'Distros\', p1=\'show_distro\'))), \n    \tdict(header=\'\',body=lambda row: A( IMG(_src=URL("static", "images", args=(row.img) ))))]\n\t\t)\n\treturn response.render("initial/show_grid.html", grid=grid)\n\n\n@auth.requires_login()\ndef cliente_host():\n\tfiltro = request.vars[\'f\']\n\tqueryset = db(db.cliente.id == filtro)\n\trows = queryset.select()\n\tcliente = rows[0]\n\tresponse.title = cliente.nome\n\tprint cliente\n\n\tnome_ant1 = request.vars[\'n1\']\n\tfuncao_ant1 = request.vars[\'p1\']\n\tnome_atual = cliente.nome\n\n\tquery = ((db.hosts.id_cliente == filtro) & (db.distro.id == db.hosts.id_distro))\n\tlinks = [dict(header=\'\',body=lambda row: A( IMG(_src=URL("static", "images", args=(row.distro.img)) ))), \n\t lambda row: A(\'Detalhes\', \n    \t\t      _class=\'btn\', \n    \t\t      _title=\'Detalhes\', \n    \t\t      _href=URL("initial", "/detalhes_nav", \n    \t\t      vars=dict(f=row.hosts.id, c=filtro, n=cliente.nome, \n    \t\t      \t\t\tn1=\'Clientes\', p1=\'show_cliente\', p=\'cliente_host\'))),\n\t lambda row: A(\'Editar\', \n    \t\t      _class=\'btn\', \n    \t\t      _title=\'Editar\', \n    \t\t      _href=URL("initial", "/edit_host", \n    \t\t      vars=dict(f=row.hosts.id, c=filtro, n=cliente.nome, \n    \t\t      \t\tn1=\'Clientes\', p1=\'show_cliente\', p=\'cliente_host\')))]\n\tdb.hosts.id.readable=False\n\tdb.distro.img.readable=False\n\t\n\tfields = (db.hosts.id, db.hosts.id_servidor, db.hosts.id_distro, db.distro.img, \n\t\t\t  db.hosts.ip_chegada, db.hosts.porta_ssh, db.hosts.gateway)\n\theaders = {\'hosts.id\':   \'ID\',\n\t\t\t   \'hosts.id_cliente\': \'Cliente\',\n               \'hosts.id_servidor\': \'Servidor\',\n               \'hosts.id_distro\': \'Distro\',\n               \'hosts.nome\': \'Nome\',\n\t           \'hosts.servicos\': \'Servicos\'}\n\tgrid = SQLFORM.grid(query=query, fields=fields, headers=headers, csv=False,\n\t\t\t\t\t\tdetails=False, searchable=False, maxtextlength=23, links=links, \n\t\t\t\t\t\tlinks_placement=\'left\', editable=False, create=False)\n\n\treturn response.render("initial/show_grid2.html", grid=grid, nome_ant1=nome_ant1, \n\t\t\t\t\t\tfuncao_ant1=funcao_ant1, nome_atual=nome_atual)\n\n@auth.requires_login()\ndef servidor_host():\n\tfiltro = request.vars[\'f\']\n\tqueryset = db(db.servidor.id == filtro)\n\trows = queryset.select()\n\tservidor = rows[0]\n\tresponse.title = servidor.nome\n\n\tnome_ant1 = request.vars[\'n1\']\n\tfuncao_ant1 = request.vars[\'p1\']\n\tnome_atual = servidor.nome\t\n\n\tdb.distro.img.readable=False\n\tdb.hosts.id.readable=False\n\tquery = ((db.hosts.id_servidor == filtro) & (db.distro.id == db.hosts.id_distro))\n\n\tlinks = [dict(header=\'\',body=lambda row: A( IMG(_src=URL("static", "images", args=(row.distro.img)) ))), \n\t lambda row: A(\'Detalhes\', \n    \t\t      _class=\'btn\', \n    \t\t      _title=\'Detalhes\', \n    \t\t      _href=URL("initial", "/detalhes_nav", \n    \t\t      vars=dict(f=row.hosts.id, c=filtro, n=servidor.nome, \n    \t\t      \t\tn1=\'Servidores\', p1=\'show_servidor\', p=\'servidor_host\'))),\n\t lambda row: A(\'Editar\', \n    \t\t      _class=\'btn\', \n    \t\t      _title=\'Editar\', \n    \t\t      _href=URL("initial", "/edit_host", \n    \t\t      vars=dict(f=row.hosts.id, c=filtro, n=servidor.nome, \n    \t\t      \t\tn1=\'Servidores\', p1=\'show_servidor\', p=\'servidor_host\')))]\n\n\tfields = (db.hosts.id, db.hosts.id_cliente, db.hosts.id_distro, db.distro.img, \n\t\t\t\tdb.hosts.ip_chegada, db.hosts.porta_ssh, db.hosts.gateway)\n\theaders = {\'hosts.id\':   \'ID\',\n\t\t\t   \'hosts.id_cliente\': \'Cliente\',\n               \'hosts.id_servidor\': \'Servidor\',\n               \'hosts.id_distro\': \'Distro\',\n               \'hosts.nome\': \'Nome\',\n\t           \'hosts.servicos\': \'Servicos\'}\n\tgrid = SQLFORM.grid(query=query, fields=fields, headers=headers, csv=False,\n\t\t\t\t\t\tdetails=False, searchable=False, maxtextlength=23, links=links, \n\t\t\t\t\t\tlinks_placement=\'left\', editable=False, create=False)\n\n\treturn response.render("initial/show_grid2.html", grid=grid, nome_ant1=nome_ant1, \n\t\t\t\t\t\tfuncao_ant1=funcao_ant1, nome_atual=nome_atual)\n\n@auth.requires_login()\ndef distro_host():\n\tfiltro = request.vars[\'f\']\n\tqueryset = db(db.distro.id == filtro)\n\trows = queryset.select()\n\tdistro = rows[0]\n\tresponse.title = distro.nome\n\n\tnome_ant1 = request.vars[\'n1\']\n\tfuncao_ant1 = request.vars[\'p1\']\n\tnome_atual = distro.nome\t\n\t\n\tdb.hosts.id.readable=False\n\tdb.distro.img.readable=False\n\tquery = ((db.hosts.id_distro == filtro) & (db.distro.id == db.hosts.id_distro))\n\tlinks = [dict(header=\'\',body=lambda row: A( IMG(_src=URL("static", "images", args=(row.distro.img)) ))), \n\t lambda row: A(\'Detalhes\', \n    \t\t      _class=\'btn\', \n    \t\t      _title=\'Detalhes\', \n    \t\t      _href=URL("initial", "/detalhes_nav", \n    \t\t      vars=dict(f=row.hosts.id, c=filtro, n=distro.nome, \n    \t\t      \t\tn1=\'Distros\', p1=\'show_distro\', p=\'distro_host\'))),\n\t lambda row: A(\'Editar\', \n    \t\t      _class=\'btn\', \n    \t\t      _title=\'Editar\', \n    \t\t      _href=URL("initial", "/edit_host", \n    \t\t      vars=dict(f=row.hosts.id, c=filtro, n=distro.nome, \n    \t\t      \t\tn1=\'Distros\', p1=\'show_distro\', p=\'distro_host\')))]\n\n\tfields = (db.hosts.id, db.hosts.id_cliente, db.hosts.id_servidor, db.distro.img, \n\t\t\t  db.hosts.ip_chegada, db.hosts.porta_ssh, db.hosts.gateway)\n\theaders = {\'hosts.id\':   \'ID\',\n\t\t\t\t\'hosts.id_cliente\': \'Cliente\',\n               \'hosts.id_servidor\': \'Servidor\',\n               \'hosts.id_distro\': \'Distro\',\n               \'hosts.nome\': \'Nome\',\n\t           \'hosts.servicos\': \'Servicos\'}\n\tgrid = SQLFORM.grid(query=query, fields=fields, headers=headers, csv=False,\n\t\t\t\t\t\tdetails=False, searchable=False, maxtextlength=23, links=links, \n\t\t\t\t\t\tlinks_placement=\'left\', editable=False, create=False)\n\n\treturn response.render("initial/show_grid2.html", grid=grid, nome_ant1=nome_ant1, \n\t\t\t\t\t\tfuncao_ant1=funcao_ant1, nome_atual=nome_atual)\n\ndef detalhes_nav():\n\t#detalhes\n\tfiltro = request.vars[\'f\'] #id_host\n\tid_cliente = request.vars[\'c\'] #id_cliente\n\tnome_ant = request.vars[\'n\'] #nome (asterisk ou agronelli ou debian)\n\tnome_ant1 = request.vars[\'n1\'] #nome (servidores ou clientes ou distros)\n\tfuncao_ant = request.vars[\'p\'] #funcao(host_servidores)\n\tfuncao_ant1 = request.vars[\'p1\'] #funcao(show_servidores)\n\t\n\n\tquery = ((db.hosts.id == filtro) & (db.hosts.id_cliente == db.cliente.id)\n\t \t    & (db.hosts.id_servidor == db.servidor.id) \n\t \t    & (db.hosts.id_distro == db.distro.id)) \n\tdetalhes = db.hosts(query)\n\t\n\t\n\treturn response.render("initial/detalhes_host.html", detalhes=detalhes, \n\t\t\t\tid_cliente=id_cliente, funcao_ant=funcao_ant, funcao_ant1=funcao_ant1, \n\t\t\t\tnome_ant=nome_ant, nome_ant1=nome_ant1, filtro=filtro)\n\n\ndef edit_host():\n    form = SQLFORM(db.hosts, request.vars[\'f\'], submit_button=\'Editar\', fields = [\'id_cliente\', \'id_servidor\', \'id_distro\', \'servicos\',\n\t\t\t\t\'if1\', \'ip1\', \'masc1\', \'obs1\', \'if2\', \'ip2\', \'masc2\', \'obs2\',\n\t\t\t\t\'if3\', \'ip3\', \'masc3\', \'obs3\', \'if4\', \'ip4\', \'masc4\', \'obs4\',\n\t\t\t\t\'nome\', \'ip_chegada\', \'porta_ssh\', \'gateway\', \'rotas\', \'obs_gerais\'],\n\t\t\t\tlabels = {\'id_cliente\':\'Cliente\', \'id_servidor\':\'Servidor\', \'id_distro\':\'Distro\',\n\t\t\t\t\'if1\':\'Interface 1\', \'ip1\':\'IP\', \'masc1\':\'M\xc3\xa1scara\', \'obs1\':\'Obs\',\n\t\t\t\t\'if2\':\'Interface 2\', \'ip2\':\'IP\', \'masc2\':\'M\xc3\xa1scara\', \'obs2\':\'Obs\',\n\t\t\t\t\'if3\':\'Interface 3\', \'ip3\':\'IP\', \'masc3\':\'M\xc3\xa1scara\', \'obs3\':\'Obs\',\n\t\t\t\t\'if4\':\'Interface 4\', \'ip4\':\'IP\', \'masc4\':\'M\xc3\xa1scara\', \'obs4\':\'Obs\'})\n\n    if form.process().accepted:\n       response.flash = \'Editado com sucesso\'\n    elif form.errors:\n       response.flash = \'Ops, algo n\xc3\xa3o est\xc3\xa1 correto\'\n    else:\n       response.flash = \'Edite os dados do host\'\n\n    return response.render("initial/show_form.html", form=form, id_cliente = request.vars[\'c\'], \n    \t\t\t\tnome_ant = request.vars[\'n\'], nome_ant1 = request.vars[\'n1\'], \n    \t\t\t\tfuncao_ant = request.vars[\'p\'], funcao_ant1 = request.vars[\'p1\'])\n\n\n@auth.requires_login()\ndef interface():\n\t#adicionar\n    form = SQLFORM(db.hosts, submit_button=\'Adicionar\', \n    \t\t\tfields = [\'id_cliente\', \'id_servidor\', \'id_distro\', \'servicos\',\n\t\t\t\t\'if1\', \'ip1\', \'masc1\', \'obs1\', \'if2\', \'ip2\', \'masc2\', \'obs2\',\n\t\t\t\t\'if3\', \'ip3\', \'masc3\', \'obs3\', \'if4\', \'ip4\', \'masc4\', \'obs4\',\n\t\t\t\t\'nome\', \'ip_chegada\', \'porta_ssh\', \'gateway\', \'rotas\', \'obs_gerais\'], \n\t\t\t\tlabels = {\'id_cliente\':\'Cliente\', \'id_servidor\':\'Servidor\', \'id_distro\':\'Distro\',\n\t\t\t\t\'if1\':\'Interface 1\', \'ip1\':\'IP\', \'masc1\':\'M\xc3\xa1scara\', \'obs1\':\'Obs\',\n\t\t\t\t\'if2\':\'Interface 2\', \'ip2\':\'IP\', \'masc2\':\'M\xc3\xa1scara\', \'obs2\':\'Obs\',\n\t\t\t\t\'if3\':\'Interface 3\', \'ip3\':\'IP\', \'masc3\':\'M\xc3\xa1scara\', \'obs3\':\'Obs\',\n\t\t\t\t\'if4\':\'Interface 4\', \'ip4\':\'IP\', \'masc4\':\'M\xc3\xa1scara\', \'obs4\':\'Obs\'})\n   \n    if form.process().accepted:\n    \thost = request.vars\n    \temail(host)\n    \tresponse.flash = \'Inserido com sucesso\'\t\t\n    elif form.errors:\n       response.flash = \'Ops, algo n\xc3\xa3o est\xc3\xa1 correto\'\n    else:\n       response.flash = \'Insira os dados do novo host\'\n    return response.render("initial/show_form2.html", form=form)\n\ndef about():\n\tfiltro = request.vars[\'f\']\n\tquery = ((db.hosts.id_servidor == filtro) & (db.distro.id == db.hosts.id_distro))\n\tfields = (db.hosts.id, db.hosts.id_cliente, db.hosts.id_distro, db.distro.img, \n\t\t\t\tdb.hosts.ip_chegada, db.hosts.porta_ssh, db.hosts.gateway)\n\theaders = {\'host.id\':   \'ID\',\n               \'host.id_servidor\': \'Servidor\',\n               \'host.id_distro\': \'Distro\',\n               \'host.nome\': \'Nome\',\n\t           \'host.servicos\': \'Servicos\'}\n\tgrid = SQLFORM.grid(query=query, fields=fields, headers=headers, csv=False,\n\t\t\t\t\t\tdetails=False, maxtextlength=23, searchable=True, editable=False, create=False)\n\n\treturn response.render("initial/teste.html", grid=grid,)\n\ndef user():\n\t#if request.args(0) == \'register\':\n    #    \tdb.auth_user.bio.writable = db.auth_user.bio.readable = False\n\treturn response.render("initial/user.html", user=auth())\n\ndef register():\n\treturn auth.register()\n\ndef login():\n        return auth.login()\n\ndef account():\n    return dict(register=auth.register(),\n                login=auth.login())\n\t\ndef download():\n\treturn response.download(request, db)\n\n\ndef principal():\n\tresponse.title="Usu\xc3\xa1rios"\n\n\tgrid = SQLFORM.grid(db.usuario,\n\t\tuser_signature=False, searchable=True, csv=False, \n\t\tpaginate=50, details=False,  \n\t\tignore_rw = True, maxtextlength=36, \n    \t)\n\treturn response.render("initial/show_grid.html", grid=grid)\n\n\t\ndef detalhes_clean():\n\tfiltro = request.vars[\'f\'] #id_host\n\t\t\n\n\tquery = ((db.hosts.id == filtro) & (db.hosts.id_cliente == db.cliente.id)\n\t \t    & (db.hosts.id_servidor == db.servidor.id) \n\t \t    & (db.hosts.id_distro == db.distro.id)) \n\tdetalhes = db.hosts(query)\n\n\t\n\treturn response.render("initial/detalhes_host_clean.html", detalhes=detalhes)\n\ndef email(host):\n\tif auth.has_membership(\'voip\'):\n\t\tmail.send(\n\t\t\tto="fndiaz02@gmail.com",\n\t\t\tsubject="host adicionado",\n\t\t\tmessage="<html>Um novo host foi adicionado pelo usu\xc3\xa1rio %s <br>nome: %s <br>vpn: %s<br><br>\xc3\x89 preciso fazer a instala\xc3\xa7\xc3\xa3o do client zabbix e bacula</html>" % (auth.user.first_name, host.nome, host.ip_chegada,)\n\t\t\t)\n\telif auth.has_membership(\'internet\'):\n\t\tmail.send(\n\t\t\tto="fernando@ad2.com.br",\n\t\t\tsubject="host adicionado",\n\t\t\tmessage="<html>Um novo host foi adicionado pelo usu\xc3\xa1rio %s <br>nome: %s <br>vpn: %s<br><br>\xc3\x89 preciso fazer a instala\xc3\xa7\xc3\xa3o do client zabbix e bacula</html>" % (auth.user.first_name, host.nome, host.ip_chegada,)\n\t\t\t)\n\nresponse._vars=response._caller(principal)\n'
p7
sS'snapshot'
p8
(dp9
S'exception'
p10
(dp11
S'__module__'
p12
S"'gluon.contrib.pg8000.errors'"
p13
sS'__getslice__'
p14
S"<method-wrapper '__getslice__' of ProgrammingError object>"
p15
sS'__str__'
p16
S"<method-wrapper '__str__' of ProgrammingError object>"
p17
sS'__reduce__'
p18
S'<built-in method __reduce__ of ProgrammingError object>'
p19
sS'__dict__'
p20
S'{}'
p21
sS'__sizeof__'
p22
S'<built-in method __sizeof__ of ProgrammingError object>'
p23
sS'__weakref__'
p24
S'None'
p25
sS'__init__'
p26
S"<method-wrapper '__init__' of ProgrammingError object>"
p27
sS'__setattr__'
p28
S"<method-wrapper '__setattr__' of ProgrammingError object>"
p29
sS'__reduce_ex__'
p30
S'<built-in method __reduce_ex__ of ProgrammingError object>'
p31
sS'__new__'
p32
S'<built-in method __new__ of type object>'
p33
sS'__format__'
p34
S'<built-in method __format__ of ProgrammingError object>'
p35
sS'__class__'
p36
S"<class 'gluon.contrib.pg8000.errors.ProgrammingError'>"
p37
sS'__doc__'
p38
S'None'
p39
sS'__getitem__'
p40
S"<method-wrapper '__getitem__' of ProgrammingError object>"
p41
sS'__setstate__'
p42
S'<built-in method __setstate__ of ProgrammingError object>'
p43
sS'__getattribute__'
p44
S"<method-wrapper '__getattribute__' of ProgrammingError object>"
p45
sS'args'
p46
S'(\'ERROR\', \'42P01\', \'relation "usuario" does not exist\')'
p47
sS'__subclasshook__'
p48
S'<built-in method __subclasshook__ of type object>'
p49
sS'__unicode__'
p50
S'<built-in method __unicode__ of ProgrammingError object>'
p51
sS'__delattr__'
p52
S"<method-wrapper '__delattr__' of ProgrammingError object>"
p53
sS'__repr__'
p54
S"<method-wrapper '__repr__' of ProgrammingError object>"
p55
sS'__hash__'
p56
S"<method-wrapper '__hash__' of ProgrammingError object>"
p57
ssS'evalue'
p58
S'(\'ERROR\', \'42P01\', \'relation "usuario" does not exist\')'
p59
sS'request'
p60
ccopy_reg
_reconstructor
p61
(cgluon.html
BEAUTIFY
p62
c__builtin__
object
p63
NtRp64
(dp65
S'attributes'
p66
(dp67
sS'components'
p68
(lp69
g61
(cgluon.html
TABLE
p70
g63
NtRp71
(dp72
g66
(dp73
S'level'
p74
I5
ssS'parent'
p75
Nsg68
(lp76
g61
(cgluon.html
TR
p77
g63
NtRp78
(dp79
g66
(dp80
sg75
g71
sg68
(lp81
g61
(cgluon.html
TD
p82
g63
NtRp83
(dp84
g66
(dp85
S'_style'
p86
S'font-weight:bold;vertical-align:top'
p87
ssg75
g78
sg68
(lp88
S'ajax'
p89
asbag61
(g82
g63
NtRp90
(dp91
g66
(dp92
S'_valign'
p93
S'top'
p94
ssg75
g78
sg68
(lp95
S':'
asbag61
(g82
g63
NtRp96
(dp97
g66
(dp98
sg75
g78
sg68
(lp99
g61
(g62
g63
NtRp100
(dp101
g66
(dp102
g74
I5
ssg75
g96
sg68
(lp103
S'False'
p104
asbasbasbag61
(g77
g63
NtRp105
(dp106
g66
(dp107
sg75
g71
sg68
(lp108
g61
(g82
g63
NtRp109
(dp110
g66
(dp111
g86
g87
ssg75
g105
sg68
(lp112
S'application'
p113
asbag61
(g82
g63
NtRp114
(dp115
g66
(dp116
g93
g94
ssg75
g105
sg68
(lp117
S':'
asbag61
(g82
g63
NtRp118
(dp119
g66
(dp120
sg75
g105
sg68
(lp121
g61
(g62
g63
NtRp122
(dp123
g66
(dp124
g74
I5
ssg75
g118
sg68
(lp125
S'projeto'
p126
asbasbasbag61
(g77
g63
NtRp127
(dp128
g66
(dp129
sg75
g71
sg68
(lp130
g61
(g82
g63
NtRp131
(dp132
g66
(dp133
g86
g87
ssg75
g127
sg68
(lp134
g46
asbag61
(g82
g63
NtRp135
(dp136
g66
(dp137
g93
g94
ssg75
g127
sg68
(lp138
S':'
asbag61
(g82
g63
NtRp139
(dp140
g66
(dp141
sg75
g127
sg68
(lp142
g61
(g62
g63
NtRp143
(dp144
g66
(dp145
g74
I5
ssg75
g139
sg68
(lp146
g61
(g70
g63
NtRp147
(dp148
g66
(dp149
g74
I4
ssg75
Nsg68
(lp150
g61
(g77
g63
NtRp151
(dp152
g66
(dp153
sg75
g147
sg68
(lp154
g61
(g82
g63
NtRp155
(dp156
g66
(dp157
sg75
g151
sg68
(lp158
g61
(g62
g63
NtRp159
(dp160
g66
(dp161
g74
I4
ssg75
g155
sg68
(lp162
S'new'
p163
asbasbasbag61
(g77
g63
NtRp164
(dp165
g66
(dp166
sg75
g147
sg68
(lp167
g61
(g82
g63
NtRp168
(dp169
g66
(dp170
sg75
g164
sg68
(lp171
g61
(g62
g63
NtRp172
(dp173
g66
(dp174
g74
I4
ssg75
g168
sg68
(lp175
S'usuario'
p176
asbasbasbasbasbasbasbag61
(g77
g63
NtRp177
(dp178
g66
(dp179
sg75
g71
sg68
(lp180
g61
(g82
g63
NtRp181
(dp182
g66
(dp183
g86
g87
ssg75
g177
sg68
(lp184
S'body'
p185
asbag61
(g82
g63
NtRp186
(dp187
g66
(dp188
g93
g94
ssg75
g177
sg68
(lp189
S':'
asbag61
(g82
g63
NtRp190
(dp191
g66
(dp192
sg75
g177
sg68
(lp193
g61
(g62
g63
NtRp194
(dp195
g66
(dp196
g74
I5
ssg75
g190
sg68
(lp197
S"<open file '<fdopen>', mode 'w+b' at 0x7f32f80594b0>"
p198
asbasbasbag61
(g77
g63
NtRp199
(dp200
g66
(dp201
sg75
g71
sg68
(lp202
g61
(g82
g63
NtRp203
(dp204
g66
(dp205
g86
g87
ssg75
g199
sg68
(lp206
S'cid'
p207
asbag61
(g82
g63
NtRp208
(dp209
g66
(dp210
g93
g94
ssg75
g199
sg68
(lp211
S':'
asbag61
(g82
g63
NtRp212
(dp213
g66
(dp214
sg75
g199
sg68
(lp215
g61
(g62
g63
NtRp216
(dp217
g66
(dp218
g74
I5
ssg75
g212
sg68
(lp219
S'None'
p220
asbasbasbag61
(g77
g63
NtRp221
(dp222
g66
(dp223
sg75
g71
sg68
(lp224
g61
(g82
g63
NtRp225
(dp226
g66
(dp227
g86
g87
ssg75
g221
sg68
(lp228
S'client'
p229
asbag61
(g82
g63
NtRp230
(dp231
g66
(dp232
g93
g94
ssg75
g221
sg68
(lp233
S':'
asbag61
(g82
g63
NtRp234
(dp235
g66
(dp236
sg75
g221
sg68
(lp237
g61
(g62
g63
NtRp238
(dp239
g66
(dp240
g74
I5
ssg75
g234
sg68
(lp241
S'127.0.0.1'
p242
asbasbasbag61
(g77
g63
NtRp243
(dp244
g66
(dp245
sg75
g71
sg68
(lp246
g61
(g82
g63
NtRp247
(dp248
g66
(dp249
g86
g87
ssg75
g243
sg68
(lp250
S'controller'
p251
asbag61
(g82
g63
NtRp252
(dp253
g66
(dp254
g93
g94
ssg75
g243
sg68
(lp255
S':'
asbag61
(g82
g63
NtRp256
(dp257
g66
(dp258
sg75
g243
sg68
(lp259
g61
(g62
g63
NtRp260
(dp261
g66
(dp262
g74
I5
ssg75
g256
sg68
(lp263
S'initial'
p264
asbasbasbag61
(g77
g63
NtRp265
(dp266
g66
(dp267
sg75
g71
sg68
(lp268
g61
(g82
g63
NtRp269
(dp270
g66
(dp271
g86
g87
ssg75
g265
sg68
(lp272
S'cookies'
p273
asbag61
(g82
g63
NtRp274
(dp275
g66
(dp276
g93
g94
ssg75
g265
sg68
(lp277
S':'
asbag61
(g82
g63
NtRp278
(dp279
g66
(dp280
sg75
g265
sg68
(lp281
g61
(g62
g63
NtRp282
(dp283
g66
(dp284
g74
I5
ssg75
g278
sg68
(lp285
g61
(g70
g63
NtRp286
(dp287
g66
(dp288
g74
I4
ssg75
Nsg68
(lp289
g61
(g77
g63
NtRp290
(dp291
g66
(dp292
sg75
g286
sg68
(lp293
g61
(g82
g63
NtRp294
(dp295
g66
(dp296
g86
g87
ssg75
g290
sg68
(lp297
S'session_id_admin'
p298
asbag61
(g82
g63
NtRp299
(dp300
g66
(dp301
g93
g94
ssg75
g290
sg68
(lp302
S':'
asbag61
(g82
g63
NtRp303
(dp304
g66
(dp305
sg75
g290
sg68
(lp306
g61
(g62
g63
NtRp307
(dp308
g66
(dp309
g74
I4
ssg75
g303
sg68
(lp310
S'127.0.0.1-f08163e7-63a0-4e97-8334-13b9dc892d78'
p311
ag61
(g70
g63
NtRp312
(dp313
g66
(dp314
g74
I3
ssg75
Nsg68
(lp315
g61
(g77
g63
NtRp316
(dp317
g66
(dp318
sg75
g312
sg68
(lp319
g61
(g82
g63
NtRp320
(dp321
g66
(dp322
g86
g87
ssg75
g316
sg68
(lp323
S'comment'
p324
asbag61
(g82
g63
NtRp325
(dp326
g66
(dp327
g93
g94
ssg75
g316
sg68
(lp328
S':'
asbag61
(g82
g63
NtRp329
(dp330
g66
(dp331
sg75
g316
sg68
(lp332
g61
(g62
g63
NtRp333
(dp334
g66
(dp335
g74
I3
ssg75
g329
sg68
(lp336
S''
asbasbasbag61
(g77
g63
NtRp337
(dp338
g66
(dp339
sg75
g312
sg68
(lp340
g61
(g82
g63
NtRp341
(dp342
g66
(dp343
g86
g87
ssg75
g337
sg68
(lp344
S'domain'
p345
asbag61
(g82
g63
NtRp346
(dp347
g66
(dp348
g93
g94
ssg75
g337
sg68
(lp349
S':'
asbag61
(g82
g63
NtRp350
(dp351
g66
(dp352
sg75
g337
sg68
(lp353
g61
(g62
g63
NtRp354
(dp355
g66
(dp356
g74
I3
ssg75
g350
sg68
(lp357
S''
asbasbasbag61
(g77
g63
NtRp358
(dp359
g66
(dp360
sg75
g312
sg68
(lp361
g61
(g82
g63
NtRp362
(dp363
g66
(dp364
g86
g87
ssg75
g358
sg68
(lp365
S'expires'
p366
asbag61
(g82
g63
NtRp367
(dp368
g66
(dp369
g93
g94
ssg75
g358
sg68
(lp370
S':'
asbag61
(g82
g63
NtRp371
(dp372
g66
(dp373
sg75
g358
sg68
(lp374
g61
(g62
g63
NtRp375
(dp376
g66
(dp377
g74
I3
ssg75
g371
sg68
(lp378
S''
asbasbasbag61
(g77
g63
NtRp379
(dp380
g66
(dp381
sg75
g312
sg68
(lp382
g61
(g82
g63
NtRp383
(dp384
g66
(dp385
g86
g87
ssg75
g379
sg68
(lp386
S'httponly'
p387
asbag61
(g82
g63
NtRp388
(dp389
g66
(dp390
g93
g94
ssg75
g379
sg68
(lp391
S':'
asbag61
(g82
g63
NtRp392
(dp393
g66
(dp394
sg75
g379
sg68
(lp395
g61
(g62
g63
NtRp396
(dp397
g66
(dp398
g74
I3
ssg75
g392
sg68
(lp399
S''
asbasbasbag61
(g77
g63
NtRp400
(dp401
g66
(dp402
sg75
g312
sg68
(lp403
g61
(g82
g63
NtRp404
(dp405
g66
(dp406
g86
g87
ssg75
g400
sg68
(lp407
S'max-age'
p408
asbag61
(g82
g63
NtRp409
(dp410
g66
(dp411
g93
g94
ssg75
g400
sg68
(lp412
S':'
asbag61
(g82
g63
NtRp413
(dp414
g66
(dp415
sg75
g400
sg68
(lp416
g61
(g62
g63
NtRp417
(dp418
g66
(dp419
g74
I3
ssg75
g413
sg68
(lp420
S''
asbasbasbag61
(g77
g63
NtRp421
(dp422
g66
(dp423
sg75
g312
sg68
(lp424
g61
(g82
g63
NtRp425
(dp426
g66
(dp427
g86
g87
ssg75
g421
sg68
(lp428
S'path'
p429
asbag61
(g82
g63
NtRp430
(dp431
g66
(dp432
g93
g94
ssg75
g421
sg68
(lp433
S':'
asbag61
(g82
g63
NtRp434
(dp435
g66
(dp436
sg75
g421
sg68
(lp437
g61
(g62
g63
NtRp438
(dp439
g66
(dp440
g74
I3
ssg75
g434
sg68
(lp441
S''
asbasbasbag61
(g77
g63
NtRp442
(dp443
g66
(dp444
sg75
g312
sg68
(lp445
g61
(g82
g63
NtRp446
(dp447
g66
(dp448
g86
g87
ssg75
g442
sg68
(lp449
S'secure'
p450
asbag61
(g82
g63
NtRp451
(dp452
g66
(dp453
g93
g94
ssg75
g442
sg68
(lp454
S':'
asbag61
(g82
g63
NtRp455
(dp456
g66
(dp457
sg75
g442
sg68
(lp458
g61
(g62
g63
NtRp459
(dp460
g66
(dp461
g74
I3
ssg75
g455
sg68
(lp462
S''
asbasbasbag61
(g77
g63
NtRp463
(dp464
g66
(dp465
sg75
g312
sg68
(lp466
g61
(g82
g63
NtRp467
(dp468
g66
(dp469
g86
g87
ssg75
g463
sg68
(lp470
S'version'
p471
asbag61
(g82
g63
NtRp472
(dp473
g66
(dp474
g93
g94
ssg75
g463
sg68
(lp475
S':'
asbag61
(g82
g63
NtRp476
(dp477
g66
(dp478
sg75
g463
sg68
(lp479
g61
(g62
g63
NtRp480
(dp481
g66
(dp482
g74
I3
ssg75
g476
sg68
(lp483
S''
asbasbasbasbasbasbasbag61
(g77
g63
NtRp484
(dp485
g66
(dp486
sg75
g286
sg68
(lp487
g61
(g82
g63
NtRp488
(dp489
g66
(dp490
g86
g87
ssg75
g484
sg68
(lp491
S'session_id_projeto'
p492
asbag61
(g82
g63
NtRp493
(dp494
g66
(dp495
g93
g94
ssg75
g484
sg68
(lp496
S':'
asbag61
(g82
g63
NtRp497
(dp498
g66
(dp499
sg75
g484
sg68
(lp500
g61
(g62
g63
NtRp501
(dp502
g66
(dp503
g74
I4
ssg75
g497
sg68
(lp504
S'127.0.0.1-0fe02c32-0739-4f06-a369-3bba6377da8b'
p505
ag61
(g70
g63
NtRp506
(dp507
g66
(dp508
g74
I3
ssg75
Nsg68
(lp509
g61
(g77
g63
NtRp510
(dp511
g66
(dp512
sg75
g506
sg68
(lp513
g61
(g82
g63
NtRp514
(dp515
g66
(dp516
g86
g87
ssg75
g510
sg68
(lp517
g324
asbag61
(g82
g63
NtRp518
(dp519
g66
(dp520
g93
g94
ssg75
g510
sg68
(lp521
S':'
asbag61
(g82
g63
NtRp522
(dp523
g66
(dp524
sg75
g510
sg68
(lp525
g61
(g62
g63
NtRp526
(dp527
g66
(dp528
g74
I3
ssg75
g522
sg68
(lp529
S''
asbasbasbag61
(g77
g63
NtRp530
(dp531
g66
(dp532
sg75
g506
sg68
(lp533
g61
(g82
g63
NtRp534
(dp535
g66
(dp536
g86
g87
ssg75
g530
sg68
(lp537
g345
asbag61
(g82
g63
NtRp538
(dp539
g66
(dp540
g93
g94
ssg75
g530
sg68
(lp541
S':'
asbag61
(g82
g63
NtRp542
(dp543
g66
(dp544
sg75
g530
sg68
(lp545
g61
(g62
g63
NtRp546
(dp547
g66
(dp548
g74
I3
ssg75
g542
sg68
(lp549
S''
asbasbasbag61
(g77
g63
NtRp550
(dp551
g66
(dp552
sg75
g506
sg68
(lp553
g61
(g82
g63
NtRp554
(dp555
g66
(dp556
g86
g87
ssg75
g550
sg68
(lp557
g366
asbag61
(g82
g63
NtRp558
(dp559
g66
(dp560
g93
g94
ssg75
g550
sg68
(lp561
S':'
asbag61
(g82
g63
NtRp562
(dp563
g66
(dp564
sg75
g550
sg68
(lp565
g61
(g62
g63
NtRp566
(dp567
g66
(dp568
g74
I3
ssg75
g562
sg68
(lp569
S''
asbasbasbag61
(g77
g63
NtRp570
(dp571
g66
(dp572
sg75
g506
sg68
(lp573
g61
(g82
g63
NtRp574
(dp575
g66
(dp576
g86
g87
ssg75
g570
sg68
(lp577
g387
asbag61
(g82
g63
NtRp578
(dp579
g66
(dp580
g93
g94
ssg75
g570
sg68
(lp581
S':'
asbag61
(g82
g63
NtRp582
(dp583
g66
(dp584
sg75
g570
sg68
(lp585
g61
(g62
g63
NtRp586
(dp587
g66
(dp588
g74
I3
ssg75
g582
sg68
(lp589
S''
asbasbasbag61
(g77
g63
NtRp590
(dp591
g66
(dp592
sg75
g506
sg68
(lp593
g61
(g82
g63
NtRp594
(dp595
g66
(dp596
g86
g87
ssg75
g590
sg68
(lp597
g408
asbag61
(g82
g63
NtRp598
(dp599
g66
(dp600
g93
g94
ssg75
g590
sg68
(lp601
S':'
asbag61
(g82
g63
NtRp602
(dp603
g66
(dp604
sg75
g590
sg68
(lp605
g61
(g62
g63
NtRp606
(dp607
g66
(dp608
g74
I3
ssg75
g602
sg68
(lp609
S''
asbasbasbag61
(g77
g63
NtRp610
(dp611
g66
(dp612
sg75
g506
sg68
(lp613
g61
(g82
g63
NtRp614
(dp615
g66
(dp616
g86
g87
ssg75
g610
sg68
(lp617
g429
asbag61
(g82
g63
NtRp618
(dp619
g66
(dp620
g93
g94
ssg75
g610
sg68
(lp621
S':'
asbag61
(g82
g63
NtRp622
(dp623
g66
(dp624
sg75
g610
sg68
(lp625
g61
(g62
g63
NtRp626
(dp627
g66
(dp628
g74
I3
ssg75
g622
sg68
(lp629
S''
asbasbasbag61
(g77
g63
NtRp630
(dp631
g66
(dp632
sg75
g506
sg68
(lp633
g61
(g82
g63
NtRp634
(dp635
g66
(dp636
g86
g87
ssg75
g630
sg68
(lp637
g450
asbag61
(g82
g63
NtRp638
(dp639
g66
(dp640
g93
g94
ssg75
g630
sg68
(lp641
S':'
asbag61
(g82
g63
NtRp642
(dp643
g66
(dp644
sg75
g630
sg68
(lp645
g61
(g62
g63
NtRp646
(dp647
g66
(dp648
g74
I3
ssg75
g642
sg68
(lp649
S''
asbasbasbag61
(g77
g63
NtRp650
(dp651
g66
(dp652
sg75
g506
sg68
(lp653
g61
(g82
g63
NtRp654
(dp655
g66
(dp656
g86
g87
ssg75
g650
sg68
(lp657
g471
asbag61
(g82
g63
NtRp658
(dp659
g66
(dp660
g93
g94
ssg75
g650
sg68
(lp661
S':'
asbag61
(g82
g63
NtRp662
(dp663
g66
(dp664
sg75
g650
sg68
(lp665
g61
(g62
g63
NtRp666
(dp667
g66
(dp668
g74
I3
ssg75
g662
sg68
(lp669
S''
asbasbasbasbasbasbasbasbasbasbasbag61
(g77
g63
NtRp670
(dp671
g66
(dp672
sg75
g71
sg68
(lp673
g61
(g82
g63
NtRp674
(dp675
g66
(dp676
g86
g87
ssg75
g670
sg68
(lp677
S'env'
p678
asbag61
(g82
g63
NtRp679
(dp680
g66
(dp681
g93
g94
ssg75
g670
sg68
(lp682
S':'
asbag61
(g82
g63
NtRp683
(dp684
g66
(dp685
sg75
g670
sg68
(lp686
g61
(g62
g63
NtRp687
(dp688
g66
(dp689
g74
I5
ssg75
g683
sg68
(lp690
g61
(g70
g63
NtRp691
(dp692
g66
(dp693
g74
I4
ssg75
Nsg68
(lp694
g61
(g77
g63
NtRp695
(dp696
g66
(dp697
sg75
g691
sg68
(lp698
g61
(g82
g63
NtRp699
(dp700
g66
(dp701
g86
g87
ssg75
g695
sg68
(lp702
S'app_folders'
p703
asbag61
(g82
g63
NtRp704
(dp705
g66
(dp706
g93
g94
ssg75
g695
sg68
(lp707
S':'
asbag61
(g82
g63
NtRp708
(dp709
g66
(dp710
sg75
g695
sg68
(lp711
g61
(g62
g63
NtRp712
(dp713
g66
(dp714
g74
I4
ssg75
g708
sg68
(lp715
S"set(['/var/www/conferencia/applications/projeto/'])"
p716
asbasbasbag61
(g77
g63
NtRp717
(dp718
g66
(dp719
sg75
g691
sg68
(lp720
g61
(g82
g63
NtRp721
(dp722
g66
(dp723
g86
g87
ssg75
g717
sg68
(lp724
S'applications_parent'
p725
asbag61
(g82
g63
NtRp726
(dp727
g66
(dp728
g93
g94
ssg75
g717
sg68
(lp729
S':'
asbag61
(g82
g63
NtRp730
(dp731
g66
(dp732
sg75
g717
sg68
(lp733
g61
(g62
g63
NtRp734
(dp735
g66
(dp736
g74
I4
ssg75
g730
sg68
(lp737
S'/var/www/conferencia'
p738
asbasbasbag61
(g77
g63
NtRp739
(dp740
g66
(dp741
sg75
g691
sg68
(lp742
g61
(g82
g63
NtRp743
(dp744
g66
(dp745
g86
g87
ssg75
g739
sg68
(lp746
S'cmd_args'
p747
asbag61
(g82
g63
NtRp748
(dp749
g66
(dp750
g93
g94
ssg75
g739
sg68
(lp751
S':'
asbag61
(g82
g63
NtRp752
(dp753
g66
(dp754
sg75
g739
sg68
(lp755
g61
(g62
g63
NtRp756
(dp757
g66
(dp758
g74
I4
ssg75
g752
sg68
(lp759
g61
(g70
g63
NtRp760
(dp761
g66
(dp762
g74
I3
ssg75
Nsg68
(lp763
sbasbasbasbag61
(g77
g63
NtRp764
(dp765
g66
(dp766
sg75
g691
sg68
(lp767
g61
(g82
g63
NtRp768
(dp769
g66
(dp770
g86
g87
ssg75
g764
sg68
(lp771
S'cmd_options'
p772
asbag61
(g82
g63
NtRp773
(dp774
g66
(dp775
g93
g94
ssg75
g764
sg68
(lp776
S':'
asbag61
(g82
g63
NtRp777
(dp778
g66
(dp779
sg75
g764
sg68
(lp780
g61
(g62
g63
NtRp781
(dp782
g66
(dp783
g74
I4
ssg75
g777
sg68
(lp784
S"<Values at 0x221c248: {'verbose': False, 'ip': '127.0.0.1', 'with_scheduler': False, 'ips': [], 'shutdown_timeout': 5, 'taskbar': False, 'port': 8000, 'maxthreads': None, 'softcron': False, 'server_name': 'fernando-workstation', 'bpython': False, 'nogui': False, 'pid_filename': 'httpserver.pid', 'extcron': False, 'runcron': False, 'run_system_tests': False, 'test': None, 'folder': '/var/www/conferencia', 'config': '', 'minthreads': None, 'winservice': '', 'shell': None, 'run': '', 'log_filename': 'httpserver.log', 'debuglevel': 30, 'args': [''], 'socket_timeout': 5, 'ssl_ca_certificate': None, 'scheduler': None, 'profiler_filename': None, 'ssl_private_key': '', 'scheduler_groups': None, 'password': '123456', 'request_queue_size': 5, 'ssl_certificate': '', 'cronjob': False, 'numthreads': None, 'quiet': False, 'interfaces': None, 'import_models': False, 'timeout': 10, 'plain': False, 'nobanner': False}>"
p785
asbasbasbag61
(g77
g63
NtRp786
(dp787
g66
(dp788
sg75
g691
sg68
(lp789
g61
(g82
g63
NtRp790
(dp791
g66
(dp792
g86
g87
ssg75
g786
sg68
(lp793
S'content_length'
p794
asbag61
(g82
g63
NtRp795
(dp796
g66
(dp797
g93
g94
ssg75
g786
sg68
(lp798
S':'
asbag61
(g82
g63
NtRp799
(dp800
g66
(dp801
sg75
g786
sg68
(lp802
g61
(g62
g63
NtRp803
(dp804
g66
(dp805
g74
I4
ssg75
g799
sg68
(lp806
S'585'
p807
asbasbasbag61
(g77
g63
NtRp808
(dp809
g66
(dp810
sg75
g691
sg68
(lp811
g61
(g82
g63
NtRp812
(dp813
g66
(dp814
g86
g87
ssg75
g808
sg68
(lp815
S'content_type'
p816
asbag61
(g82
g63
NtRp817
(dp818
g66
(dp819
g93
g94
ssg75
g808
sg68
(lp820
S':'
asbag61
(g82
g63
NtRp821
(dp822
g66
(dp823
sg75
g808
sg68
(lp824
g61
(g62
g63
NtRp825
(dp826
g66
(dp827
g74
I4
ssg75
g821
sg68
(lp828
S'multipart/form-data; boundary=----WebKitFormBoundaryLtbwcAZudp347A5k'
p829
asbasbasbag61
(g77
g63
NtRp830
(dp831
g66
(dp832
sg75
g691
sg68
(lp833
g61
(g82
g63
NtRp834
(dp835
g66
(dp836
g86
g87
ssg75
g830
sg68
(lp837
S'db_sessions'
p838
asbag61
(g82
g63
NtRp839
(dp840
g66
(dp841
g93
g94
ssg75
g830
sg68
(lp842
S':'
asbag61
(g82
g63
NtRp843
(dp844
g66
(dp845
sg75
g830
sg68
(lp846
g61
(g62
g63
NtRp847
(dp848
g66
(dp849
g74
I4
ssg75
g843
sg68
(lp850
S'set([])'
p851
asbasbasbag61
(g77
g63
NtRp852
(dp853
g66
(dp854
sg75
g691
sg68
(lp855
g61
(g82
g63
NtRp856
(dp857
g66
(dp858
g86
g87
ssg75
g852
sg68
(lp859
S'debugging'
p860
asbag61
(g82
g63
NtRp861
(dp862
g66
(dp863
g93
g94
ssg75
g852
sg68
(lp864
S':'
asbag61
(g82
g63
NtRp865
(dp866
g66
(dp867
sg75
g852
sg68
(lp868
g61
(g62
g63
NtRp869
(dp870
g66
(dp871
g74
I4
ssg75
g865
sg68
(lp872
g104
asbasbasbag61
(g77
g63
NtRp873
(dp874
g66
(dp875
sg75
g691
sg68
(lp876
g61
(g82
g63
NtRp877
(dp878
g66
(dp879
g86
g87
ssg75
g873
sg68
(lp880
S'gluon_parent'
p881
asbag61
(g82
g63
NtRp882
(dp883
g66
(dp884
g93
g94
ssg75
g873
sg68
(lp885
S':'
asbag61
(g82
g63
NtRp886
(dp887
g66
(dp888
sg75
g873
sg68
(lp889
g61
(g62
g63
NtRp890
(dp891
g66
(dp892
g74
I4
ssg75
g886
sg68
(lp893
S'/var/www/conferencia'
p894
asbasbasbag61
(g77
g63
NtRp895
(dp896
g66
(dp897
sg75
g691
sg68
(lp898
g61
(g82
g63
NtRp899
(dp900
g66
(dp901
g86
g87
ssg75
g895
sg68
(lp902
S'http_accept'
p903
asbag61
(g82
g63
NtRp904
(dp905
g66
(dp906
g93
g94
ssg75
g895
sg68
(lp907
S':'
asbag61
(g82
g63
NtRp908
(dp909
g66
(dp910
sg75
g895
sg68
(lp911
g61
(g62
g63
NtRp912
(dp913
g66
(dp914
g74
I4
ssg75
g908
sg68
(lp915
S'text/html,application/xhtml+xml,application/xml;q=0.9,*/*;q=0.8'
p916
asbasbasbag61
(g77
g63
NtRp917
(dp918
g66
(dp919
sg75
g691
sg68
(lp920
g61
(g82
g63
NtRp921
(dp922
g66
(dp923
g86
g87
ssg75
g917
sg68
(lp924
S'http_accept_charset'
p925
asbag61
(g82
g63
NtRp926
(dp927
g66
(dp928
g93
g94
ssg75
g917
sg68
(lp929
S':'
asbag61
(g82
g63
NtRp930
(dp931
g66
(dp932
sg75
g917
sg68
(lp933
g61
(g62
g63
NtRp934
(dp935
g66
(dp936
g74
I4
ssg75
g930
sg68
(lp937
S'ISO-8859-1,utf-8;q=0.7,*;q=0.3'
p938
asbasbasbag61
(g77
g63
NtRp939
(dp940
g66
(dp941
sg75
g691
sg68
(lp942
g61
(g82
g63
NtRp943
(dp944
g66
(dp945
g86
g87
ssg75
g939
sg68
(lp946
S'http_accept_encoding'
p947
asbag61
(g82
g63
NtRp948
(dp949
g66
(dp950
g93
g94
ssg75
g939
sg68
(lp951
S':'
asbag61
(g82
g63
NtRp952
(dp953
g66
(dp954
sg75
g939
sg68
(lp955
g61
(g62
g63
NtRp956
(dp957
g66
(dp958
g74
I4
ssg75
g952
sg68
(lp959
S'gzip,deflate,sdch'
p960
asbasbasbag61
(g77
g63
NtRp961
(dp962
g66
(dp963
sg75
g691
sg68
(lp964
g61
(g82
g63
NtRp965
(dp966
g66
(dp967
g86
g87
ssg75
g961
sg68
(lp968
S'http_accept_language'
p969
asbag61
(g82
g63
NtRp970
(dp971
g66
(dp972
g93
g94
ssg75
g961
sg68
(lp973
S':'
asbag61
(g82
g63
NtRp974
(dp975
g66
(dp976
sg75
g961
sg68
(lp977
g61
(g62
g63
NtRp978
(dp979
g66
(dp980
g74
I4
ssg75
g974
sg68
(lp981
S'pt-BR,pt;q=0.8,en-US;q=0.6,en;q=0.4'
p982
asbasbasbag61
(g77
g63
NtRp983
(dp984
g66
(dp985
sg75
g691
sg68
(lp986
g61
(g82
g63
NtRp987
(dp988
g66
(dp989
g86
g87
ssg75
g983
sg68
(lp990
S'http_cache_control'
p991
asbag61
(g82
g63
NtRp992
(dp993
g66
(dp994
g93
g94
ssg75
g983
sg68
(lp995
S':'
asbag61
(g82
g63
NtRp996
(dp997
g66
(dp998
sg75
g983
sg68
(lp999
g61
(g62
g63
NtRp1000
(dp1001
g66
(dp1002
g74
I4
ssg75
g996
sg68
(lp1003
S'max-age=0'
p1004
asbasbasbag61
(g77
g63
NtRp1005
(dp1006
g66
(dp1007
sg75
g691
sg68
(lp1008
g61
(g82
g63
NtRp1009
(dp1010
g66
(dp1011
g86
g87
ssg75
g1005
sg68
(lp1012
S'http_connection'
p1013
asbag61
(g82
g63
NtRp1014
(dp1015
g66
(dp1016
g93
g94
ssg75
g1005
sg68
(lp1017
S':'
asbag61
(g82
g63
NtRp1018
(dp1019
g66
(dp1020
sg75
g1005
sg68
(lp1021
g61
(g62
g63
NtRp1022
(dp1023
g66
(dp1024
g74
I4
ssg75
g1018
sg68
(lp1025
S'keep-alive'
p1026
asbasbasbag61
(g77
g63
NtRp1027
(dp1028
g66
(dp1029
sg75
g691
sg68
(lp1030
g61
(g82
g63
NtRp1031
(dp1032
g66
(dp1033
g86
g87
ssg75
g1027
sg68
(lp1034
S'http_content_length'
p1035
asbag61
(g82
g63
NtRp1036
(dp1037
g66
(dp1038
g93
g94
ssg75
g1027
sg68
(lp1039
S':'
asbag61
(g82
g63
NtRp1040
(dp1041
g66
(dp1042
sg75
g1027
sg68
(lp1043
g61
(g62
g63
NtRp1044
(dp1045
g66
(dp1046
g74
I4
ssg75
g1040
sg68
(lp1047
g807
asbasbasbag61
(g77
g63
NtRp1048
(dp1049
g66
(dp1050
sg75
g691
sg68
(lp1051
g61
(g82
g63
NtRp1052
(dp1053
g66
(dp1054
g86
g87
ssg75
g1048
sg68
(lp1055
S'http_content_type'
p1056
asbag61
(g82
g63
NtRp1057
(dp1058
g66
(dp1059
g93
g94
ssg75
g1048
sg68
(lp1060
S':'
asbag61
(g82
g63
NtRp1061
(dp1062
g66
(dp1063
sg75
g1048
sg68
(lp1064
g61
(g62
g63
NtRp1065
(dp1066
g66
(dp1067
g74
I4
ssg75
g1061
sg68
(lp1068
g829
asbasbasbag61
(g77
g63
NtRp1069
(dp1070
g66
(dp1071
sg75
g691
sg68
(lp1072
g61
(g82
g63
NtRp1073
(dp1074
g66
(dp1075
g86
g87
ssg75
g1069
sg68
(lp1076
S'http_cookie'
p1077
asbag61
(g82
g63
NtRp1078
(dp1079
g66
(dp1080
g93
g94
ssg75
g1069
sg68
(lp1081
S':'
asbag61
(g82
g63
NtRp1082
(dp1083
g66
(dp1084
sg75
g1069
sg68
(lp1085
g61
(g62
g63
NtRp1086
(dp1087
g66
(dp1088
g74
I4
ssg75
g1082
sg68
(lp1089
S'session_id_admin=127.0.0.1-f08163e7-63a0-4e97-8334-13b9dc892d78; session_id_projeto=127.0.0.1-0fe02c32-0739-4f06-a369-3bba6377da8b'
p1090
asbasbasbag61
(g77
g63
NtRp1091
(dp1092
g66
(dp1093
sg75
g691
sg68
(lp1094
g61
(g82
g63
NtRp1095
(dp1096
g66
(dp1097
g86
g87
ssg75
g1091
sg68
(lp1098
S'http_host'
p1099
asbag61
(g82
g63
NtRp1100
(dp1101
g66
(dp1102
g93
g94
ssg75
g1091
sg68
(lp1103
S':'
asbag61
(g82
g63
NtRp1104
(dp1105
g66
(dp1106
sg75
g1091
sg68
(lp1107
g61
(g62
g63
NtRp1108
(dp1109
g66
(dp1110
g74
I4
ssg75
g1104
sg68
(lp1111
S'127.0.0.1:8000'
p1112
asbasbasbag61
(g77
g63
NtRp1113
(dp1114
g66
(dp1115
sg75
g691
sg68
(lp1116
g61
(g82
g63
NtRp1117
(dp1118
g66
(dp1119
g86
g87
ssg75
g1113
sg68
(lp1120
S'http_origin'
p1121
asbag61
(g82
g63
NtRp1122
(dp1123
g66
(dp1124
g93
g94
ssg75
g1113
sg68
(lp1125
S':'
asbag61
(g82
g63
NtRp1126
(dp1127
g66
(dp1128
sg75
g1113
sg68
(lp1129
g61
(g62
g63
NtRp1130
(dp1131
g66
(dp1132
g74
I4
ssg75
g1126
sg68
(lp1133
S'http://127.0.0.1:8000'
p1134
asbasbasbag61
(g77
g63
NtRp1135
(dp1136
g66
(dp1137
sg75
g691
sg68
(lp1138
g61
(g82
g63
NtRp1139
(dp1140
g66
(dp1141
g86
g87
ssg75
g1135
sg68
(lp1142
S'http_referer'
p1143
asbag61
(g82
g63
NtRp1144
(dp1145
g66
(dp1146
g93
g94
ssg75
g1135
sg68
(lp1147
S':'
asbag61
(g82
g63
NtRp1148
(dp1149
g66
(dp1150
sg75
g1135
sg68
(lp1151
g61
(g62
g63
NtRp1152
(dp1153
g66
(dp1154
g74
I4
ssg75
g1148
sg68
(lp1155
S'http://127.0.0.1:8000/new/usuario'
p1156
asbasbasbag61
(g77
g63
NtRp1157
(dp1158
g66
(dp1159
sg75
g691
sg68
(lp1160
g61
(g82
g63
NtRp1161
(dp1162
g66
(dp1163
g86
g87
ssg75
g1157
sg68
(lp1164
S'http_user_agent'
p1165
asbag61
(g82
g63
NtRp1166
(dp1167
g66
(dp1168
g93
g94
ssg75
g1157
sg68
(lp1169
S':'
asbag61
(g82
g63
NtRp1170
(dp1171
g66
(dp1172
sg75
g1157
sg68
(lp1173
g61
(g62
g63
NtRp1174
(dp1175
g66
(dp1176
g74
I4
ssg75
g1170
sg68
(lp1177
S'Mozilla/5.0 (X11; Linux x86_64) AppleWebKit/537.4 (KHTML, like Gecko) Ubuntu/12.10 Chromium/22.0.1229.94 Chrome/22.0.1229.94 Safari/537.4'
p1178
asbasbasbag61
(g77
g63
NtRp1179
(dp1180
g66
(dp1181
sg75
g691
sg68
(lp1182
g61
(g82
g63
NtRp1183
(dp1184
g66
(dp1185
g86
g87
ssg75
g1179
sg68
(lp1186
S'is_jython'
p1187
asbag61
(g82
g63
NtRp1188
(dp1189
g66
(dp1190
g93
g94
ssg75
g1179
sg68
(lp1191
S':'
asbag61
(g82
g63
NtRp1192
(dp1193
g66
(dp1194
sg75
g1179
sg68
(lp1195
g61
(g62
g63
NtRp1196
(dp1197
g66
(dp1198
g74
I4
ssg75
g1192
sg68
(lp1199
g104
asbasbasbag61
(g77
g63
NtRp1200
(dp1201
g66
(dp1202
sg75
g691
sg68
(lp1203
g61
(g82
g63
NtRp1204
(dp1205
g66
(dp1206
g86
g87
ssg75
g1200
sg68
(lp1207
S'is_pypy'
p1208
asbag61
(g82
g63
NtRp1209
(dp1210
g66
(dp1211
g93
g94
ssg75
g1200
sg68
(lp1212
S':'
asbag61
(g82
g63
NtRp1213
(dp1214
g66
(dp1215
sg75
g1200
sg68
(lp1216
g61
(g62
g63
NtRp1217
(dp1218
g66
(dp1219
g74
I4
ssg75
g1213
sg68
(lp1220
g104
asbasbasbag61
(g77
g63
NtRp1221
(dp1222
g66
(dp1223
sg75
g691
sg68
(lp1224
g61
(g82
g63
NtRp1225
(dp1226
g66
(dp1227
g86
g87
ssg75
g1221
sg68
(lp1228
S'local_hosts'
p1229
asbag61
(g82
g63
NtRp1230
(dp1231
g66
(dp1232
g93
g94
ssg75
g1221
sg68
(lp1233
S':'
asbag61
(g82
g63
NtRp1234
(dp1235
g66
(dp1236
sg75
g1221
sg68
(lp1237
g61
(g62
g63
NtRp1238
(dp1239
g66
(dp1240
g74
I4
ssg75
g1234
sg68
(lp1241
g61
(g70
g63
NtRp1242
(dp1243
g66
(dp1244
g74
I3
ssg75
Nsg68
(lp1245
g61
(g77
g63
NtRp1246
(dp1247
g66
(dp1248
sg75
g1242
sg68
(lp1249
g61
(g82
g63
NtRp1250
(dp1251
g66
(dp1252
sg75
g1246
sg68
(lp1253
g61
(g62
g63
NtRp1254
(dp1255
g66
(dp1256
g74
I3
ssg75
g1250
sg68
(lp1257
S'::1'
p1258
asbasbasbag61
(g77
g63
NtRp1259
(dp1260
g66
(dp1261
sg75
g1242
sg68
(lp1262
g61
(g82
g63
NtRp1263
(dp1264
g66
(dp1265
sg75
g1259
sg68
(lp1266
g61
(g62
g63
NtRp1267
(dp1268
g66
(dp1269
g74
I3
ssg75
g1263
sg68
(lp1270
S'::ffff:127.0.0.1'
p1271
asbasbasbag61
(g77
g63
NtRp1272
(dp1273
g66
(dp1274
sg75
g1242
sg68
(lp1275
g61
(g82
g63
NtRp1276
(dp1277
g66
(dp1278
sg75
g1272
sg68
(lp1279
g61
(g62
g63
NtRp1280
(dp1281
g66
(dp1282
g74
I3
ssg75
g1276
sg68
(lp1283
S'127.0.0.1'
p1284
asbasbasbag61
(g77
g63
NtRp1285
(dp1286
g66
(dp1287
sg75
g1242
sg68
(lp1288
g61
(g82
g63
NtRp1289
(dp1290
g66
(dp1291
sg75
g1285
sg68
(lp1292
g61
(g62
g63
NtRp1293
(dp1294
g66
(dp1295
g74
I3
ssg75
g1289
sg68
(lp1296
S'fernando-workstation'
p1297
asbasbasbasbasbasbasbag61
(g77
g63
NtRp1298
(dp1299
g66
(dp1300
sg75
g691
sg68
(lp1301
g61
(g82
g63
NtRp1302
(dp1303
g66
(dp1304
g86
g87
ssg75
g1298
sg68
(lp1305
S'path_info'
p1306
asbag61
(g82
g63
NtRp1307
(dp1308
g66
(dp1309
g93
g94
ssg75
g1298
sg68
(lp1310
S':'
asbag61
(g82
g63
NtRp1311
(dp1312
g66
(dp1313
sg75
g1298
sg68
(lp1314
g61
(g62
g63
NtRp1315
(dp1316
g66
(dp1317
g74
I4
ssg75
g1311
sg68
(lp1318
S'/new/usuario'
p1319
asbasbasbag61
(g77
g63
NtRp1320
(dp1321
g66
(dp1322
sg75
g691
sg68
(lp1323
g61
(g82
g63
NtRp1324
(dp1325
g66
(dp1326
g86
g87
ssg75
g1320
sg68
(lp1327
S'query_string'
p1328
asbag61
(g82
g63
NtRp1329
(dp1330
g66
(dp1331
g93
g94
ssg75
g1320
sg68
(lp1332
S':'
asbag61
(g82
g63
NtRp1333
(dp1334
g66
(dp1335
sg75
g1320
sg68
(lp1336
g61
(g62
g63
NtRp1337
(dp1338
g66
(dp1339
g74
I4
ssg75
g1333
sg68
(lp1340
S''
asbasbasbag61
(g77
g63
NtRp1341
(dp1342
g66
(dp1343
sg75
g691
sg68
(lp1344
g61
(g82
g63
NtRp1345
(dp1346
g66
(dp1347
g86
g87
ssg75
g1341
sg68
(lp1348
S'remote_addr'
p1349
asbag61
(g82
g63
NtRp1350
(dp1351
g66
(dp1352
g93
g94
ssg75
g1341
sg68
(lp1353
S':'
asbag61
(g82
g63
NtRp1354
(dp1355
g66
(dp1356
sg75
g1341
sg68
(lp1357
g61
(g62
g63
NtRp1358
(dp1359
g66
(dp1360
g74
I4
ssg75
g1354
sg68
(lp1361
g242
asbasbasbag61
(g77
g63
NtRp1362
(dp1363
g66
(dp1364
sg75
g691
sg68
(lp1365
g61
(g82
g63
NtRp1366
(dp1367
g66
(dp1368
g86
g87
ssg75
g1362
sg68
(lp1369
S'remote_port'
p1370
asbag61
(g82
g63
NtRp1371
(dp1372
g66
(dp1373
g93
g94
ssg75
g1362
sg68
(lp1374
S':'
asbag61
(g82
g63
NtRp1375
(dp1376
g66
(dp1377
sg75
g1362
sg68
(lp1378
g61
(g62
g63
NtRp1379
(dp1380
g66
(dp1381
g74
I4
ssg75
g1375
sg68
(lp1382
S'45379'
p1383
asbasbasbag61
(g77
g63
NtRp1384
(dp1385
g66
(dp1386
sg75
g691
sg68
(lp1387
g61
(g82
g63
NtRp1388
(dp1389
g66
(dp1390
g86
g87
ssg75
g1384
sg68
(lp1391
S'request_method'
p1392
asbag61
(g82
g63
NtRp1393
(dp1394
g66
(dp1395
g93
g94
ssg75
g1384
sg68
(lp1396
S':'
asbag61
(g82
g63
NtRp1397
(dp1398
g66
(dp1399
sg75
g1384
sg68
(lp1400
g61
(g62
g63
NtRp1401
(dp1402
g66
(dp1403
g74
I4
ssg75
g1397
sg68
(lp1404
S'POST'
p1405
asbasbasbag61
(g77
g63
NtRp1406
(dp1407
g66
(dp1408
sg75
g691
sg68
(lp1409
g61
(g82
g63
NtRp1410
(dp1411
g66
(dp1412
g86
g87
ssg75
g1406
sg68
(lp1413
S'request_uri'
p1414
asbag61
(g82
g63
NtRp1415
(dp1416
g66
(dp1417
g93
g94
ssg75
g1406
sg68
(lp1418
S':'
asbag61
(g82
g63
NtRp1419
(dp1420
g66
(dp1421
sg75
g1406
sg68
(lp1422
g61
(g62
g63
NtRp1423
(dp1424
g66
(dp1425
g74
I4
ssg75
g1419
sg68
(lp1426
S'/projeto/initial/principal/new/usuario'
p1427
asbasbasbag61
(g77
g63
NtRp1428
(dp1429
g66
(dp1430
sg75
g691
sg68
(lp1431
g61
(g82
g63
NtRp1432
(dp1433
g66
(dp1434
g86
g87
ssg75
g1428
sg68
(lp1435
S'script_name'
p1436
asbag61
(g82
g63
NtRp1437
(dp1438
g66
(dp1439
g93
g94
ssg75
g1428
sg68
(lp1440
S':'
asbag61
(g82
g63
NtRp1441
(dp1442
g66
(dp1443
sg75
g1428
sg68
(lp1444
g61
(g62
g63
NtRp1445
(dp1446
g66
(dp1447
g74
I4
ssg75
g1441
sg68
(lp1448
S''
asbasbasbag61
(g77
g63
NtRp1449
(dp1450
g66
(dp1451
sg75
g691
sg68
(lp1452
g61
(g82
g63
NtRp1453
(dp1454
g66
(dp1455
g86
g87
ssg75
g1449
sg68
(lp1456
S'server_name'
p1457
asbag61
(g82
g63
NtRp1458
(dp1459
g66
(dp1460
g93
g94
ssg75
g1449
sg68
(lp1461
S':'
asbag61
(g82
g63
NtRp1462
(dp1463
g66
(dp1464
sg75
g1449
sg68
(lp1465
g61
(g62
g63
NtRp1466
(dp1467
g66
(dp1468
g74
I4
ssg75
g1462
sg68
(lp1469
S'fernando-workstation'
p1470
asbasbasbag61
(g77
g63
NtRp1471
(dp1472
g66
(dp1473
sg75
g691
sg68
(lp1474
g61
(g82
g63
NtRp1475
(dp1476
g66
(dp1477
g86
g87
ssg75
g1471
sg68
(lp1478
S'server_port'
p1479
asbag61
(g82
g63
NtRp1480
(dp1481
g66
(dp1482
g93
g94
ssg75
g1471
sg68
(lp1483
S':'
asbag61
(g82
g63
NtRp1484
(dp1485
g66
(dp1486
sg75
g1471
sg68
(lp1487
g61
(g62
g63
NtRp1488
(dp1489
g66
(dp1490
g74
I4
ssg75
g1484
sg68
(lp1491
S'8000'
p1492
asbasbasbag61
(g77
g63
NtRp1493
(dp1494
g66
(dp1495
sg75
g691
sg68
(lp1496
g61
(g82
g63
NtRp1497
(dp1498
g66
(dp1499
g86
g87
ssg75
g1493
sg68
(lp1500
S'server_protocol'
p1501
asbag61
(g82
g63
NtRp1502
(dp1503
g66
(dp1504
g93
g94
ssg75
g1493
sg68
(lp1505
S':'
asbag61
(g82
g63
NtRp1506
(dp1507
g66
(dp1508
sg75
g1493
sg68
(lp1509
g61
(g62
g63
NtRp1510
(dp1511
g66
(dp1512
g74
I4
ssg75
g1506
sg68
(lp1513
S'HTTP/1.1'
p1514
asbasbasbag61
(g77
g63
NtRp1515
(dp1516
g66
(dp1517
sg75
g691
sg68
(lp1518
g61
(g82
g63
NtRp1519
(dp1520
g66
(dp1521
g86
g87
ssg75
g1515
sg68
(lp1522
S'server_software'
p1523
asbag61
(g82
g63
NtRp1524
(dp1525
g66
(dp1526
g93
g94
ssg75
g1515
sg68
(lp1527
S':'
asbag61
(g82
g63
NtRp1528
(dp1529
g66
(dp1530
sg75
g1515
sg68
(lp1531
g61
(g62
g63
NtRp1532
(dp1533
g66
(dp1534
g74
I4
ssg75
g1528
sg68
(lp1535
S'Rocket 1.2.6'
p1536
asbasbasbag61
(g77
g63
NtRp1537
(dp1538
g66
(dp1539
sg75
g691
sg68
(lp1540
g61
(g82
g63
NtRp1541
(dp1542
g66
(dp1543
g86
g87
ssg75
g1537
sg68
(lp1544
S'web2py_original_uri'
p1545
asbag61
(g82
g63
NtRp1546
(dp1547
g66
(dp1548
g93
g94
ssg75
g1537
sg68
(lp1549
S':'
asbag61
(g82
g63
NtRp1550
(dp1551
g66
(dp1552
sg75
g1537
sg68
(lp1553
g61
(g62
g63
NtRp1554
(dp1555
g66
(dp1556
g74
I4
ssg75
g1550
sg68
(lp1557
g1319
asbasbasbag61
(g77
g63
NtRp1558
(dp1559
g66
(dp1560
sg75
g691
sg68
(lp1561
g61
(g82
g63
NtRp1562
(dp1563
g66
(dp1564
g86
g87
ssg75
g1558
sg68
(lp1565
S'web2py_path'
p1566
asbag61
(g82
g63
NtRp1567
(dp1568
g66
(dp1569
g93
g94
ssg75
g1558
sg68
(lp1570
S':'
asbag61
(g82
g63
NtRp1571
(dp1572
g66
(dp1573
sg75
g1558
sg68
(lp1574
g61
(g62
g63
NtRp1575
(dp1576
g66
(dp1577
g74
I4
ssg75
g1571
sg68
(lp1578
g738
asbasbasbag61
(g77
g63
NtRp1579
(dp1580
g66
(dp1581
sg75
g691
sg68
(lp1582
g61
(g82
g63
NtRp1583
(dp1584
g66
(dp1585
g86
g87
ssg75
g1579
sg68
(lp1586
S'web2py_version'
p1587
asbag61
(g82
g63
NtRp1588
(dp1589
g66
(dp1590
g93
g94
ssg75
g1579
sg68
(lp1591
S':'
asbag61
(g82
g63
NtRp1592
(dp1593
g66
(dp1594
sg75
g1579
sg68
(lp1595
g61
(g62
g63
NtRp1596
(dp1597
g66
(dp1598
g74
I4
ssg75
g1592
sg68
(lp1599
g61
(g70
g63
NtRp1600
(dp1601
g66
(dp1602
g74
I3
ssg75
Nsg68
(lp1603
g61
(g77
g63
NtRp1604
(dp1605
g66
(dp1606
sg75
g1600
sg68
(lp1607
g61
(g82
g63
NtRp1608
(dp1609
g66
(dp1610
sg75
g1604
sg68
(lp1611
g61
(g62
g63
NtRp1612
(dp1613
g66
(dp1614
g74
I3
ssg75
g1608
sg68
(lp1615
S'2'
asbasbasbag61
(g77
g63
NtRp1616
(dp1617
g66
(dp1618
sg75
g1600
sg68
(lp1619
g61
(g82
g63
NtRp1620
(dp1621
g66
(dp1622
sg75
g1616
sg68
(lp1623
g61
(g62
g63
NtRp1624
(dp1625
g66
(dp1626
g74
I3
ssg75
g1620
sg68
(lp1627
S'3'
asbasbasbag61
(g77
g63
NtRp1628
(dp1629
g66
(dp1630
sg75
g1600
sg68
(lp1631
g61
(g82
g63
NtRp1632
(dp1633
g66
(dp1634
sg75
g1628
sg68
(lp1635
g61
(g62
g63
NtRp1636
(dp1637
g66
(dp1638
g74
I3
ssg75
g1632
sg68
(lp1639
S'2'
asbasbasbag61
(g77
g63
NtRp1640
(dp1641
g66
(dp1642
sg75
g1600
sg68
(lp1643
g61
(g82
g63
NtRp1644
(dp1645
g66
(dp1646
sg75
g1640
sg68
(lp1647
g61
(g62
g63
NtRp1648
(dp1649
g66
(dp1650
g74
I3
ssg75
g1644
sg68
(lp1651
S'datetime.datetime(2012, 12, 17, 15, 3, 30)'
p1652
asbasbasbag61
(g77
g63
NtRp1653
(dp1654
g66
(dp1655
sg75
g1600
sg68
(lp1656
g61
(g82
g63
NtRp1657
(dp1658
g66
(dp1659
sg75
g1653
sg68
(lp1660
g61
(g62
g63
NtRp1661
(dp1662
g66
(dp1663
g74
I3
ssg75
g1657
sg68
(lp1664
S'stable'
p1665
asbasbasbasbasbasbasbag61
(g77
g63
NtRp1666
(dp1667
g66
(dp1668
sg75
g691
sg68
(lp1669
g61
(g82
g63
NtRp1670
(dp1671
g66
(dp1672
g86
g87
ssg75
g1666
sg68
(lp1673
S'wsgi_errors'
p1674
asbag61
(g82
g63
NtRp1675
(dp1676
g66
(dp1677
g93
g94
ssg75
g1666
sg68
(lp1678
S':'
asbag61
(g82
g63
NtRp1679
(dp1680
g66
(dp1681
sg75
g1666
sg68
(lp1682
g61
(g62
g63
NtRp1683
(dp1684
g66
(dp1685
g74
I4
ssg75
g1679
sg68
(lp1686
S"<open file '<stderr>', mode 'w' at 0x7f3308ed3270>"
p1687
asbasbasbag61
(g77
g63
NtRp1688
(dp1689
g66
(dp1690
sg75
g691
sg68
(lp1691
g61
(g82
g63
NtRp1692
(dp1693
g66
(dp1694
g86
g87
ssg75
g1688
sg68
(lp1695
S'wsgi_file_wrapper'
p1696
asbag61
(g82
g63
NtRp1697
(dp1698
g66
(dp1699
g93
g94
ssg75
g1688
sg68
(lp1700
S':'
asbag61
(g82
g63
NtRp1701
(dp1702
g66
(dp1703
sg75
g1688
sg68
(lp1704
g61
(g62
g63
NtRp1705
(dp1706
g66
(dp1707
g74
I4
ssg75
g1701
sg68
(lp1708
S'<class wsgiref.util.FileWrapper at 0x2194598>'
p1709
asbasbasbag61
(g77
g63
NtRp1710
(dp1711
g66
(dp1712
sg75
g691
sg68
(lp1713
g61
(g82
g63
NtRp1714
(dp1715
g66
(dp1716
g86
g87
ssg75
g1710
sg68
(lp1717
S'wsgi_input'
p1718
asbag61
(g82
g63
NtRp1719
(dp1720
g66
(dp1721
g93
g94
ssg75
g1710
sg68
(lp1722
S':'
asbag61
(g82
g63
NtRp1723
(dp1724
g66
(dp1725
sg75
g1710
sg68
(lp1726
g61
(g62
g63
NtRp1727
(dp1728
g66
(dp1729
g74
I4
ssg75
g1723
sg68
(lp1730
S'<socket._fileobject object at 0x7f32f843df50>'
p1731
asbasbasbag61
(g77
g63
NtRp1732
(dp1733
g66
(dp1734
sg75
g691
sg68
(lp1735
g61
(g82
g63
NtRp1736
(dp1737
g66
(dp1738
g86
g87
ssg75
g1732
sg68
(lp1739
S'wsgi_multiprocess'
p1740
asbag61
(g82
g63
NtRp1741
(dp1742
g66
(dp1743
g93
g94
ssg75
g1732
sg68
(lp1744
S':'
asbag61
(g82
g63
NtRp1745
(dp1746
g66
(dp1747
sg75
g1732
sg68
(lp1748
g61
(g62
g63
NtRp1749
(dp1750
g66
(dp1751
g74
I4
ssg75
g1745
sg68
(lp1752
g104
asbasbasbag61
(g77
g63
NtRp1753
(dp1754
g66
(dp1755
sg75
g691
sg68
(lp1756
g61
(g82
g63
NtRp1757
(dp1758
g66
(dp1759
g86
g87
ssg75
g1753
sg68
(lp1760
S'wsgi_multithread'
p1761
asbag61
(g82
g63
NtRp1762
(dp1763
g66
(dp1764
g93
g94
ssg75
g1753
sg68
(lp1765
S':'
asbag61
(g82
g63
NtRp1766
(dp1767
g66
(dp1768
sg75
g1753
sg68
(lp1769
g61
(g62
g63
NtRp1770
(dp1771
g66
(dp1772
g74
I4
ssg75
g1766
sg68
(lp1773
S'True'
p1774
asbasbasbag61
(g77
g63
NtRp1775
(dp1776
g66
(dp1777
sg75
g691
sg68
(lp1778
g61
(g82
g63
NtRp1779
(dp1780
g66
(dp1781
g86
g87
ssg75
g1775
sg68
(lp1782
S'wsgi_run_once'
p1783
asbag61
(g82
g63
NtRp1784
(dp1785
g66
(dp1786
g93
g94
ssg75
g1775
sg68
(lp1787
S':'
asbag61
(g82
g63
NtRp1788
(dp1789
g66
(dp1790
sg75
g1775
sg68
(lp1791
g61
(g62
g63
NtRp1792
(dp1793
g66
(dp1794
g74
I4
ssg75
g1788
sg68
(lp1795
g104
asbasbasbag61
(g77
g63
NtRp1796
(dp1797
g66
(dp1798
sg75
g691
sg68
(lp1799
g61
(g82
g63
NtRp1800
(dp1801
g66
(dp1802
g86
g87
ssg75
g1796
sg68
(lp1803
S'wsgi_url_scheme'
p1804
asbag61
(g82
g63
NtRp1805
(dp1806
g66
(dp1807
g93
g94
ssg75
g1796
sg68
(lp1808
S':'
asbag61
(g82
g63
NtRp1809
(dp1810
g66
(dp1811
sg75
g1796
sg68
(lp1812
g61
(g62
g63
NtRp1813
(dp1814
g66
(dp1815
g74
I4
ssg75
g1809
sg68
(lp1816
S'http'
p1817
asbasbasbag61
(g77
g63
NtRp1818
(dp1819
g66
(dp1820
sg75
g691
sg68
(lp1821
g61
(g82
g63
NtRp1822
(dp1823
g66
(dp1824
g86
g87
ssg75
g1818
sg68
(lp1825
S'wsgi_version'
p1826
asbag61
(g82
g63
NtRp1827
(dp1828
g66
(dp1829
g93
g94
ssg75
g1818
sg68
(lp1830
S':'
asbag61
(g82
g63
NtRp1831
(dp1832
g66
(dp1833
sg75
g1818
sg68
(lp1834
g61
(g62
g63
NtRp1835
(dp1836
g66
(dp1837
g74
I4
ssg75
g1831
sg68
(lp1838
g61
(g70
g63
NtRp1839
(dp1840
g66
(dp1841
g74
I3
ssg75
Nsg68
(lp1842
g61
(g77
g63
NtRp1843
(dp1844
g66
(dp1845
sg75
g1839
sg68
(lp1846
g61
(g82
g63
NtRp1847
(dp1848
g66
(dp1849
sg75
g1843
sg68
(lp1850
g61
(g62
g63
NtRp1851
(dp1852
g66
(dp1853
g74
I3
ssg75
g1847
sg68
(lp1854
S'1'
asbasbasbag61
(g77
g63
NtRp1855
(dp1856
g66
(dp1857
sg75
g1839
sg68
(lp1858
g61
(g82
g63
NtRp1859
(dp1860
g66
(dp1861
sg75
g1855
sg68
(lp1862
g61
(g62
g63
NtRp1863
(dp1864
g66
(dp1865
g74
I3
ssg75
g1859
sg68
(lp1866
S'0'
asbasbasbasbasbasbasbasbasbasbasbag61
(g77
g63
NtRp1867
(dp1868
g66
(dp1869
sg75
g71
sg68
(lp1870
g61
(g82
g63
NtRp1871
(dp1872
g66
(dp1873
g86
g87
ssg75
g1867
sg68
(lp1874
S'extension'
p1875
asbag61
(g82
g63
NtRp1876
(dp1877
g66
(dp1878
g93
g94
ssg75
g1867
sg68
(lp1879
S':'
asbag61
(g82
g63
NtRp1880
(dp1881
g66
(dp1882
sg75
g1867
sg68
(lp1883
g61
(g62
g63
NtRp1884
(dp1885
g66
(dp1886
g74
I5
ssg75
g1880
sg68
(lp1887
S'html'
p1888
asbasbasbag61
(g77
g63
NtRp1889
(dp1890
g66
(dp1891
sg75
g71
sg68
(lp1892
g61
(g82
g63
NtRp1893
(dp1894
g66
(dp1895
g86
g87
ssg75
g1889
sg68
(lp1896
S'folder'
p1897
asbag61
(g82
g63
NtRp1898
(dp1899
g66
(dp1900
g93
g94
ssg75
g1889
sg68
(lp1901
S':'
asbag61
(g82
g63
NtRp1902
(dp1903
g66
(dp1904
sg75
g1889
sg68
(lp1905
g61
(g62
g63
NtRp1906
(dp1907
g66
(dp1908
g74
I5
ssg75
g1902
sg68
(lp1909
S'/var/www/conferencia/applications/projeto/'
p1910
asbasbasbag61
(g77
g63
NtRp1911
(dp1912
g66
(dp1913
sg75
g71
sg68
(lp1914
g61
(g82
g63
NtRp1915
(dp1916
g66
(dp1917
g86
g87
ssg75
g1911
sg68
(lp1918
S'function'
p1919
asbag61
(g82
g63
NtRp1920
(dp1921
g66
(dp1922
g93
g94
ssg75
g1911
sg68
(lp1923
S':'
asbag61
(g82
g63
NtRp1924
(dp1925
g66
(dp1926
sg75
g1911
sg68
(lp1927
g61
(g62
g63
NtRp1928
(dp1929
g66
(dp1930
g74
I5
ssg75
g1924
sg68
(lp1931
S'principal'
p1932
asbasbasbag61
(g77
g63
NtRp1933
(dp1934
g66
(dp1935
sg75
g71
sg68
(lp1936
g61
(g82
g63
NtRp1937
(dp1938
g66
(dp1939
g86
g87
ssg75
g1933
sg68
(lp1940
S'get_vars'
p1941
asbag61
(g82
g63
NtRp1942
(dp1943
g66
(dp1944
g93
g94
ssg75
g1933
sg68
(lp1945
S':'
asbag61
(g82
g63
NtRp1946
(dp1947
g66
(dp1948
sg75
g1933
sg68
(lp1949
g61
(g62
g63
NtRp1950
(dp1951
g66
(dp1952
g74
I5
ssg75
g1946
sg68
(lp1953
g61
(g70
g63
NtRp1954
(dp1955
g66
(dp1956
g74
I4
ssg75
Nsg68
(lp1957
sbasbasbasbag61
(g77
g63
NtRp1958
(dp1959
g66
(dp1960
sg75
g71
sg68
(lp1961
g61
(g82
g63
NtRp1962
(dp1963
g66
(dp1964
g86
g87
ssg75
g1958
sg68
(lp1965
S'global_settings'
p1966
asbag61
(g82
g63
NtRp1967
(dp1968
g66
(dp1969
g93
g94
ssg75
g1958
sg68
(lp1970
S':'
asbag61
(g82
g63
NtRp1971
(dp1972
g66
(dp1973
sg75
g1958
sg68
(lp1974
g61
(g62
g63
NtRp1975
(dp1976
g66
(dp1977
g74
I5
ssg75
g1971
sg68
(lp1978
g61
(g70
g63
NtRp1979
(dp1980
g66
(dp1981
g74
I4
ssg75
Nsg68
(lp1982
g61
(g77
g63
NtRp1983
(dp1984
g66
(dp1985
sg75
g1979
sg68
(lp1986
g61
(g82
g63
NtRp1987
(dp1988
g66
(dp1989
g86
g87
ssg75
g1983
sg68
(lp1990
g703
asbag61
(g82
g63
NtRp1991
(dp1992
g66
(dp1993
g93
g94
ssg75
g1983
sg68
(lp1994
S':'
asbag61
(g82
g63
NtRp1995
(dp1996
g66
(dp1997
sg75
g1983
sg68
(lp1998
g61
(g62
g63
NtRp1999
(dp2000
g66
(dp2001
g74
I4
ssg75
g1995
sg68
(lp2002
S"set(['/var/www/conferencia/applications/projeto/'])"
p2003
asbasbasbag61
(g77
g63
NtRp2004
(dp2005
g66
(dp2006
sg75
g1979
sg68
(lp2007
g61
(g82
g63
NtRp2008
(dp2009
g66
(dp2010
g86
g87
ssg75
g2004
sg68
(lp2011
g725
asbag61
(g82
g63
NtRp2012
(dp2013
g66
(dp2014
g93
g94
ssg75
g2004
sg68
(lp2015
S':'
asbag61
(g82
g63
NtRp2016
(dp2017
g66
(dp2018
sg75
g2004
sg68
(lp2019
g61
(g62
g63
NtRp2020
(dp2021
g66
(dp2022
g74
I4
ssg75
g2016
sg68
(lp2023
g738
asbasbasbag61
(g77
g63
NtRp2024
(dp2025
g66
(dp2026
sg75
g1979
sg68
(lp2027
g61
(g82
g63
NtRp2028
(dp2029
g66
(dp2030
g86
g87
ssg75
g2024
sg68
(lp2031
g747
asbag61
(g82
g63
NtRp2032
(dp2033
g66
(dp2034
g93
g94
ssg75
g2024
sg68
(lp2035
S':'
asbag61
(g82
g63
NtRp2036
(dp2037
g66
(dp2038
sg75
g2024
sg68
(lp2039
g61
(g62
g63
NtRp2040
(dp2041
g66
(dp2042
g74
I4
ssg75
g2036
sg68
(lp2043
g61
(g70
g63
NtRp2044
(dp2045
g66
(dp2046
g74
I3
ssg75
Nsg68
(lp2047
sbasbasbasbag61
(g77
g63
NtRp2048
(dp2049
g66
(dp2050
sg75
g1979
sg68
(lp2051
g61
(g82
g63
NtRp2052
(dp2053
g66
(dp2054
g86
g87
ssg75
g2048
sg68
(lp2055
g772
asbag61
(g82
g63
NtRp2056
(dp2057
g66
(dp2058
g93
g94
ssg75
g2048
sg68
(lp2059
S':'
asbag61
(g82
g63
NtRp2060
(dp2061
g66
(dp2062
sg75
g2048
sg68
(lp2063
g61
(g62
g63
NtRp2064
(dp2065
g66
(dp2066
g74
I4
ssg75
g2060
sg68
(lp2067
S"<Values at 0x221c248: {'verbose': False, 'ip': '127.0.0.1', 'with_scheduler': False, 'ips': [], 'shutdown_timeout': 5, 'taskbar': False, 'port': 8000, 'maxthreads': None, 'softcron': False, 'server_name': 'fernando-workstation', 'bpython': False, 'nogui': False, 'pid_filename': 'httpserver.pid', 'extcron': False, 'runcron': False, 'run_system_tests': False, 'test': None, 'folder': '/var/www/conferencia', 'config': '', 'minthreads': None, 'winservice': '', 'shell': None, 'run': '', 'log_filename': 'httpserver.log', 'debuglevel': 30, 'args': [''], 'socket_timeout': 5, 'ssl_ca_certificate': None, 'scheduler': None, 'profiler_filename': None, 'ssl_private_key': '', 'scheduler_groups': None, 'password': '123456', 'request_queue_size': 5, 'ssl_certificate': '', 'cronjob': False, 'numthreads': None, 'quiet': False, 'interfaces': None, 'import_models': False, 'timeout': 10, 'plain': False, 'nobanner': False}>"
p2068
asbasbasbag61
(g77
g63
NtRp2069
(dp2070
g66
(dp2071
sg75
g1979
sg68
(lp2072
g61
(g82
g63
NtRp2073
(dp2074
g66
(dp2075
g86
g87
ssg75
g2069
sg68
(lp2076
g838
asbag61
(g82
g63
NtRp2077
(dp2078
g66
(dp2079
g93
g94
ssg75
g2069
sg68
(lp2080
S':'
asbag61
(g82
g63
NtRp2081
(dp2082
g66
(dp2083
sg75
g2069
sg68
(lp2084
g61
(g62
g63
NtRp2085
(dp2086
g66
(dp2087
g74
I4
ssg75
g2081
sg68
(lp2088
S'set([])'
p2089
asbasbasbag61
(g77
g63
NtRp2090
(dp2091
g66
(dp2092
sg75
g1979
sg68
(lp2093
g61
(g82
g63
NtRp2094
(dp2095
g66
(dp2096
g86
g87
ssg75
g2090
sg68
(lp2097
g860
asbag61
(g82
g63
NtRp2098
(dp2099
g66
(dp2100
g93
g94
ssg75
g2090
sg68
(lp2101
S':'
asbag61
(g82
g63
NtRp2102
(dp2103
g66
(dp2104
sg75
g2090
sg68
(lp2105
g61
(g62
g63
NtRp2106
(dp2107
g66
(dp2108
g74
I4
ssg75
g2102
sg68
(lp2109
g104
asbasbasbag61
(g77
g63
NtRp2110
(dp2111
g66
(dp2112
sg75
g1979
sg68
(lp2113
g61
(g82
g63
NtRp2114
(dp2115
g66
(dp2116
g86
g87
ssg75
g2110
sg68
(lp2117
g881
asbag61
(g82
g63
NtRp2118
(dp2119
g66
(dp2120
g93
g94
ssg75
g2110
sg68
(lp2121
S':'
asbag61
(g82
g63
NtRp2122
(dp2123
g66
(dp2124
sg75
g2110
sg68
(lp2125
g61
(g62
g63
NtRp2126
(dp2127
g66
(dp2128
g74
I4
ssg75
g2122
sg68
(lp2129
g894
asbasbasbag61
(g77
g63
NtRp2130
(dp2131
g66
(dp2132
sg75
g1979
sg68
(lp2133
g61
(g82
g63
NtRp2134
(dp2135
g66
(dp2136
g86
g87
ssg75
g2130
sg68
(lp2137
g1187
asbag61
(g82
g63
NtRp2138
(dp2139
g66
(dp2140
g93
g94
ssg75
g2130
sg68
(lp2141
S':'
asbag61
(g82
g63
NtRp2142
(dp2143
g66
(dp2144
sg75
g2130
sg68
(lp2145
g61
(g62
g63
NtRp2146
(dp2147
g66
(dp2148
g74
I4
ssg75
g2142
sg68
(lp2149
g104
asbasbasbag61
(g77
g63
NtRp2150
(dp2151
g66
(dp2152
sg75
g1979
sg68
(lp2153
g61
(g82
g63
NtRp2154
(dp2155
g66
(dp2156
g86
g87
ssg75
g2150
sg68
(lp2157
g1208
asbag61
(g82
g63
NtRp2158
(dp2159
g66
(dp2160
g93
g94
ssg75
g2150
sg68
(lp2161
S':'
asbag61
(g82
g63
NtRp2162
(dp2163
g66
(dp2164
sg75
g2150
sg68
(lp2165
g61
(g62
g63
NtRp2166
(dp2167
g66
(dp2168
g74
I4
ssg75
g2162
sg68
(lp2169
g104
asbasbasbag61
(g77
g63
NtRp2170
(dp2171
g66
(dp2172
sg75
g1979
sg68
(lp2173
g61
(g82
g63
NtRp2174
(dp2175
g66
(dp2176
g86
g87
ssg75
g2170
sg68
(lp2177
g1229
asbag61
(g82
g63
NtRp2178
(dp2179
g66
(dp2180
g93
g94
ssg75
g2170
sg68
(lp2181
S':'
asbag61
(g82
g63
NtRp2182
(dp2183
g66
(dp2184
sg75
g2170
sg68
(lp2185
g61
(g62
g63
NtRp2186
(dp2187
g66
(dp2188
g74
I4
ssg75
g2182
sg68
(lp2189
g61
(g70
g63
NtRp2190
(dp2191
g66
(dp2192
g74
I3
ssg75
Nsg68
(lp2193
g61
(g77
g63
NtRp2194
(dp2195
g66
(dp2196
sg75
g2190
sg68
(lp2197
g61
(g82
g63
NtRp2198
(dp2199
g66
(dp2200
sg75
g2194
sg68
(lp2201
g61
(g62
g63
NtRp2202
(dp2203
g66
(dp2204
g74
I3
ssg75
g2198
sg68
(lp2205
g1258
asbasbasbag61
(g77
g63
NtRp2206
(dp2207
g66
(dp2208
sg75
g2190
sg68
(lp2209
g61
(g82
g63
NtRp2210
(dp2211
g66
(dp2212
sg75
g2206
sg68
(lp2213
g61
(g62
g63
NtRp2214
(dp2215
g66
(dp2216
g74
I3
ssg75
g2210
sg68
(lp2217
g1271
asbasbasbag61
(g77
g63
NtRp2218
(dp2219
g66
(dp2220
sg75
g2190
sg68
(lp2221
g61
(g82
g63
NtRp2222
(dp2223
g66
(dp2224
sg75
g2218
sg68
(lp2225
g61
(g62
g63
NtRp2226
(dp2227
g66
(dp2228
g74
I3
ssg75
g2222
sg68
(lp2229
g1284
asbasbasbag61
(g77
g63
NtRp2230
(dp2231
g66
(dp2232
sg75
g2190
sg68
(lp2233
g61
(g82
g63
NtRp2234
(dp2235
g66
(dp2236
sg75
g2230
sg68
(lp2237
g61
(g62
g63
NtRp2238
(dp2239
g66
(dp2240
g74
I3
ssg75
g2234
sg68
(lp2241
g1297
asbasbasbasbasbasbasbag61
(g77
g63
NtRp2242
(dp2243
g66
(dp2244
sg75
g1979
sg68
(lp2245
g61
(g82
g63
NtRp2246
(dp2247
g66
(dp2248
g86
g87
ssg75
g2242
sg68
(lp2249
g1587
asbag61
(g82
g63
NtRp2250
(dp2251
g66
(dp2252
g93
g94
ssg75
g2242
sg68
(lp2253
S':'
asbag61
(g82
g63
NtRp2254
(dp2255
g66
(dp2256
sg75
g2242
sg68
(lp2257
g61
(g62
g63
NtRp2258
(dp2259
g66
(dp2260
g74
I4
ssg75
g2254
sg68
(lp2261
g61
(g70
g63
NtRp2262
(dp2263
g66
(dp2264
g74
I3
ssg75
Nsg68
(lp2265
g61
(g77
g63
NtRp2266
(dp2267
g66
(dp2268
sg75
g2262
sg68
(lp2269
g61
(g82
g63
NtRp2270
(dp2271
g66
(dp2272
sg75
g2266
sg68
(lp2273
g61
(g62
g63
NtRp2274
(dp2275
g66
(dp2276
g74
I3
ssg75
g2270
sg68
(lp2277
S'2'
asbasbasbag61
(g77
g63
NtRp2278
(dp2279
g66
(dp2280
sg75
g2262
sg68
(lp2281
g61
(g82
g63
NtRp2282
(dp2283
g66
(dp2284
sg75
g2278
sg68
(lp2285
g61
(g62
g63
NtRp2286
(dp2287
g66
(dp2288
g74
I3
ssg75
g2282
sg68
(lp2289
S'3'
asbasbasbag61
(g77
g63
NtRp2290
(dp2291
g66
(dp2292
sg75
g2262
sg68
(lp2293
g61
(g82
g63
NtRp2294
(dp2295
g66
(dp2296
sg75
g2290
sg68
(lp2297
g61
(g62
g63
NtRp2298
(dp2299
g66
(dp2300
g74
I3
ssg75
g2294
sg68
(lp2301
S'2'
asbasbasbag61
(g77
g63
NtRp2302
(dp2303
g66
(dp2304
sg75
g2262
sg68
(lp2305
g61
(g82
g63
NtRp2306
(dp2307
g66
(dp2308
sg75
g2302
sg68
(lp2309
g61
(g62
g63
NtRp2310
(dp2311
g66
(dp2312
g74
I3
ssg75
g2306
sg68
(lp2313
S'datetime.datetime(2012, 12, 17, 15, 3, 30)'
p2314
asbasbasbag61
(g77
g63
NtRp2315
(dp2316
g66
(dp2317
sg75
g2262
sg68
(lp2318
g61
(g82
g63
NtRp2319
(dp2320
g66
(dp2321
sg75
g2315
sg68
(lp2322
g61
(g62
g63
NtRp2323
(dp2324
g66
(dp2325
g74
I3
ssg75
g2319
sg68
(lp2326
g1665
asbasbasbasbasbasbasbasbasbasbasbag61
(g77
g63
NtRp2327
(dp2328
g66
(dp2329
sg75
g71
sg68
(lp2330
g61
(g82
g63
NtRp2331
(dp2332
g66
(dp2333
g86
g87
ssg75
g2327
sg68
(lp2334
S'is_https'
p2335
asbag61
(g82
g63
NtRp2336
(dp2337
g66
(dp2338
g93
g94
ssg75
g2327
sg68
(lp2339
S':'
asbag61
(g82
g63
NtRp2340
(dp2341
g66
(dp2342
sg75
g2327
sg68
(lp2343
g61
(g62
g63
NtRp2344
(dp2345
g66
(dp2346
g74
I5
ssg75
g2340
sg68
(lp2347
g104
asbasbasbag61
(g77
g63
NtRp2348
(dp2349
g66
(dp2350
sg75
g71
sg68
(lp2351
g61
(g82
g63
NtRp2352
(dp2353
g66
(dp2354
g86
g87
ssg75
g2348
sg68
(lp2355
S'is_local'
p2356
asbag61
(g82
g63
NtRp2357
(dp2358
g66
(dp2359
g93
g94
ssg75
g2348
sg68
(lp2360
S':'
asbag61
(g82
g63
NtRp2361
(dp2362
g66
(dp2363
sg75
g2348
sg68
(lp2364
g61
(g62
g63
NtRp2365
(dp2366
g66
(dp2367
g74
I5
ssg75
g2361
sg68
(lp2368
g1774
asbasbasbag61
(g77
g63
NtRp2369
(dp2370
g66
(dp2371
sg75
g71
sg68
(lp2372
g61
(g82
g63
NtRp2373
(dp2374
g66
(dp2375
g86
g87
ssg75
g2369
sg68
(lp2376
S'is_restful'
p2377
asbag61
(g82
g63
NtRp2378
(dp2379
g66
(dp2380
g93
g94
ssg75
g2369
sg68
(lp2381
S':'
asbag61
(g82
g63
NtRp2382
(dp2383
g66
(dp2384
sg75
g2369
sg68
(lp2385
g61
(g62
g63
NtRp2386
(dp2387
g66
(dp2388
g74
I5
ssg75
g2382
sg68
(lp2389
g104
asbasbasbag61
(g77
g63
NtRp2390
(dp2391
g66
(dp2392
sg75
g71
sg68
(lp2393
g61
(g82
g63
NtRp2394
(dp2395
g66
(dp2396
g86
g87
ssg75
g2390
sg68
(lp2397
S'now'
p2398
asbag61
(g82
g63
NtRp2399
(dp2400
g66
(dp2401
g93
g94
ssg75
g2390
sg68
(lp2402
S':'
asbag61
(g82
g63
NtRp2403
(dp2404
g66
(dp2405
sg75
g2390
sg68
(lp2406
g61
(g62
g63
NtRp2407
(dp2408
g66
(dp2409
g74
I5
ssg75
g2403
sg68
(lp2410
S'datetime.datetime(2013, 4, 2, 18, 37, 7, 643253)'
p2411
asbasbasbag61
(g77
g63
NtRp2412
(dp2413
g66
(dp2414
sg75
g71
sg68
(lp2415
g61
(g82
g63
NtRp2416
(dp2417
g66
(dp2418
g86
g87
ssg75
g2412
sg68
(lp2419
S'post_vars'
p2420
asbag61
(g82
g63
NtRp2421
(dp2422
g66
(dp2423
g93
g94
ssg75
g2412
sg68
(lp2424
S':'
asbag61
(g82
g63
NtRp2425
(dp2426
g66
(dp2427
sg75
g2412
sg68
(lp2428
g61
(g62
g63
NtRp2429
(dp2430
g66
(dp2431
g74
I5
ssg75
g2425
sg68
(lp2432
g61
(g70
g63
NtRp2433
(dp2434
g66
(dp2435
g74
I4
ssg75
Nsg68
(lp2436
g61
(g77
g63
NtRp2437
(dp2438
g66
(dp2439
sg75
g2433
sg68
(lp2440
g61
(g82
g63
NtRp2441
(dp2442
g66
(dp2443
g86
g87
ssg75
g2437
sg68
(lp2444
S'email'
p2445
asbag61
(g82
g63
NtRp2446
(dp2447
g66
(dp2448
g93
g94
ssg75
g2437
sg68
(lp2449
S':'
asbag61
(g82
g63
NtRp2450
(dp2451
g66
(dp2452
sg75
g2437
sg68
(lp2453
g61
(g62
g63
NtRp2454
(dp2455
g66
(dp2456
g74
I4
ssg75
g2450
sg68
(lp2457
S'fndiaz02@gmail.com'
p2458
asbasbasbag61
(g77
g63
NtRp2459
(dp2460
g66
(dp2461
sg75
g2433
sg68
(lp2462
g61
(g82
g63
NtRp2463
(dp2464
g66
(dp2465
g86
g87
ssg75
g2459
sg68
(lp2466
S'nome'
p2467
asbag61
(g82
g63
NtRp2468
(dp2469
g66
(dp2470
g93
g94
ssg75
g2459
sg68
(lp2471
S':'
asbag61
(g82
g63
NtRp2472
(dp2473
g66
(dp2474
sg75
g2459
sg68
(lp2475
g61
(g62
g63
NtRp2476
(dp2477
g66
(dp2478
g74
I4
ssg75
g2472
sg68
(lp2479
S'Fernando'
p2480
asbasbasbag61
(g77
g63
NtRp2481
(dp2482
g66
(dp2483
sg75
g2433
sg68
(lp2484
g61
(g82
g63
NtRp2485
(dp2486
g66
(dp2487
g86
g87
ssg75
g2481
sg68
(lp2488
S'pin'
p2489
asbag61
(g82
g63
NtRp2490
(dp2491
g66
(dp2492
g93
g94
ssg75
g2481
sg68
(lp2493
S':'
asbag61
(g82
g63
NtRp2494
(dp2495
g66
(dp2496
sg75
g2481
sg68
(lp2497
g61
(g62
g63
NtRp2498
(dp2499
g66
(dp2500
g74
I4
ssg75
g2494
sg68
(lp2501
S'2552'
p2502
asbasbasbasbasbasbasbag61
(g77
g63
NtRp2503
(dp2504
g66
(dp2505
sg75
g71
sg68
(lp2506
g61
(g82
g63
NtRp2507
(dp2508
g66
(dp2509
g86
g87
ssg75
g2503
sg68
(lp2510
S'url'
p2511
asbag61
(g82
g63
NtRp2512
(dp2513
g66
(dp2514
g93
g94
ssg75
g2503
sg68
(lp2515
S':'
asbag61
(g82
g63
NtRp2516
(dp2517
g66
(dp2518
sg75
g2503
sg68
(lp2519
g61
(g62
g63
NtRp2520
(dp2521
g66
(dp2522
g74
I5
ssg75
g2516
sg68
(lp2523
g1319
asbasbasbag61
(g77
g63
NtRp2524
(dp2525
g66
(dp2526
sg75
g71
sg68
(lp2527
g61
(g82
g63
NtRp2528
(dp2529
g66
(dp2530
g86
g87
ssg75
g2524
sg68
(lp2531
S'utcnow'
p2532
asbag61
(g82
g63
NtRp2533
(dp2534
g66
(dp2535
g93
g94
ssg75
g2524
sg68
(lp2536
S':'
asbag61
(g82
g63
NtRp2537
(dp2538
g66
(dp2539
sg75
g2524
sg68
(lp2540
g61
(g62
g63
NtRp2541
(dp2542
g66
(dp2543
g74
I5
ssg75
g2537
sg68
(lp2544
S'datetime.datetime(2013, 4, 2, 21, 37, 7, 643296)'
p2545
asbasbasbag61
(g77
g63
NtRp2546
(dp2547
g66
(dp2548
sg75
g71
sg68
(lp2549
g61
(g82
g63
NtRp2550
(dp2551
g66
(dp2552
g86
g87
ssg75
g2546
sg68
(lp2553
S'uuid'
p2554
asbag61
(g82
g63
NtRp2555
(dp2556
g66
(dp2557
g93
g94
ssg75
g2546
sg68
(lp2558
S':'
asbag61
(g82
g63
NtRp2559
(dp2560
g66
(dp2561
sg75
g2546
sg68
(lp2562
g61
(g62
g63
NtRp2563
(dp2564
g66
(dp2565
g74
I5
ssg75
g2559
sg68
(lp2566
S'projeto/127.0.0.1.2013-04-02.18-37-07.632e3dc8-4537-4616-94bc-72c5f2cfe4c4'
p2567
asbasbasbag61
(g77
g63
NtRp2568
(dp2569
g66
(dp2570
sg75
g71
sg68
(lp2571
g61
(g82
g63
NtRp2572
(dp2573
g66
(dp2574
g86
g87
ssg75
g2568
sg68
(lp2575
S'vars'
p2576
asbag61
(g82
g63
NtRp2577
(dp2578
g66
(dp2579
g93
g94
ssg75
g2568
sg68
(lp2580
S':'
asbag61
(g82
g63
NtRp2581
(dp2582
g66
(dp2583
sg75
g2568
sg68
(lp2584
g61
(g62
g63
NtRp2585
(dp2586
g66
(dp2587
g74
I5
ssg75
g2581
sg68
(lp2588
g61
(g70
g63
NtRp2589
(dp2590
g66
(dp2591
g74
I4
ssg75
Nsg68
(lp2592
g61
(g77
g63
NtRp2593
(dp2594
g66
(dp2595
sg75
g2589
sg68
(lp2596
g61
(g82
g63
NtRp2597
(dp2598
g66
(dp2599
g86
g87
ssg75
g2593
sg68
(lp2600
g2445
asbag61
(g82
g63
NtRp2601
(dp2602
g66
(dp2603
g93
g94
ssg75
g2593
sg68
(lp2604
S':'
asbag61
(g82
g63
NtRp2605
(dp2606
g66
(dp2607
sg75
g2593
sg68
(lp2608
g61
(g62
g63
NtRp2609
(dp2610
g66
(dp2611
g74
I4
ssg75
g2605
sg68
(lp2612
g2458
asbasbasbag61
(g77
g63
NtRp2613
(dp2614
g66
(dp2615
sg75
g2589
sg68
(lp2616
g61
(g82
g63
NtRp2617
(dp2618
g66
(dp2619
g86
g87
ssg75
g2613
sg68
(lp2620
g2467
asbag61
(g82
g63
NtRp2621
(dp2622
g66
(dp2623
g93
g94
ssg75
g2613
sg68
(lp2624
S':'
asbag61
(g82
g63
NtRp2625
(dp2626
g66
(dp2627
sg75
g2613
sg68
(lp2628
g61
(g62
g63
NtRp2629
(dp2630
g66
(dp2631
g74
I4
ssg75
g2625
sg68
(lp2632
g2480
asbasbasbag61
(g77
g63
NtRp2633
(dp2634
g66
(dp2635
sg75
g2589
sg68
(lp2636
g61
(g82
g63
NtRp2637
(dp2638
g66
(dp2639
g86
g87
ssg75
g2633
sg68
(lp2640
g2489
asbag61
(g82
g63
NtRp2641
(dp2642
g66
(dp2643
g93
g94
ssg75
g2633
sg68
(lp2644
S':'
asbag61
(g82
g63
NtRp2645
(dp2646
g66
(dp2647
sg75
g2633
sg68
(lp2648
g61
(g62
g63
NtRp2649
(dp2650
g66
(dp2651
g74
I4
ssg75
g2645
sg68
(lp2652
g2502
asbasbasbasbasbasbasbag61
(g77
g63
NtRp2653
(dp2654
g66
(dp2655
sg75
g71
sg68
(lp2656
g61
(g82
g63
NtRp2657
(dp2658
g66
(dp2659
g86
g87
ssg75
g2653
sg68
(lp2660
S'wsgi'
p2661
asbag61
(g82
g63
NtRp2662
(dp2663
g66
(dp2664
g93
g94
ssg75
g2653
sg68
(lp2665
S':'
asbag61
(g82
g63
NtRp2666
(dp2667
g66
(dp2668
sg75
g2653
sg68
(lp2669
g61
(g62
g63
NtRp2670
(dp2671
g66
(dp2672
g74
I5
ssg75
g2666
sg68
(lp2673
g61
(g70
g63
NtRp2674
(dp2675
g66
(dp2676
g74
I4
ssg75
Nsg68
(lp2677
g61
(g77
g63
NtRp2678
(dp2679
g66
(dp2680
sg75
g2674
sg68
(lp2681
g61
(g82
g63
NtRp2682
(dp2683
g66
(dp2684
g86
g87
ssg75
g2678
sg68
(lp2685
S'environ'
p2686
asbag61
(g82
g63
NtRp2687
(dp2688
g66
(dp2689
g93
g94
ssg75
g2678
sg68
(lp2690
S':'
asbag61
(g82
g63
NtRp2691
(dp2692
g66
(dp2693
sg75
g2678
sg68
(lp2694
g61
(g62
g63
NtRp2695
(dp2696
g66
(dp2697
g74
I4
ssg75
g2691
sg68
(lp2698
g61
(g70
g63
NtRp2699
(dp2700
g66
(dp2701
g74
I3
ssg75
Nsg68
(lp2702
g61
(g77
g63
NtRp2703
(dp2704
g66
(dp2705
sg75
g2699
sg68
(lp2706
g61
(g82
g63
NtRp2707
(dp2708
g66
(dp2709
g86
g87
ssg75
g2703
sg68
(lp2710
S'CONTENT_LENGTH'
p2711
asbag61
(g82
g63
NtRp2712
(dp2713
g66
(dp2714
g93
g94
ssg75
g2703
sg68
(lp2715
S':'
asbag61
(g82
g63
NtRp2716
(dp2717
g66
(dp2718
sg75
g2703
sg68
(lp2719
g61
(g62
g63
NtRp2720
(dp2721
g66
(dp2722
g74
I3
ssg75
g2716
sg68
(lp2723
g807
asbasbasbag61
(g77
g63
NtRp2724
(dp2725
g66
(dp2726
sg75
g2699
sg68
(lp2727
g61
(g82
g63
NtRp2728
(dp2729
g66
(dp2730
g86
g87
ssg75
g2724
sg68
(lp2731
S'CONTENT_TYPE'
p2732
asbag61
(g82
g63
NtRp2733
(dp2734
g66
(dp2735
g93
g94
ssg75
g2724
sg68
(lp2736
S':'
asbag61
(g82
g63
NtRp2737
(dp2738
g66
(dp2739
sg75
g2724
sg68
(lp2740
g61
(g62
g63
NtRp2741
(dp2742
g66
(dp2743
g74
I3
ssg75
g2737
sg68
(lp2744
g829
asbasbasbag61
(g77
g63
NtRp2745
(dp2746
g66
(dp2747
sg75
g2699
sg68
(lp2748
g61
(g82
g63
NtRp2749
(dp2750
g66
(dp2751
g86
g87
ssg75
g2745
sg68
(lp2752
S'HTTP_ACCEPT'
p2753
asbag61
(g82
g63
NtRp2754
(dp2755
g66
(dp2756
g93
g94
ssg75
g2745
sg68
(lp2757
S':'
asbag61
(g82
g63
NtRp2758
(dp2759
g66
(dp2760
sg75
g2745
sg68
(lp2761
g61
(g62
g63
NtRp2762
(dp2763
g66
(dp2764
g74
I3
ssg75
g2758
sg68
(lp2765
g916
asbasbasbag61
(g77
g63
NtRp2766
(dp2767
g66
(dp2768
sg75
g2699
sg68
(lp2769
g61
(g82
g63
NtRp2770
(dp2771
g66
(dp2772
g86
g87
ssg75
g2766
sg68
(lp2773
S'HTTP_ACCEPT_CHARSET'
p2774
asbag61
(g82
g63
NtRp2775
(dp2776
g66
(dp2777
g93
g94
ssg75
g2766
sg68
(lp2778
S':'
asbag61
(g82
g63
NtRp2779
(dp2780
g66
(dp2781
sg75
g2766
sg68
(lp2782
g61
(g62
g63
NtRp2783
(dp2784
g66
(dp2785
g74
I3
ssg75
g2779
sg68
(lp2786
g938
asbasbasbag61
(g77
g63
NtRp2787
(dp2788
g66
(dp2789
sg75
g2699
sg68
(lp2790
g61
(g82
g63
NtRp2791
(dp2792
g66
(dp2793
g86
g87
ssg75
g2787
sg68
(lp2794
S'HTTP_ACCEPT_ENCODING'
p2795
asbag61
(g82
g63
NtRp2796
(dp2797
g66
(dp2798
g93
g94
ssg75
g2787
sg68
(lp2799
S':'
asbag61
(g82
g63
NtRp2800
(dp2801
g66
(dp2802
sg75
g2787
sg68
(lp2803
g61
(g62
g63
NtRp2804
(dp2805
g66
(dp2806
g74
I3
ssg75
g2800
sg68
(lp2807
g960
asbasbasbag61
(g77
g63
NtRp2808
(dp2809
g66
(dp2810
sg75
g2699
sg68
(lp2811
g61
(g82
g63
NtRp2812
(dp2813
g66
(dp2814
g86
g87
ssg75
g2808
sg68
(lp2815
S'HTTP_ACCEPT_LANGUAGE'
p2816
asbag61
(g82
g63
NtRp2817
(dp2818
g66
(dp2819
g93
g94
ssg75
g2808
sg68
(lp2820
S':'
asbag61
(g82
g63
NtRp2821
(dp2822
g66
(dp2823
sg75
g2808
sg68
(lp2824
g61
(g62
g63
NtRp2825
(dp2826
g66
(dp2827
g74
I3
ssg75
g2821
sg68
(lp2828
g982
asbasbasbag61
(g77
g63
NtRp2829
(dp2830
g66
(dp2831
sg75
g2699
sg68
(lp2832
g61
(g82
g63
NtRp2833
(dp2834
g66
(dp2835
g86
g87
ssg75
g2829
sg68
(lp2836
S'HTTP_CACHE_CONTROL'
p2837
asbag61
(g82
g63
NtRp2838
(dp2839
g66
(dp2840
g93
g94
ssg75
g2829
sg68
(lp2841
S':'
asbag61
(g82
g63
NtRp2842
(dp2843
g66
(dp2844
sg75
g2829
sg68
(lp2845
g61
(g62
g63
NtRp2846
(dp2847
g66
(dp2848
g74
I3
ssg75
g2842
sg68
(lp2849
g1004
asbasbasbag61
(g77
g63
NtRp2850
(dp2851
g66
(dp2852
sg75
g2699
sg68
(lp2853
g61
(g82
g63
NtRp2854
(dp2855
g66
(dp2856
g86
g87
ssg75
g2850
sg68
(lp2857
S'HTTP_CONNECTION'
p2858
asbag61
(g82
g63
NtRp2859
(dp2860
g66
(dp2861
g93
g94
ssg75
g2850
sg68
(lp2862
S':'
asbag61
(g82
g63
NtRp2863
(dp2864
g66
(dp2865
sg75
g2850
sg68
(lp2866
g61
(g62
g63
NtRp2867
(dp2868
g66
(dp2869
g74
I3
ssg75
g2863
sg68
(lp2870
g1026
asbasbasbag61
(g77
g63
NtRp2871
(dp2872
g66
(dp2873
sg75
g2699
sg68
(lp2874
g61
(g82
g63
NtRp2875
(dp2876
g66
(dp2877
g86
g87
ssg75
g2871
sg68
(lp2878
S'HTTP_CONTENT_LENGTH'
p2879
asbag61
(g82
g63
NtRp2880
(dp2881
g66
(dp2882
g93
g94
ssg75
g2871
sg68
(lp2883
S':'
asbag61
(g82
g63
NtRp2884
(dp2885
g66
(dp2886
sg75
g2871
sg68
(lp2887
g61
(g62
g63
NtRp2888
(dp2889
g66
(dp2890
g74
I3
ssg75
g2884
sg68
(lp2891
g807
asbasbasbag61
(g77
g63
NtRp2892
(dp2893
g66
(dp2894
sg75
g2699
sg68
(lp2895
g61
(g82
g63
NtRp2896
(dp2897
g66
(dp2898
g86
g87
ssg75
g2892
sg68
(lp2899
S'HTTP_CONTENT_TYPE'
p2900
asbag61
(g82
g63
NtRp2901
(dp2902
g66
(dp2903
g93
g94
ssg75
g2892
sg68
(lp2904
S':'
asbag61
(g82
g63
NtRp2905
(dp2906
g66
(dp2907
sg75
g2892
sg68
(lp2908
g61
(g62
g63
NtRp2909
(dp2910
g66
(dp2911
g74
I3
ssg75
g2905
sg68
(lp2912
g829
asbasbasbag61
(g77
g63
NtRp2913
(dp2914
g66
(dp2915
sg75
g2699
sg68
(lp2916
g61
(g82
g63
NtRp2917
(dp2918
g66
(dp2919
g86
g87
ssg75
g2913
sg68
(lp2920
S'HTTP_COOKIE'
p2921
asbag61
(g82
g63
NtRp2922
(dp2923
g66
(dp2924
g93
g94
ssg75
g2913
sg68
(lp2925
S':'
asbag61
(g82
g63
NtRp2926
(dp2927
g66
(dp2928
sg75
g2913
sg68
(lp2929
g61
(g62
g63
NtRp2930
(dp2931
g66
(dp2932
g74
I3
ssg75
g2926
sg68
(lp2933
g1090
asbasbasbag61
(g77
g63
NtRp2934
(dp2935
g66
(dp2936
sg75
g2699
sg68
(lp2937
g61
(g82
g63
NtRp2938
(dp2939
g66
(dp2940
g86
g87
ssg75
g2934
sg68
(lp2941
S'HTTP_HOST'
p2942
asbag61
(g82
g63
NtRp2943
(dp2944
g66
(dp2945
g93
g94
ssg75
g2934
sg68
(lp2946
S':'
asbag61
(g82
g63
NtRp2947
(dp2948
g66
(dp2949
sg75
g2934
sg68
(lp2950
g61
(g62
g63
NtRp2951
(dp2952
g66
(dp2953
g74
I3
ssg75
g2947
sg68
(lp2954
g1112
asbasbasbag61
(g77
g63
NtRp2955
(dp2956
g66
(dp2957
sg75
g2699
sg68
(lp2958
g61
(g82
g63
NtRp2959
(dp2960
g66
(dp2961
g86
g87
ssg75
g2955
sg68
(lp2962
S'HTTP_ORIGIN'
p2963
asbag61
(g82
g63
NtRp2964
(dp2965
g66
(dp2966
g93
g94
ssg75
g2955
sg68
(lp2967
S':'
asbag61
(g82
g63
NtRp2968
(dp2969
g66
(dp2970
sg75
g2955
sg68
(lp2971
g61
(g62
g63
NtRp2972
(dp2973
g66
(dp2974
g74
I3
ssg75
g2968
sg68
(lp2975
g1134
asbasbasbag61
(g77
g63
NtRp2976
(dp2977
g66
(dp2978
sg75
g2699
sg68
(lp2979
g61
(g82
g63
NtRp2980
(dp2981
g66
(dp2982
g86
g87
ssg75
g2976
sg68
(lp2983
S'HTTP_REFERER'
p2984
asbag61
(g82
g63
NtRp2985
(dp2986
g66
(dp2987
g93
g94
ssg75
g2976
sg68
(lp2988
S':'
asbag61
(g82
g63
NtRp2989
(dp2990
g66
(dp2991
sg75
g2976
sg68
(lp2992
g61
(g62
g63
NtRp2993
(dp2994
g66
(dp2995
g74
I3
ssg75
g2989
sg68
(lp2996
g1156
asbasbasbag61
(g77
g63
NtRp2997
(dp2998
g66
(dp2999
sg75
g2699
sg68
(lp3000
g61
(g82
g63
NtRp3001
(dp3002
g66
(dp3003
g86
g87
ssg75
g2997
sg68
(lp3004
S'HTTP_USER_AGENT'
p3005
asbag61
(g82
g63
NtRp3006
(dp3007
g66
(dp3008
g93
g94
ssg75
g2997
sg68
(lp3009
S':'
asbag61
(g82
g63
NtRp3010
(dp3011
g66
(dp3012
sg75
g2997
sg68
(lp3013
g61
(g62
g63
NtRp3014
(dp3015
g66
(dp3016
g74
I3
ssg75
g3010
sg68
(lp3017
g1178
asbasbasbag61
(g77
g63
NtRp3018
(dp3019
g66
(dp3020
sg75
g2699
sg68
(lp3021
g61
(g82
g63
NtRp3022
(dp3023
g66
(dp3024
g86
g87
ssg75
g3018
sg68
(lp3025
S'PATH_INFO'
p3026
asbag61
(g82
g63
NtRp3027
(dp3028
g66
(dp3029
g93
g94
ssg75
g3018
sg68
(lp3030
S':'
asbag61
(g82
g63
NtRp3031
(dp3032
g66
(dp3033
sg75
g3018
sg68
(lp3034
g61
(g62
g63
NtRp3035
(dp3036
g66
(dp3037
g74
I3
ssg75
g3031
sg68
(lp3038
g1319
asbasbasbag61
(g77
g63
NtRp3039
(dp3040
g66
(dp3041
sg75
g2699
sg68
(lp3042
g61
(g82
g63
NtRp3043
(dp3044
g66
(dp3045
g86
g87
ssg75
g3039
sg68
(lp3046
S'QUERY_STRING'
p3047
asbag61
(g82
g63
NtRp3048
(dp3049
g66
(dp3050
g93
g94
ssg75
g3039
sg68
(lp3051
S':'
asbag61
(g82
g63
NtRp3052
(dp3053
g66
(dp3054
sg75
g3039
sg68
(lp3055
g61
(g62
g63
NtRp3056
(dp3057
g66
(dp3058
g74
I3
ssg75
g3052
sg68
(lp3059
S''
asbasbasbag61
(g77
g63
NtRp3060
(dp3061
g66
(dp3062
sg75
g2699
sg68
(lp3063
g61
(g82
g63
NtRp3064
(dp3065
g66
(dp3066
g86
g87
ssg75
g3060
sg68
(lp3067
S'REMOTE_ADDR'
p3068
asbag61
(g82
g63
NtRp3069
(dp3070
g66
(dp3071
g93
g94
ssg75
g3060
sg68
(lp3072
S':'
asbag61
(g82
g63
NtRp3073
(dp3074
g66
(dp3075
sg75
g3060
sg68
(lp3076
g61
(g62
g63
NtRp3077
(dp3078
g66
(dp3079
g74
I3
ssg75
g3073
sg68
(lp3080
g242
asbasbasbag61
(g77
g63
NtRp3081
(dp3082
g66
(dp3083
sg75
g2699
sg68
(lp3084
g61
(g82
g63
NtRp3085
(dp3086
g66
(dp3087
g86
g87
ssg75
g3081
sg68
(lp3088
S'REMOTE_PORT'
p3089
asbag61
(g82
g63
NtRp3090
(dp3091
g66
(dp3092
g93
g94
ssg75
g3081
sg68
(lp3093
S':'
asbag61
(g82
g63
NtRp3094
(dp3095
g66
(dp3096
sg75
g3081
sg68
(lp3097
g61
(g62
g63
NtRp3098
(dp3099
g66
(dp3100
g74
I3
ssg75
g3094
sg68
(lp3101
g1383
asbasbasbag61
(g77
g63
NtRp3102
(dp3103
g66
(dp3104
sg75
g2699
sg68
(lp3105
g61
(g82
g63
NtRp3106
(dp3107
g66
(dp3108
g86
g87
ssg75
g3102
sg68
(lp3109
S'REQUEST_METHOD'
p3110
asbag61
(g82
g63
NtRp3111
(dp3112
g66
(dp3113
g93
g94
ssg75
g3102
sg68
(lp3114
S':'
asbag61
(g82
g63
NtRp3115
(dp3116
g66
(dp3117
sg75
g3102
sg68
(lp3118
g61
(g62
g63
NtRp3119
(dp3120
g66
(dp3121
g74
I3
ssg75
g3115
sg68
(lp3122
g1405
asbasbasbag61
(g77
g63
NtRp3123
(dp3124
g66
(dp3125
sg75
g2699
sg68
(lp3126
g61
(g82
g63
NtRp3127
(dp3128
g66
(dp3129
g86
g87
ssg75
g3123
sg68
(lp3130
S'REQUEST_URI'
p3131
asbag61
(g82
g63
NtRp3132
(dp3133
g66
(dp3134
g93
g94
ssg75
g3123
sg68
(lp3135
S':'
asbag61
(g82
g63
NtRp3136
(dp3137
g66
(dp3138
sg75
g3123
sg68
(lp3139
g61
(g62
g63
NtRp3140
(dp3141
g66
(dp3142
g74
I3
ssg75
g3136
sg68
(lp3143
g1427
asbasbasbag61
(g77
g63
NtRp3144
(dp3145
g66
(dp3146
sg75
g2699
sg68
(lp3147
g61
(g82
g63
NtRp3148
(dp3149
g66
(dp3150
g86
g87
ssg75
g3144
sg68
(lp3151
S'SCRIPT_NAME'
p3152
asbag61
(g82
g63
NtRp3153
(dp3154
g66
(dp3155
g93
g94
ssg75
g3144
sg68
(lp3156
S':'
asbag61
(g82
g63
NtRp3157
(dp3158
g66
(dp3159
sg75
g3144
sg68
(lp3160
g61
(g62
g63
NtRp3161
(dp3162
g66
(dp3163
g74
I3
ssg75
g3157
sg68
(lp3164
S''
asbasbasbag61
(g77
g63
NtRp3165
(dp3166
g66
(dp3167
sg75
g2699
sg68
(lp3168
g61
(g82
g63
NtRp3169
(dp3170
g66
(dp3171
g86
g87
ssg75
g3165
sg68
(lp3172
S'SERVER_NAME'
p3173
asbag61
(g82
g63
NtRp3174
(dp3175
g66
(dp3176
g93
g94
ssg75
g3165
sg68
(lp3177
S':'
asbag61
(g82
g63
NtRp3178
(dp3179
g66
(dp3180
sg75
g3165
sg68
(lp3181
g61
(g62
g63
NtRp3182
(dp3183
g66
(dp3184
g74
I3
ssg75
g3178
sg68
(lp3185
g1470
asbasbasbag61
(g77
g63
NtRp3186
(dp3187
g66
(dp3188
sg75
g2699
sg68
(lp3189
g61
(g82
g63
NtRp3190
(dp3191
g66
(dp3192
g86
g87
ssg75
g3186
sg68
(lp3193
S'SERVER_PORT'
p3194
asbag61
(g82
g63
NtRp3195
(dp3196
g66
(dp3197
g93
g94
ssg75
g3186
sg68
(lp3198
S':'
asbag61
(g82
g63
NtRp3199
(dp3200
g66
(dp3201
sg75
g3186
sg68
(lp3202
g61
(g62
g63
NtRp3203
(dp3204
g66
(dp3205
g74
I3
ssg75
g3199
sg68
(lp3206
g1492
asbasbasbag61
(g77
g63
NtRp3207
(dp3208
g66
(dp3209
sg75
g2699
sg68
(lp3210
g61
(g82
g63
NtRp3211
(dp3212
g66
(dp3213
g86
g87
ssg75
g3207
sg68
(lp3214
S'SERVER_PROTOCOL'
p3215
asbag61
(g82
g63
NtRp3216
(dp3217
g66
(dp3218
g93
g94
ssg75
g3207
sg68
(lp3219
S':'
asbag61
(g82
g63
NtRp3220
(dp3221
g66
(dp3222
sg75
g3207
sg68
(lp3223
g61
(g62
g63
NtRp3224
(dp3225
g66
(dp3226
g74
I3
ssg75
g3220
sg68
(lp3227
g1514
asbasbasbag61
(g77
g63
NtRp3228
(dp3229
g66
(dp3230
sg75
g2699
sg68
(lp3231
g61
(g82
g63
NtRp3232
(dp3233
g66
(dp3234
g86
g87
ssg75
g3228
sg68
(lp3235
S'SERVER_SOFTWARE'
p3236
asbag61
(g82
g63
NtRp3237
(dp3238
g66
(dp3239
g93
g94
ssg75
g3228
sg68
(lp3240
S':'
asbag61
(g82
g63
NtRp3241
(dp3242
g66
(dp3243
sg75
g3228
sg68
(lp3244
g61
(g62
g63
NtRp3245
(dp3246
g66
(dp3247
g74
I3
ssg75
g3241
sg68
(lp3248
g1536
asbasbasbag61
(g77
g63
NtRp3249
(dp3250
g66
(dp3251
sg75
g2699
sg68
(lp3252
g61
(g82
g63
NtRp3253
(dp3254
g66
(dp3255
g86
g87
ssg75
g3249
sg68
(lp3256
S'WEB2PY_ORIGINAL_URI'
p3257
asbag61
(g82
g63
NtRp3258
(dp3259
g66
(dp3260
g93
g94
ssg75
g3249
sg68
(lp3261
S':'
asbag61
(g82
g63
NtRp3262
(dp3263
g66
(dp3264
sg75
g3249
sg68
(lp3265
g61
(g62
g63
NtRp3266
(dp3267
g66
(dp3268
g74
I3
ssg75
g3262
sg68
(lp3269
g1319
asbasbasbag61
(g77
g63
NtRp3270
(dp3271
g66
(dp3272
sg75
g2699
sg68
(lp3273
g61
(g82
g63
NtRp3274
(dp3275
g66
(dp3276
g86
g87
ssg75
g3270
sg68
(lp3277
S'wsgi.errors'
p3278
asbag61
(g82
g63
NtRp3279
(dp3280
g66
(dp3281
g93
g94
ssg75
g3270
sg68
(lp3282
S':'
asbag61
(g82
g63
NtRp3283
(dp3284
g66
(dp3285
sg75
g3270
sg68
(lp3286
g61
(g62
g63
NtRp3287
(dp3288
g66
(dp3289
g74
I3
ssg75
g3283
sg68
(lp3290
S"<open file '<stderr>', mode 'w' at 0x7f3308ed3270>"
p3291
asbasbasbag61
(g77
g63
NtRp3292
(dp3293
g66
(dp3294
sg75
g2699
sg68
(lp3295
g61
(g82
g63
NtRp3296
(dp3297
g66
(dp3298
g86
g87
ssg75
g3292
sg68
(lp3299
S'wsgi.file_wrapper'
p3300
asbag61
(g82
g63
NtRp3301
(dp3302
g66
(dp3303
g93
g94
ssg75
g3292
sg68
(lp3304
S':'
asbag61
(g82
g63
NtRp3305
(dp3306
g66
(dp3307
sg75
g3292
sg68
(lp3308
g61
(g62
g63
NtRp3309
(dp3310
g66
(dp3311
g74
I3
ssg75
g3305
sg68
(lp3312
S'<class wsgiref.util.FileWrapper at 0x2194598>'
p3313
asbasbasbag61
(g77
g63
NtRp3314
(dp3315
g66
(dp3316
sg75
g2699
sg68
(lp3317
g61
(g82
g63
NtRp3318
(dp3319
g66
(dp3320
g86
g87
ssg75
g3314
sg68
(lp3321
S'wsgi.input'
p3322
asbag61
(g82
g63
NtRp3323
(dp3324
g66
(dp3325
g93
g94
ssg75
g3314
sg68
(lp3326
S':'
asbag61
(g82
g63
NtRp3327
(dp3328
g66
(dp3329
sg75
g3314
sg68
(lp3330
g61
(g62
g63
NtRp3331
(dp3332
g66
(dp3333
g74
I3
ssg75
g3327
sg68
(lp3334
S"<open file '<fdopen>', mode 'w+b' at 0x7f32f80594b0>"
p3335
asbasbasbag61
(g77
g63
NtRp3336
(dp3337
g66
(dp3338
sg75
g2699
sg68
(lp3339
g61
(g82
g63
NtRp3340
(dp3341
g66
(dp3342
g86
g87
ssg75
g3336
sg68
(lp3343
S'wsgi.multiprocess'
p3344
asbag61
(g82
g63
NtRp3345
(dp3346
g66
(dp3347
g93
g94
ssg75
g3336
sg68
(lp3348
S':'
asbag61
(g82
g63
NtRp3349
(dp3350
g66
(dp3351
sg75
g3336
sg68
(lp3352
g61
(g62
g63
NtRp3353
(dp3354
g66
(dp3355
g74
I3
ssg75
g3349
sg68
(lp3356
g104
asbasbasbag61
(g77
g63
NtRp3357
(dp3358
g66
(dp3359
sg75
g2699
sg68
(lp3360
g61
(g82
g63
NtRp3361
(dp3362
g66
(dp3363
g86
g87
ssg75
g3357
sg68
(lp3364
S'wsgi.multithread'
p3365
asbag61
(g82
g63
NtRp3366
(dp3367
g66
(dp3368
g93
g94
ssg75
g3357
sg68
(lp3369
S':'
asbag61
(g82
g63
NtRp3370
(dp3371
g66
(dp3372
sg75
g3357
sg68
(lp3373
g61
(g62
g63
NtRp3374
(dp3375
g66
(dp3376
g74
I3
ssg75
g3370
sg68
(lp3377
g1774
asbasbasbag61
(g77
g63
NtRp3378
(dp3379
g66
(dp3380
sg75
g2699
sg68
(lp3381
g61
(g82
g63
NtRp3382
(dp3383
g66
(dp3384
g86
g87
ssg75
g3378
sg68
(lp3385
S'wsgi.run_once'
p3386
asbag61
(g82
g63
NtRp3387
(dp3388
g66
(dp3389
g93
g94
ssg75
g3378
sg68
(lp3390
S':'
asbag61
(g82
g63
NtRp3391
(dp3392
g66
(dp3393
sg75
g3378
sg68
(lp3394
g61
(g62
g63
NtRp3395
(dp3396
g66
(dp3397
g74
I3
ssg75
g3391
sg68
(lp3398
g104
asbasbasbag61
(g77
g63
NtRp3399
(dp3400
g66
(dp3401
sg75
g2699
sg68
(lp3402
g61
(g82
g63
NtRp3403
(dp3404
g66
(dp3405
g86
g87
ssg75
g3399
sg68
(lp3406
S'wsgi.url_scheme'
p3407
asbag61
(g82
g63
NtRp3408
(dp3409
g66
(dp3410
g93
g94
ssg75
g3399
sg68
(lp3411
S':'
asbag61
(g82
g63
NtRp3412
(dp3413
g66
(dp3414
sg75
g3399
sg68
(lp3415
g61
(g62
g63
NtRp3416
(dp3417
g66
(dp3418
g74
I3
ssg75
g3412
sg68
(lp3419
g1817
asbasbasbag61
(g77
g63
NtRp3420
(dp3421
g66
(dp3422
sg75
g2699
sg68
(lp3423
g61
(g82
g63
NtRp3424
(dp3425
g66
(dp3426
g86
g87
ssg75
g3420
sg68
(lp3427
S'wsgi.version'
p3428
asbag61
(g82
g63
NtRp3429
(dp3430
g66
(dp3431
g93
g94
ssg75
g3420
sg68
(lp3432
S':'
asbag61
(g82
g63
NtRp3433
(dp3434
g66
(dp3435
sg75
g3420
sg68
(lp3436
g61
(g62
g63
NtRp3437
(dp3438
g66
(dp3439
g74
I3
ssg75
g3433
sg68
(lp3440
S'1'
asbasbasbasbasbasbasbasbasbasbasbasbasbsS'frames'
p3441
(lp3442
(dp3443
S'file'
p3444
S'/var/www/conferencia/gluon/restricted.py'
p3445
sS'dump'
p3446
(dp3447
S'environment'
p3448
S"{'A': <class 'gluon.html.A'>, 'Auth': <class 'gluon.tools.Auth'>, 'B': <class 'gluon.html.B'>, 'BEAUTIFY': <class 'gluon.html.BEAUTIFY'>, 'BODY': <class 'gluon.html.BODY'>, 'BR': <class 'gluon.html.BR'>, 'BUTTON': <class 'gluon.html.BUTTON'>, 'CAT': <class 'gluon.html.CAT'>, 'CENTER': <class 'gluon.html.CENTER'>, 'CLEANUP': <class 'gluon.validators.CLEANUP'>, ...}"
p3449
sS'ccode'
p3450
S'<code object <module> at 0x7f32f8156a30, file "/...ications/projeto/controllers/initial.py", line 3>'
p3451
ssS'lnum'
p3452
I212
sS'lines'
p3453
(dp3454
I207
S'    try:'
p3455
sI208
S'        if isinstance(code, types.CodeType):'
p3456
sI209
S'            ccode = code'
p3457
sI210
S'        else:'
p3458
sI211
S'            ccode = compile2(code, layer)'
p3459
sI212
S'        exec ccode in environment'
p3460
sI213
S'    except HTTP:'
p3461
sI214
S'        raise'
p3462
sI215
S'    except RestrictedError:'
p3463
sI216
S'        # do not encapsulate (obfuscate) the original RestrictedError'
p3464
ssS'call'
p3465
S"(code='# coding: utf-8\\n\\ndef show_cliente():\\n\\tresponse.t...\\t\\t\\t)\\n\\nresponse._vars=response._caller(principal)\\n', environment={'A': <class 'gluon.html.A'>, 'Auth': <class 'gluon.tools.Auth'>, 'B': <class 'gluon.html.B'>, 'BEAUTIFY': <class 'gluon.html.BEAUTIFY'>, 'BODY': <class 'gluon.html.BODY'>, 'BR': <class 'gluon.html.BR'>, 'BUTTON': <class 'gluon.html.BUTTON'>, 'CAT': <class 'gluon.html.CAT'>, 'CENTER': <class 'gluon.html.CENTER'>, 'CLEANUP': <class 'gluon.validators.CLEANUP'>, ...}, layer='/var/www/conferencia/applications/projeto/controllers/initial.py')"
p3466
sS'func'
p3467
S'restricted'
p3468
sa(dp3469
g3444
S'/var/www/conferencia/applications/projeto/controllers/initial.py'
p3470
sg3446
(dp3471
sg3452
I328
sg3453
(dp3472
I320
S'\t\t\t)'
p3473
sI321
S"\telif auth.has_membership('internet'):"
p3474
sI322
S'\t\tmail.send('
p3475
sI323
S'\t\t\tto="fernando@ad2.com.br",'
p3476
sI324
S'\t\t\tsubject="host adicionado",'
p3477
sI325
S'\t\t\tmessage="<html>Um novo host foi adicionado pelo usu\xc3\xa1rio %s <br>nome: %s <br>vpn: %s<br><br>\xc3\x89 preciso fazer a instala\xc3\xa7\xc3\xa3o do client zabbix e bacula</html>" % (auth.user.first_name, host.nome, host.ip_chegada,)'
p3478
sI326
S'\t\t\t)'
p3479
sI317
S'\t\t\tto="fndiaz02@gmail.com",'
p3480
sI318
S'\t\t\tsubject="host adicionado",'
p3481
sI319
S'\t\t\tmessage="<html>Um novo host foi adicionado pelo usu\xc3\xa1rio %s <br>nome: %s <br>vpn: %s<br><br>\xc3\x89 preciso fazer a instala\xc3\xa7\xc3\xa3o do client zabbix e bacula</html>" % (auth.user.first_name, host.nome, host.ip_chegada,)'
p3482
ssg3465
S'()'
p3483
sg3467
S'<module>'
p3484
sa(dp3485
g3444
S'/var/www/conferencia/gluon/globals.py'
p3486
sg3446
(dp3487
S'self'
p3488
S'undefined'
p3489
sS'f'
S'<function principal>'
p3490
ssg3452
I193
sg3453
(dp3491
I192
S'        self._vars = None'
p3492
sI193
S'        self._caller = lambda f: f()'
p3493
sI194
S'        self._view_environment = None'
p3494
sI195
S'        self._custom_commit = None'
p3495
sI196
S'        self._custom_rollback = None'
p3496
sI197
S''
sI188
S'        self.menu = []             # used by the default view layout'
p3497
sI189
S'        self.files = []            # used by web2py_ajax.html'
p3498
sI190
S'        self.generic_patterns = []  # patterns to allow generic views'
p3499
sI191
S"        self.delimiters = ('{{', '}}')"
p3500
ssg3465
S'(f=<function principal>)'
p3501
sg3467
S'<lambda>'
p3502
sa(dp3503
g3444
S'/var/www/conferencia/applications/projeto/controllers/initial.py'
p3504
sg3446
(dp3505
S'ignore_rw'
p3506
g3489
sS'builtinTrue'
p3507
g1774
sS'maxtextlength'
p3508
g3489
ssg3452
I297
sg3453
(dp3509
I292
S'\tresponse.title="Usu\xc3\xa1rios"'
p3510
sI293
S''
sI294
S'\tgrid = SQLFORM.grid(db.usuario,'
p3511
sI295
S'\t\tuser_signature=False, searchable=True, csv=False,'
p3512
sI296
S'\t\tpaginate=50, details=False,'
p3513
sI297
S'\t\tignore_rw = True, maxtextlength=36,'
p3514
sI298
S'    \t)'
p3515
sI299
S'\treturn response.render("initial/show_grid.html", grid=grid)'
p3516
sI300
S''
sI301
S''
ssg3465
S'()'
p3517
sg3467
g1932
sa(dp3518
g3444
S'/var/www/conferencia/gluon/sqlhtml.py'
p3519
sg3446
(dp3520
S'oncreate'
p3521
S'None'
p3522
sS'onsuccess'
p3523
g3489
ssg3452
I1881
sg3453
(dp3524
I1876
S"                _class='web2py_form',"
p3525
sI1877
S'                **sqlformargs)'
p3526
sI1878
S'            create_form.process(formname=formname,'
p3527
sI1879
S'                                next=referrer,'
p3528
sI1880
S'                                onvalidation=onvalidation,'
p3529
sI1881
S'                                onsuccess=oncreate)'
p3530
sI1882
S'            res = DIV(buttons(), create_form, formfooter, _class=_class)'
p3531
sI1883
S'            res.create_form = create_form'
p3532
sI1884
S'            res.update_form = update_form'
p3533
sI1885
S'            res.view_form = view_form'
p3534
ssg3465
S"(query=<Table usuario (id,nome,pin,email)>, fields=[<gluon.dal.Field object>, <gluon.dal.Field object>, <gluon.dal.Field object>, <gluon.dal.Field object>], field_id=<gluon.dal.Field object>, left=None, headers={}, orderby=None, groupby=None, searchable=True, sortable=True, paginate=50, deletable=True, editable=True, details=False, selectable=None, create=True, csv=False, links=None, links_in_grid=True, upload=<function <lambda>>, args=[], user_signature=False, maxtextlengths={}, maxtextlength=36, onvalidation=None, oncreate=None, onupdate=None, ondelete=None, sorter_icons=(<gluon.html.XML object>, <gluon.html.XML object>), ui={'button': 'button btn', 'buttonadd': 'icon plus icon-plus', 'buttonback': 'icon leftarrow icon-arrow-left', 'buttondelete': 'icon trash icon-trash', 'buttonedit': 'icon pen icon-pencil', 'buttonexport': 'icon downarrow icon-download', 'buttontable': 'icon rightarrow icon-arrow-right', 'buttontext': 'buttontext button', 'buttonview': 'icon magnifier icon-zoom-in', 'content': '', ...}, showbuttontext=True, _class='web2py_grid', formname='web2py_grid', search_widget='default', ignore_rw=True, formstyle='table3cols', exportclasses=None, formargs={}, createargs={}, editargs={}, viewargs={}, buttons_placement='right', links_placement='right')"
p3535
sg3467
S'grid'
p3536
sa(dp3537
g3444
S'/var/www/conferencia/gluon/html.py'
p3538
sg3446
(dp3539
S'self'
p3540
S'<gluon.sqlhtml.SQLFORM object>'
p3541
sS'self.validate'
p3542
S'<bound method SQLFORM.validate of <gluon.sqlhtml.SQLFORM object>>'
p3543
sS'kwargs'
p3544
S"{'dbio': True, 'formname': 'web2py_grid', 'next': '/', 'onsuccess': None, 'onvalidation': None}"
p3545
ssg3452
I2179
sg3453
(dp3546
I2176
S'        """'
p3547
sI2177
S"        kwargs['dbio'] = kwargs.get('dbio', True)"
p3548
sI2178
S'                                    # necessary for SQLHTML forms'
p3549
sI2179
S'        self.validate(**kwargs)'
p3550
sI2180
S'        return self'
p3551
sI2181
S''
sI2182
S'    REDIRECT_JS = "window.location=\'%s\';return false"'
p3552
sI2183
S''
sI2174
S'        def action():'
p3553
sI2175
S'            return dict(form=SQLFORM(db.table).process(onsuccess=my_callback)'
p3554
ssg3465
S"(self=<gluon.sqlhtml.SQLFORM object>, **kwargs={'dbio': True, 'formname': 'web2py_grid', 'next': '/', 'onsuccess': None, 'onvalidation': None})"
p3555
sg3467
S'process'
p3556
sa(dp3557
g3444
S'/var/www/conferencia/gluon/html.py'
p3558
sg3446
(dp3559
S'self'
p3560
S'<gluon.sqlhtml.SQLFORM object>'
p3561
sS'self.accepts'
p3562
S'<bound method SQLFORM.accepts of <gluon.sqlhtml.SQLFORM object>>'
p3563
sS'kwargs'
p3564
S"{'dbio': True, 'formname': 'web2py_grid', 'onvalidation': None, 'request_vars': <Storage {'_formkey': '55705a16-13b8-4952-8035-f...', 'pin': '2552', 'email': 'fndiaz02@gmail.com'}>, 'session': <Storage {'_web2py_grid_referrer_web2py_grid': '...ssion_hash': 'f25ce5c1be02b801fadcb84a8b659391'}>}"
p3565
ssg3452
I2118
sg3453
(dp3566
I2113
S"        for key in ('message_onsuccess', 'message_onfailure', 'onsuccess',"
p3567
sI2114
S"                    'onfailure', 'next', 'message_onchange', 'onchange'):"
p3568
sI2115
S'            if key in kwargs:'
p3569
sI2116
S'                del kwargs[key]'
p3570
sI2117
S''
sI2118
S'        if self.accepts(**kwargs):'
p3571
sI2119
S"            if onsuccess == 'flash':"
p3572
sI2120
S'                if next:'
p3573
sI2121
S'                    current.session.flash = message_onsuccess'
p3574
sI2122
S'                else:'
p3575
ssg3465
S"(self=<gluon.sqlhtml.SQLFORM object>, **kwargs={'dbio': True, 'formname': 'web2py_grid', 'onvalidation': None, 'request_vars': <Storage {'_formkey': '55705a16-13b8-4952-8035-f...', 'pin': '2552', 'email': 'fndiaz02@gmail.com'}>, 'session': <Storage {'_web2py_grid_referrer_web2py_grid': '...ssion_hash': 'f25ce5c1be02b801fadcb84a8b659391'}>})"
p3576
sg3467
S'validate'
p3577
sa(dp3578
g3444
S'/var/www/conferencia/gluon/sqlhtml.py'
p3579
sg3446
(dp3580
S'kwargs'
p3581
g21
ssg3452
I1291
sg3453
(dp3582
I1286
S'            session,'
p3583
sI1287
S'            formname,'
p3584
sI1288
S'            keepvalues,'
p3585
sI1289
S'            onvalidation,'
p3586
sI1290
S'            hideerror=hideerror,'
p3587
sI1291
S'            **kwargs'
p3588
sI1292
S'        )'
p3589
sI1293
S''
sI1294
S'        self.deleted = \\'
p3590
sI1295
S'            request_vars.get(self.FIELDNAME_REQUEST_DELETE, False)'
p3591
ssg3465
S"(self=<gluon.sqlhtml.SQLFORM object>, request_vars=<Storage {'_formkey': '55705a16-13b8-4952-8035-f...', 'pin': '2552', 'email': 'fndiaz02@gmail.com'}>, session=<Storage {'_web2py_grid_referrer_web2py_grid': '...ssion_hash': 'f25ce5c1be02b801fadcb84a8b659391'}>, formname='web2py_grid', keepvalues=False, onvalidation=None, dbio=True, hideerror=False, detect_record_change=False, **kwargs={})"
p3592
sg3467
S'accepts'
p3593
sa(dp3594
g3444
S'/var/www/conferencia/gluon/html.py'
p3595
sg3446
(dp3596
S'status'
p3597
g1774
sS'self'
p3598
S'<gluon.sqlhtml.SQLFORM object>'
p3599
sS'self._traverse'
p3600
S'<bound method SQLFORM._traverse of <gluon.sqlhtml.SQLFORM object>>'
p3601
sS'hideerror'
p3602
g104
ssg3452
I2001
sg3453
(dp3603
I1996
S'        if status and session:'
p3604
sI1997
S'            # check if editing a record that has been modified by the server'
p3605
sI1998
S"            if hasattr(self, 'record_hash') and self.record_hash != formkey:"
p3606
sI1999
S'                status = False'
p3607
sI2000
S'                self.record_changed = changed = True'
p3608
sI2001
S'        status = self._traverse(status, hideerror)'
p3609
sI2002
S'        status = self.assert_status(status, request_vars)'
p3610
sI2003
S'        if onvalidation:'
p3611
sI2004
S'            if isinstance(onvalidation, dict):'
p3612
sI2005
S"                onsuccess = onvalidation.get('onsuccess', None)"
p3613
ssg3465
S"(self=<gluon.sqlhtml.SQLFORM object>, request_vars=<Storage {'email': 'fndiaz02@gmail.com', '_formk...web2py_grid', 'pin': '2552', 'nome': 'Fernando'}>, session=<Storage {'_web2py_grid_referrer_web2py_grid': '...ssion_hash': 'f25ce5c1be02b801fadcb84a8b659391'}>, formname='web2py_grid', keepvalues=False, onvalidation=None, hideerror=False, **kwargs={})"
p3614
sg3467
g3593
sa(dp3615
g3444
S'/var/www/conferencia/gluon/html.py'
p3616
sg3446
(dp3617
S'status'
p3618
g1774
sS'newstatus'
p3619
g1774
sS'c'
S'<gluon.html.TABLE object>'
p3620
sS'hideerror'
p3621
g104
sS'c._traverse'
p3622
S'<bound method TABLE._traverse of <gluon.html.TABLE object>>'
p3623
ssg3452
I847
sg3453
(dp3624
I842
S'                c.session = self.session'
p3625
sI843
S'                c.formname = self.formname'
p3626
sI844
S'                if hideerror and not \\'
p3627
sI845
S"                        self.attributes.get('hideerror', False):"
p3628
sI846
S"                    c['hideerror'] = hideerror"
p3629
sI847
S'                newstatus = c._traverse(status, hideerror) and newstatus'
p3630
sI848
S''
sI849
S'        # for input, textarea, select, option'
p3631
sI850
S"        # deal with 'value' and 'validation'"
p3632
sI851
S''
ssg3465
S'(self=<gluon.sqlhtml.SQLFORM object>, status=True, hideerror=False)'
p3633
sg3467
S'_traverse'
p3634
sa(dp3635
g3444
S'/var/www/conferencia/gluon/html.py'
p3636
sg3446
(dp3637
S'status'
p3638
g1774
sS'newstatus'
p3639
g1774
sS'c'
S'<gluon.html.TR object>'
p3640
sS'hideerror'
p3641
g104
sS'c._traverse'
p3642
S'<bound method TR._traverse of <gluon.html.TR object>>'
p3643
ssg3452
I847
sg3453
(dp3644
I842
S'                c.session = self.session'
p3645
sI843
S'                c.formname = self.formname'
p3646
sI844
S'                if hideerror and not \\'
p3647
sI845
S"                        self.attributes.get('hideerror', False):"
p3648
sI846
S"                    c['hideerror'] = hideerror"
p3649
sI847
S'                newstatus = c._traverse(status, hideerror) and newstatus'
p3650
sI848
S''
sI849
S'        # for input, textarea, select, option'
p3651
sI850
S"        # deal with 'value' and 'validation'"
p3652
sI851
S''
ssg3465
S'(self=<gluon.html.TABLE object>, status=True, hideerror=False)'
p3653
sg3467
g3634
sa(dp3654
g3444
S'/var/www/conferencia/gluon/html.py'
p3655
sg3446
(dp3656
S'status'
p3657
g1774
sS'newstatus'
p3658
g1774
sS'c'
S'<gluon.html.TD object>'
p3659
sS'hideerror'
p3660
g104
sS'c._traverse'
p3661
S'<bound method TD._traverse of <gluon.html.TD object>>'
p3662
ssg3452
I847
sg3453
(dp3663
I842
S'                c.session = self.session'
p3664
sI843
S'                c.formname = self.formname'
p3665
sI844
S'                if hideerror and not \\'
p3666
sI845
S"                        self.attributes.get('hideerror', False):"
p3667
sI846
S"                    c['hideerror'] = hideerror"
p3668
sI847
S'                newstatus = c._traverse(status, hideerror) and newstatus'
p3669
sI848
S''
sI849
S'        # for input, textarea, select, option'
p3670
sI850
S"        # deal with 'value' and 'validation'"
p3671
sI851
S''
ssg3465
S'(self=<gluon.html.TR object>, status=True, hideerror=False)'
p3672
sg3467
g3634
sa(dp3673
g3444
S'/var/www/conferencia/gluon/html.py'
p3674
sg3446
(dp3675
S'status'
p3676
g1774
sS'newstatus'
p3677
g1774
sS'c'
S'<gluon.html.INPUT object>'
p3678
sS'hideerror'
p3679
g104
sS'c._traverse'
p3680
S'<bound method INPUT._traverse of <gluon.html.INPUT object>>'
p3681
ssg3452
I847
sg3453
(dp3682
I842
S'                c.session = self.session'
p3683
sI843
S'                c.formname = self.formname'
p3684
sI844
S'                if hideerror and not \\'
p3685
sI845
S"                        self.attributes.get('hideerror', False):"
p3686
sI846
S"                    c['hideerror'] = hideerror"
p3687
sI847
S'                newstatus = c._traverse(status, hideerror) and newstatus'
p3688
sI848
S''
sI849
S'        # for input, textarea, select, option'
p3689
sI850
S"        # deal with 'value' and 'validation'"
p3690
sI851
S''
ssg3465
S'(self=<gluon.html.TD object>, status=True, hideerror=False)'
p3691
sg3467
g3634
sa(dp3692
g3444
S'/var/www/conferencia/gluon/html.py'
p3693
sg3446
(dp3694
S'newstatus'
p3695
g1774
sS'self'
p3696
S'<gluon.html.INPUT object>'
p3697
sS'self._validate'
p3698
S'<bound method INPUT._validate of <gluon.html.INPUT object>>'
p3699
ssg3452
I854
sg3453
(dp3700
I849
S'        # for input, textarea, select, option'
p3701
sI850
S"        # deal with 'value' and 'validation'"
p3702
sI851
S''
sI852
S"        name = self['_name']"
p3703
sI853
S'        if newstatus:'
p3704
sI854
S'            newstatus = self._validate()'
p3705
sI855
S'            self._postprocessing()'
p3706
sI856
S"        elif 'old_value' in self.attributes:"
p3707
sI857
S"            self['value'] = self['old_value']"
p3708
sI858
S'            self._postprocessing()'
p3709
ssg3465
S'(self=<gluon.html.INPUT object>, status=True, hideerror=False)'
p3710
sg3467
g3634
sa(dp3711
g3444
S'/var/www/conferencia/gluon/html.py'
p3712
sg3446
(dp3713
S'errors'
p3714
S'None'
p3715
sS'value'
p3716
S"'Fernando'"
p3717
sS'validator'
p3718
S'<gluon.validators.IS_NOT_IN_DB object>'
p3719
ssg3452
I1750
sg3453
(dp3720
I1745
S"        requires = self['requires']"
p3721
sI1746
S'        if requires:'
p3722
sI1747
S'            if not isinstance(requires, (list, tuple)):'
p3723
sI1748
S'                requires = [requires]'
p3724
sI1749
S'            for validator in requires:'
p3725
sI1750
S'                (value, errors) = validator(value)'
p3726
sI1751
S'                if not errors is None:'
p3727
sI1752
S'                    self.vars[name] = value'
p3728
sI1753
S'                    self.errors[name] = errors'
p3729
sI1754
S'                    break'
p3730
ssg3465
S'(self=<gluon.html.INPUT object>)'
p3731
sg3467
S'_validate'
p3732
sa(dp3733
g3444
S'/var/www/conferencia/gluon/validators.py'
p3734
sg3446
(dp3735
S'rows'
p3736
g3489
sS'self.dbset'
p3737
S'<Set None>'
p3738
sS'self'
p3739
S'<gluon.validators.IS_NOT_IN_DB object>'
p3740
sS'ignore_common_filters'
p3741
g3489
sS').select'
p3742
g3489
sS'value'
p3743
S"'Fernando'"
p3744
sS'limitby'
p3745
g3489
sS'field'
p3746
S'<gluon.dal.Field object>'
p3747
sS'self.ignore_common_filters'
p3748
g104
ssg3452
I589
sg3453
(dp3749
I584
S'        if value in self.allowed_override:'
p3750
sI585
S'            return (value, None)'
p3751
sI586
S"        (tablename, fieldname) = str(self.field).split('.')"
p3752
sI587
S'        table = self.dbset.db[tablename]'
p3753
sI588
S'        field = table[fieldname]'
p3754
sI589
S'        rows = self.dbset(field == value, ignore_common_filters=self.ignore_common_filters).select(limitby=(0, 1))'
p3755
sI590
S'        if len(rows) > 0:'
p3756
sI591
S'            if isinstance(self.record_id, dict):'
p3757
sI592
S'                for f in self.record_id:'
p3758
sI593
S'                    if str(getattr(rows[0], f)) != str(self.record_id[f]):'
p3759
ssg3465
S"(self=<gluon.validators.IS_NOT_IN_DB object>, value='Fernando')"
p3760
sg3467
S'__call__'
p3761
sa(dp3762
g3444
S'/var/www/conferencia/gluon/dal.py'
p3763
sg3446
(dp3764
S'self.query'
p3765
S"<Query (usuario.nome = 'Fernando')>"
p3766
sS'adapter.select'
p3767
S'<bound method PostgreSQLAdapter.select of <gluon.dal.PostgreSQLAdapter object>>'
p3768
sS'fields'
p3769
S'[<gluon.dal.Field object>, <gluon.dal.Field object>, <gluon.dal.Field object>, <gluon.dal.Field object>]'
p3770
sS'adapter'
p3771
S'<gluon.dal.PostgreSQLAdapter object>'
p3772
sS'attributes'
p3773
S"{'limitby': (0, 1)}"
p3774
sS'self'
p3775
S"<Set (usuario.nome = 'Fernando')>"
p3776
ssg3452
I8905
sg3453
(dp3777
I8900
S"                                    attributes.get('join',None),"
p3778
sI8901
S"                                    attributes.get('left',None),"
p3779
sI8902
S"                                    attributes.get('orderby',None),"
p3780
sI8903
S"                                    attributes.get('groupby',None))"
p3781
sI8904
S'        fields = adapter.expand_all(fields, tablenames)'
p3782
sI8905
S'        return adapter.select(self.query,fields,attributes)'
p3783
sI8906
S''
sI8907
S'    def nested_select(self,*fields,**attributes):'
p3784
sI8908
S'        return Expression(self.db,self._select(*fields,**attributes))'
p3785
sI8909
S''
ssg3465
S"(self=<Set (usuario.nome = 'Fernando')>, *fields=[<gluon.dal.Field object>, <gluon.dal.Field object>, <gluon.dal.Field object>, <gluon.dal.Field object>], **attributes={'limitby': (0, 1)})"
p3786
sg3467
S'select'
p3787
sa(dp3788
g3444
S'/var/www/conferencia/gluon/dal.py'
p3789
sg3446
(dp3790
S'fields'
p3791
S'[<gluon.dal.Field object>, <gluon.dal.Field object>, <gluon.dal.Field object>, <gluon.dal.Field object>]'
p3792
sS'self'
p3793
S'<gluon.dal.PostgreSQLAdapter object>'
p3794
sS'attributes'
p3795
S"{'limitby': (0, 1)}"
p3796
sS'self._select_aux'
p3797
S'<bound method PostgreSQLAdapter._select_aux of <gluon.dal.PostgreSQLAdapter object>>'
p3798
sS'sql'
p3799
S'"SELECT  usuario.id, usuario.nome, usuario.pin, u...\'Fernando\') ORDER BY usuario.id LIMIT 1 OFFSET 0;"'
p3800
ssg3452
I1631
sg3453
(dp3801
I1632
S''
sI1633
S'    def _count(self, query, distinct=None):'
p3802
sI1634
S'        tablenames = self.tables(query)'
p3803
sI1635
S'        if query:'
p3804
sI1626
S'            return cache_model('
p3805
sI1627
S'                key,'
p3806
sI1628
S'                lambda self=self,args=args:self._select_aux(*args),'
p3807
sI1629
S'                time_expire)'
p3808
sI1630
S'        else:'
p3809
sI1631
S'            return self._select_aux(sql,fields,attributes)'
p3810
ssg3465
S"(self=<gluon.dal.PostgreSQLAdapter object>, query=<Query (usuario.nome = 'Fernando')>, fields=[<gluon.dal.Field object>, <gluon.dal.Field object>, <gluon.dal.Field object>, <gluon.dal.Field object>], attributes={'limitby': (0, 1)})"
p3811
sg3467
g3787
sa(dp3812
g3444
S'/var/www/conferencia/gluon/dal.py'
p3813
sg3446
(dp3814
S'self'
p3815
S'<gluon.dal.PostgreSQLAdapter object>'
p3816
sS'self.execute'
p3817
S'<bound method PostgreSQLAdapter.execute of <gluon.dal.PostgreSQLAdapter object>>'
p3818
sS'sql'
p3819
S'"SELECT  usuario.id, usuario.nome, usuario.pin, u...\'Fernando\') ORDER BY usuario.id LIMIT 1 OFFSET 0;"'
p3820
ssg3452
I1596
sg3453
(dp3821
I1600
S"            key = self.uri + '/' + sql + '/rows'"
p3822
sI1591
S''
sI1592
S'    def _select_aux(self,sql,fields,attributes):'
p3823
sI1593
S'        args_get = attributes.get'
p3824
sI1594
S"        cache = args_get('cache',None)"
p3825
sI1595
S'        if not cache:'
p3826
sI1596
S'            self.execute(sql)'
p3827
sI1597
S'            rows = self._fetchall()'
p3828
sI1598
S'        else:'
p3829
sI1599
S'            (cache_model, time_expire) = cache'
p3830
ssg3465
S'(self=<gluon.dal.PostgreSQLAdapter object>, sql="SELECT  usuario.id, usuario.nome, usuario.pin, u...\'Fernando\') ORDER BY usuario.id LIMIT 1 OFFSET 0;", fields=[<gluon.dal.Field object>, <gluon.dal.Field object>, <gluon.dal.Field object>, <gluon.dal.Field object>], attributes={\'limitby\': (0, 1)})'
p3831
sg3467
S'_select_aux'
p3832
sa(dp3833
g3444
S'/var/www/conferencia/gluon/dal.py'
p3834
sg3446
(dp3835
S'a'
S'("SELECT  usuario.id, usuario.nome, usuario.pin, u...\'Fernando\') ORDER BY usuario.id LIMIT 1 OFFSET 0;",)'
p3836
sS'self'
p3837
S'<gluon.dal.PostgreSQLAdapter object>'
p3838
sS'b'
g21
sS'self.log_execute'
p3839
S'<bound method PostgreSQLAdapter.log_execute of <gluon.dal.PostgreSQLAdapter object>>'
p3840
ssg3452
I1709
sg3453
(dp3841
I1704
S'        self.db._timings.append((command,time.time()-t0))'
p3842
sI1705
S'        del self.db._timings[:-TIMINGSSIZE]'
p3843
sI1706
S'        return ret'
p3844
sI1707
S''
sI1708
S'    def execute(self, *a, **b):'
p3845
sI1709
S'        return self.log_execute(*a, **b)'
p3846
sI1710
S''
sI1711
S'    def represent(self, obj, fieldtype):'
p3847
sI1712
S'        field_is_type = fieldtype.startswith'
p3848
sI1713
S'        if isinstance(obj, CALLABLETYPES):'
p3849
ssg3465
S'(self=<gluon.dal.PostgreSQLAdapter object>, *a=("SELECT  usuario.id, usuario.nome, usuario.pin, u...\'Fernando\') ORDER BY usuario.id LIMIT 1 OFFSET 0;",), **b={})'
p3850
sg3467
S'execute'
p3851
sa(dp3852
g3444
S'/var/www/conferencia/gluon/dal.py'
p3853
sg3446
(dp3854
S'a'
S'("SELECT  usuario.id, usuario.nome, usuario.pin, u...\'Fernando\') ORDER BY usuario.id LIMIT 1 OFFSET 0;",)'
p3855
sS'b'
g21
sS'self'
p3856
S'<gluon.dal.PostgreSQLAdapter object>'
p3857
sS'ret'
p3858
g3489
sS'self.cursor'
p3859
S'<gluon.contrib.pg8000.dbapi.CursorWrapper object>'
p3860
sS'self.cursor.execute'
p3861
S'<bound method CursorWrapper._fn of <gluon.contrib.pg8000.dbapi.CursorWrapper object>>'
p3862
ssg3452
I1703
sg3453
(dp3863
I1698
S'        command = a[0]'
p3864
sI1699
S'        if self.db._debug:'
p3865
sI1700
S"            LOGGER.debug('SQL: %s' % command)"
p3866
sI1701
S'        self.db._lastsql = command'
p3867
sI1702
S'        t0 = time.time()'
p3868
sI1703
S'        ret = self.cursor.execute(*a, **b)'
p3869
sI1704
S'        self.db._timings.append((command,time.time()-t0))'
p3870
sI1705
S'        del self.db._timings[:-TIMINGSSIZE]'
p3871
sI1706
S'        return ret'
p3872
sI1707
S''
ssg3465
S'(self=<gluon.dal.PostgreSQLAdapter object>, *a=("SELECT  usuario.id, usuario.nome, usuario.pin, u...\'Fernando\') ORDER BY usuario.id LIMIT 1 OFFSET 0;",), **b={})'
p3873
sg3467
S'log_execute'
p3874
sa(dp3875
g3444
S'/var/www/conferencia/gluon/contrib/pg8000/dbapi.py'
p3876
sg3446
(dp3877
S'self'
p3878
S'<gluon.contrib.pg8000.dbapi.CursorWrapper object>'
p3879
sS'args'
p3880
S'("SELECT  usuario.id, usuario.nome, usuario.pin, u...\'Fernando\') ORDER BY usuario.id LIMIT 1 OFFSET 0;",)'
p3881
sS'fn'
p3882
S'<function execute>'
p3883
sS'kwargs'
p3884
g21
ssg3452
I246
sg3453
(dp3885
I241
S''
sI242
S'def require_open_cursor(fn):'
p3886
sI243
S'    def _fn(self, *args, **kwargs):'
p3887
sI244
S'        if self.cursor == None:'
p3888
sI245
S'            raise CursorClosedError()'
p3889
sI246
S'        return fn(self, *args, **kwargs)'
p3890
sI247
S'    return _fn'
p3891
sI248
S''
sI249
S'##'
p3892
sI250
S'# The class of object returned by the {@link #ConnectionWrapper.cursor cursor method}.'
p3893
ssg3465
S'(self=<gluon.contrib.pg8000.dbapi.CursorWrapper object>, *args=("SELECT  usuario.id, usuario.nome, usuario.pin, u...\'Fernando\') ORDER BY usuario.id LIMIT 1 OFFSET 0;",), **kwargs={})'
p3894
sg3467
S'_fn'
p3895
sa(dp3896
g3444
S'/var/www/conferencia/gluon/contrib/pg8000/dbapi.py'
p3897
sg3446
(dp3898
S'self._execute'
p3899
S'<bound method CursorWrapper._execute of <gluon.contrib.pg8000.dbapi.CursorWrapper object>>'
p3900
sS'self'
p3901
S'<gluon.contrib.pg8000.dbapi.CursorWrapper object>'
p3902
sS'args'
p3903
S'()'
p3904
sS'operation'
p3905
S'"SELECT  usuario.id, usuario.nome, usuario.pin, u...\'Fernando\') ORDER BY usuario.id LIMIT 1 OFFSET 0;"'
p3906
ssg3452
I317
sg3453
(dp3907
I320
S'        new_query, new_args = convert_paramstyle(paramstyle, operation, args)'
p3908
sI321
S'        try:'
p3909
sI312
S'    @require_open_cursor'
p3910
sI313
S'    def execute(self, operation, args=()):'
p3911
sI314
S'        if not self._connection.in_transaction:'
p3912
sI315
S'            self._connection.begin()'
p3913
sI316
S'        self._override_rowcount = None'
p3914
sI317
S'        self._execute(operation, args)'
p3915
sI318
S''
sI319
S'    def _execute(self, operation, args=()):'
p3916
ssg3465
S'(self=<gluon.contrib.pg8000.dbapi.CursorWrapper object>, operation="SELECT  usuario.id, usuario.nome, usuario.pin, u...\'Fernando\') ORDER BY usuario.id LIMIT 1 OFFSET 0;", args=())'
p3917
sg3467
g3851
sa(dp3918
g3444
S'/var/www/conferencia/gluon/contrib/pg8000/dbapi.py'
p3919
sg3446
(dp3920
S'new_args'
p3921
S'()'
p3922
sS'self.cursor'
p3923
S'<gluon.contrib.pg8000.interface.Cursor object>'
p3924
sS'self'
p3925
S'<gluon.contrib.pg8000.dbapi.CursorWrapper object>'
p3926
sS'new_query'
p3927
S'"SELECT  usuario.id, usuario.nome, usuario.pin, u...\'Fernando\') ORDER BY usuario.id LIMIT 1 OFFSET 0;"'
p3928
sS'self.cursor.execute'
p3929
S'<bound method Cursor.execute of <gluon.contrib.pg8000.interface.Cursor object>>'
p3930
ssg3452
I322
sg3453
(dp3931
I320
S'        new_query, new_args = convert_paramstyle(paramstyle, operation, args)'
p3932
sI321
S'        try:'
p3933
sI322
S'            self.cursor.execute(new_query, *new_args)'
p3934
sI323
S'        except ConnectionClosedError:'
p3935
sI324
S"            # can't rollback in this case"
p3936
sI325
S'            raise'
p3937
sI326
S'        except:'
p3938
sI317
S'        self._execute(operation, args)'
p3939
sI318
S''
sI319
S'    def _execute(self, operation, args=()):'
p3940
ssg3465
S'(self=<gluon.contrib.pg8000.dbapi.CursorWrapper object>, operation="SELECT  usuario.id, usuario.nome, usuario.pin, u...\'Fernando\') ORDER BY usuario.id LIMIT 1 OFFSET 0;", args=())'
p3941
sg3467
S'_execute'
p3942
sa(dp3943
g3444
S'/var/www/conferencia/gluon/contrib/pg8000/interface.py'
p3944
sg3446
(dp3945
S'x'
g3489
sS'args'
p3946
S'()'
p3947
sS'builtintype'
p3948
S"<type 'type'>"
p3949
sS'self._stmt'
p3950
S'<gluon.contrib.pg8000.interface.PreparedStatement object>'
p3951
sS'self'
p3952
S'<gluon.contrib.pg8000.interface.Cursor object>'
p3953
sS'self.connection'
p3954
S'<gluon.contrib.pg8000.interface.Connection object>'
p3955
sS'global PreparedStatement'
p3956
S"<class 'gluon.contrib.pg8000.interface.PreparedStatement'>"
p3957
sS'statement_name'
p3958
g3489
sS'query'
p3959
S'"SELECT  usuario.id, usuario.nome, usuario.pin, u...\'Fernando\') ORDER BY usuario.id LIMIT 1 OFFSET 0;"'
p3960
ssg3452
I398
sg3453
(dp3961
I393
S'                # use PostgreSQL Simple Query Protocol'
p3962
sI394
S'                ## print "SimpleQuery:", query'
p3963
sI395
S'                self._stmt = SimpleStatement(self.connection, query)'
p3964
sI396
S'            else:'
p3965
sI397
S'                # use PostgreSQL Extended Query Protocol'
p3966
sI398
S'                self._stmt = PreparedStatement(self.connection, query, statement_name="", *[{"type": type(x), "value": x} for x in args])'
p3967
sI399
S'            self._stmt.execute(*args, **kwargs)'
p3968
sI400
S'        finally:'
p3969
sI401
S'            self.connection._unnamed_prepared_statement_lock.release()'
p3970
sI402
S''
ssg3465
S'(self=<gluon.contrib.pg8000.interface.Cursor object>, query="SELECT  usuario.id, usuario.nome, usuario.pin, u...\'Fernando\') ORDER BY usuario.id LIMIT 1 OFFSET 0;", *args=(), **kwargs={})'
p3971
sg3467
g3851
sa(dp3972
g3444
S'/var/www/conferencia/gluon/contrib/pg8000/interface.py'
p3973
sg3446
(dp3974
S'self.c'
p3975
S'<gluon.contrib.pg8000.protocol.Connection object>'
p3976
sS'self'
p3977
S'<gluon.contrib.pg8000.interface.PreparedStatement object>'
p3978
sS'self.c.parse'
p3979
S'<bound method Connection._fn of <gluon.contrib.pg8000.protocol.Connection object>>'
p3980
sS'self._statement_name'
p3981
S"''"
p3982
sS'self._parse_row_desc'
p3983
g3489
sS'statement'
p3984
S'"SELECT  usuario.id, usuario.nome, usuario.pin, u...\'Fernando\') ORDER BY usuario.id LIMIT 1 OFFSET 0;"'
p3985
sS'types'
p3986
S'()'
p3987
ssg3452
I138
sg3453
(dp3988
I133
S'        self._statement_name = kwargs.get("statement_name", "pg8000_statement_%s" % self._statement_number)'
p3989
sI134
S'        self._row_desc = None'
p3990
sI135
S'        self._cached_rows = []'
p3991
sI136
S'        self._ongoing_row_count = 0'
p3992
sI137
S'        self._command_complete = True'
p3993
sI138
S'        self._parse_row_desc = self.c.parse(self._statement_name, statement, types)'
p3994
sI139
S'        self._lock = threading.RLock()'
p3995
sI140
S''
sI141
S'    def close(self):'
p3996
sI142
S'        if self._statement_name != "": # don\'t close unnamed statement'
p3997
ssg3465
S'(self=<gluon.contrib.pg8000.interface.PreparedStatement object>, connection=<gluon.contrib.pg8000.interface.Connection object>, statement="SELECT  usuario.id, usuario.nome, usuario.pin, u...\'Fernando\') ORDER BY usuario.id LIMIT 1 OFFSET 0;", *types=(), **kwargs={\'statement_name\': \'\'})'
p3998
sg3467
g26
sa(dp3999
g3444
S'/var/www/conferencia/gluon/contrib/pg8000/protocol.py'
p4000
sg3446
(dp4001
S'self'
p4002
S'<gluon.contrib.pg8000.protocol.Connection object>'
p4003
sS'args'
p4004
S'(\'\', "SELECT  usuario.id, usuario.nome, usuario.pin, u...\'Fernando\') ORDER BY usuario.id LIMIT 1 OFFSET 0;", ())'
p4005
sS'fn'
p4006
S'<function parse>'
p4007
sS'kwargs'
p4008
g21
ssg3452
I943
sg3453
(dp4009
I938
S''
sI939
S'def sync_on_error(fn):'
p4010
sI940
S'    def _fn(self, *args, **kwargs):'
p4011
sI941
S'        try:'
p4012
sI942
S'            self._sock_lock.acquire()'
p4013
sI943
S'            return fn(self, *args, **kwargs)'
p4014
sI944
S'        except:'
p4015
sI945
S'            self._sync()'
p4016
sI946
S'            raise'
p4017
sI947
S'        finally:'
p4018
ssg3465
S'(self=<gluon.contrib.pg8000.protocol.Connection object>, *args=(\'\', "SELECT  usuario.id, usuario.nome, usuario.pin, u...\'Fernando\') ORDER BY usuario.id LIMIT 1 OFFSET 0;", ()), **kwargs={})'
p4019
sg3467
g3895
sa(dp4020
g3444
S'/var/www/conferencia/gluon/contrib/pg8000/protocol.py'
p4021
sg3446
(dp4022
S'reader.handle_messages'
p4023
S'<bound method MessageReader.handle_messages of <gluon.contrib.pg8000.protocol.MessageReader object>>'
p4024
sS'reader'
p4025
S'<gluon.contrib.pg8000.protocol.MessageReader object>'
p4026
ssg3452
I1104
sg3453
(dp4027
I1099
S'        reader.add_message(NoData, lambda msg: (None, param_fc))'
p4028
sI1100
S''
sI1101
S'        # Common row description response'
p4029
sI1102
S'        reader.add_message(RowDescription, lambda msg: (msg, param_fc))'
p4030
sI1103
S''
sI1104
S'        return reader.handle_messages()'
p4031
sI1105
S''
sI1106
S'    @sync_on_error'
p4032
sI1107
S'    def bind(self, portal, statement, params, parse_data, copy_stream):'
p4033
sI1108
S'        self.verifyState("ready")'
p4034
ssg3465
S'(self=<gluon.contrib.pg8000.protocol.Connection object>, statement=\'\', qs="SELECT  usuario.id, usuario.nome, usuario.pin, u...\'Fernando\') ORDER BY usuario.id LIMIT 1 OFFSET 0;", param_types=[])'
p4035
sg3467
S'parse'
p4036
sa(dp4037
g3444
S'/var/www/conferencia/gluon/contrib/pg8000/protocol.py'
p4038
sg3446
(dp4039
S'exc'
p4040
S'ProgrammingError(\'ERROR\', \'42P01\', \'relation "usuario" does not exist\')'
p4041
ssg3452
I929
sg3453
(dp4042
I928
S'                if not self.delay_raising_exception:'
p4043
sI929
S'                    raise exc'
p4044
sI930
S'            elif isinstance(msg, NoticeResponse):'
p4045
sI931
S'                self._conn.handleNoticeResponse(msg)'
p4046
sI932
S'            elif isinstance(msg, ParameterStatus):'
p4047
sI933
S'                self._conn.handleParameterStatus(msg)'
p4048
sI924
S'            if msg_handled:'
p4049
sI925
S'                continue'
p4050
sI926
S'            elif isinstance(msg, ErrorResponse):'
p4051
sI927
S'                exc = msg.createException()'
p4052
ssg3465
S'(self=<gluon.contrib.pg8000.protocol.MessageReader object>)'
p4053
sg3467
S'handle_messages'
p4054
sasS'pyver'
p4055
S'Python 2.7.3: /usr/bin/python'
p4056
sS'session'
p4057
g61
(g62
g63
NtRp4058
(dp4059
g66
(dp4060
sg68
(lp4061
g61
(g70
g63
NtRp4062
(dp4063
g66
(dp4064
g74
I5
ssg75
Nsg68
(lp4065
g61
(g77
g63
NtRp4066
(dp4067
g66
(dp4068
sg75
g4062
sg68
(lp4069
g61
(g82
g63
NtRp4070
(dp4071
g66
(dp4072
g86
g87
ssg75
g4066
sg68
(lp4073
S'flash'
p4074
asbag61
(g82
g63
NtRp4075
(dp4076
g66
(dp4077
g93
g94
ssg75
g4066
sg68
(lp4078
S':'
asbag61
(g82
g63
NtRp4079
(dp4080
g66
(dp4081
sg75
g4066
sg68
(lp4082
g61
(g62
g63
NtRp4083
(dp4084
g66
(dp4085
g74
I5
ssg75
g4079
sg68
(lp4086
S'None'
p4087
asbasbasbasbasbsS'etype'
p4088
S"<class 'gluon.contrib.pg8000.errors.ProgrammingError'>"
p4089
sS'date'
p4090
S'Tue Apr  2 18:37:07 2013'
p4091
sS'response'
p4092
g61
(g62
g63
NtRp4093
(dp4094
g66
(dp4095
sg68
(lp4096
g61
(g70
g63
NtRp4097
(dp4098
g66
(dp4099
g74
I5
ssg75
Nsg68
(lp4100
g61
(g77
g63
NtRp4101
(dp4102
g66
(dp4103
sg75
g4097
sg68
(lp4104
g61
(g82
g63
NtRp4105
(dp4106
g66
(dp4107
g86
g87
ssg75
g4101
sg68
(lp4108
g185
asbag61
(g82
g63
NtRp4109
(dp4110
g66
(dp4111
g93
g94
ssg75
g4101
sg68
(lp4112
S':'
asbag61
(g82
g63
NtRp4113
(dp4114
g66
(dp4115
sg75
g4101
sg68
(lp4116
g61
(g62
g63
NtRp4117
(dp4118
g66
(dp4119
g74
I5
ssg75
g4113
sg68
(lp4120
S'<cStringIO.StringO object at 0x7f32f8430ea0>'
p4121
asbasbasbag61
(g77
g63
NtRp4122
(dp4123
g66
(dp4124
sg75
g4097
sg68
(lp4125
g61
(g82
g63
NtRp4126
(dp4127
g66
(dp4128
g86
g87
ssg75
g4122
sg68
(lp4129
g273
asbag61
(g82
g63
NtRp4130
(dp4131
g66
(dp4132
g93
g94
ssg75
g4122
sg68
(lp4133
S':'
asbag61
(g82
g63
NtRp4134
(dp4135
g66
(dp4136
sg75
g4122
sg68
(lp4137
g61
(g62
g63
NtRp4138
(dp4139
g66
(dp4140
g74
I5
ssg75
g4134
sg68
(lp4141
g61
(g70
g63
NtRp4142
(dp4143
g66
(dp4144
g74
I4
ssg75
Nsg68
(lp4145
g61
(g77
g63
NtRp4146
(dp4147
g66
(dp4148
sg75
g4142
sg68
(lp4149
g61
(g82
g63
NtRp4150
(dp4151
g66
(dp4152
g86
g87
ssg75
g4146
sg68
(lp4153
S'session_id_projeto'
p4154
asbag61
(g82
g63
NtRp4155
(dp4156
g66
(dp4157
g93
g94
ssg75
g4146
sg68
(lp4158
S':'
asbag61
(g82
g63
NtRp4159
(dp4160
g66
(dp4161
sg75
g4146
sg68
(lp4162
g61
(g62
g63
NtRp4163
(dp4164
g66
(dp4165
g74
I4
ssg75
g4159
sg68
(lp4166
g505
ag61
(g70
g63
NtRp4167
(dp4168
g66
(dp4169
g74
I3
ssg75
Nsg68
(lp4170
g61
(g77
g63
NtRp4171
(dp4172
g66
(dp4173
sg75
g4167
sg68
(lp4174
g61
(g82
g63
NtRp4175
(dp4176
g66
(dp4177
g86
g87
ssg75
g4171
sg68
(lp4178
g324
asbag61
(g82
g63
NtRp4179
(dp4180
g66
(dp4181
g93
g94
ssg75
g4171
sg68
(lp4182
S':'
asbag61
(g82
g63
NtRp4183
(dp4184
g66
(dp4185
sg75
g4171
sg68
(lp4186
g61
(g62
g63
NtRp4187
(dp4188
g66
(dp4189
g74
I3
ssg75
g4183
sg68
(lp4190
S''
asbasbasbag61
(g77
g63
NtRp4191
(dp4192
g66
(dp4193
sg75
g4167
sg68
(lp4194
g61
(g82
g63
NtRp4195
(dp4196
g66
(dp4197
g86
g87
ssg75
g4191
sg68
(lp4198
g345
asbag61
(g82
g63
NtRp4199
(dp4200
g66
(dp4201
g93
g94
ssg75
g4191
sg68
(lp4202
S':'
asbag61
(g82
g63
NtRp4203
(dp4204
g66
(dp4205
sg75
g4191
sg68
(lp4206
g61
(g62
g63
NtRp4207
(dp4208
g66
(dp4209
g74
I3
ssg75
g4203
sg68
(lp4210
S''
asbasbasbag61
(g77
g63
NtRp4211
(dp4212
g66
(dp4213
sg75
g4167
sg68
(lp4214
g61
(g82
g63
NtRp4215
(dp4216
g66
(dp4217
g86
g87
ssg75
g4211
sg68
(lp4218
g366
asbag61
(g82
g63
NtRp4219
(dp4220
g66
(dp4221
g93
g94
ssg75
g4211
sg68
(lp4222
S':'
asbag61
(g82
g63
NtRp4223
(dp4224
g66
(dp4225
sg75
g4211
sg68
(lp4226
g61
(g62
g63
NtRp4227
(dp4228
g66
(dp4229
g74
I3
ssg75
g4223
sg68
(lp4230
S''
asbasbasbag61
(g77
g63
NtRp4231
(dp4232
g66
(dp4233
sg75
g4167
sg68
(lp4234
g61
(g82
g63
NtRp4235
(dp4236
g66
(dp4237
g86
g87
ssg75
g4231
sg68
(lp4238
g387
asbag61
(g82
g63
NtRp4239
(dp4240
g66
(dp4241
g93
g94
ssg75
g4231
sg68
(lp4242
S':'
asbag61
(g82
g63
NtRp4243
(dp4244
g66
(dp4245
sg75
g4231
sg68
(lp4246
g61
(g62
g63
NtRp4247
(dp4248
g66
(dp4249
g74
I3
ssg75
g4243
sg68
(lp4250
S''
asbasbasbag61
(g77
g63
NtRp4251
(dp4252
g66
(dp4253
sg75
g4167
sg68
(lp4254
g61
(g82
g63
NtRp4255
(dp4256
g66
(dp4257
g86
g87
ssg75
g4251
sg68
(lp4258
g408
asbag61
(g82
g63
NtRp4259
(dp4260
g66
(dp4261
g93
g94
ssg75
g4251
sg68
(lp4262
S':'
asbag61
(g82
g63
NtRp4263
(dp4264
g66
(dp4265
sg75
g4251
sg68
(lp4266
g61
(g62
g63
NtRp4267
(dp4268
g66
(dp4269
g74
I3
ssg75
g4263
sg68
(lp4270
S''
asbasbasbag61
(g77
g63
NtRp4271
(dp4272
g66
(dp4273
sg75
g4167
sg68
(lp4274
g61
(g82
g63
NtRp4275
(dp4276
g66
(dp4277
g86
g87
ssg75
g4271
sg68
(lp4278
g429
asbag61
(g82
g63
NtRp4279
(dp4280
g66
(dp4281
g93
g94
ssg75
g4271
sg68
(lp4282
S':'
asbag61
(g82
g63
NtRp4283
(dp4284
g66
(dp4285
sg75
g4271
sg68
(lp4286
g61
(g62
g63
NtRp4287
(dp4288
g66
(dp4289
g74
I3
ssg75
g4283
sg68
(lp4290
S'/'
asbasbasbag61
(g77
g63
NtRp4291
(dp4292
g66
(dp4293
sg75
g4167
sg68
(lp4294
g61
(g82
g63
NtRp4295
(dp4296
g66
(dp4297
g86
g87
ssg75
g4291
sg68
(lp4298
g450
asbag61
(g82
g63
NtRp4299
(dp4300
g66
(dp4301
g93
g94
ssg75
g4291
sg68
(lp4302
S':'
asbag61
(g82
g63
NtRp4303
(dp4304
g66
(dp4305
sg75
g4291
sg68
(lp4306
g61
(g62
g63
NtRp4307
(dp4308
g66
(dp4309
g74
I3
ssg75
g4303
sg68
(lp4310
S''
asbasbasbag61
(g77
g63
NtRp4311
(dp4312
g66
(dp4313
sg75
g4167
sg68
(lp4314
g61
(g82
g63
NtRp4315
(dp4316
g66
(dp4317
g86
g87
ssg75
g4311
sg68
(lp4318
g471
asbag61
(g82
g63
NtRp4319
(dp4320
g66
(dp4321
g93
g94
ssg75
g4311
sg68
(lp4322
S':'
asbag61
(g82
g63
NtRp4323
(dp4324
g66
(dp4325
sg75
g4311
sg68
(lp4326
g61
(g62
g63
NtRp4327
(dp4328
g66
(dp4329
g74
I3
ssg75
g4323
sg68
(lp4330
S''
asbasbasbasbasbasbasbasbasbasbasbag61
(g77
g63
NtRp4331
(dp4332
g66
(dp4333
sg75
g4097
sg68
(lp4334
g61
(g82
g63
NtRp4335
(dp4336
g66
(dp4337
g86
g87
ssg75
g4331
sg68
(lp4338
S'delimiters'
p4339
asbag61
(g82
g63
NtRp4340
(dp4341
g66
(dp4342
g93
g94
ssg75
g4331
sg68
(lp4343
S':'
asbag61
(g82
g63
NtRp4344
(dp4345
g66
(dp4346
sg75
g4331
sg68
(lp4347
g61
(g62
g63
NtRp4348
(dp4349
g66
(dp4350
g74
I5
ssg75
g4344
sg68
(lp4351
g61
(g70
g63
NtRp4352
(dp4353
g66
(dp4354
g74
I4
ssg75
Nsg68
(lp4355
g61
(g77
g63
NtRp4356
(dp4357
g66
(dp4358
sg75
g4352
sg68
(lp4359
g61
(g82
g63
NtRp4360
(dp4361
g66
(dp4362
sg75
g4356
sg68
(lp4363
g61
(g62
g63
NtRp4364
(dp4365
g66
(dp4366
g74
I4
ssg75
g4360
sg68
(lp4367
S'{{'
p4368
asbasbasbag61
(g77
g63
NtRp4369
(dp4370
g66
(dp4371
sg75
g4352
sg68
(lp4372
g61
(g82
g63
NtRp4373
(dp4374
g66
(dp4375
sg75
g4369
sg68
(lp4376
g61
(g62
g63
NtRp4377
(dp4378
g66
(dp4379
g74
I4
ssg75
g4373
sg68
(lp4380
S'}}'
p4381
asbasbasbasbasbasbasbag61
(g77
g63
NtRp4382
(dp4383
g66
(dp4384
sg75
g4097
sg68
(lp4385
g61
(g82
g63
NtRp4386
(dp4387
g66
(dp4388
g86
g87
ssg75
g4382
sg68
(lp4389
S'files'
p4390
asbag61
(g82
g63
NtRp4391
(dp4392
g66
(dp4393
g93
g94
ssg75
g4382
sg68
(lp4394
S':'
asbag61
(g82
g63
NtRp4395
(dp4396
g66
(dp4397
sg75
g4382
sg68
(lp4398
g61
(g62
g63
NtRp4399
(dp4400
g66
(dp4401
g74
I5
ssg75
g4395
sg68
(lp4402
g61
(g70
g63
NtRp4403
(dp4404
g66
(dp4405
g74
I4
ssg75
Nsg68
(lp4406
sbasbasbasbag61
(g77
g63
NtRp4407
(dp4408
g66
(dp4409
sg75
g4097
sg68
(lp4410
g61
(g82
g63
NtRp4411
(dp4412
g66
(dp4413
g86
g87
ssg75
g4407
sg68
(lp4414
S'flash'
p4415
asbag61
(g82
g63
NtRp4416
(dp4417
g66
(dp4418
g93
g94
ssg75
g4407
sg68
(lp4419
S':'
asbag61
(g82
g63
NtRp4420
(dp4421
g66
(dp4422
sg75
g4407
sg68
(lp4423
g61
(g62
g63
NtRp4424
(dp4425
g66
(dp4426
g74
I5
ssg75
g4420
sg68
(lp4427
S''
asbasbasbag61
(g77
g63
NtRp4428
(dp4429
g66
(dp4430
sg75
g4097
sg68
(lp4431
g61
(g82
g63
NtRp4432
(dp4433
g66
(dp4434
g86
g87
ssg75
g4428
sg68
(lp4435
S'generic_patterns'
p4436
asbag61
(g82
g63
NtRp4437
(dp4438
g66
(dp4439
g93
g94
ssg75
g4428
sg68
(lp4440
S':'
asbag61
(g82
g63
NtRp4441
(dp4442
g66
(dp4443
sg75
g4428
sg68
(lp4444
g61
(g62
g63
NtRp4445
(dp4446
g66
(dp4447
g74
I5
ssg75
g4441
sg68
(lp4448
g61
(g70
g63
NtRp4449
(dp4450
g66
(dp4451
g74
I4
ssg75
Nsg68
(lp4452
g61
(g77
g63
NtRp4453
(dp4454
g66
(dp4455
sg75
g4449
sg68
(lp4456
g61
(g82
g63
NtRp4457
(dp4458
g66
(dp4459
sg75
g4453
sg68
(lp4460
g61
(g62
g63
NtRp4461
(dp4462
g66
(dp4463
g74
I4
ssg75
g4457
sg68
(lp4464
S'*'
asbasbasbasbasbasbasbag61
(g77
g63
NtRp4465
(dp4466
g66
(dp4467
sg75
g4097
sg68
(lp4468
g61
(g82
g63
NtRp4469
(dp4470
g66
(dp4471
g86
g87
ssg75
g4465
sg68
(lp4472
S'google_analytics_id'
p4473
asbag61
(g82
g63
NtRp4474
(dp4475
g66
(dp4476
g93
g94
ssg75
g4465
sg68
(lp4477
S':'
asbag61
(g82
g63
NtRp4478
(dp4479
g66
(dp4480
sg75
g4465
sg68
(lp4481
g61
(g62
g63
NtRp4482
(dp4483
g66
(dp4484
g74
I5
ssg75
g4478
sg68
(lp4485
S'None'
p4486
asbasbasbag61
(g77
g63
NtRp4487
(dp4488
g66
(dp4489
sg75
g4097
sg68
(lp4490
g61
(g82
g63
NtRp4491
(dp4492
g66
(dp4493
g86
g87
ssg75
g4487
sg68
(lp4494
S'headers'
p4495
asbag61
(g82
g63
NtRp4496
(dp4497
g66
(dp4498
g93
g94
ssg75
g4487
sg68
(lp4499
S':'
asbag61
(g82
g63
NtRp4500
(dp4501
g66
(dp4502
sg75
g4487
sg68
(lp4503
g61
(g62
g63
NtRp4504
(dp4505
g66
(dp4506
g74
I5
ssg75
g4500
sg68
(lp4507
g61
(g70
g63
NtRp4508
(dp4509
g66
(dp4510
g74
I4
ssg75
Nsg68
(lp4511
g61
(g77
g63
NtRp4512
(dp4513
g66
(dp4514
sg75
g4508
sg68
(lp4515
g61
(g82
g63
NtRp4516
(dp4517
g66
(dp4518
g86
g87
ssg75
g4512
sg68
(lp4519
S'X-Powered-By'
p4520
asbag61
(g82
g63
NtRp4521
(dp4522
g66
(dp4523
g93
g94
ssg75
g4512
sg68
(lp4524
S':'
asbag61
(g82
g63
NtRp4525
(dp4526
g66
(dp4527
sg75
g4512
sg68
(lp4528
g61
(g62
g63
NtRp4529
(dp4530
g66
(dp4531
g74
I4
ssg75
g4525
sg68
(lp4532
S'web2py'
p4533
asbasbasbasbasbasbasbag61
(g77
g63
NtRp4534
(dp4535
g66
(dp4536
sg75
g4097
sg68
(lp4537
g61
(g82
g63
NtRp4538
(dp4539
g66
(dp4540
g86
g87
ssg75
g4534
sg68
(lp4541
S'logo'
p4542
asbag61
(g82
g63
NtRp4543
(dp4544
g66
(dp4545
g93
g94
ssg75
g4534
sg68
(lp4546
S':'
asbag61
(g82
g63
NtRp4547
(dp4548
g66
(dp4549
sg75
g4534
sg68
(lp4550
g61
(g62
g63
NtRp4551
(dp4552
g66
(dp4553
g74
I5
ssg75
g4547
sg68
(lp4554
g61
(cgluon.html
A
p4555
g63
NtRp4556
(dp4557
g66
(dp4558
S'_class'
p4559
S'brand'
p4560
sS'_href'
p4561
g1932
ssg75
Nsg68
(lp4562
g61
(cgluon.html
B
p4563
g63
NtRp4564
(dp4565
g66
(dp4566
sg75
g4556
sg68
(lp4567
S'hosts'
p4568
ag61
(cgluon.html
SPAN
p4569
g63
NtRp4570
(dp4571
g66
(dp4572
sg75
g4564
sg68
(lp4573
S'3'
asbaS''
asbacgluon.html
XML_unpickle
p4574
(S's\r\x00\x00\x00&trade;&nbsp;'
tRp4575
asbasbasbasbag61
(g77
g63
NtRp4576
(dp4577
g66
(dp4578
sg75
g4097
sg68
(lp4579
g61
(g82
g63
NtRp4580
(dp4581
g66
(dp4582
g86
g87
ssg75
g4576
sg68
(lp4583
S'menu'
p4584
asbag61
(g82
g63
NtRp4585
(dp4586
g66
(dp4587
g93
g94
ssg75
g4576
sg68
(lp4588
S':'
asbag61
(g82
g63
NtRp4589
(dp4590
g66
(dp4591
sg75
g4576
sg68
(lp4592
g61
(g62
g63
NtRp4593
(dp4594
g66
(dp4595
g74
I5
ssg75
g4589
sg68
(lp4596
g61
(g70
g63
NtRp4597
(dp4598
g66
(dp4599
g74
I4
ssg75
Nsg68
(lp4600
g61
(g77
g63
NtRp4601
(dp4602
g66
(dp4603
sg75
g4597
sg68
(lp4604
g61
(g82
g63
NtRp4605
(dp4606
g66
(dp4607
sg75
g4601
sg68
(lp4608
g61
(g62
g63
NtRp4609
(dp4610
g66
(dp4611
g74
I4
ssg75
g4605
sg68
(lp4612
g61
(g70
g63
NtRp4613
(dp4614
g66
(dp4615
g74
I3
ssg75
Nsg68
(lp4616
g61
(g77
g63
NtRp4617
(dp4618
g66
(dp4619
sg75
g4613
sg68
(lp4620
g61
(g82
g63
NtRp4621
(dp4622
g66
(dp4623
sg75
g4617
sg68
(lp4624
g61
(g62
g63
NtRp4625
(dp4626
g66
(dp4627
g74
I3
ssg75
g4621
sg68
(lp4628
cgluon.languages
lazyT_unpickle
p4629
(S't\x08\x00\x00\x00Clientes'
tRp4630
asbasbasbag61
(g77
g63
NtRp4631
(dp4632
g66
(dp4633
sg75
g4613
sg68
(lp4634
g61
(g82
g63
NtRp4635
(dp4636
g66
(dp4637
sg75
g4631
sg68
(lp4638
g61
(g62
g63
NtRp4639
(dp4640
g66
(dp4641
g74
I3
ssg75
g4635
sg68
(lp4642
g104
asbasbasbag61
(g77
g63
NtRp4643
(dp4644
g66
(dp4645
sg75
g4613
sg68
(lp4646
g61
(g82
g63
NtRp4647
(dp4648
g66
(dp4649
sg75
g4643
sg68
(lp4650
g61
(g62
g63
NtRp4651
(dp4652
g66
(dp4653
g74
I3
ssg75
g4647
sg68
(lp4654
S'/show_cliente'
p4655
asbasbasbag61
(g77
g63
NtRp4656
(dp4657
g66
(dp4658
sg75
g4613
sg68
(lp4659
g61
(g82
g63
NtRp4660
(dp4661
g66
(dp4662
sg75
g4656
sg68
(lp4663
g61
(g62
g63
NtRp4664
(dp4665
g66
(dp4666
g74
I3
ssg75
g4660
sg68
(lp4667
g61
(g70
g63
NtRp4668
(dp4669
g66
(dp4670
g74
I2
ssg75
Nsg68
(lp4671
sbasbasbasbasbasbasbasbag61
(g77
g63
NtRp4672
(dp4673
g66
(dp4674
sg75
g4597
sg68
(lp4675
g61
(g82
g63
NtRp4676
(dp4677
g66
(dp4678
sg75
g4672
sg68
(lp4679
g61
(g62
g63
NtRp4680
(dp4681
g66
(dp4682
g74
I4
ssg75
g4676
sg68
(lp4683
g61
(g70
g63
NtRp4684
(dp4685
g66
(dp4686
g74
I3
ssg75
Nsg68
(lp4687
g61
(g77
g63
NtRp4688
(dp4689
g66
(dp4690
sg75
g4684
sg68
(lp4691
g61
(g82
g63
NtRp4692
(dp4693
g66
(dp4694
sg75
g4688
sg68
(lp4695
g61
(g62
g63
NtRp4696
(dp4697
g66
(dp4698
g74
I3
ssg75
g4692
sg68
(lp4699
g4629
(S't\n\x00\x00\x00Servidores'
tRp4700
asbasbasbag61
(g77
g63
NtRp4701
(dp4702
g66
(dp4703
sg75
g4684
sg68
(lp4704
g61
(g82
g63
NtRp4705
(dp4706
g66
(dp4707
sg75
g4701
sg68
(lp4708
g61
(g62
g63
NtRp4709
(dp4710
g66
(dp4711
g74
I3
ssg75
g4705
sg68
(lp4712
g104
asbasbasbag61
(g77
g63
NtRp4713
(dp4714
g66
(dp4715
sg75
g4684
sg68
(lp4716
g61
(g82
g63
NtRp4717
(dp4718
g66
(dp4719
sg75
g4713
sg68
(lp4720
g61
(g62
g63
NtRp4721
(dp4722
g66
(dp4723
g74
I3
ssg75
g4717
sg68
(lp4724
S'/show_servidor'
p4725
asbasbasbag61
(g77
g63
NtRp4726
(dp4727
g66
(dp4728
sg75
g4684
sg68
(lp4729
g61
(g82
g63
NtRp4730
(dp4731
g66
(dp4732
sg75
g4726
sg68
(lp4733
g61
(g62
g63
NtRp4734
(dp4735
g66
(dp4736
g74
I3
ssg75
g4730
sg68
(lp4737
g61
(g70
g63
NtRp4738
(dp4739
g66
(dp4740
g74
I2
ssg75
Nsg68
(lp4741
sbasbasbasbasbasbasbasbag61
(g77
g63
NtRp4742
(dp4743
g66
(dp4744
sg75
g4597
sg68
(lp4745
g61
(g82
g63
NtRp4746
(dp4747
g66
(dp4748
sg75
g4742
sg68
(lp4749
g61
(g62
g63
NtRp4750
(dp4751
g66
(dp4752
g74
I4
ssg75
g4746
sg68
(lp4753
g61
(g70
g63
NtRp4754
(dp4755
g66
(dp4756
g74
I3
ssg75
Nsg68
(lp4757
g61
(g77
g63
NtRp4758
(dp4759
g66
(dp4760
sg75
g4754
sg68
(lp4761
g61
(g82
g63
NtRp4762
(dp4763
g66
(dp4764
sg75
g4758
sg68
(lp4765
g61
(g62
g63
NtRp4766
(dp4767
g66
(dp4768
g74
I3
ssg75
g4762
sg68
(lp4769
g4629
(S't\x07\x00\x00\x00Distros'
tRp4770
asbasbasbag61
(g77
g63
NtRp4771
(dp4772
g66
(dp4773
sg75
g4754
sg68
(lp4774
g61
(g82
g63
NtRp4775
(dp4776
g66
(dp4777
sg75
g4771
sg68
(lp4778
g61
(g62
g63
NtRp4779
(dp4780
g66
(dp4781
g74
I3
ssg75
g4775
sg68
(lp4782
g104
asbasbasbag61
(g77
g63
NtRp4783
(dp4784
g66
(dp4785
sg75
g4754
sg68
(lp4786
g61
(g82
g63
NtRp4787
(dp4788
g66
(dp4789
sg75
g4783
sg68
(lp4790
g61
(g62
g63
NtRp4791
(dp4792
g66
(dp4793
g74
I3
ssg75
g4787
sg68
(lp4794
S'/show_distro'
p4795
asbasbasbag61
(g77
g63
NtRp4796
(dp4797
g66
(dp4798
sg75
g4754
sg68
(lp4799
g61
(g82
g63
NtRp4800
(dp4801
g66
(dp4802
sg75
g4796
sg68
(lp4803
g61
(g62
g63
NtRp4804
(dp4805
g66
(dp4806
g74
I3
ssg75
g4800
sg68
(lp4807
g61
(g70
g63
NtRp4808
(dp4809
g66
(dp4810
g74
I2
ssg75
Nsg68
(lp4811
sbasbasbasbasbasbasbasbag61
(g77
g63
NtRp4812
(dp4813
g66
(dp4814
sg75
g4597
sg68
(lp4815
g61
(g82
g63
NtRp4816
(dp4817
g66
(dp4818
sg75
g4812
sg68
(lp4819
g61
(g62
g63
NtRp4820
(dp4821
g66
(dp4822
g74
I4
ssg75
g4816
sg68
(lp4823
g61
(g70
g63
NtRp4824
(dp4825
g66
(dp4826
g74
I3
ssg75
Nsg68
(lp4827
g61
(g77
g63
NtRp4828
(dp4829
g66
(dp4830
sg75
g4824
sg68
(lp4831
g61
(g82
g63
NtRp4832
(dp4833
g66
(dp4834
sg75
g4828
sg68
(lp4835
g61
(g62
g63
NtRp4836
(dp4837
g66
(dp4838
g74
I3
ssg75
g4832
sg68
(lp4839
g4629
(S's\x05\x00\x00\x00+host'
tRp4840
asbasbasbag61
(g77
g63
NtRp4841
(dp4842
g66
(dp4843
sg75
g4824
sg68
(lp4844
g61
(g82
g63
NtRp4845
(dp4846
g66
(dp4847
sg75
g4841
sg68
(lp4848
g61
(g62
g63
NtRp4849
(dp4850
g66
(dp4851
g74
I3
ssg75
g4845
sg68
(lp4852
g104
asbasbasbag61
(g77
g63
NtRp4853
(dp4854
g66
(dp4855
sg75
g4824
sg68
(lp4856
g61
(g82
g63
NtRp4857
(dp4858
g66
(dp4859
sg75
g4853
sg68
(lp4860
g61
(g62
g63
NtRp4861
(dp4862
g66
(dp4863
g74
I3
ssg75
g4857
sg68
(lp4864
S'/interface'
p4865
asbasbasbag61
(g77
g63
NtRp4866
(dp4867
g66
(dp4868
sg75
g4824
sg68
(lp4869
g61
(g82
g63
NtRp4870
(dp4871
g66
(dp4872
sg75
g4866
sg68
(lp4873
g61
(g62
g63
NtRp4874
(dp4875
g66
(dp4876
g74
I3
ssg75
g4870
sg68
(lp4877
g61
(g70
g63
NtRp4878
(dp4879
g66
(dp4880
g74
I2
ssg75
Nsg68
(lp4881
sbasbasbasbasbasbasbasbasbasbasbasbag61
(g77
g63
NtRp4882
(dp4883
g66
(dp4884
sg75
g4097
sg68
(lp4885
g61
(g82
g63
NtRp4886
(dp4887
g66
(dp4888
g86
g87
ssg75
g4882
sg68
(lp4889
S'menu2'
p4890
asbag61
(g82
g63
NtRp4891
(dp4892
g66
(dp4893
g93
g94
ssg75
g4882
sg68
(lp4894
S':'
asbag61
(g82
g63
NtRp4895
(dp4896
g66
(dp4897
sg75
g4882
sg68
(lp4898
g61
(g62
g63
NtRp4899
(dp4900
g66
(dp4901
g74
I5
ssg75
g4895
sg68
(lp4902
g61
(g70
g63
NtRp4903
(dp4904
g66
(dp4905
g74
I4
ssg75
Nsg68
(lp4906
g61
(g77
g63
NtRp4907
(dp4908
g66
(dp4909
sg75
g4903
sg68
(lp4910
g61
(g82
g63
NtRp4911
(dp4912
g66
(dp4913
sg75
g4907
sg68
(lp4914
g61
(g62
g63
NtRp4915
(dp4916
g66
(dp4917
g74
I4
ssg75
g4911
sg68
(lp4918
g61
(g70
g63
NtRp4919
(dp4920
g66
(dp4921
g74
I3
ssg75
Nsg68
(lp4922
g61
(g77
g63
NtRp4923
(dp4924
g66
(dp4925
sg75
g4919
sg68
(lp4926
g61
(g82
g63
NtRp4927
(dp4928
g66
(dp4929
sg75
g4923
sg68
(lp4930
g61
(g62
g63
NtRp4931
(dp4932
g66
(dp4933
g74
I3
ssg75
g4927
sg68
(lp4934
g61
(g4569
g63
NtRp4935
(dp4936
g66
(dp4937
g4559
S'dropdown-toggle'
p4938
ssg75
Nsg68
(lp4939
S'Admin'
p4940
asbasbasbasbag61
(g77
g63
NtRp4941
(dp4942
g66
(dp4943
sg75
g4919
sg68
(lp4944
g61
(g82
g63
NtRp4945
(dp4946
g66
(dp4947
sg75
g4941
sg68
(lp4948
g61
(g62
g63
NtRp4949
(dp4950
g66
(dp4951
g74
I3
ssg75
g4945
sg68
(lp4952
g104
asbasbasbag61
(g77
g63
NtRp4953
(dp4954
g66
(dp4955
sg75
g4919
sg68
(lp4956
g61
(g82
g63
NtRp4957
(dp4958
g66
(dp4959
sg75
g4953
sg68
(lp4960
g61
(g62
g63
NtRp4961
(dp4962
g66
(dp4963
g74
I3
ssg75
g4957
sg68
(lp4964
S'#'
asbasbasbag61
(g77
g63
NtRp4965
(dp4966
g66
(dp4967
sg75
g4919
sg68
(lp4968
g61
(g82
g63
NtRp4969
(dp4970
g66
(dp4971
sg75
g4965
sg68
(lp4972
g61
(g62
g63
NtRp4973
(dp4974
g66
(dp4975
g74
I3
ssg75
g4969
sg68
(lp4976
g61
(g70
g63
NtRp4977
(dp4978
g66
(dp4979
g74
I2
ssg75
Nsg68
(lp4980
g61
(g77
g63
NtRp4981
(dp4982
g66
(dp4983
sg75
g4977
sg68
(lp4984
g61
(g82
g63
NtRp4985
(dp4986
g66
(dp4987
sg75
g4981
sg68
(lp4988
g61
(g62
g63
NtRp4989
(dp4990
g66
(dp4991
g74
I2
ssg75
g4985
sg68
(lp4992
g61
(g70
g63
NtRp4993
(dp4994
g66
(dp4995
g74
I1
ssg75
Nsg68
(lp4996
g61
(g77
g63
NtRp4997
(dp4998
g66
(dp4999
sg75
g4993
sg68
(lp5000
g61
(g82
g63
NtRp5001
(dp5002
g66
(dp5003
sg75
g4997
sg68
(lp5004
g61
(g62
g63
NtRp5005
(dp5006
g66
(dp5007
g74
I1
ssg75
g5001
sg68
(lp5008
g4629
(S's\t\x00\x00\x00Usu\xc3\xa1rios'
tRp5009
asbasbasbag61
(g77
g63
NtRp5010
(dp5011
g66
(dp5012
sg75
g4993
sg68
(lp5013
g61
(g82
g63
NtRp5014
(dp5015
g66
(dp5016
sg75
g5010
sg68
(lp5017
g61
(g62
g63
NtRp5018
(dp5019
g66
(dp5020
g74
I1
ssg75
g5014
sg68
(lp5021
I00
asbasbasbag61
(g77
g63
NtRp5022
(dp5023
g66
(dp5024
sg75
g4993
sg68
(lp5025
g61
(g82
g63
NtRp5026
(dp5027
g66
(dp5028
sg75
g5022
sg68
(lp5029
g61
(g62
g63
NtRp5030
(dp5031
g66
(dp5032
g74
I1
ssg75
g5026
sg68
(lp5033
S'/manager/users'
p5034
asbasbasbasbasbasbasbag61
(g77
g63
NtRp5035
(dp5036
g66
(dp5037
sg75
g4977
sg68
(lp5038
g61
(g82
g63
NtRp5039
(dp5040
g66
(dp5041
sg75
g5035
sg68
(lp5042
g61
(g62
g63
NtRp5043
(dp5044
g66
(dp5045
g74
I2
ssg75
g5039
sg68
(lp5046
g61
(g70
g63
NtRp5047
(dp5048
g66
(dp5049
g74
I1
ssg75
Nsg68
(lp5050
g61
(g77
g63
NtRp5051
(dp5052
g66
(dp5053
sg75
g5047
sg68
(lp5054
g61
(g82
g63
NtRp5055
(dp5056
g66
(dp5057
sg75
g5051
sg68
(lp5058
g61
(g62
g63
NtRp5059
(dp5060
g66
(dp5061
g74
I1
ssg75
g5055
sg68
(lp5062
g4629
(S't\x06\x00\x00\x00Grupos'
tRp5063
asbasbasbag61
(g77
g63
NtRp5064
(dp5065
g66
(dp5066
sg75
g5047
sg68
(lp5067
g61
(g82
g63
NtRp5068
(dp5069
g66
(dp5070
sg75
g5064
sg68
(lp5071
g61
(g62
g63
NtRp5072
(dp5073
g66
(dp5074
g74
I1
ssg75
g5068
sg68
(lp5075
I00
asbasbasbag61
(g77
g63
NtRp5076
(dp5077
g66
(dp5078
sg75
g5047
sg68
(lp5079
g61
(g82
g63
NtRp5080
(dp5081
g66
(dp5082
sg75
g5076
sg68
(lp5083
g61
(g62
g63
NtRp5084
(dp5085
g66
(dp5086
g74
I1
ssg75
g5080
sg68
(lp5087
S'/manager/groups'
p5088
asbasbasbasbasbasbasbag61
(g77
g63
NtRp5089
(dp5090
g66
(dp5091
sg75
g4977
sg68
(lp5092
g61
(g82
g63
NtRp5093
(dp5094
g66
(dp5095
sg75
g5089
sg68
(lp5096
g61
(g62
g63
NtRp5097
(dp5098
g66
(dp5099
g74
I2
ssg75
g5093
sg68
(lp5100
g61
(g70
g63
NtRp5101
(dp5102
g66
(dp5103
g74
I1
ssg75
Nsg68
(lp5104
g61
(g77
g63
NtRp5105
(dp5106
g66
(dp5107
sg75
g5101
sg68
(lp5108
g61
(g82
g63
NtRp5109
(dp5110
g66
(dp5111
sg75
g5105
sg68
(lp5112
g61
(g62
g63
NtRp5113
(dp5114
g66
(dp5115
g74
I1
ssg75
g5109
sg68
(lp5116
g4629
(S't\x07\x00\x00\x00Membros'
tRp5117
asbasbasbag61
(g77
g63
NtRp5118
(dp5119
g66
(dp5120
sg75
g5101
sg68
(lp5121
g61
(g82
g63
NtRp5122
(dp5123
g66
(dp5124
sg75
g5118
sg68
(lp5125
g61
(g62
g63
NtRp5126
(dp5127
g66
(dp5128
g74
I1
ssg75
g5122
sg68
(lp5129
I00
asbasbasbag61
(g77
g63
NtRp5130
(dp5131
g66
(dp5132
sg75
g5101
sg68
(lp5133
g61
(g82
g63
NtRp5134
(dp5135
g66
(dp5136
sg75
g5130
sg68
(lp5137
g61
(g62
g63
NtRp5138
(dp5139
g66
(dp5140
g74
I1
ssg75
g5134
sg68
(lp5141
S'/manager/membership'
p5142
asbasbasbasbasbasbasbasbasbasbasbasbasbasbasbag61
(g77
g63
NtRp5143
(dp5144
g66
(dp5145
sg75
g4903
sg68
(lp5146
g61
(g82
g63
NtRp5147
(dp5148
g66
(dp5149
sg75
g5143
sg68
(lp5150
g61
(g62
g63
NtRp5151
(dp5152
g66
(dp5153
g74
I4
ssg75
g5147
sg68
(lp5154
g61
(g70
g63
NtRp5155
(dp5156
g66
(dp5157
g74
I3
ssg75
Nsg68
(lp5158
g61
(g77
g63
NtRp5159
(dp5160
g66
(dp5161
sg75
g5155
sg68
(lp5162
g61
(g82
g63
NtRp5163
(dp5164
g66
(dp5165
sg75
g5159
sg68
(lp5166
g61
(g62
g63
NtRp5167
(dp5168
g66
(dp5169
g74
I3
ssg75
g5163
sg68
(lp5170
g61
(g4569
g63
NtRp5171
(dp5172
g66
(dp5173
g4559
g4938
ssg75
Nsg68
(lp5174
S'Login'
p5175
asbasbasbasbag61
(g77
g63
NtRp5176
(dp5177
g66
(dp5178
sg75
g5155
sg68
(lp5179
g61
(g82
g63
NtRp5180
(dp5181
g66
(dp5182
sg75
g5176
sg68
(lp5183
g61
(g62
g63
NtRp5184
(dp5185
g66
(dp5186
g74
I3
ssg75
g5180
sg68
(lp5187
g104
asbasbasbag61
(g77
g63
NtRp5188
(dp5189
g66
(dp5190
sg75
g5155
sg68
(lp5191
g61
(g82
g63
NtRp5192
(dp5193
g66
(dp5194
sg75
g5188
sg68
(lp5195
g61
(g62
g63
NtRp5196
(dp5197
g66
(dp5198
g74
I3
ssg75
g5192
sg68
(lp5199
S'#'
asbasbasbag61
(g77
g63
NtRp5200
(dp5201
g66
(dp5202
sg75
g5155
sg68
(lp5203
g61
(g82
g63
NtRp5204
(dp5205
g66
(dp5206
sg75
g5200
sg68
(lp5207
g61
(g62
g63
NtRp5208
(dp5209
g66
(dp5210
g74
I3
ssg75
g5204
sg68
(lp5211
g61
(g70
g63
NtRp5212
(dp5213
g66
(dp5214
g74
I2
ssg75
Nsg68
(lp5215
g61
(g77
g63
NtRp5216
(dp5217
g66
(dp5218
sg75
g5212
sg68
(lp5219
g61
(g82
g63
NtRp5220
(dp5221
g66
(dp5222
sg75
g5216
sg68
(lp5223
g61
(g62
g63
NtRp5224
(dp5225
g66
(dp5226
g74
I2
ssg75
g5220
sg68
(lp5227
g61
(g70
g63
NtRp5228
(dp5229
g66
(dp5230
g74
I1
ssg75
Nsg68
(lp5231
g61
(g77
g63
NtRp5232
(dp5233
g66
(dp5234
sg75
g5228
sg68
(lp5235
g61
(g82
g63
NtRp5236
(dp5237
g66
(dp5238
sg75
g5232
sg68
(lp5239
g61
(g62
g63
NtRp5240
(dp5241
g66
(dp5242
g74
I1
ssg75
g5236
sg68
(lp5243
g4629
(S't\x06\x00\x00\x00Logout'
tRp5244
asbasbasbag61
(g77
g63
NtRp5245
(dp5246
g66
(dp5247
sg75
g5228
sg68
(lp5248
g61
(g82
g63
NtRp5249
(dp5250
g66
(dp5251
sg75
g5245
sg68
(lp5252
g61
(g62
g63
NtRp5253
(dp5254
g66
(dp5255
g74
I1
ssg75
g5249
sg68
(lp5256
I00
asbasbasbag61
(g77
g63
NtRp5257
(dp5258
g66
(dp5259
sg75
g5228
sg68
(lp5260
g61
(g82
g63
NtRp5261
(dp5262
g66
(dp5263
sg75
g5257
sg68
(lp5264
g61
(g62
g63
NtRp5265
(dp5266
g66
(dp5267
g74
I1
ssg75
g5261
sg68
(lp5268
S'/initial/user/logout'
p5269
asbasbasbasbasbasbasbasbasbasbasbasbasbasbasbasbasbasbasbag61
(g77
g63
NtRp5270
(dp5271
g66
(dp5272
sg75
g4097
sg68
(lp5273
g61
(g82
g63
NtRp5274
(dp5275
g66
(dp5276
g86
g87
ssg75
g5270
sg68
(lp5277
S'meta'
p5278
asbag61
(g82
g63
NtRp5279
(dp5280
g66
(dp5281
g93
g94
ssg75
g5270
sg68
(lp5282
S':'
asbag61
(g82
g63
NtRp5283
(dp5284
g66
(dp5285
sg75
g5270
sg68
(lp5286
g61
(g62
g63
NtRp5287
(dp5288
g66
(dp5289
g74
I5
ssg75
g5283
sg68
(lp5290
g61
(g70
g63
NtRp5291
(dp5292
g66
(dp5293
g74
I4
ssg75
Nsg68
(lp5294
g61
(g77
g63
NtRp5295
(dp5296
g66
(dp5297
sg75
g5291
sg68
(lp5298
g61
(g82
g63
NtRp5299
(dp5300
g66
(dp5301
g86
g87
ssg75
g5295
sg68
(lp5302
S'author'
p5303
asbag61
(g82
g63
NtRp5304
(dp5305
g66
(dp5306
g93
g94
ssg75
g5295
sg68
(lp5307
S':'
asbag61
(g82
g63
NtRp5308
(dp5309
g66
(dp5310
sg75
g5295
sg68
(lp5311
g61
(g62
g63
NtRp5312
(dp5313
g66
(dp5314
g74
I4
ssg75
g5308
sg68
(lp5315
S'Your Name <you@example.com>'
p5316
asbasbasbag61
(g77
g63
NtRp5317
(dp5318
g66
(dp5319
sg75
g5291
sg68
(lp5320
g61
(g82
g63
NtRp5321
(dp5322
g66
(dp5323
g86
g87
ssg75
g5317
sg68
(lp5324
S'description'
p5325
asbag61
(g82
g63
NtRp5326
(dp5327
g66
(dp5328
g93
g94
ssg75
g5317
sg68
(lp5329
S':'
asbag61
(g82
g63
NtRp5330
(dp5331
g66
(dp5332
sg75
g5317
sg68
(lp5333
g61
(g62
g63
NtRp5334
(dp5335
g66
(dp5336
g74
I4
ssg75
g5330
sg68
(lp5337
S'a cool new app'
p5338
asbasbasbag61
(g77
g63
NtRp5339
(dp5340
g66
(dp5341
sg75
g5291
sg68
(lp5342
g61
(g82
g63
NtRp5343
(dp5344
g66
(dp5345
g86
g87
ssg75
g5339
sg68
(lp5346
S'generator'
p5347
asbag61
(g82
g63
NtRp5348
(dp5349
g66
(dp5350
g93
g94
ssg75
g5339
sg68
(lp5351
S':'
asbag61
(g82
g63
NtRp5352
(dp5353
g66
(dp5354
sg75
g5339
sg68
(lp5355
g61
(g62
g63
NtRp5356
(dp5357
g66
(dp5358
g74
I4
ssg75
g5352
sg68
(lp5359
S'Web2py Web Framework'
p5360
asbasbasbag61
(g77
g63
NtRp5361
(dp5362
g66
(dp5363
sg75
g5291
sg68
(lp5364
g61
(g82
g63
NtRp5365
(dp5366
g66
(dp5367
g86
g87
ssg75
g5361
sg68
(lp5368
S'keywords'
p5369
asbag61
(g82
g63
NtRp5370
(dp5371
g66
(dp5372
g93
g94
ssg75
g5361
sg68
(lp5373
S':'
asbag61
(g82
g63
NtRp5374
(dp5375
g66
(dp5376
sg75
g5361
sg68
(lp5377
g61
(g62
g63
NtRp5378
(dp5379
g66
(dp5380
g74
I4
ssg75
g5374
sg68
(lp5381
S'web2py, python, framework'
p5382
asbasbasbasbasbasbasbag61
(g77
g63
NtRp5383
(dp5384
g66
(dp5385
sg75
g4097
sg68
(lp5386
g61
(g82
g63
NtRp5387
(dp5388
g66
(dp5389
g86
g87
ssg75
g5383
sg68
(lp5390
S'models_to_run'
p5391
asbag61
(g82
g63
NtRp5392
(dp5393
g66
(dp5394
g93
g94
ssg75
g5383
sg68
(lp5395
S':'
asbag61
(g82
g63
NtRp5396
(dp5397
g66
(dp5398
sg75
g5383
sg68
(lp5399
g61
(g62
g63
NtRp5400
(dp5401
g66
(dp5402
g74
I5
ssg75
g5396
sg68
(lp5403
g61
(g70
g63
NtRp5404
(dp5405
g66
(dp5406
g74
I4
ssg75
Nsg68
(lp5407
g61
(g77
g63
NtRp5408
(dp5409
g66
(dp5410
sg75
g5404
sg68
(lp5411
g61
(g82
g63
NtRp5412
(dp5413
g66
(dp5414
sg75
g5408
sg68
(lp5415
g61
(g62
g63
NtRp5416
(dp5417
g66
(dp5418
g74
I4
ssg75
g5412
sg68
(lp5419
S'^\\w+\\.py$'
p5420
asbasbasbag61
(g77
g63
NtRp5421
(dp5422
g66
(dp5423
sg75
g5404
sg68
(lp5424
g61
(g82
g63
NtRp5425
(dp5426
g66
(dp5427
sg75
g5421
sg68
(lp5428
g61
(g62
g63
NtRp5429
(dp5430
g66
(dp5431
g74
I4
ssg75
g5425
sg68
(lp5432
S'^initial/\\w+\\.py$'
p5433
asbasbasbag61
(g77
g63
NtRp5434
(dp5435
g66
(dp5436
sg75
g5404
sg68
(lp5437
g61
(g82
g63
NtRp5438
(dp5439
g66
(dp5440
sg75
g5434
sg68
(lp5441
g61
(g62
g63
NtRp5442
(dp5443
g66
(dp5444
g74
I4
ssg75
g5438
sg68
(lp5445
S'^initial/principal/\\w+\\.py$'
p5446
asbasbasbasbasbasbasbag61
(g77
g63
NtRp5447
(dp5448
g66
(dp5449
sg75
g4097
sg68
(lp5450
g61
(g82
g63
NtRp5451
(dp5452
g66
(dp5453
g86
g87
ssg75
g5447
sg68
(lp5454
S'postprocessing'
p5455
asbag61
(g82
g63
NtRp5456
(dp5457
g66
(dp5458
g93
g94
ssg75
g5447
sg68
(lp5459
S':'
asbag61
(g82
g63
NtRp5460
(dp5461
g66
(dp5462
sg75
g5447
sg68
(lp5463
g61
(g62
g63
NtRp5464
(dp5465
g66
(dp5466
g74
I5
ssg75
g5460
sg68
(lp5467
g61
(g70
g63
NtRp5468
(dp5469
g66
(dp5470
g74
I4
ssg75
Nsg68
(lp5471
sbasbasbasbag61
(g77
g63
NtRp5472
(dp5473
g66
(dp5474
sg75
g4097
sg68
(lp5475
g61
(g82
g63
NtRp5476
(dp5477
g66
(dp5478
g86
g87
ssg75
g5472
sg68
(lp5479
S'session_cookie_expires'
p5480
asbag61
(g82
g63
NtRp5481
(dp5482
g66
(dp5483
g93
g94
ssg75
g5472
sg68
(lp5484
S':'
asbag61
(g82
g63
NtRp5485
(dp5486
g66
(dp5487
sg75
g5472
sg68
(lp5488
g61
(g62
g63
NtRp5489
(dp5490
g66
(dp5491
g74
I5
ssg75
g5485
sg68
(lp5492
S'None'
p5493
asbasbasbag61
(g77
g63
NtRp5494
(dp5495
g66
(dp5496
sg75
g4097
sg68
(lp5497
g61
(g82
g63
NtRp5498
(dp5499
g66
(dp5500
g86
g87
ssg75
g5494
sg68
(lp5501
S'session_data_name'
p5502
asbag61
(g82
g63
NtRp5503
(dp5504
g66
(dp5505
g93
g94
ssg75
g5494
sg68
(lp5506
S':'
asbag61
(g82
g63
NtRp5507
(dp5508
g66
(dp5509
sg75
g5494
sg68
(lp5510
g61
(g62
g63
NtRp5511
(dp5512
g66
(dp5513
g74
I5
ssg75
g5507
sg68
(lp5514
S'session_data_projeto'
p5515
asbasbasbag61
(g77
g63
NtRp5516
(dp5517
g66
(dp5518
sg75
g4097
sg68
(lp5519
g61
(g82
g63
NtRp5520
(dp5521
g66
(dp5522
g86
g87
ssg75
g5516
sg68
(lp5523
S'session_file'
p5524
asbag61
(g82
g63
NtRp5525
(dp5526
g66
(dp5527
g93
g94
ssg75
g5516
sg68
(lp5528
S':'
asbag61
(g82
g63
NtRp5529
(dp5530
g66
(dp5531
sg75
g5516
sg68
(lp5532
g61
(g62
g63
NtRp5533
(dp5534
g66
(dp5535
g74
I5
ssg75
g5529
sg68
(lp5536
S"<open file '/var/www/conferencia/applications/projeto/sessions/127.0.0.1-0fe02c32-0739-4f06-a369-3bba6377da8b', mode 'rb+' at 0x7f32f8059ae0>"
p5537
asbasbasbag61
(g77
g63
NtRp5538
(dp5539
g66
(dp5540
sg75
g4097
sg68
(lp5541
g61
(g82
g63
NtRp5542
(dp5543
g66
(dp5544
g86
g87
ssg75
g5538
sg68
(lp5545
S'session_filename'
p5546
asbag61
(g82
g63
NtRp5547
(dp5548
g66
(dp5549
g93
g94
ssg75
g5538
sg68
(lp5550
S':'
asbag61
(g82
g63
NtRp5551
(dp5552
g66
(dp5553
sg75
g5538
sg68
(lp5554
g61
(g62
g63
NtRp5555
(dp5556
g66
(dp5557
g74
I5
ssg75
g5551
sg68
(lp5558
S'/var/www/conferencia/applications/projeto/sessions/127.0.0.1-0fe02c32-0739-4f06-a369-3bba6377da8b'
p5559
asbasbasbag61
(g77
g63
NtRp5560
(dp5561
g66
(dp5562
sg75
g4097
sg68
(lp5563
g61
(g82
g63
NtRp5564
(dp5565
g66
(dp5566
g86
g87
ssg75
g5560
sg68
(lp5567
S'session_id'
p5568
asbag61
(g82
g63
NtRp5569
(dp5570
g66
(dp5571
g93
g94
ssg75
g5560
sg68
(lp5572
S':'
asbag61
(g82
g63
NtRp5573
(dp5574
g66
(dp5575
sg75
g5560
sg68
(lp5576
g61
(g62
g63
NtRp5577
(dp5578
g66
(dp5579
g74
I5
ssg75
g5573
sg68
(lp5580
g505
asbasbasbag61
(g77
g63
NtRp5581
(dp5582
g66
(dp5583
sg75
g4097
sg68
(lp5584
g61
(g82
g63
NtRp5585
(dp5586
g66
(dp5587
g86
g87
ssg75
g5581
sg68
(lp5588
S'session_id_name'
p5589
asbag61
(g82
g63
NtRp5590
(dp5591
g66
(dp5592
g93
g94
ssg75
g5581
sg68
(lp5593
S':'
asbag61
(g82
g63
NtRp5594
(dp5595
g66
(dp5596
sg75
g5581
sg68
(lp5597
g61
(g62
g63
NtRp5598
(dp5599
g66
(dp5600
g74
I5
ssg75
g5594
sg68
(lp5601
g4154
asbasbasbag61
(g77
g63
NtRp5602
(dp5603
g66
(dp5604
sg75
g4097
sg68
(lp5605
g61
(g82
g63
NtRp5606
(dp5607
g66
(dp5608
g86
g87
ssg75
g5602
sg68
(lp5609
S'session_locked'
p5610
asbag61
(g82
g63
NtRp5611
(dp5612
g66
(dp5613
g93
g94
ssg75
g5602
sg68
(lp5614
S':'
asbag61
(g82
g63
NtRp5615
(dp5616
g66
(dp5617
sg75
g5602
sg68
(lp5618
g61
(g62
g63
NtRp5619
(dp5620
g66
(dp5621
g74
I5
ssg75
g5615
sg68
(lp5622
g1774
asbasbasbag61
(g77
g63
NtRp5623
(dp5624
g66
(dp5625
sg75
g4097
sg68
(lp5626
g61
(g82
g63
NtRp5627
(dp5628
g66
(dp5629
g86
g87
ssg75
g5623
sg68
(lp5630
S'session_new'
p5631
asbag61
(g82
g63
NtRp5632
(dp5633
g66
(dp5634
g93
g94
ssg75
g5623
sg68
(lp5635
S':'
asbag61
(g82
g63
NtRp5636
(dp5637
g66
(dp5638
sg75
g5623
sg68
(lp5639
g61
(g62
g63
NtRp5640
(dp5641
g66
(dp5642
g74
I5
ssg75
g5636
sg68
(lp5643
g104
asbasbasbag61
(g77
g63
NtRp5644
(dp5645
g66
(dp5646
sg75
g4097
sg68
(lp5647
g61
(g82
g63
NtRp5648
(dp5649
g66
(dp5650
g86
g87
ssg75
g5644
sg68
(lp5651
S'session_storage_type'
p5652
asbag61
(g82
g63
NtRp5653
(dp5654
g66
(dp5655
g93
g94
ssg75
g5644
sg68
(lp5656
S':'
asbag61
(g82
g63
NtRp5657
(dp5658
g66
(dp5659
sg75
g5644
sg68
(lp5660
g61
(g62
g63
NtRp5661
(dp5662
g66
(dp5663
g74
I5
ssg75
g5657
sg68
(lp5664
g3444
asbasbasbag61
(g77
g63
NtRp5665
(dp5666
g66
(dp5667
sg75
g4097
sg68
(lp5668
g61
(g82
g63
NtRp5669
(dp5670
g66
(dp5671
g86
g87
ssg75
g5665
sg68
(lp5672
S'status'
p5673
asbag61
(g82
g63
NtRp5674
(dp5675
g66
(dp5676
g93
g94
ssg75
g5665
sg68
(lp5677
S':'
asbag61
(g82
g63
NtRp5678
(dp5679
g66
(dp5680
sg75
g5665
sg68
(lp5681
g61
(g62
g63
NtRp5682
(dp5683
g66
(dp5684
g74
I5
ssg75
g5678
sg68
(lp5685
S'200'
p5686
asbasbasbag61
(g77
g63
NtRp5687
(dp5688
g66
(dp5689
sg75
g4097
sg68
(lp5690
g61
(g82
g63
NtRp5691
(dp5692
g66
(dp5693
g86
g87
ssg75
g5687
sg68
(lp5694
S'subtitle'
p5695
asbag61
(g82
g63
NtRp5696
(dp5697
g66
(dp5698
g93
g94
ssg75
g5687
sg68
(lp5699
S':'
asbag61
(g82
g63
NtRp5700
(dp5701
g66
(dp5702
sg75
g5687
sg68
(lp5703
g61
(g62
g63
NtRp5704
(dp5705
g66
(dp5706
g74
I5
ssg75
g5700
sg68
(lp5707
g4629
(S's\r\x00\x00\x00customize me!'
tRp5708
asbasbasbag61
(g77
g63
NtRp5709
(dp5710
g66
(dp5711
sg75
g4097
sg68
(lp5712
g61
(g82
g63
NtRp5713
(dp5714
g66
(dp5715
g86
g87
ssg75
g5709
sg68
(lp5716
S'title'
p5717
asbag61
(g82
g63
NtRp5718
(dp5719
g66
(dp5720
g93
g94
ssg75
g5709
sg68
(lp5721
S':'
asbag61
(g82
g63
NtRp5722
(dp5723
g66
(dp5724
sg75
g5709
sg68
(lp5725
g61
(g62
g63
NtRp5726
(dp5727
g66
(dp5728
g74
I5
ssg75
g5722
sg68
(lp5729
S'Usu\xc3\xa1rios'
p5730
asbasbasbag61
(g77
g63
NtRp5731
(dp5732
g66
(dp5733
sg75
g4097
sg68
(lp5734
g61
(g82
g63
NtRp5735
(dp5736
g66
(dp5737
g86
g87
ssg75
g5731
sg68
(lp5738
S'view'
p5739
asbag61
(g82
g63
NtRp5740
(dp5741
g66
(dp5742
g93
g94
ssg75
g5731
sg68
(lp5743
S':'
asbag61
(g82
g63
NtRp5744
(dp5745
g66
(dp5746
sg75
g5731
sg68
(lp5747
g61
(g62
g63
NtRp5748
(dp5749
g66
(dp5750
g74
I5
ssg75
g5744
sg68
(lp5751
S'initial/principal.html'
p5752
asbasbasbasbasbsS'locals'
p5753
(dp5754
S'exc'
p5755
S'ProgrammingError(\'ERROR\', \'42P01\', \'relation "usuario" does not exist\')'
p5756
sS'msg_class'
p5757
S"<class 'gluon.contrib.pg8000.protocol.RowDescription'>"
p5758
sS'self'
p5759
S'<gluon.contrib.pg8000.protocol.MessageReader object>'
p5760
sg46
S'()'
p5761
sS'handler'
p5762
S'<function <lambda>>'
p5763
sS'kwargs'
p5764
g21
sS'msg'
p5765
S'<ErrorResponse ERROR 42P01 \'relation "usuario" does not exist\'>'
p5766
sS'msg_handled'
p5767
g104
sssS'traceback'
p5768
S'Traceback (most recent call last):\n  File "/var/www/conferencia/gluon/restricted.py", line 212, in restricted\n    exec ccode in environment\n  File "/var/www/conferencia/applications/projeto/controllers/initial.py", line 328, in <module>\n  File "/var/www/conferencia/gluon/globals.py", line 193, in <lambda>\n    self._caller = lambda f: f()\n  File "/var/www/conferencia/applications/projeto/controllers/initial.py", line 297, in principal\n    ignore_rw = True, maxtextlength=36,\n  File "/var/www/conferencia/gluon/sqlhtml.py", line 1881, in grid\n    onsuccess=oncreate)\n  File "/var/www/conferencia/gluon/html.py", line 2179, in process\n    self.validate(**kwargs)\n  File "/var/www/conferencia/gluon/html.py", line 2118, in validate\n    if self.accepts(**kwargs):\n  File "/var/www/conferencia/gluon/sqlhtml.py", line 1291, in accepts\n    **kwargs\n  File "/var/www/conferencia/gluon/html.py", line 2001, in accepts\n    status = self._traverse(status, hideerror)\n  File "/var/www/conferencia/gluon/html.py", line 847, in _traverse\n    newstatus = c._traverse(status, hideerror) and newstatus\n  File "/var/www/conferencia/gluon/html.py", line 847, in _traverse\n    newstatus = c._traverse(status, hideerror) and newstatus\n  File "/var/www/conferencia/gluon/html.py", line 847, in _traverse\n    newstatus = c._traverse(status, hideerror) and newstatus\n  File "/var/www/conferencia/gluon/html.py", line 847, in _traverse\n    newstatus = c._traverse(status, hideerror) and newstatus\n  File "/var/www/conferencia/gluon/html.py", line 854, in _traverse\n    newstatus = self._validate()\n  File "/var/www/conferencia/gluon/html.py", line 1750, in _validate\n    (value, errors) = validator(value)\n  File "/var/www/conferencia/gluon/validators.py", line 589, in __call__\n    rows = self.dbset(field == value, ignore_common_filters=self.ignore_common_filters).select(limitby=(0, 1))\n  File "/var/www/conferencia/gluon/dal.py", line 8905, in select\n    return adapter.select(self.query,fields,attributes)\n  File "/var/www/conferencia/gluon/dal.py", line 1631, in select\n    return self._select_aux(sql,fields,attributes)\n  File "/var/www/conferencia/gluon/dal.py", line 1596, in _select_aux\n    self.execute(sql)\n  File "/var/www/conferencia/gluon/dal.py", line 1709, in execute\n    return self.log_execute(*a, **b)\n  File "/var/www/conferencia/gluon/dal.py", line 1703, in log_execute\n    ret = self.cursor.execute(*a, **b)\n  File "/var/www/conferencia/gluon/contrib/pg8000/dbapi.py", line 246, in _fn\n    return fn(self, *args, **kwargs)\n  File "/var/www/conferencia/gluon/contrib/pg8000/dbapi.py", line 317, in execute\n    self._execute(operation, args)\n  File "/var/www/conferencia/gluon/contrib/pg8000/dbapi.py", line 322, in _execute\n    self.cursor.execute(new_query, *new_args)\n  File "/var/www/conferencia/gluon/contrib/pg8000/interface.py", line 398, in execute\n    self._stmt = PreparedStatement(self.connection, query, statement_name="", *[{"type": type(x), "value": x} for x in args])\n  File "/var/www/conferencia/gluon/contrib/pg8000/interface.py", line 138, in __init__\n    self._parse_row_desc = self.c.parse(self._statement_name, statement, types)\n  File "/var/www/conferencia/gluon/contrib/pg8000/protocol.py", line 943, in _fn\n    return fn(self, *args, **kwargs)\n  File "/var/www/conferencia/gluon/contrib/pg8000/protocol.py", line 1104, in parse\n    return reader.handle_messages()\n  File "/var/www/conferencia/gluon/contrib/pg8000/protocol.py", line 929, in handle_messages\n    raise exc\nProgrammingError: (\'ERROR\', \'42P01\', \'relation "usuario" does not exist\')\n'
p5769
s.