(dp1
S'output'
p2
S'<class \'gluon.contrib.pg8000.errors.ProgrammingError\'> (\'ERROR\', \'42P01\', \'relation "meetme_id_seq" does not exist\')'
p3
sS'layer'
p4
S'/var/www/conferencia/applications/projeto/controllers/initial.py'
p5
sS'code'
p6
S'# coding: utf-8\n\ndef show_cliente():\n\tresponse.title="Eventos"\n\tprint request.now\n\n\n\n\n\tgrid = SQLFORM.grid(db.meetme, orderby=db.meetme.endtime,\n\t\tuser_signature=False, searchable=True, csv=False, \n\t\tpaginate=50, details=False,  \n\t\tignore_rw = True, maxtextlength=36,\n\t\tlinks=[lambda row: A(\'Editar\', \n    \t\t      _class=\'btn\', \n    \t\t      _title=\'Editar\', \n    \t\t      _href=URL("initial", "/edit_host", \n    \t\t      vars=dict(f=row.confno)))] \n    \t)\n\treturn response.render("initial/show_grid.html", grid=grid)\n\ndef show_servidor():\n\tresponse.title="Eventos"\n\tdata = request.now\n\n\tquery=(db.meetme.endtime > \'2013-04-03 09:38:17.902532\') \n\tquery2=(\'SELECT * from meetme order by id desc LIMIT 4;\')\n\tprint query\n\n\tgrid = SQLFORM.grid(query=query, orderby=db.meetme.endtime,\n\t\tuser_signature=False, searchable=True, csv=False, \n\t\tpaginate=50, details=False,  \n\t\tignore_rw = True, maxtextlength=36, \n    \t)\n\treturn response.render("initial/show_grid.html", grid=grid)\n\n\n@auth.requires_login()\ndef show_distro():\n\tresponse.title="Distribui\xc3\xa7\xc3\xb5es"\n\n\tdb.args=Distro.id.readable=False\n\tdb.args=Distro.img.readable=False\n\tgrid = SQLFORM.grid(Distro,\n\t\tuser_signature=True, searchable=True, csv=False,\n\t\tpaginate=50, details=False, ignore_rw = True, \n\t\tmaxtextlength=26, links_placement=\'left\',\n\t\tcreate=auth.has_membership("admin"),\n\t\teditable=auth.has_membership("admin"),\n\t\tdeletable=auth.has_membership("admin"),  \n    \tlinks = [lambda row: A(\'hosts\', \n    \t\t_class=\'btn\', \n    \t\t_title=\'ver servidores\', \n    \t\t_href=URL("initial", "/distro_host", \n    \t\tvars=dict(f=row.id, n1=\'Distros\', p1=\'show_distro\'))), \n    \tdict(header=\'\',body=lambda row: A( IMG(_src=URL("static", "images", args=(row.img) ))))]\n\t\t)\n\treturn response.render("initial/show_grid.html", grid=grid)\n\n\n@auth.requires_login()\ndef cliente_host():\n\tfiltro = request.vars[\'f\']\n\tqueryset = db(db.cliente.id == filtro)\n\trows = queryset.select()\n\tcliente = rows[0]\n\tresponse.title = cliente.nome\n\tprint cliente\n\n\tnome_ant1 = request.vars[\'n1\']\n\tfuncao_ant1 = request.vars[\'p1\']\n\tnome_atual = cliente.nome\n\n\tquery = ((db.hosts.id_cliente == filtro) & (db.distro.id == db.hosts.id_distro))\n\tlinks = [dict(header=\'\',body=lambda row: A( IMG(_src=URL("static", "images", args=(row.distro.img)) ))), \n\t lambda row: A(\'Detalhes\', \n    \t\t      _class=\'btn\', \n    \t\t      _title=\'Detalhes\', \n    \t\t      _href=URL("initial", "/detalhes_nav", \n    \t\t      vars=dict(f=row.hosts.id, c=filtro, n=cliente.nome, \n    \t\t      \t\t\tn1=\'Clientes\', p1=\'show_cliente\', p=\'cliente_host\'))),\n\t lambda row: A(\'Editar\', \n    \t\t      _class=\'btn\', \n    \t\t      _title=\'Editar\', \n    \t\t      _href=URL("initial", "/edit_host", \n    \t\t      vars=dict(f=row.hosts.id, c=filtro, n=cliente.nome, \n    \t\t      \t\tn1=\'Clientes\', p1=\'show_cliente\', p=\'cliente_host\')))]\n\tdb.hosts.id.readable=False\n\tdb.distro.img.readable=False\n\t\n\tfields = (db.hosts.id, db.hosts.id_servidor, db.hosts.id_distro, db.distro.img, \n\t\t\t  db.hosts.ip_chegada, db.hosts.porta_ssh, db.hosts.gateway)\n\theaders = {\'hosts.id\':   \'ID\',\n\t\t\t   \'hosts.id_cliente\': \'Cliente\',\n               \'hosts.id_servidor\': \'Servidor\',\n               \'hosts.id_distro\': \'Distro\',\n               \'hosts.nome\': \'Nome\',\n\t           \'hosts.servicos\': \'Servicos\'}\n\tgrid = SQLFORM.grid(query=query, fields=fields, headers=headers, csv=False,\n\t\t\t\t\t\tdetails=False, searchable=False, maxtextlength=23, links=links, \n\t\t\t\t\t\tlinks_placement=\'left\', editable=False, create=False)\n\n\treturn response.render("initial/show_grid2.html", grid=grid, nome_ant1=nome_ant1, \n\t\t\t\t\t\tfuncao_ant1=funcao_ant1, nome_atual=nome_atual)\n\n@auth.requires_login()\ndef servidor_host():\n\tfiltro = request.vars[\'f\']\n\tqueryset = db(db.servidor.id == filtro)\n\trows = queryset.select()\n\tservidor = rows[0]\n\tresponse.title = servidor.nome\n\n\tnome_ant1 = request.vars[\'n1\']\n\tfuncao_ant1 = request.vars[\'p1\']\n\tnome_atual = servidor.nome\t\n\n\tdb.distro.img.readable=False\n\tdb.hosts.id.readable=False\n\tquery = ((db.hosts.id_servidor == filtro) & (db.distro.id == db.hosts.id_distro))\n\n\tlinks = [dict(header=\'\',body=lambda row: A( IMG(_src=URL("static", "images", args=(row.distro.img)) ))), \n\t lambda row: A(\'Detalhes\', \n    \t\t      _class=\'btn\', \n    \t\t      _title=\'Detalhes\', \n    \t\t      _href=URL("initial", "/detalhes_nav", \n    \t\t      vars=dict(f=row.hosts.id, c=filtro, n=servidor.nome, \n    \t\t      \t\tn1=\'Servidores\', p1=\'show_servidor\', p=\'servidor_host\'))),\n\t lambda row: A(\'Editar\', \n    \t\t      _class=\'btn\', \n    \t\t      _title=\'Editar\', \n    \t\t      _href=URL("initial", "/edit_host", \n    \t\t      vars=dict(f=row.hosts.id, c=filtro, n=servidor.nome, \n    \t\t      \t\tn1=\'Servidores\', p1=\'show_servidor\', p=\'servidor_host\')))]\n\n\tfields = (db.hosts.id, db.hosts.id_cliente, db.hosts.id_distro, db.distro.img, \n\t\t\t\tdb.hosts.ip_chegada, db.hosts.porta_ssh, db.hosts.gateway)\n\theaders = {\'hosts.id\':   \'ID\',\n\t\t\t   \'hosts.id_cliente\': \'Cliente\',\n               \'hosts.id_servidor\': \'Servidor\',\n               \'hosts.id_distro\': \'Distro\',\n               \'hosts.nome\': \'Nome\',\n\t           \'hosts.servicos\': \'Servicos\'}\n\tgrid = SQLFORM.grid(query=query, fields=fields, headers=headers, csv=False,\n\t\t\t\t\t\tdetails=False, searchable=False, maxtextlength=23, links=links, \n\t\t\t\t\t\tlinks_placement=\'left\', editable=False, create=False)\n\n\treturn response.render("initial/show_grid2.html", grid=grid, nome_ant1=nome_ant1, \n\t\t\t\t\t\tfuncao_ant1=funcao_ant1, nome_atual=nome_atual)\n\n@auth.requires_login()\ndef distro_host():\n\tfiltro = request.vars[\'f\']\n\tqueryset = db(db.distro.id == filtro)\n\trows = queryset.select()\n\tdistro = rows[0]\n\tresponse.title = distro.nome\n\n\tnome_ant1 = request.vars[\'n1\']\n\tfuncao_ant1 = request.vars[\'p1\']\n\tnome_atual = distro.nome\t\n\t\n\tdb.hosts.id.readable=False\n\tdb.distro.img.readable=False\n\tquery = ((db.hosts.id_distro == filtro) & (db.distro.id == db.hosts.id_distro))\n\tlinks = [dict(header=\'\',body=lambda row: A( IMG(_src=URL("static", "images", args=(row.distro.img)) ))), \n\t lambda row: A(\'Detalhes\', \n    \t\t      _class=\'btn\', \n    \t\t      _title=\'Detalhes\', \n    \t\t      _href=URL("initial", "/detalhes_nav", \n    \t\t      vars=dict(f=row.hosts.id, c=filtro, n=distro.nome, \n    \t\t      \t\tn1=\'Distros\', p1=\'show_distro\', p=\'distro_host\'))),\n\t lambda row: A(\'Editar\', \n    \t\t      _class=\'btn\', \n    \t\t      _title=\'Editar\', \n    \t\t      _href=URL("initial", "/edit_host", \n    \t\t      vars=dict(f=row.hosts.id, c=filtro, n=distro.nome, \n    \t\t      \t\tn1=\'Distros\', p1=\'show_distro\', p=\'distro_host\')))]\n\n\tfields = (db.hosts.id, db.hosts.id_cliente, db.hosts.id_servidor, db.distro.img, \n\t\t\t  db.hosts.ip_chegada, db.hosts.porta_ssh, db.hosts.gateway)\n\theaders = {\'hosts.id\':   \'ID\',\n\t\t\t\t\'hosts.id_cliente\': \'Cliente\',\n               \'hosts.id_servidor\': \'Servidor\',\n               \'hosts.id_distro\': \'Distro\',\n               \'hosts.nome\': \'Nome\',\n\t           \'hosts.servicos\': \'Servicos\'}\n\tgrid = SQLFORM.grid(query=query, fields=fields, headers=headers, csv=False,\n\t\t\t\t\t\tdetails=False, searchable=False, maxtextlength=23, links=links, \n\t\t\t\t\t\tlinks_placement=\'left\', editable=False, create=False)\n\n\treturn response.render("initial/show_grid2.html", grid=grid, nome_ant1=nome_ant1, \n\t\t\t\t\t\tfuncao_ant1=funcao_ant1, nome_atual=nome_atual)\n\ndef detalhes_nav():\n\t#detalhes\n\tfiltro = request.vars[\'f\'] #id_host\n\tid_cliente = request.vars[\'c\'] #id_cliente\n\tnome_ant = request.vars[\'n\'] #nome (asterisk ou agronelli ou debian)\n\tnome_ant1 = request.vars[\'n1\'] #nome (servidores ou clientes ou distros)\n\tfuncao_ant = request.vars[\'p\'] #funcao(host_servidores)\n\tfuncao_ant1 = request.vars[\'p1\'] #funcao(show_servidores)\n\t\n\n\tquery = ((db.hosts.id == filtro) & (db.hosts.id_cliente == db.cliente.id)\n\t \t    & (db.hosts.id_servidor == db.servidor.id) \n\t \t    & (db.hosts.id_distro == db.distro.id)) \n\tdetalhes = db.hosts(query)\n\t\n\t\n\treturn response.render("initial/detalhes_host.html", detalhes=detalhes, \n\t\t\t\tid_cliente=id_cliente, funcao_ant=funcao_ant, funcao_ant1=funcao_ant1, \n\t\t\t\tnome_ant=nome_ant, nome_ant1=nome_ant1, filtro=filtro)\n\n\ndef edit_host():\n    form = SQLFORM(db.meetme, request.vars[\'f\'], submit_button=\'Editar\')\n\n    if form.process().accepted:\n       response.flash = \'Editado com sucesso\'\n    elif form.errors:\n       response.flash = \'Ops, algo n\xc3\xa3o est\xc3\xa1 correto\'\n    else:\n       response.flash = \'Edite os dados do host\'\n\n    return response.render("initial/show_form2.html", form=form)\n\n\n@auth.requires_login()\ndef interface():\n\t#adicionar\n    form = SQLFORM(db.hosts, submit_button=\'Adicionar\', \n    \t\t\tfields = [\'id_cliente\', \'id_servidor\', \'id_distro\', \'servicos\',\n\t\t\t\t\'if1\', \'ip1\', \'masc1\', \'obs1\', \'if2\', \'ip2\', \'masc2\', \'obs2\',\n\t\t\t\t\'if3\', \'ip3\', \'masc3\', \'obs3\', \'if4\', \'ip4\', \'masc4\', \'obs4\',\n\t\t\t\t\'nome\', \'ip_chegada\', \'porta_ssh\', \'gateway\', \'rotas\', \'obs_gerais\'], \n\t\t\t\tlabels = {\'id_cliente\':\'Cliente\', \'id_servidor\':\'Servidor\', \'id_distro\':\'Distro\',\n\t\t\t\t\'if1\':\'Interface 1\', \'ip1\':\'IP\', \'masc1\':\'M\xc3\xa1scara\', \'obs1\':\'Obs\',\n\t\t\t\t\'if2\':\'Interface 2\', \'ip2\':\'IP\', \'masc2\':\'M\xc3\xa1scara\', \'obs2\':\'Obs\',\n\t\t\t\t\'if3\':\'Interface 3\', \'ip3\':\'IP\', \'masc3\':\'M\xc3\xa1scara\', \'obs3\':\'Obs\',\n\t\t\t\t\'if4\':\'Interface 4\', \'ip4\':\'IP\', \'masc4\':\'M\xc3\xa1scara\', \'obs4\':\'Obs\'})\n   \n    if form.process().accepted:\n    \thost = request.vars\n    \temail(host)\n    \tresponse.flash = \'Inserido com sucesso\'\t\t\n    elif form.errors:\n       response.flash = \'Ops, algo n\xc3\xa3o est\xc3\xa1 correto\'\n    else:\n       response.flash = \'Insira os dados do novo host\'\n    return response.render("initial/show_form2.html", form=form)\n\ndef about():\n\tfiltro = request.vars[\'f\']\n\tquery = ((db.hosts.id_servidor == filtro) & (db.distro.id == db.hosts.id_distro))\n\tfields = (db.hosts.id, db.hosts.id_cliente, db.hosts.id_distro, db.distro.img, \n\t\t\t\tdb.hosts.ip_chegada, db.hosts.porta_ssh, db.hosts.gateway)\n\theaders = {\'host.id\':   \'ID\',\n               \'host.id_servidor\': \'Servidor\',\n               \'host.id_distro\': \'Distro\',\n               \'host.nome\': \'Nome\',\n\t           \'host.servicos\': \'Servicos\'}\n\tgrid = SQLFORM.grid(query=query, fields=fields, headers=headers, csv=False,\n\t\t\t\t\t\tdetails=False, maxtextlength=23, searchable=True, editable=False, create=False)\n\n\treturn response.render("initial/teste.html", grid=grid,)\n\ndef user():\n\t#if request.args(0) == \'register\':\n    #    \tdb.auth_user.bio.writable = db.auth_user.bio.readable = False\n\treturn response.render("initial/user.html", user=auth())\n\ndef register():\n\treturn auth.register()\n\ndef login():\n        return auth.login()\n\ndef account():\n    return dict(register=auth.register(),\n                login=auth.login())\n\t\ndef download():\n\treturn response.download(request, db)\n\n\ndef principal():\n\tresponse.title="Usu\xc3\xa1rios"\n\n\tgrid = SQLFORM.grid(db.usuario,\n\t\tuser_signature=False, searchable=True, csv=False, \n\t\tpaginate=50, details=False,  \n\t\tignore_rw = True, maxtextlength=36, \n    \t)\n\treturn response.render("initial/show_grid.html", grid=grid)\n\n\t\ndef detalhes_clean():\n\tfiltro = request.vars[\'f\'] #id_host\n\t\t\n\n\tquery = ((db.hosts.id == filtro) & (db.hosts.id_cliente == db.cliente.id)\n\t \t    & (db.hosts.id_servidor == db.servidor.id) \n\t \t    & (db.hosts.id_distro == db.distro.id)) \n\tdetalhes = db.hosts(query)\n\n\t\n\treturn response.render("initial/detalhes_host_clean.html", detalhes=detalhes)\n\ndef email(host):\n\tif auth.has_membership(\'voip\'):\n\t\tmail.send(\n\t\t\tto="fndiaz02@gmail.com",\n\t\t\tsubject="host adicionado",\n\t\t\tmessage="<html>Um novo host foi adicionado pelo usu\xc3\xa1rio %s <br>nome: %s <br>vpn: %s<br><br>\xc3\x89 preciso fazer a instala\xc3\xa7\xc3\xa3o do client zabbix e bacula</html>" % (auth.user.first_name, host.nome, host.ip_chegada,)\n\t\t\t)\n\telif auth.has_membership(\'internet\'):\n\t\tmail.send(\n\t\t\tto="fernando@ad2.com.br",\n\t\t\tsubject="host adicionado",\n\t\t\tmessage="<html>Um novo host foi adicionado pelo usu\xc3\xa1rio %s <br>nome: %s <br>vpn: %s<br><br>\xc3\x89 preciso fazer a instala\xc3\xa7\xc3\xa3o do client zabbix e bacula</html>" % (auth.user.first_name, host.nome, host.ip_chegada,)\n\t\t\t)\n\nresponse._vars=response._caller(show_cliente)\n'
p7
sS'snapshot'
p8
(dp9
S'exception'
p10
(dp11
S'__module__'
p12
S"'gluon.contrib.pg8000.errors'"
p13
sS'__getslice__'
p14
S"<method-wrapper '__getslice__' of ProgrammingError object>"
p15
sS'__str__'
p16
S"<method-wrapper '__str__' of ProgrammingError object>"
p17
sS'__reduce__'
p18
S'<built-in method __reduce__ of ProgrammingError object>'
p19
sS'__dict__'
p20
S'{}'
p21
sS'__sizeof__'
p22
S'<built-in method __sizeof__ of ProgrammingError object>'
p23
sS'__weakref__'
p24
S'None'
p25
sS'__init__'
p26
S"<method-wrapper '__init__' of ProgrammingError object>"
p27
sS'__setattr__'
p28
S"<method-wrapper '__setattr__' of ProgrammingError object>"
p29
sS'__reduce_ex__'
p30
S'<built-in method __reduce_ex__ of ProgrammingError object>'
p31
sS'__new__'
p32
S'<built-in method __new__ of type object>'
p33
sS'__format__'
p34
S'<built-in method __format__ of ProgrammingError object>'
p35
sS'__class__'
p36
S"<class 'gluon.contrib.pg8000.errors.ProgrammingError'>"
p37
sS'__doc__'
p38
S'None'
p39
sS'__getitem__'
p40
S"<method-wrapper '__getitem__' of ProgrammingError object>"
p41
sS'__setstate__'
p42
S'<built-in method __setstate__ of ProgrammingError object>'
p43
sS'__getattribute__'
p44
S"<method-wrapper '__getattribute__' of ProgrammingError object>"
p45
sS'args'
p46
S'(\'ERROR\', \'42P01\', \'relation "meetme_id_seq" does not exist\')'
p47
sS'__subclasshook__'
p48
S'<built-in method __subclasshook__ of type object>'
p49
sS'__unicode__'
p50
S'<built-in method __unicode__ of ProgrammingError object>'
p51
sS'__delattr__'
p52
S"<method-wrapper '__delattr__' of ProgrammingError object>"
p53
sS'__repr__'
p54
S"<method-wrapper '__repr__' of ProgrammingError object>"
p55
sS'__hash__'
p56
S"<method-wrapper '__hash__' of ProgrammingError object>"
p57
ssS'evalue'
p58
S'(\'ERROR\', \'42P01\', \'relation "meetme_id_seq" does not exist\')'
p59
sS'request'
p60
ccopy_reg
_reconstructor
p61
(cgluon.html
BEAUTIFY
p62
c__builtin__
object
p63
NtRp64
(dp65
S'attributes'
p66
(dp67
sS'components'
p68
(lp69
g61
(cgluon.html
TABLE
p70
g63
NtRp71
(dp72
g66
(dp73
S'level'
p74
I5
ssS'parent'
p75
Nsg68
(lp76
g61
(cgluon.html
TR
p77
g63
NtRp78
(dp79
g66
(dp80
sg75
g71
sg68
(lp81
g61
(cgluon.html
TD
p82
g63
NtRp83
(dp84
g66
(dp85
S'_style'
p86
S'font-weight:bold;vertical-align:top'
p87
ssg75
g78
sg68
(lp88
S'ajax'
p89
asbag61
(g82
g63
NtRp90
(dp91
g66
(dp92
S'_valign'
p93
S'top'
p94
ssg75
g78
sg68
(lp95
S':'
asbag61
(g82
g63
NtRp96
(dp97
g66
(dp98
sg75
g78
sg68
(lp99
g61
(g62
g63
NtRp100
(dp101
g66
(dp102
g74
I5
ssg75
g96
sg68
(lp103
S'False'
p104
asbasbasbag61
(g77
g63
NtRp105
(dp106
g66
(dp107
sg75
g71
sg68
(lp108
g61
(g82
g63
NtRp109
(dp110
g66
(dp111
g86
g87
ssg75
g105
sg68
(lp112
S'application'
p113
asbag61
(g82
g63
NtRp114
(dp115
g66
(dp116
g93
g94
ssg75
g105
sg68
(lp117
S':'
asbag61
(g82
g63
NtRp118
(dp119
g66
(dp120
sg75
g105
sg68
(lp121
g61
(g62
g63
NtRp122
(dp123
g66
(dp124
g74
I5
ssg75
g118
sg68
(lp125
S'projeto'
p126
asbasbasbag61
(g77
g63
NtRp127
(dp128
g66
(dp129
sg75
g71
sg68
(lp130
g61
(g82
g63
NtRp131
(dp132
g66
(dp133
g86
g87
ssg75
g127
sg68
(lp134
g46
asbag61
(g82
g63
NtRp135
(dp136
g66
(dp137
g93
g94
ssg75
g127
sg68
(lp138
S':'
asbag61
(g82
g63
NtRp139
(dp140
g66
(dp141
sg75
g127
sg68
(lp142
g61
(g62
g63
NtRp143
(dp144
g66
(dp145
g74
I5
ssg75
g139
sg68
(lp146
g61
(g70
g63
NtRp147
(dp148
g66
(dp149
g74
I4
ssg75
Nsg68
(lp150
g61
(g77
g63
NtRp151
(dp152
g66
(dp153
sg75
g147
sg68
(lp154
g61
(g82
g63
NtRp155
(dp156
g66
(dp157
sg75
g151
sg68
(lp158
g61
(g62
g63
NtRp159
(dp160
g66
(dp161
g74
I4
ssg75
g155
sg68
(lp162
S'new'
p163
asbasbasbag61
(g77
g63
NtRp164
(dp165
g66
(dp166
sg75
g147
sg68
(lp167
g61
(g82
g63
NtRp168
(dp169
g66
(dp170
sg75
g164
sg68
(lp171
g61
(g62
g63
NtRp172
(dp173
g66
(dp174
g74
I4
ssg75
g168
sg68
(lp175
S'meetme'
p176
asbasbasbasbasbasbasbag61
(g77
g63
NtRp177
(dp178
g66
(dp179
sg75
g71
sg68
(lp180
g61
(g82
g63
NtRp181
(dp182
g66
(dp183
g86
g87
ssg75
g177
sg68
(lp184
S'body'
p185
asbag61
(g82
g63
NtRp186
(dp187
g66
(dp188
g93
g94
ssg75
g177
sg68
(lp189
S':'
asbag61
(g82
g63
NtRp190
(dp191
g66
(dp192
sg75
g177
sg68
(lp193
g61
(g62
g63
NtRp194
(dp195
g66
(dp196
g74
I5
ssg75
g190
sg68
(lp197
S"<open file '<fdopen>', mode 'w+b' at 0x7f2498262b70>"
p198
asbasbasbag61
(g77
g63
NtRp199
(dp200
g66
(dp201
sg75
g71
sg68
(lp202
g61
(g82
g63
NtRp203
(dp204
g66
(dp205
g86
g87
ssg75
g199
sg68
(lp206
S'cid'
p207
asbag61
(g82
g63
NtRp208
(dp209
g66
(dp210
g93
g94
ssg75
g199
sg68
(lp211
S':'
asbag61
(g82
g63
NtRp212
(dp213
g66
(dp214
sg75
g199
sg68
(lp215
g61
(g62
g63
NtRp216
(dp217
g66
(dp218
g74
I5
ssg75
g212
sg68
(lp219
S'None'
p220
asbasbasbag61
(g77
g63
NtRp221
(dp222
g66
(dp223
sg75
g71
sg68
(lp224
g61
(g82
g63
NtRp225
(dp226
g66
(dp227
g86
g87
ssg75
g221
sg68
(lp228
S'client'
p229
asbag61
(g82
g63
NtRp230
(dp231
g66
(dp232
g93
g94
ssg75
g221
sg68
(lp233
S':'
asbag61
(g82
g63
NtRp234
(dp235
g66
(dp236
sg75
g221
sg68
(lp237
g61
(g62
g63
NtRp238
(dp239
g66
(dp240
g74
I5
ssg75
g234
sg68
(lp241
S'127.0.0.1'
p242
asbasbasbag61
(g77
g63
NtRp243
(dp244
g66
(dp245
sg75
g71
sg68
(lp246
g61
(g82
g63
NtRp247
(dp248
g66
(dp249
g86
g87
ssg75
g243
sg68
(lp250
S'controller'
p251
asbag61
(g82
g63
NtRp252
(dp253
g66
(dp254
g93
g94
ssg75
g243
sg68
(lp255
S':'
asbag61
(g82
g63
NtRp256
(dp257
g66
(dp258
sg75
g243
sg68
(lp259
g61
(g62
g63
NtRp260
(dp261
g66
(dp262
g74
I5
ssg75
g256
sg68
(lp263
S'initial'
p264
asbasbasbag61
(g77
g63
NtRp265
(dp266
g66
(dp267
sg75
g71
sg68
(lp268
g61
(g82
g63
NtRp269
(dp270
g66
(dp271
g86
g87
ssg75
g265
sg68
(lp272
S'cookies'
p273
asbag61
(g82
g63
NtRp274
(dp275
g66
(dp276
g93
g94
ssg75
g265
sg68
(lp277
S':'
asbag61
(g82
g63
NtRp278
(dp279
g66
(dp280
sg75
g265
sg68
(lp281
g61
(g62
g63
NtRp282
(dp283
g66
(dp284
g74
I5
ssg75
g278
sg68
(lp285
g61
(g70
g63
NtRp286
(dp287
g66
(dp288
g74
I4
ssg75
Nsg68
(lp289
g61
(g77
g63
NtRp290
(dp291
g66
(dp292
sg75
g286
sg68
(lp293
g61
(g82
g63
NtRp294
(dp295
g66
(dp296
g86
g87
ssg75
g290
sg68
(lp297
S'session_id_admin'
p298
asbag61
(g82
g63
NtRp299
(dp300
g66
(dp301
g93
g94
ssg75
g290
sg68
(lp302
S':'
asbag61
(g82
g63
NtRp303
(dp304
g66
(dp305
sg75
g290
sg68
(lp306
g61
(g62
g63
NtRp307
(dp308
g66
(dp309
g74
I4
ssg75
g303
sg68
(lp310
S'127.0.0.1-9ca8fc56-3213-4881-b103-95238a337326'
p311
ag61
(g70
g63
NtRp312
(dp313
g66
(dp314
g74
I3
ssg75
Nsg68
(lp315
g61
(g77
g63
NtRp316
(dp317
g66
(dp318
sg75
g312
sg68
(lp319
g61
(g82
g63
NtRp320
(dp321
g66
(dp322
g86
g87
ssg75
g316
sg68
(lp323
S'comment'
p324
asbag61
(g82
g63
NtRp325
(dp326
g66
(dp327
g93
g94
ssg75
g316
sg68
(lp328
S':'
asbag61
(g82
g63
NtRp329
(dp330
g66
(dp331
sg75
g316
sg68
(lp332
g61
(g62
g63
NtRp333
(dp334
g66
(dp335
g74
I3
ssg75
g329
sg68
(lp336
S''
asbasbasbag61
(g77
g63
NtRp337
(dp338
g66
(dp339
sg75
g312
sg68
(lp340
g61
(g82
g63
NtRp341
(dp342
g66
(dp343
g86
g87
ssg75
g337
sg68
(lp344
S'domain'
p345
asbag61
(g82
g63
NtRp346
(dp347
g66
(dp348
g93
g94
ssg75
g337
sg68
(lp349
S':'
asbag61
(g82
g63
NtRp350
(dp351
g66
(dp352
sg75
g337
sg68
(lp353
g61
(g62
g63
NtRp354
(dp355
g66
(dp356
g74
I3
ssg75
g350
sg68
(lp357
S''
asbasbasbag61
(g77
g63
NtRp358
(dp359
g66
(dp360
sg75
g312
sg68
(lp361
g61
(g82
g63
NtRp362
(dp363
g66
(dp364
g86
g87
ssg75
g358
sg68
(lp365
S'expires'
p366
asbag61
(g82
g63
NtRp367
(dp368
g66
(dp369
g93
g94
ssg75
g358
sg68
(lp370
S':'
asbag61
(g82
g63
NtRp371
(dp372
g66
(dp373
sg75
g358
sg68
(lp374
g61
(g62
g63
NtRp375
(dp376
g66
(dp377
g74
I3
ssg75
g371
sg68
(lp378
S''
asbasbasbag61
(g77
g63
NtRp379
(dp380
g66
(dp381
sg75
g312
sg68
(lp382
g61
(g82
g63
NtRp383
(dp384
g66
(dp385
g86
g87
ssg75
g379
sg68
(lp386
S'httponly'
p387
asbag61
(g82
g63
NtRp388
(dp389
g66
(dp390
g93
g94
ssg75
g379
sg68
(lp391
S':'
asbag61
(g82
g63
NtRp392
(dp393
g66
(dp394
sg75
g379
sg68
(lp395
g61
(g62
g63
NtRp396
(dp397
g66
(dp398
g74
I3
ssg75
g392
sg68
(lp399
S''
asbasbasbag61
(g77
g63
NtRp400
(dp401
g66
(dp402
sg75
g312
sg68
(lp403
g61
(g82
g63
NtRp404
(dp405
g66
(dp406
g86
g87
ssg75
g400
sg68
(lp407
S'max-age'
p408
asbag61
(g82
g63
NtRp409
(dp410
g66
(dp411
g93
g94
ssg75
g400
sg68
(lp412
S':'
asbag61
(g82
g63
NtRp413
(dp414
g66
(dp415
sg75
g400
sg68
(lp416
g61
(g62
g63
NtRp417
(dp418
g66
(dp419
g74
I3
ssg75
g413
sg68
(lp420
S''
asbasbasbag61
(g77
g63
NtRp421
(dp422
g66
(dp423
sg75
g312
sg68
(lp424
g61
(g82
g63
NtRp425
(dp426
g66
(dp427
g86
g87
ssg75
g421
sg68
(lp428
S'path'
p429
asbag61
(g82
g63
NtRp430
(dp431
g66
(dp432
g93
g94
ssg75
g421
sg68
(lp433
S':'
asbag61
(g82
g63
NtRp434
(dp435
g66
(dp436
sg75
g421
sg68
(lp437
g61
(g62
g63
NtRp438
(dp439
g66
(dp440
g74
I3
ssg75
g434
sg68
(lp441
S''
asbasbasbag61
(g77
g63
NtRp442
(dp443
g66
(dp444
sg75
g312
sg68
(lp445
g61
(g82
g63
NtRp446
(dp447
g66
(dp448
g86
g87
ssg75
g442
sg68
(lp449
S'secure'
p450
asbag61
(g82
g63
NtRp451
(dp452
g66
(dp453
g93
g94
ssg75
g442
sg68
(lp454
S':'
asbag61
(g82
g63
NtRp455
(dp456
g66
(dp457
sg75
g442
sg68
(lp458
g61
(g62
g63
NtRp459
(dp460
g66
(dp461
g74
I3
ssg75
g455
sg68
(lp462
S''
asbasbasbag61
(g77
g63
NtRp463
(dp464
g66
(dp465
sg75
g312
sg68
(lp466
g61
(g82
g63
NtRp467
(dp468
g66
(dp469
g86
g87
ssg75
g463
sg68
(lp470
S'version'
p471
asbag61
(g82
g63
NtRp472
(dp473
g66
(dp474
g93
g94
ssg75
g463
sg68
(lp475
S':'
asbag61
(g82
g63
NtRp476
(dp477
g66
(dp478
sg75
g463
sg68
(lp479
g61
(g62
g63
NtRp480
(dp481
g66
(dp482
g74
I3
ssg75
g476
sg68
(lp483
S''
asbasbasbasbasbasbasbag61
(g77
g63
NtRp484
(dp485
g66
(dp486
sg75
g286
sg68
(lp487
g61
(g82
g63
NtRp488
(dp489
g66
(dp490
g86
g87
ssg75
g484
sg68
(lp491
S'session_id_projeto'
p492
asbag61
(g82
g63
NtRp493
(dp494
g66
(dp495
g93
g94
ssg75
g484
sg68
(lp496
S':'
asbag61
(g82
g63
NtRp497
(dp498
g66
(dp499
sg75
g484
sg68
(lp500
g61
(g62
g63
NtRp501
(dp502
g66
(dp503
g74
I4
ssg75
g497
sg68
(lp504
S'127.0.0.1-001edd4c-cc9d-40b6-92aa-d3bbbc6019b5'
p505
ag61
(g70
g63
NtRp506
(dp507
g66
(dp508
g74
I3
ssg75
Nsg68
(lp509
g61
(g77
g63
NtRp510
(dp511
g66
(dp512
sg75
g506
sg68
(lp513
g61
(g82
g63
NtRp514
(dp515
g66
(dp516
g86
g87
ssg75
g510
sg68
(lp517
g324
asbag61
(g82
g63
NtRp518
(dp519
g66
(dp520
g93
g94
ssg75
g510
sg68
(lp521
S':'
asbag61
(g82
g63
NtRp522
(dp523
g66
(dp524
sg75
g510
sg68
(lp525
g61
(g62
g63
NtRp526
(dp527
g66
(dp528
g74
I3
ssg75
g522
sg68
(lp529
S''
asbasbasbag61
(g77
g63
NtRp530
(dp531
g66
(dp532
sg75
g506
sg68
(lp533
g61
(g82
g63
NtRp534
(dp535
g66
(dp536
g86
g87
ssg75
g530
sg68
(lp537
g345
asbag61
(g82
g63
NtRp538
(dp539
g66
(dp540
g93
g94
ssg75
g530
sg68
(lp541
S':'
asbag61
(g82
g63
NtRp542
(dp543
g66
(dp544
sg75
g530
sg68
(lp545
g61
(g62
g63
NtRp546
(dp547
g66
(dp548
g74
I3
ssg75
g542
sg68
(lp549
S''
asbasbasbag61
(g77
g63
NtRp550
(dp551
g66
(dp552
sg75
g506
sg68
(lp553
g61
(g82
g63
NtRp554
(dp555
g66
(dp556
g86
g87
ssg75
g550
sg68
(lp557
g366
asbag61
(g82
g63
NtRp558
(dp559
g66
(dp560
g93
g94
ssg75
g550
sg68
(lp561
S':'
asbag61
(g82
g63
NtRp562
(dp563
g66
(dp564
sg75
g550
sg68
(lp565
g61
(g62
g63
NtRp566
(dp567
g66
(dp568
g74
I3
ssg75
g562
sg68
(lp569
S''
asbasbasbag61
(g77
g63
NtRp570
(dp571
g66
(dp572
sg75
g506
sg68
(lp573
g61
(g82
g63
NtRp574
(dp575
g66
(dp576
g86
g87
ssg75
g570
sg68
(lp577
g387
asbag61
(g82
g63
NtRp578
(dp579
g66
(dp580
g93
g94
ssg75
g570
sg68
(lp581
S':'
asbag61
(g82
g63
NtRp582
(dp583
g66
(dp584
sg75
g570
sg68
(lp585
g61
(g62
g63
NtRp586
(dp587
g66
(dp588
g74
I3
ssg75
g582
sg68
(lp589
S''
asbasbasbag61
(g77
g63
NtRp590
(dp591
g66
(dp592
sg75
g506
sg68
(lp593
g61
(g82
g63
NtRp594
(dp595
g66
(dp596
g86
g87
ssg75
g590
sg68
(lp597
g408
asbag61
(g82
g63
NtRp598
(dp599
g66
(dp600
g93
g94
ssg75
g590
sg68
(lp601
S':'
asbag61
(g82
g63
NtRp602
(dp603
g66
(dp604
sg75
g590
sg68
(lp605
g61
(g62
g63
NtRp606
(dp607
g66
(dp608
g74
I3
ssg75
g602
sg68
(lp609
S''
asbasbasbag61
(g77
g63
NtRp610
(dp611
g66
(dp612
sg75
g506
sg68
(lp613
g61
(g82
g63
NtRp614
(dp615
g66
(dp616
g86
g87
ssg75
g610
sg68
(lp617
g429
asbag61
(g82
g63
NtRp618
(dp619
g66
(dp620
g93
g94
ssg75
g610
sg68
(lp621
S':'
asbag61
(g82
g63
NtRp622
(dp623
g66
(dp624
sg75
g610
sg68
(lp625
g61
(g62
g63
NtRp626
(dp627
g66
(dp628
g74
I3
ssg75
g622
sg68
(lp629
S''
asbasbasbag61
(g77
g63
NtRp630
(dp631
g66
(dp632
sg75
g506
sg68
(lp633
g61
(g82
g63
NtRp634
(dp635
g66
(dp636
g86
g87
ssg75
g630
sg68
(lp637
g450
asbag61
(g82
g63
NtRp638
(dp639
g66
(dp640
g93
g94
ssg75
g630
sg68
(lp641
S':'
asbag61
(g82
g63
NtRp642
(dp643
g66
(dp644
sg75
g630
sg68
(lp645
g61
(g62
g63
NtRp646
(dp647
g66
(dp648
g74
I3
ssg75
g642
sg68
(lp649
S''
asbasbasbag61
(g77
g63
NtRp650
(dp651
g66
(dp652
sg75
g506
sg68
(lp653
g61
(g82
g63
NtRp654
(dp655
g66
(dp656
g86
g87
ssg75
g650
sg68
(lp657
g471
asbag61
(g82
g63
NtRp658
(dp659
g66
(dp660
g93
g94
ssg75
g650
sg68
(lp661
S':'
asbag61
(g82
g63
NtRp662
(dp663
g66
(dp664
sg75
g650
sg68
(lp665
g61
(g62
g63
NtRp666
(dp667
g66
(dp668
g74
I3
ssg75
g662
sg68
(lp669
S''
asbasbasbasbasbasbasbasbasbasbasbag61
(g77
g63
NtRp670
(dp671
g66
(dp672
sg75
g71
sg68
(lp673
g61
(g82
g63
NtRp674
(dp675
g66
(dp676
g86
g87
ssg75
g670
sg68
(lp677
S'env'
p678
asbag61
(g82
g63
NtRp679
(dp680
g66
(dp681
g93
g94
ssg75
g670
sg68
(lp682
S':'
asbag61
(g82
g63
NtRp683
(dp684
g66
(dp685
sg75
g670
sg68
(lp686
g61
(g62
g63
NtRp687
(dp688
g66
(dp689
g74
I5
ssg75
g683
sg68
(lp690
g61
(g70
g63
NtRp691
(dp692
g66
(dp693
g74
I4
ssg75
Nsg68
(lp694
g61
(g77
g63
NtRp695
(dp696
g66
(dp697
sg75
g691
sg68
(lp698
g61
(g82
g63
NtRp699
(dp700
g66
(dp701
g86
g87
ssg75
g695
sg68
(lp702
S'app_folders'
p703
asbag61
(g82
g63
NtRp704
(dp705
g66
(dp706
g93
g94
ssg75
g695
sg68
(lp707
S':'
asbag61
(g82
g63
NtRp708
(dp709
g66
(dp710
sg75
g695
sg68
(lp711
g61
(g62
g63
NtRp712
(dp713
g66
(dp714
g74
I4
ssg75
g708
sg68
(lp715
S"set(['/var/www/conferencia/applications/projeto/'])"
p716
asbasbasbag61
(g77
g63
NtRp717
(dp718
g66
(dp719
sg75
g691
sg68
(lp720
g61
(g82
g63
NtRp721
(dp722
g66
(dp723
g86
g87
ssg75
g717
sg68
(lp724
S'applications_parent'
p725
asbag61
(g82
g63
NtRp726
(dp727
g66
(dp728
g93
g94
ssg75
g717
sg68
(lp729
S':'
asbag61
(g82
g63
NtRp730
(dp731
g66
(dp732
sg75
g717
sg68
(lp733
g61
(g62
g63
NtRp734
(dp735
g66
(dp736
g74
I4
ssg75
g730
sg68
(lp737
S'/var/www/conferencia'
p738
asbasbasbag61
(g77
g63
NtRp739
(dp740
g66
(dp741
sg75
g691
sg68
(lp742
g61
(g82
g63
NtRp743
(dp744
g66
(dp745
g86
g87
ssg75
g739
sg68
(lp746
S'cmd_args'
p747
asbag61
(g82
g63
NtRp748
(dp749
g66
(dp750
g93
g94
ssg75
g739
sg68
(lp751
S':'
asbag61
(g82
g63
NtRp752
(dp753
g66
(dp754
sg75
g739
sg68
(lp755
g61
(g62
g63
NtRp756
(dp757
g66
(dp758
g74
I4
ssg75
g752
sg68
(lp759
g61
(g70
g63
NtRp760
(dp761
g66
(dp762
g74
I3
ssg75
Nsg68
(lp763
sbasbasbasbag61
(g77
g63
NtRp764
(dp765
g66
(dp766
sg75
g691
sg68
(lp767
g61
(g82
g63
NtRp768
(dp769
g66
(dp770
g86
g87
ssg75
g764
sg68
(lp771
S'cmd_options'
p772
asbag61
(g82
g63
NtRp773
(dp774
g66
(dp775
g93
g94
ssg75
g764
sg68
(lp776
S':'
asbag61
(g82
g63
NtRp777
(dp778
g66
(dp779
sg75
g764
sg68
(lp780
g61
(g62
g63
NtRp781
(dp782
g66
(dp783
g74
I4
ssg75
g777
sg68
(lp784
S"<Values at 0x303a248: {'verbose': False, 'ip': '127.0.0.1', 'with_scheduler': False, 'ips': [], 'shutdown_timeout': 5, 'taskbar': False, 'port': 8000, 'maxthreads': None, 'softcron': False, 'server_name': 'fernando-workstation', 'bpython': False, 'nogui': False, 'pid_filename': 'httpserver.pid', 'extcron': False, 'runcron': False, 'run_system_tests': False, 'test': None, 'folder': '/var/www/conferencia', 'config': '', 'minthreads': None, 'winservice': '', 'shell': None, 'run': '', 'log_filename': 'httpserver.log', 'debuglevel': 30, 'args': [''], 'socket_timeout': 5, 'ssl_ca_certificate': None, 'scheduler': None, 'profiler_filename': None, 'ssl_private_key': '', 'scheduler_groups': None, 'password': '123456', 'request_queue_size': 5, 'ssl_certificate': '', 'cronjob': False, 'numthreads': None, 'quiet': False, 'interfaces': None, 'import_models': False, 'timeout': 10, 'plain': False, 'nobanner': False}>"
p785
asbasbasbag61
(g77
g63
NtRp786
(dp787
g66
(dp788
sg75
g691
sg68
(lp789
g61
(g82
g63
NtRp790
(dp791
g66
(dp792
g86
g87
ssg75
g786
sg68
(lp793
S'content_length'
p794
asbag61
(g82
g63
NtRp795
(dp796
g66
(dp797
g93
g94
ssg75
g786
sg68
(lp798
S':'
asbag61
(g82
g63
NtRp799
(dp800
g66
(dp801
sg75
g786
sg68
(lp802
g61
(g62
g63
NtRp803
(dp804
g66
(dp805
g74
I4
ssg75
g799
sg68
(lp806
S'808'
p807
asbasbasbag61
(g77
g63
NtRp808
(dp809
g66
(dp810
sg75
g691
sg68
(lp811
g61
(g82
g63
NtRp812
(dp813
g66
(dp814
g86
g87
ssg75
g808
sg68
(lp815
S'content_type'
p816
asbag61
(g82
g63
NtRp817
(dp818
g66
(dp819
g93
g94
ssg75
g808
sg68
(lp820
S':'
asbag61
(g82
g63
NtRp821
(dp822
g66
(dp823
sg75
g808
sg68
(lp824
g61
(g62
g63
NtRp825
(dp826
g66
(dp827
g74
I4
ssg75
g821
sg68
(lp828
S'multipart/form-data; boundary=----WebKitFormBoundary6xlcUpmjz9fMuXGK'
p829
asbasbasbag61
(g77
g63
NtRp830
(dp831
g66
(dp832
sg75
g691
sg68
(lp833
g61
(g82
g63
NtRp834
(dp835
g66
(dp836
g86
g87
ssg75
g830
sg68
(lp837
S'db_sessions'
p838
asbag61
(g82
g63
NtRp839
(dp840
g66
(dp841
g93
g94
ssg75
g830
sg68
(lp842
S':'
asbag61
(g82
g63
NtRp843
(dp844
g66
(dp845
sg75
g830
sg68
(lp846
g61
(g62
g63
NtRp847
(dp848
g66
(dp849
g74
I4
ssg75
g843
sg68
(lp850
S'set([])'
p851
asbasbasbag61
(g77
g63
NtRp852
(dp853
g66
(dp854
sg75
g691
sg68
(lp855
g61
(g82
g63
NtRp856
(dp857
g66
(dp858
g86
g87
ssg75
g852
sg68
(lp859
S'debugging'
p860
asbag61
(g82
g63
NtRp861
(dp862
g66
(dp863
g93
g94
ssg75
g852
sg68
(lp864
S':'
asbag61
(g82
g63
NtRp865
(dp866
g66
(dp867
sg75
g852
sg68
(lp868
g61
(g62
g63
NtRp869
(dp870
g66
(dp871
g74
I4
ssg75
g865
sg68
(lp872
g104
asbasbasbag61
(g77
g63
NtRp873
(dp874
g66
(dp875
sg75
g691
sg68
(lp876
g61
(g82
g63
NtRp877
(dp878
g66
(dp879
g86
g87
ssg75
g873
sg68
(lp880
S'gluon_parent'
p881
asbag61
(g82
g63
NtRp882
(dp883
g66
(dp884
g93
g94
ssg75
g873
sg68
(lp885
S':'
asbag61
(g82
g63
NtRp886
(dp887
g66
(dp888
sg75
g873
sg68
(lp889
g61
(g62
g63
NtRp890
(dp891
g66
(dp892
g74
I4
ssg75
g886
sg68
(lp893
S'/var/www/conferencia'
p894
asbasbasbag61
(g77
g63
NtRp895
(dp896
g66
(dp897
sg75
g691
sg68
(lp898
g61
(g82
g63
NtRp899
(dp900
g66
(dp901
g86
g87
ssg75
g895
sg68
(lp902
S'http_accept'
p903
asbag61
(g82
g63
NtRp904
(dp905
g66
(dp906
g93
g94
ssg75
g895
sg68
(lp907
S':'
asbag61
(g82
g63
NtRp908
(dp909
g66
(dp910
sg75
g895
sg68
(lp911
g61
(g62
g63
NtRp912
(dp913
g66
(dp914
g74
I4
ssg75
g908
sg68
(lp915
S'text/html,application/xhtml+xml,application/xml;q=0.9,*/*;q=0.8'
p916
asbasbasbag61
(g77
g63
NtRp917
(dp918
g66
(dp919
sg75
g691
sg68
(lp920
g61
(g82
g63
NtRp921
(dp922
g66
(dp923
g86
g87
ssg75
g917
sg68
(lp924
S'http_accept_charset'
p925
asbag61
(g82
g63
NtRp926
(dp927
g66
(dp928
g93
g94
ssg75
g917
sg68
(lp929
S':'
asbag61
(g82
g63
NtRp930
(dp931
g66
(dp932
sg75
g917
sg68
(lp933
g61
(g62
g63
NtRp934
(dp935
g66
(dp936
g74
I4
ssg75
g930
sg68
(lp937
S'ISO-8859-1,utf-8;q=0.7,*;q=0.3'
p938
asbasbasbag61
(g77
g63
NtRp939
(dp940
g66
(dp941
sg75
g691
sg68
(lp942
g61
(g82
g63
NtRp943
(dp944
g66
(dp945
g86
g87
ssg75
g939
sg68
(lp946
S'http_accept_encoding'
p947
asbag61
(g82
g63
NtRp948
(dp949
g66
(dp950
g93
g94
ssg75
g939
sg68
(lp951
S':'
asbag61
(g82
g63
NtRp952
(dp953
g66
(dp954
sg75
g939
sg68
(lp955
g61
(g62
g63
NtRp956
(dp957
g66
(dp958
g74
I4
ssg75
g952
sg68
(lp959
S'gzip,deflate,sdch'
p960
asbasbasbag61
(g77
g63
NtRp961
(dp962
g66
(dp963
sg75
g691
sg68
(lp964
g61
(g82
g63
NtRp965
(dp966
g66
(dp967
g86
g87
ssg75
g961
sg68
(lp968
S'http_accept_language'
p969
asbag61
(g82
g63
NtRp970
(dp971
g66
(dp972
g93
g94
ssg75
g961
sg68
(lp973
S':'
asbag61
(g82
g63
NtRp974
(dp975
g66
(dp976
sg75
g961
sg68
(lp977
g61
(g62
g63
NtRp978
(dp979
g66
(dp980
g74
I4
ssg75
g974
sg68
(lp981
S'pt-BR,pt;q=0.8,en-US;q=0.6,en;q=0.4'
p982
asbasbasbag61
(g77
g63
NtRp983
(dp984
g66
(dp985
sg75
g691
sg68
(lp986
g61
(g82
g63
NtRp987
(dp988
g66
(dp989
g86
g87
ssg75
g983
sg68
(lp990
S'http_cache_control'
p991
asbag61
(g82
g63
NtRp992
(dp993
g66
(dp994
g93
g94
ssg75
g983
sg68
(lp995
S':'
asbag61
(g82
g63
NtRp996
(dp997
g66
(dp998
sg75
g983
sg68
(lp999
g61
(g62
g63
NtRp1000
(dp1001
g66
(dp1002
g74
I4
ssg75
g996
sg68
(lp1003
S'max-age=0'
p1004
asbasbasbag61
(g77
g63
NtRp1005
(dp1006
g66
(dp1007
sg75
g691
sg68
(lp1008
g61
(g82
g63
NtRp1009
(dp1010
g66
(dp1011
g86
g87
ssg75
g1005
sg68
(lp1012
S'http_connection'
p1013
asbag61
(g82
g63
NtRp1014
(dp1015
g66
(dp1016
g93
g94
ssg75
g1005
sg68
(lp1017
S':'
asbag61
(g82
g63
NtRp1018
(dp1019
g66
(dp1020
sg75
g1005
sg68
(lp1021
g61
(g62
g63
NtRp1022
(dp1023
g66
(dp1024
g74
I4
ssg75
g1018
sg68
(lp1025
S'keep-alive'
p1026
asbasbasbag61
(g77
g63
NtRp1027
(dp1028
g66
(dp1029
sg75
g691
sg68
(lp1030
g61
(g82
g63
NtRp1031
(dp1032
g66
(dp1033
g86
g87
ssg75
g1027
sg68
(lp1034
S'http_content_length'
p1035
asbag61
(g82
g63
NtRp1036
(dp1037
g66
(dp1038
g93
g94
ssg75
g1027
sg68
(lp1039
S':'
asbag61
(g82
g63
NtRp1040
(dp1041
g66
(dp1042
sg75
g1027
sg68
(lp1043
g61
(g62
g63
NtRp1044
(dp1045
g66
(dp1046
g74
I4
ssg75
g1040
sg68
(lp1047
g807
asbasbasbag61
(g77
g63
NtRp1048
(dp1049
g66
(dp1050
sg75
g691
sg68
(lp1051
g61
(g82
g63
NtRp1052
(dp1053
g66
(dp1054
g86
g87
ssg75
g1048
sg68
(lp1055
S'http_content_type'
p1056
asbag61
(g82
g63
NtRp1057
(dp1058
g66
(dp1059
g93
g94
ssg75
g1048
sg68
(lp1060
S':'
asbag61
(g82
g63
NtRp1061
(dp1062
g66
(dp1063
sg75
g1048
sg68
(lp1064
g61
(g62
g63
NtRp1065
(dp1066
g66
(dp1067
g74
I4
ssg75
g1061
sg68
(lp1068
g829
asbasbasbag61
(g77
g63
NtRp1069
(dp1070
g66
(dp1071
sg75
g691
sg68
(lp1072
g61
(g82
g63
NtRp1073
(dp1074
g66
(dp1075
g86
g87
ssg75
g1069
sg68
(lp1076
S'http_cookie'
p1077
asbag61
(g82
g63
NtRp1078
(dp1079
g66
(dp1080
g93
g94
ssg75
g1069
sg68
(lp1081
S':'
asbag61
(g82
g63
NtRp1082
(dp1083
g66
(dp1084
sg75
g1069
sg68
(lp1085
g61
(g62
g63
NtRp1086
(dp1087
g66
(dp1088
g74
I4
ssg75
g1082
sg68
(lp1089
S'session_id_admin=127.0.0.1-9ca8fc56-3213-4881-b103-95238a337326; session_id_projeto=127.0.0.1-001edd4c-cc9d-40b6-92aa-d3bbbc6019b5'
p1090
asbasbasbag61
(g77
g63
NtRp1091
(dp1092
g66
(dp1093
sg75
g691
sg68
(lp1094
g61
(g82
g63
NtRp1095
(dp1096
g66
(dp1097
g86
g87
ssg75
g1091
sg68
(lp1098
S'http_host'
p1099
asbag61
(g82
g63
NtRp1100
(dp1101
g66
(dp1102
g93
g94
ssg75
g1091
sg68
(lp1103
S':'
asbag61
(g82
g63
NtRp1104
(dp1105
g66
(dp1106
sg75
g1091
sg68
(lp1107
g61
(g62
g63
NtRp1108
(dp1109
g66
(dp1110
g74
I4
ssg75
g1104
sg68
(lp1111
S'127.0.0.1:8000'
p1112
asbasbasbag61
(g77
g63
NtRp1113
(dp1114
g66
(dp1115
sg75
g691
sg68
(lp1116
g61
(g82
g63
NtRp1117
(dp1118
g66
(dp1119
g86
g87
ssg75
g1113
sg68
(lp1120
S'http_origin'
p1121
asbag61
(g82
g63
NtRp1122
(dp1123
g66
(dp1124
g93
g94
ssg75
g1113
sg68
(lp1125
S':'
asbag61
(g82
g63
NtRp1126
(dp1127
g66
(dp1128
sg75
g1113
sg68
(lp1129
g61
(g62
g63
NtRp1130
(dp1131
g66
(dp1132
g74
I4
ssg75
g1126
sg68
(lp1133
S'http://127.0.0.1:8000'
p1134
asbasbasbag61
(g77
g63
NtRp1135
(dp1136
g66
(dp1137
sg75
g691
sg68
(lp1138
g61
(g82
g63
NtRp1139
(dp1140
g66
(dp1141
g86
g87
ssg75
g1135
sg68
(lp1142
S'http_referer'
p1143
asbag61
(g82
g63
NtRp1144
(dp1145
g66
(dp1146
g93
g94
ssg75
g1135
sg68
(lp1147
S':'
asbag61
(g82
g63
NtRp1148
(dp1149
g66
(dp1150
sg75
g1135
sg68
(lp1151
g61
(g62
g63
NtRp1152
(dp1153
g66
(dp1154
g74
I4
ssg75
g1148
sg68
(lp1155
S'http://127.0.0.1:8000/show_cliente/new/meetme'
p1156
asbasbasbag61
(g77
g63
NtRp1157
(dp1158
g66
(dp1159
sg75
g691
sg68
(lp1160
g61
(g82
g63
NtRp1161
(dp1162
g66
(dp1163
g86
g87
ssg75
g1157
sg68
(lp1164
S'http_user_agent'
p1165
asbag61
(g82
g63
NtRp1166
(dp1167
g66
(dp1168
g93
g94
ssg75
g1157
sg68
(lp1169
S':'
asbag61
(g82
g63
NtRp1170
(dp1171
g66
(dp1172
sg75
g1157
sg68
(lp1173
g61
(g62
g63
NtRp1174
(dp1175
g66
(dp1176
g74
I4
ssg75
g1170
sg68
(lp1177
S'Mozilla/5.0 (X11; Linux x86_64) AppleWebKit/537.4 (KHTML, like Gecko) Ubuntu/12.10 Chromium/22.0.1229.94 Chrome/22.0.1229.94 Safari/537.4'
p1178
asbasbasbag61
(g77
g63
NtRp1179
(dp1180
g66
(dp1181
sg75
g691
sg68
(lp1182
g61
(g82
g63
NtRp1183
(dp1184
g66
(dp1185
g86
g87
ssg75
g1179
sg68
(lp1186
S'is_jython'
p1187
asbag61
(g82
g63
NtRp1188
(dp1189
g66
(dp1190
g93
g94
ssg75
g1179
sg68
(lp1191
S':'
asbag61
(g82
g63
NtRp1192
(dp1193
g66
(dp1194
sg75
g1179
sg68
(lp1195
g61
(g62
g63
NtRp1196
(dp1197
g66
(dp1198
g74
I4
ssg75
g1192
sg68
(lp1199
g104
asbasbasbag61
(g77
g63
NtRp1200
(dp1201
g66
(dp1202
sg75
g691
sg68
(lp1203
g61
(g82
g63
NtRp1204
(dp1205
g66
(dp1206
g86
g87
ssg75
g1200
sg68
(lp1207
S'is_pypy'
p1208
asbag61
(g82
g63
NtRp1209
(dp1210
g66
(dp1211
g93
g94
ssg75
g1200
sg68
(lp1212
S':'
asbag61
(g82
g63
NtRp1213
(dp1214
g66
(dp1215
sg75
g1200
sg68
(lp1216
g61
(g62
g63
NtRp1217
(dp1218
g66
(dp1219
g74
I4
ssg75
g1213
sg68
(lp1220
g104
asbasbasbag61
(g77
g63
NtRp1221
(dp1222
g66
(dp1223
sg75
g691
sg68
(lp1224
g61
(g82
g63
NtRp1225
(dp1226
g66
(dp1227
g86
g87
ssg75
g1221
sg68
(lp1228
S'local_hosts'
p1229
asbag61
(g82
g63
NtRp1230
(dp1231
g66
(dp1232
g93
g94
ssg75
g1221
sg68
(lp1233
S':'
asbag61
(g82
g63
NtRp1234
(dp1235
g66
(dp1236
sg75
g1221
sg68
(lp1237
g61
(g62
g63
NtRp1238
(dp1239
g66
(dp1240
g74
I4
ssg75
g1234
sg68
(lp1241
g61
(g70
g63
NtRp1242
(dp1243
g66
(dp1244
g74
I3
ssg75
Nsg68
(lp1245
g61
(g77
g63
NtRp1246
(dp1247
g66
(dp1248
sg75
g1242
sg68
(lp1249
g61
(g82
g63
NtRp1250
(dp1251
g66
(dp1252
sg75
g1246
sg68
(lp1253
g61
(g62
g63
NtRp1254
(dp1255
g66
(dp1256
g74
I3
ssg75
g1250
sg68
(lp1257
S'::1'
p1258
asbasbasbag61
(g77
g63
NtRp1259
(dp1260
g66
(dp1261
sg75
g1242
sg68
(lp1262
g61
(g82
g63
NtRp1263
(dp1264
g66
(dp1265
sg75
g1259
sg68
(lp1266
g61
(g62
g63
NtRp1267
(dp1268
g66
(dp1269
g74
I3
ssg75
g1263
sg68
(lp1270
S'::ffff:127.0.0.1'
p1271
asbasbasbag61
(g77
g63
NtRp1272
(dp1273
g66
(dp1274
sg75
g1242
sg68
(lp1275
g61
(g82
g63
NtRp1276
(dp1277
g66
(dp1278
sg75
g1272
sg68
(lp1279
g61
(g62
g63
NtRp1280
(dp1281
g66
(dp1282
g74
I3
ssg75
g1276
sg68
(lp1283
S'127.0.0.1'
p1284
asbasbasbag61
(g77
g63
NtRp1285
(dp1286
g66
(dp1287
sg75
g1242
sg68
(lp1288
g61
(g82
g63
NtRp1289
(dp1290
g66
(dp1291
sg75
g1285
sg68
(lp1292
g61
(g62
g63
NtRp1293
(dp1294
g66
(dp1295
g74
I3
ssg75
g1289
sg68
(lp1296
S'fernando-workstation'
p1297
asbasbasbasbasbasbasbag61
(g77
g63
NtRp1298
(dp1299
g66
(dp1300
sg75
g691
sg68
(lp1301
g61
(g82
g63
NtRp1302
(dp1303
g66
(dp1304
g86
g87
ssg75
g1298
sg68
(lp1305
S'path_info'
p1306
asbag61
(g82
g63
NtRp1307
(dp1308
g66
(dp1309
g93
g94
ssg75
g1298
sg68
(lp1310
S':'
asbag61
(g82
g63
NtRp1311
(dp1312
g66
(dp1313
sg75
g1298
sg68
(lp1314
g61
(g62
g63
NtRp1315
(dp1316
g66
(dp1317
g74
I4
ssg75
g1311
sg68
(lp1318
S'/show_cliente/new/meetme'
p1319
asbasbasbag61
(g77
g63
NtRp1320
(dp1321
g66
(dp1322
sg75
g691
sg68
(lp1323
g61
(g82
g63
NtRp1324
(dp1325
g66
(dp1326
g86
g87
ssg75
g1320
sg68
(lp1327
S'query_string'
p1328
asbag61
(g82
g63
NtRp1329
(dp1330
g66
(dp1331
g93
g94
ssg75
g1320
sg68
(lp1332
S':'
asbag61
(g82
g63
NtRp1333
(dp1334
g66
(dp1335
sg75
g1320
sg68
(lp1336
g61
(g62
g63
NtRp1337
(dp1338
g66
(dp1339
g74
I4
ssg75
g1333
sg68
(lp1340
S''
asbasbasbag61
(g77
g63
NtRp1341
(dp1342
g66
(dp1343
sg75
g691
sg68
(lp1344
g61
(g82
g63
NtRp1345
(dp1346
g66
(dp1347
g86
g87
ssg75
g1341
sg68
(lp1348
S'remote_addr'
p1349
asbag61
(g82
g63
NtRp1350
(dp1351
g66
(dp1352
g93
g94
ssg75
g1341
sg68
(lp1353
S':'
asbag61
(g82
g63
NtRp1354
(dp1355
g66
(dp1356
sg75
g1341
sg68
(lp1357
g61
(g62
g63
NtRp1358
(dp1359
g66
(dp1360
g74
I4
ssg75
g1354
sg68
(lp1361
g242
asbasbasbag61
(g77
g63
NtRp1362
(dp1363
g66
(dp1364
sg75
g691
sg68
(lp1365
g61
(g82
g63
NtRp1366
(dp1367
g66
(dp1368
g86
g87
ssg75
g1362
sg68
(lp1369
S'remote_port'
p1370
asbag61
(g82
g63
NtRp1371
(dp1372
g66
(dp1373
g93
g94
ssg75
g1362
sg68
(lp1374
S':'
asbag61
(g82
g63
NtRp1375
(dp1376
g66
(dp1377
sg75
g1362
sg68
(lp1378
g61
(g62
g63
NtRp1379
(dp1380
g66
(dp1381
g74
I4
ssg75
g1375
sg68
(lp1382
S'38829'
p1383
asbasbasbag61
(g77
g63
NtRp1384
(dp1385
g66
(dp1386
sg75
g691
sg68
(lp1387
g61
(g82
g63
NtRp1388
(dp1389
g66
(dp1390
g86
g87
ssg75
g1384
sg68
(lp1391
S'request_method'
p1392
asbag61
(g82
g63
NtRp1393
(dp1394
g66
(dp1395
g93
g94
ssg75
g1384
sg68
(lp1396
S':'
asbag61
(g82
g63
NtRp1397
(dp1398
g66
(dp1399
sg75
g1384
sg68
(lp1400
g61
(g62
g63
NtRp1401
(dp1402
g66
(dp1403
g74
I4
ssg75
g1397
sg68
(lp1404
S'POST'
p1405
asbasbasbag61
(g77
g63
NtRp1406
(dp1407
g66
(dp1408
sg75
g691
sg68
(lp1409
g61
(g82
g63
NtRp1410
(dp1411
g66
(dp1412
g86
g87
ssg75
g1406
sg68
(lp1413
S'request_uri'
p1414
asbag61
(g82
g63
NtRp1415
(dp1416
g66
(dp1417
g93
g94
ssg75
g1406
sg68
(lp1418
S':'
asbag61
(g82
g63
NtRp1419
(dp1420
g66
(dp1421
sg75
g1406
sg68
(lp1422
g61
(g62
g63
NtRp1423
(dp1424
g66
(dp1425
g74
I4
ssg75
g1419
sg68
(lp1426
S'/projeto/initial/show_cliente/new/meetme'
p1427
asbasbasbag61
(g77
g63
NtRp1428
(dp1429
g66
(dp1430
sg75
g691
sg68
(lp1431
g61
(g82
g63
NtRp1432
(dp1433
g66
(dp1434
g86
g87
ssg75
g1428
sg68
(lp1435
S'script_name'
p1436
asbag61
(g82
g63
NtRp1437
(dp1438
g66
(dp1439
g93
g94
ssg75
g1428
sg68
(lp1440
S':'
asbag61
(g82
g63
NtRp1441
(dp1442
g66
(dp1443
sg75
g1428
sg68
(lp1444
g61
(g62
g63
NtRp1445
(dp1446
g66
(dp1447
g74
I4
ssg75
g1441
sg68
(lp1448
S''
asbasbasbag61
(g77
g63
NtRp1449
(dp1450
g66
(dp1451
sg75
g691
sg68
(lp1452
g61
(g82
g63
NtRp1453
(dp1454
g66
(dp1455
g86
g87
ssg75
g1449
sg68
(lp1456
S'server_name'
p1457
asbag61
(g82
g63
NtRp1458
(dp1459
g66
(dp1460
g93
g94
ssg75
g1449
sg68
(lp1461
S':'
asbag61
(g82
g63
NtRp1462
(dp1463
g66
(dp1464
sg75
g1449
sg68
(lp1465
g61
(g62
g63
NtRp1466
(dp1467
g66
(dp1468
g74
I4
ssg75
g1462
sg68
(lp1469
S'fernando-workstation'
p1470
asbasbasbag61
(g77
g63
NtRp1471
(dp1472
g66
(dp1473
sg75
g691
sg68
(lp1474
g61
(g82
g63
NtRp1475
(dp1476
g66
(dp1477
g86
g87
ssg75
g1471
sg68
(lp1478
S'server_port'
p1479
asbag61
(g82
g63
NtRp1480
(dp1481
g66
(dp1482
g93
g94
ssg75
g1471
sg68
(lp1483
S':'
asbag61
(g82
g63
NtRp1484
(dp1485
g66
(dp1486
sg75
g1471
sg68
(lp1487
g61
(g62
g63
NtRp1488
(dp1489
g66
(dp1490
g74
I4
ssg75
g1484
sg68
(lp1491
S'8000'
p1492
asbasbasbag61
(g77
g63
NtRp1493
(dp1494
g66
(dp1495
sg75
g691
sg68
(lp1496
g61
(g82
g63
NtRp1497
(dp1498
g66
(dp1499
g86
g87
ssg75
g1493
sg68
(lp1500
S'server_protocol'
p1501
asbag61
(g82
g63
NtRp1502
(dp1503
g66
(dp1504
g93
g94
ssg75
g1493
sg68
(lp1505
S':'
asbag61
(g82
g63
NtRp1506
(dp1507
g66
(dp1508
sg75
g1493
sg68
(lp1509
g61
(g62
g63
NtRp1510
(dp1511
g66
(dp1512
g74
I4
ssg75
g1506
sg68
(lp1513
S'HTTP/1.1'
p1514
asbasbasbag61
(g77
g63
NtRp1515
(dp1516
g66
(dp1517
sg75
g691
sg68
(lp1518
g61
(g82
g63
NtRp1519
(dp1520
g66
(dp1521
g86
g87
ssg75
g1515
sg68
(lp1522
S'server_software'
p1523
asbag61
(g82
g63
NtRp1524
(dp1525
g66
(dp1526
g93
g94
ssg75
g1515
sg68
(lp1527
S':'
asbag61
(g82
g63
NtRp1528
(dp1529
g66
(dp1530
sg75
g1515
sg68
(lp1531
g61
(g62
g63
NtRp1532
(dp1533
g66
(dp1534
g74
I4
ssg75
g1528
sg68
(lp1535
S'Rocket 1.2.6'
p1536
asbasbasbag61
(g77
g63
NtRp1537
(dp1538
g66
(dp1539
sg75
g691
sg68
(lp1540
g61
(g82
g63
NtRp1541
(dp1542
g66
(dp1543
g86
g87
ssg75
g1537
sg68
(lp1544
S'web2py_original_uri'
p1545
asbag61
(g82
g63
NtRp1546
(dp1547
g66
(dp1548
g93
g94
ssg75
g1537
sg68
(lp1549
S':'
asbag61
(g82
g63
NtRp1550
(dp1551
g66
(dp1552
sg75
g1537
sg68
(lp1553
g61
(g62
g63
NtRp1554
(dp1555
g66
(dp1556
g74
I4
ssg75
g1550
sg68
(lp1557
g1319
asbasbasbag61
(g77
g63
NtRp1558
(dp1559
g66
(dp1560
sg75
g691
sg68
(lp1561
g61
(g82
g63
NtRp1562
(dp1563
g66
(dp1564
g86
g87
ssg75
g1558
sg68
(lp1565
S'web2py_path'
p1566
asbag61
(g82
g63
NtRp1567
(dp1568
g66
(dp1569
g93
g94
ssg75
g1558
sg68
(lp1570
S':'
asbag61
(g82
g63
NtRp1571
(dp1572
g66
(dp1573
sg75
g1558
sg68
(lp1574
g61
(g62
g63
NtRp1575
(dp1576
g66
(dp1577
g74
I4
ssg75
g1571
sg68
(lp1578
g738
asbasbasbag61
(g77
g63
NtRp1579
(dp1580
g66
(dp1581
sg75
g691
sg68
(lp1582
g61
(g82
g63
NtRp1583
(dp1584
g66
(dp1585
g86
g87
ssg75
g1579
sg68
(lp1586
S'web2py_version'
p1587
asbag61
(g82
g63
NtRp1588
(dp1589
g66
(dp1590
g93
g94
ssg75
g1579
sg68
(lp1591
S':'
asbag61
(g82
g63
NtRp1592
(dp1593
g66
(dp1594
sg75
g1579
sg68
(lp1595
g61
(g62
g63
NtRp1596
(dp1597
g66
(dp1598
g74
I4
ssg75
g1592
sg68
(lp1599
g61
(g70
g63
NtRp1600
(dp1601
g66
(dp1602
g74
I3
ssg75
Nsg68
(lp1603
g61
(g77
g63
NtRp1604
(dp1605
g66
(dp1606
sg75
g1600
sg68
(lp1607
g61
(g82
g63
NtRp1608
(dp1609
g66
(dp1610
sg75
g1604
sg68
(lp1611
g61
(g62
g63
NtRp1612
(dp1613
g66
(dp1614
g74
I3
ssg75
g1608
sg68
(lp1615
S'2'
asbasbasbag61
(g77
g63
NtRp1616
(dp1617
g66
(dp1618
sg75
g1600
sg68
(lp1619
g61
(g82
g63
NtRp1620
(dp1621
g66
(dp1622
sg75
g1616
sg68
(lp1623
g61
(g62
g63
NtRp1624
(dp1625
g66
(dp1626
g74
I3
ssg75
g1620
sg68
(lp1627
S'3'
asbasbasbag61
(g77
g63
NtRp1628
(dp1629
g66
(dp1630
sg75
g1600
sg68
(lp1631
g61
(g82
g63
NtRp1632
(dp1633
g66
(dp1634
sg75
g1628
sg68
(lp1635
g61
(g62
g63
NtRp1636
(dp1637
g66
(dp1638
g74
I3
ssg75
g1632
sg68
(lp1639
S'2'
asbasbasbag61
(g77
g63
NtRp1640
(dp1641
g66
(dp1642
sg75
g1600
sg68
(lp1643
g61
(g82
g63
NtRp1644
(dp1645
g66
(dp1646
sg75
g1640
sg68
(lp1647
g61
(g62
g63
NtRp1648
(dp1649
g66
(dp1650
g74
I3
ssg75
g1644
sg68
(lp1651
S'datetime.datetime(2012, 12, 17, 15, 3, 30)'
p1652
asbasbasbag61
(g77
g63
NtRp1653
(dp1654
g66
(dp1655
sg75
g1600
sg68
(lp1656
g61
(g82
g63
NtRp1657
(dp1658
g66
(dp1659
sg75
g1653
sg68
(lp1660
g61
(g62
g63
NtRp1661
(dp1662
g66
(dp1663
g74
I3
ssg75
g1657
sg68
(lp1664
S'stable'
p1665
asbasbasbasbasbasbasbag61
(g77
g63
NtRp1666
(dp1667
g66
(dp1668
sg75
g691
sg68
(lp1669
g61
(g82
g63
NtRp1670
(dp1671
g66
(dp1672
g86
g87
ssg75
g1666
sg68
(lp1673
S'wsgi_errors'
p1674
asbag61
(g82
g63
NtRp1675
(dp1676
g66
(dp1677
g93
g94
ssg75
g1666
sg68
(lp1678
S':'
asbag61
(g82
g63
NtRp1679
(dp1680
g66
(dp1681
sg75
g1666
sg68
(lp1682
g61
(g62
g63
NtRp1683
(dp1684
g66
(dp1685
g74
I4
ssg75
g1679
sg68
(lp1686
S"<open file '<stderr>', mode 'w' at 0x7f24a4c2e270>"
p1687
asbasbasbag61
(g77
g63
NtRp1688
(dp1689
g66
(dp1690
sg75
g691
sg68
(lp1691
g61
(g82
g63
NtRp1692
(dp1693
g66
(dp1694
g86
g87
ssg75
g1688
sg68
(lp1695
S'wsgi_file_wrapper'
p1696
asbag61
(g82
g63
NtRp1697
(dp1698
g66
(dp1699
g93
g94
ssg75
g1688
sg68
(lp1700
S':'
asbag61
(g82
g63
NtRp1701
(dp1702
g66
(dp1703
sg75
g1688
sg68
(lp1704
g61
(g62
g63
NtRp1705
(dp1706
g66
(dp1707
g74
I4
ssg75
g1701
sg68
(lp1708
S'<class wsgiref.util.FileWrapper at 0x2fb1598>'
p1709
asbasbasbag61
(g77
g63
NtRp1710
(dp1711
g66
(dp1712
sg75
g691
sg68
(lp1713
g61
(g82
g63
NtRp1714
(dp1715
g66
(dp1716
g86
g87
ssg75
g1710
sg68
(lp1717
S'wsgi_input'
p1718
asbag61
(g82
g63
NtRp1719
(dp1720
g66
(dp1721
g93
g94
ssg75
g1710
sg68
(lp1722
S':'
asbag61
(g82
g63
NtRp1723
(dp1724
g66
(dp1725
sg75
g1710
sg68
(lp1726
g61
(g62
g63
NtRp1727
(dp1728
g66
(dp1729
g74
I4
ssg75
g1723
sg68
(lp1730
S'<socket._fileobject object at 0x7f249831f250>'
p1731
asbasbasbag61
(g77
g63
NtRp1732
(dp1733
g66
(dp1734
sg75
g691
sg68
(lp1735
g61
(g82
g63
NtRp1736
(dp1737
g66
(dp1738
g86
g87
ssg75
g1732
sg68
(lp1739
S'wsgi_multiprocess'
p1740
asbag61
(g82
g63
NtRp1741
(dp1742
g66
(dp1743
g93
g94
ssg75
g1732
sg68
(lp1744
S':'
asbag61
(g82
g63
NtRp1745
(dp1746
g66
(dp1747
sg75
g1732
sg68
(lp1748
g61
(g62
g63
NtRp1749
(dp1750
g66
(dp1751
g74
I4
ssg75
g1745
sg68
(lp1752
g104
asbasbasbag61
(g77
g63
NtRp1753
(dp1754
g66
(dp1755
sg75
g691
sg68
(lp1756
g61
(g82
g63
NtRp1757
(dp1758
g66
(dp1759
g86
g87
ssg75
g1753
sg68
(lp1760
S'wsgi_multithread'
p1761
asbag61
(g82
g63
NtRp1762
(dp1763
g66
(dp1764
g93
g94
ssg75
g1753
sg68
(lp1765
S':'
asbag61
(g82
g63
NtRp1766
(dp1767
g66
(dp1768
sg75
g1753
sg68
(lp1769
g61
(g62
g63
NtRp1770
(dp1771
g66
(dp1772
g74
I4
ssg75
g1766
sg68
(lp1773
S'True'
p1774
asbasbasbag61
(g77
g63
NtRp1775
(dp1776
g66
(dp1777
sg75
g691
sg68
(lp1778
g61
(g82
g63
NtRp1779
(dp1780
g66
(dp1781
g86
g87
ssg75
g1775
sg68
(lp1782
S'wsgi_run_once'
p1783
asbag61
(g82
g63
NtRp1784
(dp1785
g66
(dp1786
g93
g94
ssg75
g1775
sg68
(lp1787
S':'
asbag61
(g82
g63
NtRp1788
(dp1789
g66
(dp1790
sg75
g1775
sg68
(lp1791
g61
(g62
g63
NtRp1792
(dp1793
g66
(dp1794
g74
I4
ssg75
g1788
sg68
(lp1795
g104
asbasbasbag61
(g77
g63
NtRp1796
(dp1797
g66
(dp1798
sg75
g691
sg68
(lp1799
g61
(g82
g63
NtRp1800
(dp1801
g66
(dp1802
g86
g87
ssg75
g1796
sg68
(lp1803
S'wsgi_url_scheme'
p1804
asbag61
(g82
g63
NtRp1805
(dp1806
g66
(dp1807
g93
g94
ssg75
g1796
sg68
(lp1808
S':'
asbag61
(g82
g63
NtRp1809
(dp1810
g66
(dp1811
sg75
g1796
sg68
(lp1812
g61
(g62
g63
NtRp1813
(dp1814
g66
(dp1815
g74
I4
ssg75
g1809
sg68
(lp1816
S'http'
p1817
asbasbasbag61
(g77
g63
NtRp1818
(dp1819
g66
(dp1820
sg75
g691
sg68
(lp1821
g61
(g82
g63
NtRp1822
(dp1823
g66
(dp1824
g86
g87
ssg75
g1818
sg68
(lp1825
S'wsgi_version'
p1826
asbag61
(g82
g63
NtRp1827
(dp1828
g66
(dp1829
g93
g94
ssg75
g1818
sg68
(lp1830
S':'
asbag61
(g82
g63
NtRp1831
(dp1832
g66
(dp1833
sg75
g1818
sg68
(lp1834
g61
(g62
g63
NtRp1835
(dp1836
g66
(dp1837
g74
I4
ssg75
g1831
sg68
(lp1838
g61
(g70
g63
NtRp1839
(dp1840
g66
(dp1841
g74
I3
ssg75
Nsg68
(lp1842
g61
(g77
g63
NtRp1843
(dp1844
g66
(dp1845
sg75
g1839
sg68
(lp1846
g61
(g82
g63
NtRp1847
(dp1848
g66
(dp1849
sg75
g1843
sg68
(lp1850
g61
(g62
g63
NtRp1851
(dp1852
g66
(dp1853
g74
I3
ssg75
g1847
sg68
(lp1854
S'1'
asbasbasbag61
(g77
g63
NtRp1855
(dp1856
g66
(dp1857
sg75
g1839
sg68
(lp1858
g61
(g82
g63
NtRp1859
(dp1860
g66
(dp1861
sg75
g1855
sg68
(lp1862
g61
(g62
g63
NtRp1863
(dp1864
g66
(dp1865
g74
I3
ssg75
g1859
sg68
(lp1866
S'0'
asbasbasbasbasbasbasbasbasbasbasbag61
(g77
g63
NtRp1867
(dp1868
g66
(dp1869
sg75
g71
sg68
(lp1870
g61
(g82
g63
NtRp1871
(dp1872
g66
(dp1873
g86
g87
ssg75
g1867
sg68
(lp1874
S'extension'
p1875
asbag61
(g82
g63
NtRp1876
(dp1877
g66
(dp1878
g93
g94
ssg75
g1867
sg68
(lp1879
S':'
asbag61
(g82
g63
NtRp1880
(dp1881
g66
(dp1882
sg75
g1867
sg68
(lp1883
g61
(g62
g63
NtRp1884
(dp1885
g66
(dp1886
g74
I5
ssg75
g1880
sg68
(lp1887
S'html'
p1888
asbasbasbag61
(g77
g63
NtRp1889
(dp1890
g66
(dp1891
sg75
g71
sg68
(lp1892
g61
(g82
g63
NtRp1893
(dp1894
g66
(dp1895
g86
g87
ssg75
g1889
sg68
(lp1896
S'folder'
p1897
asbag61
(g82
g63
NtRp1898
(dp1899
g66
(dp1900
g93
g94
ssg75
g1889
sg68
(lp1901
S':'
asbag61
(g82
g63
NtRp1902
(dp1903
g66
(dp1904
sg75
g1889
sg68
(lp1905
g61
(g62
g63
NtRp1906
(dp1907
g66
(dp1908
g74
I5
ssg75
g1902
sg68
(lp1909
S'/var/www/conferencia/applications/projeto/'
p1910
asbasbasbag61
(g77
g63
NtRp1911
(dp1912
g66
(dp1913
sg75
g71
sg68
(lp1914
g61
(g82
g63
NtRp1915
(dp1916
g66
(dp1917
g86
g87
ssg75
g1911
sg68
(lp1918
S'function'
p1919
asbag61
(g82
g63
NtRp1920
(dp1921
g66
(dp1922
g93
g94
ssg75
g1911
sg68
(lp1923
S':'
asbag61
(g82
g63
NtRp1924
(dp1925
g66
(dp1926
sg75
g1911
sg68
(lp1927
g61
(g62
g63
NtRp1928
(dp1929
g66
(dp1930
g74
I5
ssg75
g1924
sg68
(lp1931
S'show_cliente'
p1932
asbasbasbag61
(g77
g63
NtRp1933
(dp1934
g66
(dp1935
sg75
g71
sg68
(lp1936
g61
(g82
g63
NtRp1937
(dp1938
g66
(dp1939
g86
g87
ssg75
g1933
sg68
(lp1940
S'get_vars'
p1941
asbag61
(g82
g63
NtRp1942
(dp1943
g66
(dp1944
g93
g94
ssg75
g1933
sg68
(lp1945
S':'
asbag61
(g82
g63
NtRp1946
(dp1947
g66
(dp1948
sg75
g1933
sg68
(lp1949
g61
(g62
g63
NtRp1950
(dp1951
g66
(dp1952
g74
I5
ssg75
g1946
sg68
(lp1953
g61
(g70
g63
NtRp1954
(dp1955
g66
(dp1956
g74
I4
ssg75
Nsg68
(lp1957
sbasbasbasbag61
(g77
g63
NtRp1958
(dp1959
g66
(dp1960
sg75
g71
sg68
(lp1961
g61
(g82
g63
NtRp1962
(dp1963
g66
(dp1964
g86
g87
ssg75
g1958
sg68
(lp1965
S'global_settings'
p1966
asbag61
(g82
g63
NtRp1967
(dp1968
g66
(dp1969
g93
g94
ssg75
g1958
sg68
(lp1970
S':'
asbag61
(g82
g63
NtRp1971
(dp1972
g66
(dp1973
sg75
g1958
sg68
(lp1974
g61
(g62
g63
NtRp1975
(dp1976
g66
(dp1977
g74
I5
ssg75
g1971
sg68
(lp1978
g61
(g70
g63
NtRp1979
(dp1980
g66
(dp1981
g74
I4
ssg75
Nsg68
(lp1982
g61
(g77
g63
NtRp1983
(dp1984
g66
(dp1985
sg75
g1979
sg68
(lp1986
g61
(g82
g63
NtRp1987
(dp1988
g66
(dp1989
g86
g87
ssg75
g1983
sg68
(lp1990
g703
asbag61
(g82
g63
NtRp1991
(dp1992
g66
(dp1993
g93
g94
ssg75
g1983
sg68
(lp1994
S':'
asbag61
(g82
g63
NtRp1995
(dp1996
g66
(dp1997
sg75
g1983
sg68
(lp1998
g61
(g62
g63
NtRp1999
(dp2000
g66
(dp2001
g74
I4
ssg75
g1995
sg68
(lp2002
S"set(['/var/www/conferencia/applications/projeto/'])"
p2003
asbasbasbag61
(g77
g63
NtRp2004
(dp2005
g66
(dp2006
sg75
g1979
sg68
(lp2007
g61
(g82
g63
NtRp2008
(dp2009
g66
(dp2010
g86
g87
ssg75
g2004
sg68
(lp2011
g725
asbag61
(g82
g63
NtRp2012
(dp2013
g66
(dp2014
g93
g94
ssg75
g2004
sg68
(lp2015
S':'
asbag61
(g82
g63
NtRp2016
(dp2017
g66
(dp2018
sg75
g2004
sg68
(lp2019
g61
(g62
g63
NtRp2020
(dp2021
g66
(dp2022
g74
I4
ssg75
g2016
sg68
(lp2023
g738
asbasbasbag61
(g77
g63
NtRp2024
(dp2025
g66
(dp2026
sg75
g1979
sg68
(lp2027
g61
(g82
g63
NtRp2028
(dp2029
g66
(dp2030
g86
g87
ssg75
g2024
sg68
(lp2031
g747
asbag61
(g82
g63
NtRp2032
(dp2033
g66
(dp2034
g93
g94
ssg75
g2024
sg68
(lp2035
S':'
asbag61
(g82
g63
NtRp2036
(dp2037
g66
(dp2038
sg75
g2024
sg68
(lp2039
g61
(g62
g63
NtRp2040
(dp2041
g66
(dp2042
g74
I4
ssg75
g2036
sg68
(lp2043
g61
(g70
g63
NtRp2044
(dp2045
g66
(dp2046
g74
I3
ssg75
Nsg68
(lp2047
sbasbasbasbag61
(g77
g63
NtRp2048
(dp2049
g66
(dp2050
sg75
g1979
sg68
(lp2051
g61
(g82
g63
NtRp2052
(dp2053
g66
(dp2054
g86
g87
ssg75
g2048
sg68
(lp2055
g772
asbag61
(g82
g63
NtRp2056
(dp2057
g66
(dp2058
g93
g94
ssg75
g2048
sg68
(lp2059
S':'
asbag61
(g82
g63
NtRp2060
(dp2061
g66
(dp2062
sg75
g2048
sg68
(lp2063
g61
(g62
g63
NtRp2064
(dp2065
g66
(dp2066
g74
I4
ssg75
g2060
sg68
(lp2067
S"<Values at 0x303a248: {'verbose': False, 'ip': '127.0.0.1', 'with_scheduler': False, 'ips': [], 'shutdown_timeout': 5, 'taskbar': False, 'port': 8000, 'maxthreads': None, 'softcron': False, 'server_name': 'fernando-workstation', 'bpython': False, 'nogui': False, 'pid_filename': 'httpserver.pid', 'extcron': False, 'runcron': False, 'run_system_tests': False, 'test': None, 'folder': '/var/www/conferencia', 'config': '', 'minthreads': None, 'winservice': '', 'shell': None, 'run': '', 'log_filename': 'httpserver.log', 'debuglevel': 30, 'args': [''], 'socket_timeout': 5, 'ssl_ca_certificate': None, 'scheduler': None, 'profiler_filename': None, 'ssl_private_key': '', 'scheduler_groups': None, 'password': '123456', 'request_queue_size': 5, 'ssl_certificate': '', 'cronjob': False, 'numthreads': None, 'quiet': False, 'interfaces': None, 'import_models': False, 'timeout': 10, 'plain': False, 'nobanner': False}>"
p2068
asbasbasbag61
(g77
g63
NtRp2069
(dp2070
g66
(dp2071
sg75
g1979
sg68
(lp2072
g61
(g82
g63
NtRp2073
(dp2074
g66
(dp2075
g86
g87
ssg75
g2069
sg68
(lp2076
g838
asbag61
(g82
g63
NtRp2077
(dp2078
g66
(dp2079
g93
g94
ssg75
g2069
sg68
(lp2080
S':'
asbag61
(g82
g63
NtRp2081
(dp2082
g66
(dp2083
sg75
g2069
sg68
(lp2084
g61
(g62
g63
NtRp2085
(dp2086
g66
(dp2087
g74
I4
ssg75
g2081
sg68
(lp2088
S'set([])'
p2089
asbasbasbag61
(g77
g63
NtRp2090
(dp2091
g66
(dp2092
sg75
g1979
sg68
(lp2093
g61
(g82
g63
NtRp2094
(dp2095
g66
(dp2096
g86
g87
ssg75
g2090
sg68
(lp2097
g860
asbag61
(g82
g63
NtRp2098
(dp2099
g66
(dp2100
g93
g94
ssg75
g2090
sg68
(lp2101
S':'
asbag61
(g82
g63
NtRp2102
(dp2103
g66
(dp2104
sg75
g2090
sg68
(lp2105
g61
(g62
g63
NtRp2106
(dp2107
g66
(dp2108
g74
I4
ssg75
g2102
sg68
(lp2109
g104
asbasbasbag61
(g77
g63
NtRp2110
(dp2111
g66
(dp2112
sg75
g1979
sg68
(lp2113
g61
(g82
g63
NtRp2114
(dp2115
g66
(dp2116
g86
g87
ssg75
g2110
sg68
(lp2117
g881
asbag61
(g82
g63
NtRp2118
(dp2119
g66
(dp2120
g93
g94
ssg75
g2110
sg68
(lp2121
S':'
asbag61
(g82
g63
NtRp2122
(dp2123
g66
(dp2124
sg75
g2110
sg68
(lp2125
g61
(g62
g63
NtRp2126
(dp2127
g66
(dp2128
g74
I4
ssg75
g2122
sg68
(lp2129
g894
asbasbasbag61
(g77
g63
NtRp2130
(dp2131
g66
(dp2132
sg75
g1979
sg68
(lp2133
g61
(g82
g63
NtRp2134
(dp2135
g66
(dp2136
g86
g87
ssg75
g2130
sg68
(lp2137
g1187
asbag61
(g82
g63
NtRp2138
(dp2139
g66
(dp2140
g93
g94
ssg75
g2130
sg68
(lp2141
S':'
asbag61
(g82
g63
NtRp2142
(dp2143
g66
(dp2144
sg75
g2130
sg68
(lp2145
g61
(g62
g63
NtRp2146
(dp2147
g66
(dp2148
g74
I4
ssg75
g2142
sg68
(lp2149
g104
asbasbasbag61
(g77
g63
NtRp2150
(dp2151
g66
(dp2152
sg75
g1979
sg68
(lp2153
g61
(g82
g63
NtRp2154
(dp2155
g66
(dp2156
g86
g87
ssg75
g2150
sg68
(lp2157
g1208
asbag61
(g82
g63
NtRp2158
(dp2159
g66
(dp2160
g93
g94
ssg75
g2150
sg68
(lp2161
S':'
asbag61
(g82
g63
NtRp2162
(dp2163
g66
(dp2164
sg75
g2150
sg68
(lp2165
g61
(g62
g63
NtRp2166
(dp2167
g66
(dp2168
g74
I4
ssg75
g2162
sg68
(lp2169
g104
asbasbasbag61
(g77
g63
NtRp2170
(dp2171
g66
(dp2172
sg75
g1979
sg68
(lp2173
g61
(g82
g63
NtRp2174
(dp2175
g66
(dp2176
g86
g87
ssg75
g2170
sg68
(lp2177
g1229
asbag61
(g82
g63
NtRp2178
(dp2179
g66
(dp2180
g93
g94
ssg75
g2170
sg68
(lp2181
S':'
asbag61
(g82
g63
NtRp2182
(dp2183
g66
(dp2184
sg75
g2170
sg68
(lp2185
g61
(g62
g63
NtRp2186
(dp2187
g66
(dp2188
g74
I4
ssg75
g2182
sg68
(lp2189
g61
(g70
g63
NtRp2190
(dp2191
g66
(dp2192
g74
I3
ssg75
Nsg68
(lp2193
g61
(g77
g63
NtRp2194
(dp2195
g66
(dp2196
sg75
g2190
sg68
(lp2197
g61
(g82
g63
NtRp2198
(dp2199
g66
(dp2200
sg75
g2194
sg68
(lp2201
g61
(g62
g63
NtRp2202
(dp2203
g66
(dp2204
g74
I3
ssg75
g2198
sg68
(lp2205
g1258
asbasbasbag61
(g77
g63
NtRp2206
(dp2207
g66
(dp2208
sg75
g2190
sg68
(lp2209
g61
(g82
g63
NtRp2210
(dp2211
g66
(dp2212
sg75
g2206
sg68
(lp2213
g61
(g62
g63
NtRp2214
(dp2215
g66
(dp2216
g74
I3
ssg75
g2210
sg68
(lp2217
g1271
asbasbasbag61
(g77
g63
NtRp2218
(dp2219
g66
(dp2220
sg75
g2190
sg68
(lp2221
g61
(g82
g63
NtRp2222
(dp2223
g66
(dp2224
sg75
g2218
sg68
(lp2225
g61
(g62
g63
NtRp2226
(dp2227
g66
(dp2228
g74
I3
ssg75
g2222
sg68
(lp2229
g1284
asbasbasbag61
(g77
g63
NtRp2230
(dp2231
g66
(dp2232
sg75
g2190
sg68
(lp2233
g61
(g82
g63
NtRp2234
(dp2235
g66
(dp2236
sg75
g2230
sg68
(lp2237
g61
(g62
g63
NtRp2238
(dp2239
g66
(dp2240
g74
I3
ssg75
g2234
sg68
(lp2241
g1297
asbasbasbasbasbasbasbag61
(g77
g63
NtRp2242
(dp2243
g66
(dp2244
sg75
g1979
sg68
(lp2245
g61
(g82
g63
NtRp2246
(dp2247
g66
(dp2248
g86
g87
ssg75
g2242
sg68
(lp2249
g1587
asbag61
(g82
g63
NtRp2250
(dp2251
g66
(dp2252
g93
g94
ssg75
g2242
sg68
(lp2253
S':'
asbag61
(g82
g63
NtRp2254
(dp2255
g66
(dp2256
sg75
g2242
sg68
(lp2257
g61
(g62
g63
NtRp2258
(dp2259
g66
(dp2260
g74
I4
ssg75
g2254
sg68
(lp2261
g61
(g70
g63
NtRp2262
(dp2263
g66
(dp2264
g74
I3
ssg75
Nsg68
(lp2265
g61
(g77
g63
NtRp2266
(dp2267
g66
(dp2268
sg75
g2262
sg68
(lp2269
g61
(g82
g63
NtRp2270
(dp2271
g66
(dp2272
sg75
g2266
sg68
(lp2273
g61
(g62
g63
NtRp2274
(dp2275
g66
(dp2276
g74
I3
ssg75
g2270
sg68
(lp2277
S'2'
asbasbasbag61
(g77
g63
NtRp2278
(dp2279
g66
(dp2280
sg75
g2262
sg68
(lp2281
g61
(g82
g63
NtRp2282
(dp2283
g66
(dp2284
sg75
g2278
sg68
(lp2285
g61
(g62
g63
NtRp2286
(dp2287
g66
(dp2288
g74
I3
ssg75
g2282
sg68
(lp2289
S'3'
asbasbasbag61
(g77
g63
NtRp2290
(dp2291
g66
(dp2292
sg75
g2262
sg68
(lp2293
g61
(g82
g63
NtRp2294
(dp2295
g66
(dp2296
sg75
g2290
sg68
(lp2297
g61
(g62
g63
NtRp2298
(dp2299
g66
(dp2300
g74
I3
ssg75
g2294
sg68
(lp2301
S'2'
asbasbasbag61
(g77
g63
NtRp2302
(dp2303
g66
(dp2304
sg75
g2262
sg68
(lp2305
g61
(g82
g63
NtRp2306
(dp2307
g66
(dp2308
sg75
g2302
sg68
(lp2309
g61
(g62
g63
NtRp2310
(dp2311
g66
(dp2312
g74
I3
ssg75
g2306
sg68
(lp2313
S'datetime.datetime(2012, 12, 17, 15, 3, 30)'
p2314
asbasbasbag61
(g77
g63
NtRp2315
(dp2316
g66
(dp2317
sg75
g2262
sg68
(lp2318
g61
(g82
g63
NtRp2319
(dp2320
g66
(dp2321
sg75
g2315
sg68
(lp2322
g61
(g62
g63
NtRp2323
(dp2324
g66
(dp2325
g74
I3
ssg75
g2319
sg68
(lp2326
g1665
asbasbasbasbasbasbasbasbasbasbasbag61
(g77
g63
NtRp2327
(dp2328
g66
(dp2329
sg75
g71
sg68
(lp2330
g61
(g82
g63
NtRp2331
(dp2332
g66
(dp2333
g86
g87
ssg75
g2327
sg68
(lp2334
S'is_https'
p2335
asbag61
(g82
g63
NtRp2336
(dp2337
g66
(dp2338
g93
g94
ssg75
g2327
sg68
(lp2339
S':'
asbag61
(g82
g63
NtRp2340
(dp2341
g66
(dp2342
sg75
g2327
sg68
(lp2343
g61
(g62
g63
NtRp2344
(dp2345
g66
(dp2346
g74
I5
ssg75
g2340
sg68
(lp2347
g104
asbasbasbag61
(g77
g63
NtRp2348
(dp2349
g66
(dp2350
sg75
g71
sg68
(lp2351
g61
(g82
g63
NtRp2352
(dp2353
g66
(dp2354
g86
g87
ssg75
g2348
sg68
(lp2355
S'is_local'
p2356
asbag61
(g82
g63
NtRp2357
(dp2358
g66
(dp2359
g93
g94
ssg75
g2348
sg68
(lp2360
S':'
asbag61
(g82
g63
NtRp2361
(dp2362
g66
(dp2363
sg75
g2348
sg68
(lp2364
g61
(g62
g63
NtRp2365
(dp2366
g66
(dp2367
g74
I5
ssg75
g2361
sg68
(lp2368
g1774
asbasbasbag61
(g77
g63
NtRp2369
(dp2370
g66
(dp2371
sg75
g71
sg68
(lp2372
g61
(g82
g63
NtRp2373
(dp2374
g66
(dp2375
g86
g87
ssg75
g2369
sg68
(lp2376
S'is_restful'
p2377
asbag61
(g82
g63
NtRp2378
(dp2379
g66
(dp2380
g93
g94
ssg75
g2369
sg68
(lp2381
S':'
asbag61
(g82
g63
NtRp2382
(dp2383
g66
(dp2384
sg75
g2369
sg68
(lp2385
g61
(g62
g63
NtRp2386
(dp2387
g66
(dp2388
g74
I5
ssg75
g2382
sg68
(lp2389
g104
asbasbasbag61
(g77
g63
NtRp2390
(dp2391
g66
(dp2392
sg75
g71
sg68
(lp2393
g61
(g82
g63
NtRp2394
(dp2395
g66
(dp2396
g86
g87
ssg75
g2390
sg68
(lp2397
S'now'
p2398
asbag61
(g82
g63
NtRp2399
(dp2400
g66
(dp2401
g93
g94
ssg75
g2390
sg68
(lp2402
S':'
asbag61
(g82
g63
NtRp2403
(dp2404
g66
(dp2405
sg75
g2390
sg68
(lp2406
g61
(g62
g63
NtRp2407
(dp2408
g66
(dp2409
g74
I5
ssg75
g2403
sg68
(lp2410
S'datetime.datetime(2013, 4, 3, 15, 27, 14, 464752)'
p2411
asbasbasbag61
(g77
g63
NtRp2412
(dp2413
g66
(dp2414
sg75
g71
sg68
(lp2415
g61
(g82
g63
NtRp2416
(dp2417
g66
(dp2418
g86
g87
ssg75
g2412
sg68
(lp2419
S'post_vars'
p2420
asbag61
(g82
g63
NtRp2421
(dp2422
g66
(dp2423
g93
g94
ssg75
g2412
sg68
(lp2424
S':'
asbag61
(g82
g63
NtRp2425
(dp2426
g66
(dp2427
sg75
g2412
sg68
(lp2428
g61
(g62
g63
NtRp2429
(dp2430
g66
(dp2431
g74
I5
ssg75
g2425
sg68
(lp2432
g61
(g70
g63
NtRp2433
(dp2434
g66
(dp2435
g74
I4
ssg75
Nsg68
(lp2436
g61
(g77
g63
NtRp2437
(dp2438
g66
(dp2439
sg75
g2433
sg68
(lp2440
g61
(g82
g63
NtRp2441
(dp2442
g66
(dp2443
g86
g87
ssg75
g2437
sg68
(lp2444
S'admin_user'
p2445
asbag61
(g82
g63
NtRp2446
(dp2447
g66
(dp2448
g93
g94
ssg75
g2437
sg68
(lp2449
S':'
asbag61
(g82
g63
NtRp2450
(dp2451
g66
(dp2452
sg75
g2437
sg68
(lp2453
g61
(g62
g63
NtRp2454
(dp2455
g66
(dp2456
g74
I4
ssg75
g2450
sg68
(lp2457
S'2'
asbasbasbag61
(g77
g63
NtRp2458
(dp2459
g66
(dp2460
sg75
g2433
sg68
(lp2461
g61
(g82
g63
NtRp2462
(dp2463
g66
(dp2464
g86
g87
ssg75
g2458
sg68
(lp2465
S'endtime'
p2466
asbag61
(g82
g63
NtRp2467
(dp2468
g66
(dp2469
g93
g94
ssg75
g2458
sg68
(lp2470
S':'
asbag61
(g82
g63
NtRp2471
(dp2472
g66
(dp2473
sg75
g2458
sg68
(lp2474
g61
(g62
g63
NtRp2475
(dp2476
g66
(dp2477
g74
I4
ssg75
g2471
sg68
(lp2478
S'2013-04-04 15:27:08'
p2479
asbasbasbag61
(g77
g63
NtRp2480
(dp2481
g66
(dp2482
sg75
g2433
sg68
(lp2483
g61
(g82
g63
NtRp2484
(dp2485
g66
(dp2486
g86
g87
ssg75
g2480
sg68
(lp2487
S'membros_user'
p2488
asbag61
(g82
g63
NtRp2489
(dp2490
g66
(dp2491
g93
g94
ssg75
g2480
sg68
(lp2492
S':'
asbag61
(g82
g63
NtRp2493
(dp2494
g66
(dp2495
sg75
g2480
sg68
(lp2496
g61
(g62
g63
NtRp2497
(dp2498
g66
(dp2499
g74
I4
ssg75
g2493
sg68
(lp2500
g61
(g70
g63
NtRp2501
(dp2502
g66
(dp2503
g74
I3
ssg75
Nsg68
(lp2504
g61
(g77
g63
NtRp2505
(dp2506
g66
(dp2507
sg75
g2501
sg68
(lp2508
g61
(g82
g63
NtRp2509
(dp2510
g66
(dp2511
sg75
g2505
sg68
(lp2512
g61
(g62
g63
NtRp2513
(dp2514
g66
(dp2515
g74
I3
ssg75
g2509
sg68
(lp2516
S'2'
asbasbasbag61
(g77
g63
NtRp2517
(dp2518
g66
(dp2519
sg75
g2501
sg68
(lp2520
g61
(g82
g63
NtRp2521
(dp2522
g66
(dp2523
sg75
g2517
sg68
(lp2524
g61
(g62
g63
NtRp2525
(dp2526
g66
(dp2527
g74
I3
ssg75
g2521
sg68
(lp2528
S'1'
asbasbasbasbasbasbasbag61
(g77
g63
NtRp2529
(dp2530
g66
(dp2531
sg75
g2433
sg68
(lp2532
g61
(g82
g63
NtRp2533
(dp2534
g66
(dp2535
g86
g87
ssg75
g2529
sg68
(lp2536
S'starttime'
p2537
asbag61
(g82
g63
NtRp2538
(dp2539
g66
(dp2540
g93
g94
ssg75
g2529
sg68
(lp2541
S':'
asbag61
(g82
g63
NtRp2542
(dp2543
g66
(dp2544
sg75
g2529
sg68
(lp2545
g61
(g62
g63
NtRp2546
(dp2547
g66
(dp2548
g74
I4
ssg75
g2542
sg68
(lp2549
S'2013-04-03 15:27:06'
p2550
asbasbasbasbasbasbasbag61
(g77
g63
NtRp2551
(dp2552
g66
(dp2553
sg75
g71
sg68
(lp2554
g61
(g82
g63
NtRp2555
(dp2556
g66
(dp2557
g86
g87
ssg75
g2551
sg68
(lp2558
S'url'
p2559
asbag61
(g82
g63
NtRp2560
(dp2561
g66
(dp2562
g93
g94
ssg75
g2551
sg68
(lp2563
S':'
asbag61
(g82
g63
NtRp2564
(dp2565
g66
(dp2566
sg75
g2551
sg68
(lp2567
g61
(g62
g63
NtRp2568
(dp2569
g66
(dp2570
g74
I5
ssg75
g2564
sg68
(lp2571
g1319
asbasbasbag61
(g77
g63
NtRp2572
(dp2573
g66
(dp2574
sg75
g71
sg68
(lp2575
g61
(g82
g63
NtRp2576
(dp2577
g66
(dp2578
g86
g87
ssg75
g2572
sg68
(lp2579
S'utcnow'
p2580
asbag61
(g82
g63
NtRp2581
(dp2582
g66
(dp2583
g93
g94
ssg75
g2572
sg68
(lp2584
S':'
asbag61
(g82
g63
NtRp2585
(dp2586
g66
(dp2587
sg75
g2572
sg68
(lp2588
g61
(g62
g63
NtRp2589
(dp2590
g66
(dp2591
g74
I5
ssg75
g2585
sg68
(lp2592
S'datetime.datetime(2013, 4, 3, 18, 27, 14, 464818)'
p2593
asbasbasbag61
(g77
g63
NtRp2594
(dp2595
g66
(dp2596
sg75
g71
sg68
(lp2597
g61
(g82
g63
NtRp2598
(dp2599
g66
(dp2600
g86
g87
ssg75
g2594
sg68
(lp2601
S'uuid'
p2602
asbag61
(g82
g63
NtRp2603
(dp2604
g66
(dp2605
g93
g94
ssg75
g2594
sg68
(lp2606
S':'
asbag61
(g82
g63
NtRp2607
(dp2608
g66
(dp2609
sg75
g2594
sg68
(lp2610
g61
(g62
g63
NtRp2611
(dp2612
g66
(dp2613
g74
I5
ssg75
g2607
sg68
(lp2614
S'projeto/127.0.0.1.2013-04-03.15-27-14.95fe26c0-f117-47d0-946d-375bc69587f6'
p2615
asbasbasbag61
(g77
g63
NtRp2616
(dp2617
g66
(dp2618
sg75
g71
sg68
(lp2619
g61
(g82
g63
NtRp2620
(dp2621
g66
(dp2622
g86
g87
ssg75
g2616
sg68
(lp2623
S'vars'
p2624
asbag61
(g82
g63
NtRp2625
(dp2626
g66
(dp2627
g93
g94
ssg75
g2616
sg68
(lp2628
S':'
asbag61
(g82
g63
NtRp2629
(dp2630
g66
(dp2631
sg75
g2616
sg68
(lp2632
g61
(g62
g63
NtRp2633
(dp2634
g66
(dp2635
g74
I5
ssg75
g2629
sg68
(lp2636
g61
(g70
g63
NtRp2637
(dp2638
g66
(dp2639
g74
I4
ssg75
Nsg68
(lp2640
g61
(g77
g63
NtRp2641
(dp2642
g66
(dp2643
sg75
g2637
sg68
(lp2644
g61
(g82
g63
NtRp2645
(dp2646
g66
(dp2647
g86
g87
ssg75
g2641
sg68
(lp2648
g2445
asbag61
(g82
g63
NtRp2649
(dp2650
g66
(dp2651
g93
g94
ssg75
g2641
sg68
(lp2652
S':'
asbag61
(g82
g63
NtRp2653
(dp2654
g66
(dp2655
sg75
g2641
sg68
(lp2656
g61
(g62
g63
NtRp2657
(dp2658
g66
(dp2659
g74
I4
ssg75
g2653
sg68
(lp2660
S'2'
asbasbasbag61
(g77
g63
NtRp2661
(dp2662
g66
(dp2663
sg75
g2637
sg68
(lp2664
g61
(g82
g63
NtRp2665
(dp2666
g66
(dp2667
g86
g87
ssg75
g2661
sg68
(lp2668
g2466
asbag61
(g82
g63
NtRp2669
(dp2670
g66
(dp2671
g93
g94
ssg75
g2661
sg68
(lp2672
S':'
asbag61
(g82
g63
NtRp2673
(dp2674
g66
(dp2675
sg75
g2661
sg68
(lp2676
g61
(g62
g63
NtRp2677
(dp2678
g66
(dp2679
g74
I4
ssg75
g2673
sg68
(lp2680
g2479
asbasbasbag61
(g77
g63
NtRp2681
(dp2682
g66
(dp2683
sg75
g2637
sg68
(lp2684
g61
(g82
g63
NtRp2685
(dp2686
g66
(dp2687
g86
g87
ssg75
g2681
sg68
(lp2688
g2488
asbag61
(g82
g63
NtRp2689
(dp2690
g66
(dp2691
g93
g94
ssg75
g2681
sg68
(lp2692
S':'
asbag61
(g82
g63
NtRp2693
(dp2694
g66
(dp2695
sg75
g2681
sg68
(lp2696
g61
(g62
g63
NtRp2697
(dp2698
g66
(dp2699
g74
I4
ssg75
g2693
sg68
(lp2700
g61
(g70
g63
NtRp2701
(dp2702
g66
(dp2703
g74
I3
ssg75
Nsg68
(lp2704
g61
(g77
g63
NtRp2705
(dp2706
g66
(dp2707
sg75
g2701
sg68
(lp2708
g61
(g82
g63
NtRp2709
(dp2710
g66
(dp2711
sg75
g2705
sg68
(lp2712
g61
(g62
g63
NtRp2713
(dp2714
g66
(dp2715
g74
I3
ssg75
g2709
sg68
(lp2716
S'2'
asbasbasbag61
(g77
g63
NtRp2717
(dp2718
g66
(dp2719
sg75
g2701
sg68
(lp2720
g61
(g82
g63
NtRp2721
(dp2722
g66
(dp2723
sg75
g2717
sg68
(lp2724
g61
(g62
g63
NtRp2725
(dp2726
g66
(dp2727
g74
I3
ssg75
g2721
sg68
(lp2728
S'1'
asbasbasbasbasbasbasbag61
(g77
g63
NtRp2729
(dp2730
g66
(dp2731
sg75
g2637
sg68
(lp2732
g61
(g82
g63
NtRp2733
(dp2734
g66
(dp2735
g86
g87
ssg75
g2729
sg68
(lp2736
g2537
asbag61
(g82
g63
NtRp2737
(dp2738
g66
(dp2739
g93
g94
ssg75
g2729
sg68
(lp2740
S':'
asbag61
(g82
g63
NtRp2741
(dp2742
g66
(dp2743
sg75
g2729
sg68
(lp2744
g61
(g62
g63
NtRp2745
(dp2746
g66
(dp2747
g74
I4
ssg75
g2741
sg68
(lp2748
g2550
asbasbasbasbasbasbasbag61
(g77
g63
NtRp2749
(dp2750
g66
(dp2751
sg75
g71
sg68
(lp2752
g61
(g82
g63
NtRp2753
(dp2754
g66
(dp2755
g86
g87
ssg75
g2749
sg68
(lp2756
S'wsgi'
p2757
asbag61
(g82
g63
NtRp2758
(dp2759
g66
(dp2760
g93
g94
ssg75
g2749
sg68
(lp2761
S':'
asbag61
(g82
g63
NtRp2762
(dp2763
g66
(dp2764
sg75
g2749
sg68
(lp2765
g61
(g62
g63
NtRp2766
(dp2767
g66
(dp2768
g74
I5
ssg75
g2762
sg68
(lp2769
g61
(g70
g63
NtRp2770
(dp2771
g66
(dp2772
g74
I4
ssg75
Nsg68
(lp2773
g61
(g77
g63
NtRp2774
(dp2775
g66
(dp2776
sg75
g2770
sg68
(lp2777
g61
(g82
g63
NtRp2778
(dp2779
g66
(dp2780
g86
g87
ssg75
g2774
sg68
(lp2781
S'environ'
p2782
asbag61
(g82
g63
NtRp2783
(dp2784
g66
(dp2785
g93
g94
ssg75
g2774
sg68
(lp2786
S':'
asbag61
(g82
g63
NtRp2787
(dp2788
g66
(dp2789
sg75
g2774
sg68
(lp2790
g61
(g62
g63
NtRp2791
(dp2792
g66
(dp2793
g74
I4
ssg75
g2787
sg68
(lp2794
g61
(g70
g63
NtRp2795
(dp2796
g66
(dp2797
g74
I3
ssg75
Nsg68
(lp2798
g61
(g77
g63
NtRp2799
(dp2800
g66
(dp2801
sg75
g2795
sg68
(lp2802
g61
(g82
g63
NtRp2803
(dp2804
g66
(dp2805
g86
g87
ssg75
g2799
sg68
(lp2806
S'CONTENT_LENGTH'
p2807
asbag61
(g82
g63
NtRp2808
(dp2809
g66
(dp2810
g93
g94
ssg75
g2799
sg68
(lp2811
S':'
asbag61
(g82
g63
NtRp2812
(dp2813
g66
(dp2814
sg75
g2799
sg68
(lp2815
g61
(g62
g63
NtRp2816
(dp2817
g66
(dp2818
g74
I3
ssg75
g2812
sg68
(lp2819
g807
asbasbasbag61
(g77
g63
NtRp2820
(dp2821
g66
(dp2822
sg75
g2795
sg68
(lp2823
g61
(g82
g63
NtRp2824
(dp2825
g66
(dp2826
g86
g87
ssg75
g2820
sg68
(lp2827
S'CONTENT_TYPE'
p2828
asbag61
(g82
g63
NtRp2829
(dp2830
g66
(dp2831
g93
g94
ssg75
g2820
sg68
(lp2832
S':'
asbag61
(g82
g63
NtRp2833
(dp2834
g66
(dp2835
sg75
g2820
sg68
(lp2836
g61
(g62
g63
NtRp2837
(dp2838
g66
(dp2839
g74
I3
ssg75
g2833
sg68
(lp2840
g829
asbasbasbag61
(g77
g63
NtRp2841
(dp2842
g66
(dp2843
sg75
g2795
sg68
(lp2844
g61
(g82
g63
NtRp2845
(dp2846
g66
(dp2847
g86
g87
ssg75
g2841
sg68
(lp2848
S'HTTP_ACCEPT'
p2849
asbag61
(g82
g63
NtRp2850
(dp2851
g66
(dp2852
g93
g94
ssg75
g2841
sg68
(lp2853
S':'
asbag61
(g82
g63
NtRp2854
(dp2855
g66
(dp2856
sg75
g2841
sg68
(lp2857
g61
(g62
g63
NtRp2858
(dp2859
g66
(dp2860
g74
I3
ssg75
g2854
sg68
(lp2861
g916
asbasbasbag61
(g77
g63
NtRp2862
(dp2863
g66
(dp2864
sg75
g2795
sg68
(lp2865
g61
(g82
g63
NtRp2866
(dp2867
g66
(dp2868
g86
g87
ssg75
g2862
sg68
(lp2869
S'HTTP_ACCEPT_CHARSET'
p2870
asbag61
(g82
g63
NtRp2871
(dp2872
g66
(dp2873
g93
g94
ssg75
g2862
sg68
(lp2874
S':'
asbag61
(g82
g63
NtRp2875
(dp2876
g66
(dp2877
sg75
g2862
sg68
(lp2878
g61
(g62
g63
NtRp2879
(dp2880
g66
(dp2881
g74
I3
ssg75
g2875
sg68
(lp2882
g938
asbasbasbag61
(g77
g63
NtRp2883
(dp2884
g66
(dp2885
sg75
g2795
sg68
(lp2886
g61
(g82
g63
NtRp2887
(dp2888
g66
(dp2889
g86
g87
ssg75
g2883
sg68
(lp2890
S'HTTP_ACCEPT_ENCODING'
p2891
asbag61
(g82
g63
NtRp2892
(dp2893
g66
(dp2894
g93
g94
ssg75
g2883
sg68
(lp2895
S':'
asbag61
(g82
g63
NtRp2896
(dp2897
g66
(dp2898
sg75
g2883
sg68
(lp2899
g61
(g62
g63
NtRp2900
(dp2901
g66
(dp2902
g74
I3
ssg75
g2896
sg68
(lp2903
g960
asbasbasbag61
(g77
g63
NtRp2904
(dp2905
g66
(dp2906
sg75
g2795
sg68
(lp2907
g61
(g82
g63
NtRp2908
(dp2909
g66
(dp2910
g86
g87
ssg75
g2904
sg68
(lp2911
S'HTTP_ACCEPT_LANGUAGE'
p2912
asbag61
(g82
g63
NtRp2913
(dp2914
g66
(dp2915
g93
g94
ssg75
g2904
sg68
(lp2916
S':'
asbag61
(g82
g63
NtRp2917
(dp2918
g66
(dp2919
sg75
g2904
sg68
(lp2920
g61
(g62
g63
NtRp2921
(dp2922
g66
(dp2923
g74
I3
ssg75
g2917
sg68
(lp2924
g982
asbasbasbag61
(g77
g63
NtRp2925
(dp2926
g66
(dp2927
sg75
g2795
sg68
(lp2928
g61
(g82
g63
NtRp2929
(dp2930
g66
(dp2931
g86
g87
ssg75
g2925
sg68
(lp2932
S'HTTP_CACHE_CONTROL'
p2933
asbag61
(g82
g63
NtRp2934
(dp2935
g66
(dp2936
g93
g94
ssg75
g2925
sg68
(lp2937
S':'
asbag61
(g82
g63
NtRp2938
(dp2939
g66
(dp2940
sg75
g2925
sg68
(lp2941
g61
(g62
g63
NtRp2942
(dp2943
g66
(dp2944
g74
I3
ssg75
g2938
sg68
(lp2945
g1004
asbasbasbag61
(g77
g63
NtRp2946
(dp2947
g66
(dp2948
sg75
g2795
sg68
(lp2949
g61
(g82
g63
NtRp2950
(dp2951
g66
(dp2952
g86
g87
ssg75
g2946
sg68
(lp2953
S'HTTP_CONNECTION'
p2954
asbag61
(g82
g63
NtRp2955
(dp2956
g66
(dp2957
g93
g94
ssg75
g2946
sg68
(lp2958
S':'
asbag61
(g82
g63
NtRp2959
(dp2960
g66
(dp2961
sg75
g2946
sg68
(lp2962
g61
(g62
g63
NtRp2963
(dp2964
g66
(dp2965
g74
I3
ssg75
g2959
sg68
(lp2966
g1026
asbasbasbag61
(g77
g63
NtRp2967
(dp2968
g66
(dp2969
sg75
g2795
sg68
(lp2970
g61
(g82
g63
NtRp2971
(dp2972
g66
(dp2973
g86
g87
ssg75
g2967
sg68
(lp2974
S'HTTP_CONTENT_LENGTH'
p2975
asbag61
(g82
g63
NtRp2976
(dp2977
g66
(dp2978
g93
g94
ssg75
g2967
sg68
(lp2979
S':'
asbag61
(g82
g63
NtRp2980
(dp2981
g66
(dp2982
sg75
g2967
sg68
(lp2983
g61
(g62
g63
NtRp2984
(dp2985
g66
(dp2986
g74
I3
ssg75
g2980
sg68
(lp2987
g807
asbasbasbag61
(g77
g63
NtRp2988
(dp2989
g66
(dp2990
sg75
g2795
sg68
(lp2991
g61
(g82
g63
NtRp2992
(dp2993
g66
(dp2994
g86
g87
ssg75
g2988
sg68
(lp2995
S'HTTP_CONTENT_TYPE'
p2996
asbag61
(g82
g63
NtRp2997
(dp2998
g66
(dp2999
g93
g94
ssg75
g2988
sg68
(lp3000
S':'
asbag61
(g82
g63
NtRp3001
(dp3002
g66
(dp3003
sg75
g2988
sg68
(lp3004
g61
(g62
g63
NtRp3005
(dp3006
g66
(dp3007
g74
I3
ssg75
g3001
sg68
(lp3008
g829
asbasbasbag61
(g77
g63
NtRp3009
(dp3010
g66
(dp3011
sg75
g2795
sg68
(lp3012
g61
(g82
g63
NtRp3013
(dp3014
g66
(dp3015
g86
g87
ssg75
g3009
sg68
(lp3016
S'HTTP_COOKIE'
p3017
asbag61
(g82
g63
NtRp3018
(dp3019
g66
(dp3020
g93
g94
ssg75
g3009
sg68
(lp3021
S':'
asbag61
(g82
g63
NtRp3022
(dp3023
g66
(dp3024
sg75
g3009
sg68
(lp3025
g61
(g62
g63
NtRp3026
(dp3027
g66
(dp3028
g74
I3
ssg75
g3022
sg68
(lp3029
g1090
asbasbasbag61
(g77
g63
NtRp3030
(dp3031
g66
(dp3032
sg75
g2795
sg68
(lp3033
g61
(g82
g63
NtRp3034
(dp3035
g66
(dp3036
g86
g87
ssg75
g3030
sg68
(lp3037
S'HTTP_HOST'
p3038
asbag61
(g82
g63
NtRp3039
(dp3040
g66
(dp3041
g93
g94
ssg75
g3030
sg68
(lp3042
S':'
asbag61
(g82
g63
NtRp3043
(dp3044
g66
(dp3045
sg75
g3030
sg68
(lp3046
g61
(g62
g63
NtRp3047
(dp3048
g66
(dp3049
g74
I3
ssg75
g3043
sg68
(lp3050
g1112
asbasbasbag61
(g77
g63
NtRp3051
(dp3052
g66
(dp3053
sg75
g2795
sg68
(lp3054
g61
(g82
g63
NtRp3055
(dp3056
g66
(dp3057
g86
g87
ssg75
g3051
sg68
(lp3058
S'HTTP_ORIGIN'
p3059
asbag61
(g82
g63
NtRp3060
(dp3061
g66
(dp3062
g93
g94
ssg75
g3051
sg68
(lp3063
S':'
asbag61
(g82
g63
NtRp3064
(dp3065
g66
(dp3066
sg75
g3051
sg68
(lp3067
g61
(g62
g63
NtRp3068
(dp3069
g66
(dp3070
g74
I3
ssg75
g3064
sg68
(lp3071
g1134
asbasbasbag61
(g77
g63
NtRp3072
(dp3073
g66
(dp3074
sg75
g2795
sg68
(lp3075
g61
(g82
g63
NtRp3076
(dp3077
g66
(dp3078
g86
g87
ssg75
g3072
sg68
(lp3079
S'HTTP_REFERER'
p3080
asbag61
(g82
g63
NtRp3081
(dp3082
g66
(dp3083
g93
g94
ssg75
g3072
sg68
(lp3084
S':'
asbag61
(g82
g63
NtRp3085
(dp3086
g66
(dp3087
sg75
g3072
sg68
(lp3088
g61
(g62
g63
NtRp3089
(dp3090
g66
(dp3091
g74
I3
ssg75
g3085
sg68
(lp3092
g1156
asbasbasbag61
(g77
g63
NtRp3093
(dp3094
g66
(dp3095
sg75
g2795
sg68
(lp3096
g61
(g82
g63
NtRp3097
(dp3098
g66
(dp3099
g86
g87
ssg75
g3093
sg68
(lp3100
S'HTTP_USER_AGENT'
p3101
asbag61
(g82
g63
NtRp3102
(dp3103
g66
(dp3104
g93
g94
ssg75
g3093
sg68
(lp3105
S':'
asbag61
(g82
g63
NtRp3106
(dp3107
g66
(dp3108
sg75
g3093
sg68
(lp3109
g61
(g62
g63
NtRp3110
(dp3111
g66
(dp3112
g74
I3
ssg75
g3106
sg68
(lp3113
g1178
asbasbasbag61
(g77
g63
NtRp3114
(dp3115
g66
(dp3116
sg75
g2795
sg68
(lp3117
g61
(g82
g63
NtRp3118
(dp3119
g66
(dp3120
g86
g87
ssg75
g3114
sg68
(lp3121
S'PATH_INFO'
p3122
asbag61
(g82
g63
NtRp3123
(dp3124
g66
(dp3125
g93
g94
ssg75
g3114
sg68
(lp3126
S':'
asbag61
(g82
g63
NtRp3127
(dp3128
g66
(dp3129
sg75
g3114
sg68
(lp3130
g61
(g62
g63
NtRp3131
(dp3132
g66
(dp3133
g74
I3
ssg75
g3127
sg68
(lp3134
g1319
asbasbasbag61
(g77
g63
NtRp3135
(dp3136
g66
(dp3137
sg75
g2795
sg68
(lp3138
g61
(g82
g63
NtRp3139
(dp3140
g66
(dp3141
g86
g87
ssg75
g3135
sg68
(lp3142
S'QUERY_STRING'
p3143
asbag61
(g82
g63
NtRp3144
(dp3145
g66
(dp3146
g93
g94
ssg75
g3135
sg68
(lp3147
S':'
asbag61
(g82
g63
NtRp3148
(dp3149
g66
(dp3150
sg75
g3135
sg68
(lp3151
g61
(g62
g63
NtRp3152
(dp3153
g66
(dp3154
g74
I3
ssg75
g3148
sg68
(lp3155
S''
asbasbasbag61
(g77
g63
NtRp3156
(dp3157
g66
(dp3158
sg75
g2795
sg68
(lp3159
g61
(g82
g63
NtRp3160
(dp3161
g66
(dp3162
g86
g87
ssg75
g3156
sg68
(lp3163
S'REMOTE_ADDR'
p3164
asbag61
(g82
g63
NtRp3165
(dp3166
g66
(dp3167
g93
g94
ssg75
g3156
sg68
(lp3168
S':'
asbag61
(g82
g63
NtRp3169
(dp3170
g66
(dp3171
sg75
g3156
sg68
(lp3172
g61
(g62
g63
NtRp3173
(dp3174
g66
(dp3175
g74
I3
ssg75
g3169
sg68
(lp3176
g242
asbasbasbag61
(g77
g63
NtRp3177
(dp3178
g66
(dp3179
sg75
g2795
sg68
(lp3180
g61
(g82
g63
NtRp3181
(dp3182
g66
(dp3183
g86
g87
ssg75
g3177
sg68
(lp3184
S'REMOTE_PORT'
p3185
asbag61
(g82
g63
NtRp3186
(dp3187
g66
(dp3188
g93
g94
ssg75
g3177
sg68
(lp3189
S':'
asbag61
(g82
g63
NtRp3190
(dp3191
g66
(dp3192
sg75
g3177
sg68
(lp3193
g61
(g62
g63
NtRp3194
(dp3195
g66
(dp3196
g74
I3
ssg75
g3190
sg68
(lp3197
g1383
asbasbasbag61
(g77
g63
NtRp3198
(dp3199
g66
(dp3200
sg75
g2795
sg68
(lp3201
g61
(g82
g63
NtRp3202
(dp3203
g66
(dp3204
g86
g87
ssg75
g3198
sg68
(lp3205
S'REQUEST_METHOD'
p3206
asbag61
(g82
g63
NtRp3207
(dp3208
g66
(dp3209
g93
g94
ssg75
g3198
sg68
(lp3210
S':'
asbag61
(g82
g63
NtRp3211
(dp3212
g66
(dp3213
sg75
g3198
sg68
(lp3214
g61
(g62
g63
NtRp3215
(dp3216
g66
(dp3217
g74
I3
ssg75
g3211
sg68
(lp3218
g1405
asbasbasbag61
(g77
g63
NtRp3219
(dp3220
g66
(dp3221
sg75
g2795
sg68
(lp3222
g61
(g82
g63
NtRp3223
(dp3224
g66
(dp3225
g86
g87
ssg75
g3219
sg68
(lp3226
S'REQUEST_URI'
p3227
asbag61
(g82
g63
NtRp3228
(dp3229
g66
(dp3230
g93
g94
ssg75
g3219
sg68
(lp3231
S':'
asbag61
(g82
g63
NtRp3232
(dp3233
g66
(dp3234
sg75
g3219
sg68
(lp3235
g61
(g62
g63
NtRp3236
(dp3237
g66
(dp3238
g74
I3
ssg75
g3232
sg68
(lp3239
g1427
asbasbasbag61
(g77
g63
NtRp3240
(dp3241
g66
(dp3242
sg75
g2795
sg68
(lp3243
g61
(g82
g63
NtRp3244
(dp3245
g66
(dp3246
g86
g87
ssg75
g3240
sg68
(lp3247
S'SCRIPT_NAME'
p3248
asbag61
(g82
g63
NtRp3249
(dp3250
g66
(dp3251
g93
g94
ssg75
g3240
sg68
(lp3252
S':'
asbag61
(g82
g63
NtRp3253
(dp3254
g66
(dp3255
sg75
g3240
sg68
(lp3256
g61
(g62
g63
NtRp3257
(dp3258
g66
(dp3259
g74
I3
ssg75
g3253
sg68
(lp3260
S''
asbasbasbag61
(g77
g63
NtRp3261
(dp3262
g66
(dp3263
sg75
g2795
sg68
(lp3264
g61
(g82
g63
NtRp3265
(dp3266
g66
(dp3267
g86
g87
ssg75
g3261
sg68
(lp3268
S'SERVER_NAME'
p3269
asbag61
(g82
g63
NtRp3270
(dp3271
g66
(dp3272
g93
g94
ssg75
g3261
sg68
(lp3273
S':'
asbag61
(g82
g63
NtRp3274
(dp3275
g66
(dp3276
sg75
g3261
sg68
(lp3277
g61
(g62
g63
NtRp3278
(dp3279
g66
(dp3280
g74
I3
ssg75
g3274
sg68
(lp3281
g1470
asbasbasbag61
(g77
g63
NtRp3282
(dp3283
g66
(dp3284
sg75
g2795
sg68
(lp3285
g61
(g82
g63
NtRp3286
(dp3287
g66
(dp3288
g86
g87
ssg75
g3282
sg68
(lp3289
S'SERVER_PORT'
p3290
asbag61
(g82
g63
NtRp3291
(dp3292
g66
(dp3293
g93
g94
ssg75
g3282
sg68
(lp3294
S':'
asbag61
(g82
g63
NtRp3295
(dp3296
g66
(dp3297
sg75
g3282
sg68
(lp3298
g61
(g62
g63
NtRp3299
(dp3300
g66
(dp3301
g74
I3
ssg75
g3295
sg68
(lp3302
g1492
asbasbasbag61
(g77
g63
NtRp3303
(dp3304
g66
(dp3305
sg75
g2795
sg68
(lp3306
g61
(g82
g63
NtRp3307
(dp3308
g66
(dp3309
g86
g87
ssg75
g3303
sg68
(lp3310
S'SERVER_PROTOCOL'
p3311
asbag61
(g82
g63
NtRp3312
(dp3313
g66
(dp3314
g93
g94
ssg75
g3303
sg68
(lp3315
S':'
asbag61
(g82
g63
NtRp3316
(dp3317
g66
(dp3318
sg75
g3303
sg68
(lp3319
g61
(g62
g63
NtRp3320
(dp3321
g66
(dp3322
g74
I3
ssg75
g3316
sg68
(lp3323
g1514
asbasbasbag61
(g77
g63
NtRp3324
(dp3325
g66
(dp3326
sg75
g2795
sg68
(lp3327
g61
(g82
g63
NtRp3328
(dp3329
g66
(dp3330
g86
g87
ssg75
g3324
sg68
(lp3331
S'SERVER_SOFTWARE'
p3332
asbag61
(g82
g63
NtRp3333
(dp3334
g66
(dp3335
g93
g94
ssg75
g3324
sg68
(lp3336
S':'
asbag61
(g82
g63
NtRp3337
(dp3338
g66
(dp3339
sg75
g3324
sg68
(lp3340
g61
(g62
g63
NtRp3341
(dp3342
g66
(dp3343
g74
I3
ssg75
g3337
sg68
(lp3344
g1536
asbasbasbag61
(g77
g63
NtRp3345
(dp3346
g66
(dp3347
sg75
g2795
sg68
(lp3348
g61
(g82
g63
NtRp3349
(dp3350
g66
(dp3351
g86
g87
ssg75
g3345
sg68
(lp3352
S'WEB2PY_ORIGINAL_URI'
p3353
asbag61
(g82
g63
NtRp3354
(dp3355
g66
(dp3356
g93
g94
ssg75
g3345
sg68
(lp3357
S':'
asbag61
(g82
g63
NtRp3358
(dp3359
g66
(dp3360
sg75
g3345
sg68
(lp3361
g61
(g62
g63
NtRp3362
(dp3363
g66
(dp3364
g74
I3
ssg75
g3358
sg68
(lp3365
g1319
asbasbasbag61
(g77
g63
NtRp3366
(dp3367
g66
(dp3368
sg75
g2795
sg68
(lp3369
g61
(g82
g63
NtRp3370
(dp3371
g66
(dp3372
g86
g87
ssg75
g3366
sg68
(lp3373
S'wsgi.errors'
p3374
asbag61
(g82
g63
NtRp3375
(dp3376
g66
(dp3377
g93
g94
ssg75
g3366
sg68
(lp3378
S':'
asbag61
(g82
g63
NtRp3379
(dp3380
g66
(dp3381
sg75
g3366
sg68
(lp3382
g61
(g62
g63
NtRp3383
(dp3384
g66
(dp3385
g74
I3
ssg75
g3379
sg68
(lp3386
S"<open file '<stderr>', mode 'w' at 0x7f24a4c2e270>"
p3387
asbasbasbag61
(g77
g63
NtRp3388
(dp3389
g66
(dp3390
sg75
g2795
sg68
(lp3391
g61
(g82
g63
NtRp3392
(dp3393
g66
(dp3394
g86
g87
ssg75
g3388
sg68
(lp3395
S'wsgi.file_wrapper'
p3396
asbag61
(g82
g63
NtRp3397
(dp3398
g66
(dp3399
g93
g94
ssg75
g3388
sg68
(lp3400
S':'
asbag61
(g82
g63
NtRp3401
(dp3402
g66
(dp3403
sg75
g3388
sg68
(lp3404
g61
(g62
g63
NtRp3405
(dp3406
g66
(dp3407
g74
I3
ssg75
g3401
sg68
(lp3408
S'<class wsgiref.util.FileWrapper at 0x2fb1598>'
p3409
asbasbasbag61
(g77
g63
NtRp3410
(dp3411
g66
(dp3412
sg75
g2795
sg68
(lp3413
g61
(g82
g63
NtRp3414
(dp3415
g66
(dp3416
g86
g87
ssg75
g3410
sg68
(lp3417
S'wsgi.input'
p3418
asbag61
(g82
g63
NtRp3419
(dp3420
g66
(dp3421
g93
g94
ssg75
g3410
sg68
(lp3422
S':'
asbag61
(g82
g63
NtRp3423
(dp3424
g66
(dp3425
sg75
g3410
sg68
(lp3426
g61
(g62
g63
NtRp3427
(dp3428
g66
(dp3429
g74
I3
ssg75
g3423
sg68
(lp3430
S"<open file '<fdopen>', mode 'w+b' at 0x7f2498262b70>"
p3431
asbasbasbag61
(g77
g63
NtRp3432
(dp3433
g66
(dp3434
sg75
g2795
sg68
(lp3435
g61
(g82
g63
NtRp3436
(dp3437
g66
(dp3438
g86
g87
ssg75
g3432
sg68
(lp3439
S'wsgi.multiprocess'
p3440
asbag61
(g82
g63
NtRp3441
(dp3442
g66
(dp3443
g93
g94
ssg75
g3432
sg68
(lp3444
S':'
asbag61
(g82
g63
NtRp3445
(dp3446
g66
(dp3447
sg75
g3432
sg68
(lp3448
g61
(g62
g63
NtRp3449
(dp3450
g66
(dp3451
g74
I3
ssg75
g3445
sg68
(lp3452
g104
asbasbasbag61
(g77
g63
NtRp3453
(dp3454
g66
(dp3455
sg75
g2795
sg68
(lp3456
g61
(g82
g63
NtRp3457
(dp3458
g66
(dp3459
g86
g87
ssg75
g3453
sg68
(lp3460
S'wsgi.multithread'
p3461
asbag61
(g82
g63
NtRp3462
(dp3463
g66
(dp3464
g93
g94
ssg75
g3453
sg68
(lp3465
S':'
asbag61
(g82
g63
NtRp3466
(dp3467
g66
(dp3468
sg75
g3453
sg68
(lp3469
g61
(g62
g63
NtRp3470
(dp3471
g66
(dp3472
g74
I3
ssg75
g3466
sg68
(lp3473
g1774
asbasbasbag61
(g77
g63
NtRp3474
(dp3475
g66
(dp3476
sg75
g2795
sg68
(lp3477
g61
(g82
g63
NtRp3478
(dp3479
g66
(dp3480
g86
g87
ssg75
g3474
sg68
(lp3481
S'wsgi.run_once'
p3482
asbag61
(g82
g63
NtRp3483
(dp3484
g66
(dp3485
g93
g94
ssg75
g3474
sg68
(lp3486
S':'
asbag61
(g82
g63
NtRp3487
(dp3488
g66
(dp3489
sg75
g3474
sg68
(lp3490
g61
(g62
g63
NtRp3491
(dp3492
g66
(dp3493
g74
I3
ssg75
g3487
sg68
(lp3494
g104
asbasbasbag61
(g77
g63
NtRp3495
(dp3496
g66
(dp3497
sg75
g2795
sg68
(lp3498
g61
(g82
g63
NtRp3499
(dp3500
g66
(dp3501
g86
g87
ssg75
g3495
sg68
(lp3502
S'wsgi.url_scheme'
p3503
asbag61
(g82
g63
NtRp3504
(dp3505
g66
(dp3506
g93
g94
ssg75
g3495
sg68
(lp3507
S':'
asbag61
(g82
g63
NtRp3508
(dp3509
g66
(dp3510
sg75
g3495
sg68
(lp3511
g61
(g62
g63
NtRp3512
(dp3513
g66
(dp3514
g74
I3
ssg75
g3508
sg68
(lp3515
g1817
asbasbasbag61
(g77
g63
NtRp3516
(dp3517
g66
(dp3518
sg75
g2795
sg68
(lp3519
g61
(g82
g63
NtRp3520
(dp3521
g66
(dp3522
g86
g87
ssg75
g3516
sg68
(lp3523
S'wsgi.version'
p3524
asbag61
(g82
g63
NtRp3525
(dp3526
g66
(dp3527
g93
g94
ssg75
g3516
sg68
(lp3528
S':'
asbag61
(g82
g63
NtRp3529
(dp3530
g66
(dp3531
sg75
g3516
sg68
(lp3532
g61
(g62
g63
NtRp3533
(dp3534
g66
(dp3535
g74
I3
ssg75
g3529
sg68
(lp3536
S'1'
asbasbasbasbasbasbasbasbasbasbasbasbasbsS'frames'
p3537
(lp3538
(dp3539
S'file'
p3540
S'/var/www/conferencia/gluon/restricted.py'
p3541
sS'dump'
p3542
(dp3543
S'environment'
p3544
S"{'A': <class 'gluon.html.A'>, 'Auth': <class 'gluon.tools.Auth'>, 'B': <class 'gluon.html.B'>, 'BEAUTIFY': <class 'gluon.html.BEAUTIFY'>, 'BODY': <class 'gluon.html.BODY'>, 'BR': <class 'gluon.html.BR'>, 'BUTTON': <class 'gluon.html.BUTTON'>, 'CAT': <class 'gluon.html.CAT'>, 'CENTER': <class 'gluon.html.CENTER'>, 'CLEANUP': <class 'gluon.validators.CLEANUP'>, ...}"
p3545
sS'ccode'
p3546
S'<code object <module> at 0x7f2498387330, file "/...ications/projeto/controllers/initial.py", line 3>'
p3547
ssS'lnum'
p3548
I212
sS'lines'
p3549
(dp3550
I207
S'    try:'
p3551
sI208
S'        if isinstance(code, types.CodeType):'
p3552
sI209
S'            ccode = code'
p3553
sI210
S'        else:'
p3554
sI211
S'            ccode = compile2(code, layer)'
p3555
sI212
S'        exec ccode in environment'
p3556
sI213
S'    except HTTP:'
p3557
sI214
S'        raise'
p3558
sI215
S'    except RestrictedError:'
p3559
sI216
S'        # do not encapsulate (obfuscate) the original RestrictedError'
p3560
ssS'call'
p3561
S"(code='# coding: utf-8\\n\\ndef show_cliente():\\n\\tresponse.t...)\\n\\nresponse._vars=response._caller(show_cliente)\\n', environment={'A': <class 'gluon.html.A'>, 'Auth': <class 'gluon.tools.Auth'>, 'B': <class 'gluon.html.B'>, 'BEAUTIFY': <class 'gluon.html.BEAUTIFY'>, 'BODY': <class 'gluon.html.BODY'>, 'BR': <class 'gluon.html.BR'>, 'BUTTON': <class 'gluon.html.BUTTON'>, 'CAT': <class 'gluon.html.CAT'>, 'CENTER': <class 'gluon.html.CENTER'>, 'CLEANUP': <class 'gluon.validators.CLEANUP'>, ...}, layer='/var/www/conferencia/applications/projeto/controllers/initial.py')"
p3562
sS'func'
p3563
S'restricted'
p3564
sa(dp3565
g3540
S'/var/www/conferencia/applications/projeto/controllers/initial.py'
p3566
sg3542
(dp3567
sg3548
I324
sg3549
(dp3568
I320
S'\t\t\tsubject="host adicionado",'
p3569
sI321
S'\t\t\tmessage="<html>Um novo host foi adicionado pelo usu\xc3\xa1rio %s <br>nome: %s <br>vpn: %s<br><br>\xc3\x89 preciso fazer a instala\xc3\xa7\xc3\xa3o do client zabbix e bacula</html>" % (auth.user.first_name, host.nome, host.ip_chegada,)'
p3570
sI322
S'\t\t\t)'
p3571
sI313
S'\t\t\tto="fndiaz02@gmail.com",'
p3572
sI314
S'\t\t\tsubject="host adicionado",'
p3573
sI315
S'\t\t\tmessage="<html>Um novo host foi adicionado pelo usu\xc3\xa1rio %s <br>nome: %s <br>vpn: %s<br><br>\xc3\x89 preciso fazer a instala\xc3\xa7\xc3\xa3o do client zabbix e bacula</html>" % (auth.user.first_name, host.nome, host.ip_chegada,)'
p3574
sI316
S'\t\t\t)'
p3575
sI317
S"\telif auth.has_membership('internet'):"
p3576
sI318
S'\t\tmail.send('
p3577
sI319
S'\t\t\tto="fernando@ad2.com.br",'
p3578
ssg3561
S'()'
p3579
sg3563
S'<module>'
p3580
sa(dp3581
g3540
S'/var/www/conferencia/gluon/globals.py'
p3582
sg3542
(dp3583
S'self'
p3584
S'undefined'
p3585
sS'f'
S'<function show_cliente>'
p3586
ssg3548
I193
sg3549
(dp3587
I192
S'        self._vars = None'
p3588
sI193
S'        self._caller = lambda f: f()'
p3589
sI194
S'        self._view_environment = None'
p3590
sI195
S'        self._custom_commit = None'
p3591
sI196
S'        self._custom_rollback = None'
p3592
sI197
S''
sI188
S'        self.menu = []             # used by the default view layout'
p3593
sI189
S'        self.files = []            # used by web2py_ajax.html'
p3594
sI190
S'        self.generic_patterns = []  # patterns to allow generic views'
p3595
sI191
S"        self.delimiters = ('{{', '}}')"
p3596
ssg3561
S'(f=<function show_cliente>)'
p3597
sg3563
S'<lambda>'
p3598
sa(dp3599
g3540
S'/var/www/conferencia/applications/projeto/controllers/initial.py'
p3600
sg3542
(dp3601
S'_href'
p3602
g3585
sS'links'
p3603
g3585
sS'f'
g3585
sS'builtinvars'
p3604
S'<built-in function vars>'
p3605
sS'global URL'
p3606
S'<function URL>'
p3607
sS'_class'
p3608
g3585
sS'global A'
p3609
S"<class 'gluon.html.A'>"
p3610
sS'_title'
p3611
g3585
sS'builtindict'
p3612
S"<type 'dict'>"
p3613
sS'row'
p3614
g3585
ssg3548
I14
sg3549
(dp3615
I9
S''
sI10
S'\tgrid = SQLFORM.grid(db.meetme, orderby=db.meetme.endtime,'
p3616
sI11
S'\t\tuser_signature=False, searchable=True, csv=False,'
p3617
sI12
S'\t\tpaginate=50, details=False,'
p3618
sI13
S'\t\tignore_rw = True, maxtextlength=36,'
p3619
sI14
S"\t\tlinks=[lambda row: A('Editar',"
p3620
sI15
S"    \t\t      _class='btn',"
p3621
sI16
S"    \t\t      _title='Editar',"
p3622
sI17
S'    \t\t      _href=URL("initial", "/edit_host",'
p3623
sI18
S'    \t\t      vars=dict(f=row.confno)))]'
p3624
ssg3561
S'()'
p3625
sg3563
S'show_cliente'
p3626
sa(dp3627
g3540
S'/var/www/conferencia/gluon/sqlhtml.py'
p3628
sg3542
(dp3629
S'oncreate'
p3630
S'None'
p3631
sS'onsuccess'
p3632
g3585
ssg3548
I1881
sg3549
(dp3633
I1876
S"                _class='web2py_form',"
p3634
sI1877
S'                **sqlformargs)'
p3635
sI1878
S'            create_form.process(formname=formname,'
p3636
sI1879
S'                                next=referrer,'
p3637
sI1880
S'                                onvalidation=onvalidation,'
p3638
sI1881
S'                                onsuccess=oncreate)'
p3639
sI1882
S'            res = DIV(buttons(), create_form, formfooter, _class=_class)'
p3640
sI1883
S'            res.create_form = create_form'
p3641
sI1884
S'            res.update_form = update_form'
p3642
sI1885
S'            res.view_form = view_form'
p3643
ssg3561
S"(query=<Table meetme (confno,starttime,endtime,membros_user,admin_user,gravacao)>, fields=[<gluon.dal.Field object>, <gluon.dal.Field object>, <gluon.dal.Field object>, <gluon.dal.Field object>, <gluon.dal.Field object>, <gluon.dal.Field object>], field_id=<gluon.dal.Field object>, left=None, headers={}, orderby=<gluon.dal.Field object>, groupby=None, searchable=True, sortable=True, paginate=50, deletable=True, editable=True, details=False, selectable=None, create=True, csv=False, links=[<function <lambda>>], links_in_grid=True, upload=<function <lambda>>, args=[], user_signature=False, maxtextlengths={}, maxtextlength=36, onvalidation=None, oncreate=None, onupdate=None, ondelete=None, sorter_icons=(<gluon.html.XML object>, <gluon.html.XML object>), ui={'button': 'button btn', 'buttonadd': 'icon plus icon-plus', 'buttonback': 'icon leftarrow icon-arrow-left', 'buttondelete': 'icon trash icon-trash', 'buttonedit': 'icon pen icon-pencil', 'buttonexport': 'icon downarrow icon-download', 'buttontable': 'icon rightarrow icon-arrow-right', 'buttontext': 'buttontext button', 'buttonview': 'icon magnifier icon-zoom-in', 'content': '', ...}, showbuttontext=True, _class='web2py_grid', formname='web2py_grid', search_widget='default', ignore_rw=True, formstyle='table3cols', exportclasses=None, formargs={}, createargs={}, editargs={}, viewargs={}, buttons_placement='right', links_placement='right')"
p3644
sg3563
S'grid'
p3645
sa(dp3646
g3540
S'/var/www/conferencia/gluon/html.py'
p3647
sg3542
(dp3648
S'self'
p3649
S'<gluon.sqlhtml.SQLFORM object>'
p3650
sS'self.validate'
p3651
S'<bound method SQLFORM.validate of <gluon.sqlhtml.SQLFORM object>>'
p3652
sS'kwargs'
p3653
S"{'dbio': True, 'formname': 'web2py_grid', 'next': '/show_cliente', 'onsuccess': None, 'onvalidation': None}"
p3654
ssg3548
I2179
sg3549
(dp3655
I2176
S'        """'
p3656
sI2177
S"        kwargs['dbio'] = kwargs.get('dbio', True)"
p3657
sI2178
S'                                    # necessary for SQLHTML forms'
p3658
sI2179
S'        self.validate(**kwargs)'
p3659
sI2180
S'        return self'
p3660
sI2181
S''
sI2182
S'    REDIRECT_JS = "window.location=\'%s\';return false"'
p3661
sI2183
S''
sI2174
S'        def action():'
p3662
sI2175
S'            return dict(form=SQLFORM(db.table).process(onsuccess=my_callback)'
p3663
ssg3561
S"(self=<gluon.sqlhtml.SQLFORM object>, **kwargs={'dbio': True, 'formname': 'web2py_grid', 'next': '/show_cliente', 'onsuccess': None, 'onvalidation': None})"
p3664
sg3563
S'process'
p3665
sa(dp3666
g3540
S'/var/www/conferencia/gluon/html.py'
p3667
sg3542
(dp3668
S'self'
p3669
S'<gluon.sqlhtml.SQLFORM object>'
p3670
sS'self.accepts'
p3671
S'<bound method SQLFORM.accepts of <gluon.sqlhtml.SQLFORM object>>'
p3672
sS'kwargs'
p3673
S"{'dbio': True, 'formname': 'web2py_grid', 'onvalidation': None, 'request_vars': <Storage {'admin_user': '2', 'starttime': '2013-...013-04-04 15:27:08', '_formname': 'web2py_grid'}>, 'session': <Storage {'_formkey[web2py_grid]': '4f63a35c-c6a... {'version': '22.0.1229.94', 'name': 'Chrome'}}}>}"
p3674
ssg3548
I2118
sg3549
(dp3675
I2113
S"        for key in ('message_onsuccess', 'message_onfailure', 'onsuccess',"
p3676
sI2114
S"                    'onfailure', 'next', 'message_onchange', 'onchange'):"
p3677
sI2115
S'            if key in kwargs:'
p3678
sI2116
S'                del kwargs[key]'
p3679
sI2117
S''
sI2118
S'        if self.accepts(**kwargs):'
p3680
sI2119
S"            if onsuccess == 'flash':"
p3681
sI2120
S'                if next:'
p3682
sI2121
S'                    current.session.flash = message_onsuccess'
p3683
sI2122
S'                else:'
p3684
ssg3561
S"(self=<gluon.sqlhtml.SQLFORM object>, **kwargs={'dbio': True, 'formname': 'web2py_grid', 'onvalidation': None, 'request_vars': <Storage {'admin_user': '2', 'starttime': '2013-...013-04-04 15:27:08', '_formname': 'web2py_grid'}>, 'session': <Storage {'_formkey[web2py_grid]': '4f63a35c-c6a... {'version': '22.0.1229.94', 'name': 'Chrome'}}}>})"
p3685
sg3563
S'validate'
p3686
sa(dp3687
g3540
S'/var/www/conferencia/gluon/sqlhtml.py'
p3688
sg3542
(dp3689
S'self.vars.id'
p3690
S'None'
p3691
sS'fields'
p3692
S"{'admin_user': ['2'], 'endtime': datetime.datetime(2013, 4, 4, 15, 27, 8), 'gravacao': False, 'membros_user': ['2', '1'], 'starttime': datetime.datetime(2013, 4, 3, 15, 27, 6)}"
p3693
sS'self'
p3694
S'<gluon.sqlhtml.SQLFORM object>'
p3695
sS'self.vars'
p3696
S"<Storage {'membros_user': ['2', '1'], 'endtime':...ime(2013, 4, 3, 15, 27, 6), 'admin_user': ['2']}>"
p3697
sS'self.table.insert'
p3698
S'<bound method Table.insert of <Table meetme (con...ttime,endtime,membros_user,admin_user,gravacao)>>'
p3699
sS'self.table'
p3700
S'<Table meetme (confno,starttime,endtime,membros_user,admin_user,gravacao)>'
p3701
ssg3548
I1486
sg3549
(dp3702
I1481
S'                    self.vars.id = self.record[self.id_field_name]'
p3703
sI1482
S'                    if fields:'
p3704
sI1483
S'                        self.table._db(self.table._id == self.record['
p3705
sI1484
S'                                       self.id_field_name]).update(**fields)'
p3706
sI1485
S'                else:'
p3707
sI1486
S'                    self.vars.id = self.table.insert(**fields)'
p3708
sI1487
S'        self.accepted = ret'
p3709
sI1488
S'        return ret'
p3710
sI1489
S''
sI1490
S'    AUTOTYPES = {'
p3711
ssg3561
S"(self=<gluon.sqlhtml.SQLFORM object>, request_vars=<Storage {'admin_user': '2', 'starttime': '2013-...013-04-04 15:27:08', '_formname': 'web2py_grid'}>, session=<Storage {'_formkey[web2py_grid]': '4f63a35c-c6a... {'version': '22.0.1229.94', 'name': 'Chrome'}}}>, formname='web2py_grid', keepvalues=False, onvalidation=None, dbio=True, hideerror=False, detect_record_change=False, **kwargs={})"
p3712
sg3563
S'accepts'
p3713
sa(dp3714
g3540
S'/var/www/conferencia/gluon/dal.py'
p3715
sg3542
(dp3716
S'self._listify'
p3717
S'<bound method Table._listify of <Table meetme (c...ttime,endtime,membros_user,admin_user,gravacao)>>'
p3718
sS'fields'
p3719
S"{'admin_user': ['2'], 'endtime': datetime.datetime(2013, 4, 4, 15, 27, 8), 'gravacao': False, 'membros_user': ['2', '1'], 'starttime': datetime.datetime(2013, 4, 3, 15, 27, 6)}"
p3720
sS'self'
p3721
S'<Table meetme (confno,starttime,endtime,membros_user,admin_user,gravacao)>'
p3722
sS'ret'
p3723
g3585
sS'self._db._adapter'
p3724
S'<gluon.dal.PostgreSQLAdapter object>'
p3725
sS'self._db._adapter.insert'
p3726
S'<bound method PostgreSQLAdapter.insert of <gluon.dal.PostgreSQLAdapter object>>'
p3727
sS'self._db'
p3728
S'<DAL uri="postgres:pg8000://******:123456@127.0.0.1/conferencia">'
p3729
ssg3548
I7918
sg3549
(dp3730
I7913
S'        return self._db._adapter._insert(self,self._listify(fields))'
p3731
sI7914
S''
sI7915
S'    def insert(self, **fields):'
p3732
sI7916
S'        self._attempt_upload(fields)'
p3733
sI7917
S'        if any(f(fields) for f in self._before_insert): return 0'
p3734
sI7918
S'        ret =  self._db._adapter.insert(self,self._listify(fields))'
p3735
sI7919
S'        if ret and self._after_insert:'
p3736
sI7920
S'            fields = Row(fields)'
p3737
sI7921
S'            [f(fields,ret) for f in self._after_insert]'
p3738
sI7922
S'        return ret'
p3739
ssg3561
S"(self=<Table meetme (confno,starttime,endtime,membros_user,admin_user,gravacao)>, **fields={'admin_user': ['2'], 'endtime': datetime.datetime(2013, 4, 4, 15, 27, 8), 'gravacao': False, 'membros_user': ['2', '1'], 'starttime': datetime.datetime(2013, 4, 3, 15, 27, 6)})"
p3740
sg3563
S'insert'
p3741
sa(dp3742
g3540
S'/var/www/conferencia/gluon/dal.py'
p3743
sg3542
(dp3744
S'self.lastrowid'
p3745
S'<bound method PostgreSQLAdapter.lastrowid of <gluon.dal.PostgreSQLAdapter object>>'
p3746
sS'self'
p3747
S'<gluon.dal.PostgreSQLAdapter object>'
p3748
sS'table'
p3749
S'<Table meetme (confno,starttime,endtime,membros_user,admin_user,gravacao)>'
p3750
sS'builtinid'
p3751
S'<built-in function id>'
p3752
ssg3548
I1180
sg3549
(dp3753
I1184
S'        (rid._table, rid._record) = (table, None)'
p3754
sI1175
S'                return None'
p3755
sI1176
S'            raise e'
p3756
sI1177
S"        if hasattr(table,'_primarykey'):"
p3757
sI1178
S'            return dict([(k[0].name, k[1]) for k in fields \\'
p3758
sI1179
S'                             if k[0].name in table._primarykey])'
p3759
sI1180
S'        id = self.lastrowid(table)'
p3760
sI1181
S'        if not isinstance(id,int):'
p3761
sI1182
S'            return id'
p3762
sI1183
S'        rid = Reference(id)'
p3763
ssg3561
S"(self=<gluon.dal.PostgreSQLAdapter object>, table=<Table meetme (confno,starttime,endtime,membros_user,admin_user,gravacao)>, fields=[(<gluon.dal.Field object>, ['2', '1']), (<gluon.dal.Field object>, datetime.datetime(2013, 4, 4, 15, 27, 8)), (<gluon.dal.Field object>, False), (<gluon.dal.Field object>, datetime.datetime(2013, 4, 3, 15, 27, 6)), (<gluon.dal.Field object>, ['2'])])"
p3764
sg3563
g3741
sa(dp3765
g3540
S'/var/www/conferencia/gluon/dal.py'
p3766
sg3542
(dp3767
S'table._sequence_name'
p3768
S"'meetme_id_Seq'"
p3769
sS'table'
p3770
S'<Table meetme (confno,starttime,endtime,membros_user,admin_user,gravacao)>'
p3771
sS'self'
p3772
S'<gluon.dal.PostgreSQLAdapter object>'
p3773
sS'self.execute'
p3774
S'<bound method PostgreSQLAdapter.execute of <gluon.dal.PostgreSQLAdapter object>>'
p3775
ssg3548
I2537
sg3549
(dp3776
I2532
S'    def after_connection(self):'
p3777
sI2533
S"        self.connection.set_client_encoding('UTF8')"
p3778
sI2534
S'        self.execute("SET standard_conforming_strings=on;")'
p3779
sI2535
S''
sI2536
S'    def lastrowid(self,table):'
p3780
sI2537
S'        self.execute("select currval(\'%s\')" % table._sequence_name)'
p3781
sI2538
S'        return int(self.cursor.fetchone()[0])'
p3782
sI2539
S''
sI2540
S''
sI2541
S'    def LIKE(self,first,second):'
p3783
ssg3561
S'(self=<gluon.dal.PostgreSQLAdapter object>, table=<Table meetme (confno,starttime,endtime,membros_user,admin_user,gravacao)>)'
p3784
sg3563
S'lastrowid'
p3785
sa(dp3786
g3540
S'/var/www/conferencia/gluon/dal.py'
p3787
sg3542
(dp3788
S'a'
S'("select currval(\'meetme_id_Seq\')",)'
p3789
sS'self'
p3790
S'<gluon.dal.PostgreSQLAdapter object>'
p3791
sS'b'
g21
sS'self.log_execute'
p3792
S'<bound method PostgreSQLAdapter.log_execute of <gluon.dal.PostgreSQLAdapter object>>'
p3793
ssg3548
I1709
sg3549
(dp3794
I1704
S'        self.db._timings.append((command,time.time()-t0))'
p3795
sI1705
S'        del self.db._timings[:-TIMINGSSIZE]'
p3796
sI1706
S'        return ret'
p3797
sI1707
S''
sI1708
S'    def execute(self, *a, **b):'
p3798
sI1709
S'        return self.log_execute(*a, **b)'
p3799
sI1710
S''
sI1711
S'    def represent(self, obj, fieldtype):'
p3800
sI1712
S'        field_is_type = fieldtype.startswith'
p3801
sI1713
S'        if isinstance(obj, CALLABLETYPES):'
p3802
ssg3561
S'(self=<gluon.dal.PostgreSQLAdapter object>, *a=("select currval(\'meetme_id_Seq\')",), **b={})'
p3803
sg3563
S'execute'
p3804
sa(dp3805
g3540
S'/var/www/conferencia/gluon/dal.py'
p3806
sg3542
(dp3807
S'a'
S'("select currval(\'meetme_id_Seq\')",)'
p3808
sS'b'
g21
sS'self'
p3809
S'<gluon.dal.PostgreSQLAdapter object>'
p3810
sS'ret'
p3811
g3585
sS'self.cursor'
p3812
S'<gluon.contrib.pg8000.dbapi.CursorWrapper object>'
p3813
sS'self.cursor.execute'
p3814
S'<bound method CursorWrapper._fn of <gluon.contrib.pg8000.dbapi.CursorWrapper object>>'
p3815
ssg3548
I1703
sg3549
(dp3816
I1698
S'        command = a[0]'
p3817
sI1699
S'        if self.db._debug:'
p3818
sI1700
S"            LOGGER.debug('SQL: %s' % command)"
p3819
sI1701
S'        self.db._lastsql = command'
p3820
sI1702
S'        t0 = time.time()'
p3821
sI1703
S'        ret = self.cursor.execute(*a, **b)'
p3822
sI1704
S'        self.db._timings.append((command,time.time()-t0))'
p3823
sI1705
S'        del self.db._timings[:-TIMINGSSIZE]'
p3824
sI1706
S'        return ret'
p3825
sI1707
S''
ssg3561
S'(self=<gluon.dal.PostgreSQLAdapter object>, *a=("select currval(\'meetme_id_Seq\')",), **b={})'
p3826
sg3563
S'log_execute'
p3827
sa(dp3828
g3540
S'/var/www/conferencia/gluon/contrib/pg8000/dbapi.py'
p3829
sg3542
(dp3830
S'self'
p3831
S'<gluon.contrib.pg8000.dbapi.CursorWrapper object>'
p3832
sS'args'
p3833
S'("select currval(\'meetme_id_Seq\')",)'
p3834
sS'fn'
p3835
S'<function execute>'
p3836
sS'kwargs'
p3837
g21
ssg3548
I246
sg3549
(dp3838
I241
S''
sI242
S'def require_open_cursor(fn):'
p3839
sI243
S'    def _fn(self, *args, **kwargs):'
p3840
sI244
S'        if self.cursor == None:'
p3841
sI245
S'            raise CursorClosedError()'
p3842
sI246
S'        return fn(self, *args, **kwargs)'
p3843
sI247
S'    return _fn'
p3844
sI248
S''
sI249
S'##'
p3845
sI250
S'# The class of object returned by the {@link #ConnectionWrapper.cursor cursor method}.'
p3846
ssg3561
S'(self=<gluon.contrib.pg8000.dbapi.CursorWrapper object>, *args=("select currval(\'meetme_id_Seq\')",), **kwargs={})'
p3847
sg3563
S'_fn'
p3848
sa(dp3849
g3540
S'/var/www/conferencia/gluon/contrib/pg8000/dbapi.py'
p3850
sg3542
(dp3851
S'self._execute'
p3852
S'<bound method CursorWrapper._execute of <gluon.contrib.pg8000.dbapi.CursorWrapper object>>'
p3853
sS'self'
p3854
S'<gluon.contrib.pg8000.dbapi.CursorWrapper object>'
p3855
sS'args'
p3856
S'()'
p3857
sS'operation'
p3858
S'"select currval(\'meetme_id_Seq\')"'
p3859
ssg3548
I317
sg3549
(dp3860
I320
S'        new_query, new_args = convert_paramstyle(paramstyle, operation, args)'
p3861
sI321
S'        try:'
p3862
sI312
S'    @require_open_cursor'
p3863
sI313
S'    def execute(self, operation, args=()):'
p3864
sI314
S'        if not self._connection.in_transaction:'
p3865
sI315
S'            self._connection.begin()'
p3866
sI316
S'        self._override_rowcount = None'
p3867
sI317
S'        self._execute(operation, args)'
p3868
sI318
S''
sI319
S'    def _execute(self, operation, args=()):'
p3869
ssg3561
S'(self=<gluon.contrib.pg8000.dbapi.CursorWrapper object>, operation="select currval(\'meetme_id_Seq\')", args=())'
p3870
sg3563
g3804
sa(dp3871
g3540
S'/var/www/conferencia/gluon/contrib/pg8000/dbapi.py'
p3872
sg3542
(dp3873
S'new_args'
p3874
S'()'
p3875
sS'self.cursor'
p3876
S'<gluon.contrib.pg8000.interface.Cursor object>'
p3877
sS'self'
p3878
S'<gluon.contrib.pg8000.dbapi.CursorWrapper object>'
p3879
sS'new_query'
p3880
S'"select currval(\'meetme_id_Seq\')"'
p3881
sS'self.cursor.execute'
p3882
S'<bound method Cursor.execute of <gluon.contrib.pg8000.interface.Cursor object>>'
p3883
ssg3548
I322
sg3549
(dp3884
I320
S'        new_query, new_args = convert_paramstyle(paramstyle, operation, args)'
p3885
sI321
S'        try:'
p3886
sI322
S'            self.cursor.execute(new_query, *new_args)'
p3887
sI323
S'        except ConnectionClosedError:'
p3888
sI324
S"            # can't rollback in this case"
p3889
sI325
S'            raise'
p3890
sI326
S'        except:'
p3891
sI317
S'        self._execute(operation, args)'
p3892
sI318
S''
sI319
S'    def _execute(self, operation, args=()):'
p3893
ssg3561
S'(self=<gluon.contrib.pg8000.dbapi.CursorWrapper object>, operation="select currval(\'meetme_id_Seq\')", args=())'
p3894
sg3563
S'_execute'
p3895
sa(dp3896
g3540
S'/var/www/conferencia/gluon/contrib/pg8000/interface.py'
p3897
sg3542
(dp3898
S'x'
g3585
sS'args'
p3899
S'()'
p3900
sS'builtintype'
p3901
S"<type 'type'>"
p3902
sS'self._stmt'
p3903
S'<gluon.contrib.pg8000.interface.PreparedStatement object>'
p3904
sS'self'
p3905
S'<gluon.contrib.pg8000.interface.Cursor object>'
p3906
sS'self.connection'
p3907
S'<gluon.contrib.pg8000.interface.Connection object>'
p3908
sS'global PreparedStatement'
p3909
S"<class 'gluon.contrib.pg8000.interface.PreparedStatement'>"
p3910
sS'statement_name'
p3911
g3585
sS'query'
p3912
S'"select currval(\'meetme_id_Seq\')"'
p3913
ssg3548
I398
sg3549
(dp3914
I393
S'                # use PostgreSQL Simple Query Protocol'
p3915
sI394
S'                ## print "SimpleQuery:", query'
p3916
sI395
S'                self._stmt = SimpleStatement(self.connection, query)'
p3917
sI396
S'            else:'
p3918
sI397
S'                # use PostgreSQL Extended Query Protocol'
p3919
sI398
S'                self._stmt = PreparedStatement(self.connection, query, statement_name="", *[{"type": type(x), "value": x} for x in args])'
p3920
sI399
S'            self._stmt.execute(*args, **kwargs)'
p3921
sI400
S'        finally:'
p3922
sI401
S'            self.connection._unnamed_prepared_statement_lock.release()'
p3923
sI402
S''
ssg3561
S'(self=<gluon.contrib.pg8000.interface.Cursor object>, query="select currval(\'meetme_id_Seq\')", *args=(), **kwargs={})'
p3924
sg3563
g3804
sa(dp3925
g3540
S'/var/www/conferencia/gluon/contrib/pg8000/interface.py'
p3926
sg3542
(dp3927
S'self.c'
p3928
S'<gluon.contrib.pg8000.protocol.Connection object>'
p3929
sS'self'
p3930
S'<gluon.contrib.pg8000.interface.PreparedStatement object>'
p3931
sS'self.c.parse'
p3932
S'<bound method Connection._fn of <gluon.contrib.pg8000.protocol.Connection object>>'
p3933
sS'self._statement_name'
p3934
S"''"
p3935
sS'self._parse_row_desc'
p3936
g3585
sS'statement'
p3937
S'"select currval(\'meetme_id_Seq\')"'
p3938
sS'types'
p3939
S'()'
p3940
ssg3548
I138
sg3549
(dp3941
I133
S'        self._statement_name = kwargs.get("statement_name", "pg8000_statement_%s" % self._statement_number)'
p3942
sI134
S'        self._row_desc = None'
p3943
sI135
S'        self._cached_rows = []'
p3944
sI136
S'        self._ongoing_row_count = 0'
p3945
sI137
S'        self._command_complete = True'
p3946
sI138
S'        self._parse_row_desc = self.c.parse(self._statement_name, statement, types)'
p3947
sI139
S'        self._lock = threading.RLock()'
p3948
sI140
S''
sI141
S'    def close(self):'
p3949
sI142
S'        if self._statement_name != "": # don\'t close unnamed statement'
p3950
ssg3561
S'(self=<gluon.contrib.pg8000.interface.PreparedStatement object>, connection=<gluon.contrib.pg8000.interface.Connection object>, statement="select currval(\'meetme_id_Seq\')", *types=(), **kwargs={\'statement_name\': \'\'})'
p3951
sg3563
g26
sa(dp3952
g3540
S'/var/www/conferencia/gluon/contrib/pg8000/protocol.py'
p3953
sg3542
(dp3954
S'self'
p3955
S'<gluon.contrib.pg8000.protocol.Connection object>'
p3956
sS'args'
p3957
S'(\'\', "select currval(\'meetme_id_Seq\')", ())'
p3958
sS'fn'
p3959
S'<function parse>'
p3960
sS'kwargs'
p3961
g21
ssg3548
I943
sg3549
(dp3962
I938
S''
sI939
S'def sync_on_error(fn):'
p3963
sI940
S'    def _fn(self, *args, **kwargs):'
p3964
sI941
S'        try:'
p3965
sI942
S'            self._sock_lock.acquire()'
p3966
sI943
S'            return fn(self, *args, **kwargs)'
p3967
sI944
S'        except:'
p3968
sI945
S'            self._sync()'
p3969
sI946
S'            raise'
p3970
sI947
S'        finally:'
p3971
ssg3561
S'(self=<gluon.contrib.pg8000.protocol.Connection object>, *args=(\'\', "select currval(\'meetme_id_Seq\')", ()), **kwargs={})'
p3972
sg3563
g3848
sa(dp3973
g3540
S'/var/www/conferencia/gluon/contrib/pg8000/protocol.py'
p3974
sg3542
(dp3975
S'reader.handle_messages'
p3976
S'<bound method MessageReader.handle_messages of <gluon.contrib.pg8000.protocol.MessageReader object>>'
p3977
sS'reader'
p3978
S'<gluon.contrib.pg8000.protocol.MessageReader object>'
p3979
ssg3548
I1104
sg3549
(dp3980
I1099
S'        reader.add_message(NoData, lambda msg: (None, param_fc))'
p3981
sI1100
S''
sI1101
S'        # Common row description response'
p3982
sI1102
S'        reader.add_message(RowDescription, lambda msg: (msg, param_fc))'
p3983
sI1103
S''
sI1104
S'        return reader.handle_messages()'
p3984
sI1105
S''
sI1106
S'    @sync_on_error'
p3985
sI1107
S'    def bind(self, portal, statement, params, parse_data, copy_stream):'
p3986
sI1108
S'        self.verifyState("ready")'
p3987
ssg3561
S'(self=<gluon.contrib.pg8000.protocol.Connection object>, statement=\'\', qs="select currval(\'meetme_id_Seq\')", param_types=[])'
p3988
sg3563
S'parse'
p3989
sa(dp3990
g3540
S'/var/www/conferencia/gluon/contrib/pg8000/protocol.py'
p3991
sg3542
(dp3992
S'exc'
p3993
S'ProgrammingError(\'ERROR\', \'42P01\', \'relation "meetme_id_seq" does not exist\')'
p3994
ssg3548
I929
sg3549
(dp3995
I928
S'                if not self.delay_raising_exception:'
p3996
sI929
S'                    raise exc'
p3997
sI930
S'            elif isinstance(msg, NoticeResponse):'
p3998
sI931
S'                self._conn.handleNoticeResponse(msg)'
p3999
sI932
S'            elif isinstance(msg, ParameterStatus):'
p4000
sI933
S'                self._conn.handleParameterStatus(msg)'
p4001
sI924
S'            if msg_handled:'
p4002
sI925
S'                continue'
p4003
sI926
S'            elif isinstance(msg, ErrorResponse):'
p4004
sI927
S'                exc = msg.createException()'
p4005
ssg3561
S'(self=<gluon.contrib.pg8000.protocol.MessageReader object>)'
p4006
sg3563
S'handle_messages'
p4007
sasS'pyver'
p4008
S'Python 2.7.3: /usr/bin/python'
p4009
sS'session'
p4010
g61
(g62
g63
NtRp4011
(dp4012
g66
(dp4013
sg68
(lp4014
g61
(g70
g63
NtRp4015
(dp4016
g66
(dp4017
g74
I5
ssg75
Nsg68
(lp4018
sbasbsS'etype'
p4019
S"<class 'gluon.contrib.pg8000.errors.ProgrammingError'>"
p4020
sS'date'
p4021
S'Wed Apr  3 15:27:14 2013'
p4022
sS'response'
p4023
g61
(g62
g63
NtRp4024
(dp4025
g66
(dp4026
sg68
(lp4027
g61
(g70
g63
NtRp4028
(dp4029
g66
(dp4030
g74
I5
ssg75
Nsg68
(lp4031
g61
(g77
g63
NtRp4032
(dp4033
g66
(dp4034
sg75
g4028
sg68
(lp4035
g61
(g82
g63
NtRp4036
(dp4037
g66
(dp4038
g86
g87
ssg75
g4032
sg68
(lp4039
g185
asbag61
(g82
g63
NtRp4040
(dp4041
g66
(dp4042
g93
g94
ssg75
g4032
sg68
(lp4043
S':'
asbag61
(g82
g63
NtRp4044
(dp4045
g66
(dp4046
sg75
g4032
sg68
(lp4047
g61
(g62
g63
NtRp4048
(dp4049
g66
(dp4050
g74
I5
ssg75
g4044
sg68
(lp4051
S'<cStringIO.StringO object at 0x7f2498259ce0>'
p4052
asbasbasbag61
(g77
g63
NtRp4053
(dp4054
g66
(dp4055
sg75
g4028
sg68
(lp4056
g61
(g82
g63
NtRp4057
(dp4058
g66
(dp4059
g86
g87
ssg75
g4053
sg68
(lp4060
g273
asbag61
(g82
g63
NtRp4061
(dp4062
g66
(dp4063
g93
g94
ssg75
g4053
sg68
(lp4064
S':'
asbag61
(g82
g63
NtRp4065
(dp4066
g66
(dp4067
sg75
g4053
sg68
(lp4068
g61
(g62
g63
NtRp4069
(dp4070
g66
(dp4071
g74
I5
ssg75
g4065
sg68
(lp4072
g61
(g70
g63
NtRp4073
(dp4074
g66
(dp4075
g74
I4
ssg75
Nsg68
(lp4076
g61
(g77
g63
NtRp4077
(dp4078
g66
(dp4079
sg75
g4073
sg68
(lp4080
g61
(g82
g63
NtRp4081
(dp4082
g66
(dp4083
g86
g87
ssg75
g4077
sg68
(lp4084
S'session_id_projeto'
p4085
asbag61
(g82
g63
NtRp4086
(dp4087
g66
(dp4088
g93
g94
ssg75
g4077
sg68
(lp4089
S':'
asbag61
(g82
g63
NtRp4090
(dp4091
g66
(dp4092
sg75
g4077
sg68
(lp4093
g61
(g62
g63
NtRp4094
(dp4095
g66
(dp4096
g74
I4
ssg75
g4090
sg68
(lp4097
g505
ag61
(g70
g63
NtRp4098
(dp4099
g66
(dp4100
g74
I3
ssg75
Nsg68
(lp4101
g61
(g77
g63
NtRp4102
(dp4103
g66
(dp4104
sg75
g4098
sg68
(lp4105
g61
(g82
g63
NtRp4106
(dp4107
g66
(dp4108
g86
g87
ssg75
g4102
sg68
(lp4109
g324
asbag61
(g82
g63
NtRp4110
(dp4111
g66
(dp4112
g93
g94
ssg75
g4102
sg68
(lp4113
S':'
asbag61
(g82
g63
NtRp4114
(dp4115
g66
(dp4116
sg75
g4102
sg68
(lp4117
g61
(g62
g63
NtRp4118
(dp4119
g66
(dp4120
g74
I3
ssg75
g4114
sg68
(lp4121
S''
asbasbasbag61
(g77
g63
NtRp4122
(dp4123
g66
(dp4124
sg75
g4098
sg68
(lp4125
g61
(g82
g63
NtRp4126
(dp4127
g66
(dp4128
g86
g87
ssg75
g4122
sg68
(lp4129
g345
asbag61
(g82
g63
NtRp4130
(dp4131
g66
(dp4132
g93
g94
ssg75
g4122
sg68
(lp4133
S':'
asbag61
(g82
g63
NtRp4134
(dp4135
g66
(dp4136
sg75
g4122
sg68
(lp4137
g61
(g62
g63
NtRp4138
(dp4139
g66
(dp4140
g74
I3
ssg75
g4134
sg68
(lp4141
S''
asbasbasbag61
(g77
g63
NtRp4142
(dp4143
g66
(dp4144
sg75
g4098
sg68
(lp4145
g61
(g82
g63
NtRp4146
(dp4147
g66
(dp4148
g86
g87
ssg75
g4142
sg68
(lp4149
g366
asbag61
(g82
g63
NtRp4150
(dp4151
g66
(dp4152
g93
g94
ssg75
g4142
sg68
(lp4153
S':'
asbag61
(g82
g63
NtRp4154
(dp4155
g66
(dp4156
sg75
g4142
sg68
(lp4157
g61
(g62
g63
NtRp4158
(dp4159
g66
(dp4160
g74
I3
ssg75
g4154
sg68
(lp4161
S''
asbasbasbag61
(g77
g63
NtRp4162
(dp4163
g66
(dp4164
sg75
g4098
sg68
(lp4165
g61
(g82
g63
NtRp4166
(dp4167
g66
(dp4168
g86
g87
ssg75
g4162
sg68
(lp4169
g387
asbag61
(g82
g63
NtRp4170
(dp4171
g66
(dp4172
g93
g94
ssg75
g4162
sg68
(lp4173
S':'
asbag61
(g82
g63
NtRp4174
(dp4175
g66
(dp4176
sg75
g4162
sg68
(lp4177
g61
(g62
g63
NtRp4178
(dp4179
g66
(dp4180
g74
I3
ssg75
g4174
sg68
(lp4181
S''
asbasbasbag61
(g77
g63
NtRp4182
(dp4183
g66
(dp4184
sg75
g4098
sg68
(lp4185
g61
(g82
g63
NtRp4186
(dp4187
g66
(dp4188
g86
g87
ssg75
g4182
sg68
(lp4189
g408
asbag61
(g82
g63
NtRp4190
(dp4191
g66
(dp4192
g93
g94
ssg75
g4182
sg68
(lp4193
S':'
asbag61
(g82
g63
NtRp4194
(dp4195
g66
(dp4196
sg75
g4182
sg68
(lp4197
g61
(g62
g63
NtRp4198
(dp4199
g66
(dp4200
g74
I3
ssg75
g4194
sg68
(lp4201
S''
asbasbasbag61
(g77
g63
NtRp4202
(dp4203
g66
(dp4204
sg75
g4098
sg68
(lp4205
g61
(g82
g63
NtRp4206
(dp4207
g66
(dp4208
g86
g87
ssg75
g4202
sg68
(lp4209
g429
asbag61
(g82
g63
NtRp4210
(dp4211
g66
(dp4212
g93
g94
ssg75
g4202
sg68
(lp4213
S':'
asbag61
(g82
g63
NtRp4214
(dp4215
g66
(dp4216
sg75
g4202
sg68
(lp4217
g61
(g62
g63
NtRp4218
(dp4219
g66
(dp4220
g74
I3
ssg75
g4214
sg68
(lp4221
S'/'
asbasbasbag61
(g77
g63
NtRp4222
(dp4223
g66
(dp4224
sg75
g4098
sg68
(lp4225
g61
(g82
g63
NtRp4226
(dp4227
g66
(dp4228
g86
g87
ssg75
g4222
sg68
(lp4229
g450
asbag61
(g82
g63
NtRp4230
(dp4231
g66
(dp4232
g93
g94
ssg75
g4222
sg68
(lp4233
S':'
asbag61
(g82
g63
NtRp4234
(dp4235
g66
(dp4236
sg75
g4222
sg68
(lp4237
g61
(g62
g63
NtRp4238
(dp4239
g66
(dp4240
g74
I3
ssg75
g4234
sg68
(lp4241
S''
asbasbasbag61
(g77
g63
NtRp4242
(dp4243
g66
(dp4244
sg75
g4098
sg68
(lp4245
g61
(g82
g63
NtRp4246
(dp4247
g66
(dp4248
g86
g87
ssg75
g4242
sg68
(lp4249
g471
asbag61
(g82
g63
NtRp4250
(dp4251
g66
(dp4252
g93
g94
ssg75
g4242
sg68
(lp4253
S':'
asbag61
(g82
g63
NtRp4254
(dp4255
g66
(dp4256
sg75
g4242
sg68
(lp4257
g61
(g62
g63
NtRp4258
(dp4259
g66
(dp4260
g74
I3
ssg75
g4254
sg68
(lp4261
S''
asbasbasbasbasbasbasbasbasbasbasbag61
(g77
g63
NtRp4262
(dp4263
g66
(dp4264
sg75
g4028
sg68
(lp4265
g61
(g82
g63
NtRp4266
(dp4267
g66
(dp4268
g86
g87
ssg75
g4262
sg68
(lp4269
S'delimiters'
p4270
asbag61
(g82
g63
NtRp4271
(dp4272
g66
(dp4273
g93
g94
ssg75
g4262
sg68
(lp4274
S':'
asbag61
(g82
g63
NtRp4275
(dp4276
g66
(dp4277
sg75
g4262
sg68
(lp4278
g61
(g62
g63
NtRp4279
(dp4280
g66
(dp4281
g74
I5
ssg75
g4275
sg68
(lp4282
g61
(g70
g63
NtRp4283
(dp4284
g66
(dp4285
g74
I4
ssg75
Nsg68
(lp4286
g61
(g77
g63
NtRp4287
(dp4288
g66
(dp4289
sg75
g4283
sg68
(lp4290
g61
(g82
g63
NtRp4291
(dp4292
g66
(dp4293
sg75
g4287
sg68
(lp4294
g61
(g62
g63
NtRp4295
(dp4296
g66
(dp4297
g74
I4
ssg75
g4291
sg68
(lp4298
S'{{'
p4299
asbasbasbag61
(g77
g63
NtRp4300
(dp4301
g66
(dp4302
sg75
g4283
sg68
(lp4303
g61
(g82
g63
NtRp4304
(dp4305
g66
(dp4306
sg75
g4300
sg68
(lp4307
g61
(g62
g63
NtRp4308
(dp4309
g66
(dp4310
g74
I4
ssg75
g4304
sg68
(lp4311
S'}}'
p4312
asbasbasbasbasbasbasbag61
(g77
g63
NtRp4313
(dp4314
g66
(dp4315
sg75
g4028
sg68
(lp4316
g61
(g82
g63
NtRp4317
(dp4318
g66
(dp4319
g86
g87
ssg75
g4313
sg68
(lp4320
S'files'
p4321
asbag61
(g82
g63
NtRp4322
(dp4323
g66
(dp4324
g93
g94
ssg75
g4313
sg68
(lp4325
S':'
asbag61
(g82
g63
NtRp4326
(dp4327
g66
(dp4328
sg75
g4313
sg68
(lp4329
g61
(g62
g63
NtRp4330
(dp4331
g66
(dp4332
g74
I5
ssg75
g4326
sg68
(lp4333
g61
(g70
g63
NtRp4334
(dp4335
g66
(dp4336
g74
I4
ssg75
Nsg68
(lp4337
sbasbasbasbag61
(g77
g63
NtRp4338
(dp4339
g66
(dp4340
sg75
g4028
sg68
(lp4341
g61
(g82
g63
NtRp4342
(dp4343
g66
(dp4344
g86
g87
ssg75
g4338
sg68
(lp4345
S'flash'
p4346
asbag61
(g82
g63
NtRp4347
(dp4348
g66
(dp4349
g93
g94
ssg75
g4338
sg68
(lp4350
S':'
asbag61
(g82
g63
NtRp4351
(dp4352
g66
(dp4353
sg75
g4338
sg68
(lp4354
g61
(g62
g63
NtRp4355
(dp4356
g66
(dp4357
g74
I5
ssg75
g4351
sg68
(lp4358
S''
asbasbasbag61
(g77
g63
NtRp4359
(dp4360
g66
(dp4361
sg75
g4028
sg68
(lp4362
g61
(g82
g63
NtRp4363
(dp4364
g66
(dp4365
g86
g87
ssg75
g4359
sg68
(lp4366
S'generic_patterns'
p4367
asbag61
(g82
g63
NtRp4368
(dp4369
g66
(dp4370
g93
g94
ssg75
g4359
sg68
(lp4371
S':'
asbag61
(g82
g63
NtRp4372
(dp4373
g66
(dp4374
sg75
g4359
sg68
(lp4375
g61
(g62
g63
NtRp4376
(dp4377
g66
(dp4378
g74
I5
ssg75
g4372
sg68
(lp4379
g61
(g70
g63
NtRp4380
(dp4381
g66
(dp4382
g74
I4
ssg75
Nsg68
(lp4383
g61
(g77
g63
NtRp4384
(dp4385
g66
(dp4386
sg75
g4380
sg68
(lp4387
g61
(g82
g63
NtRp4388
(dp4389
g66
(dp4390
sg75
g4384
sg68
(lp4391
g61
(g62
g63
NtRp4392
(dp4393
g66
(dp4394
g74
I4
ssg75
g4388
sg68
(lp4395
S'*'
asbasbasbasbasbasbasbag61
(g77
g63
NtRp4396
(dp4397
g66
(dp4398
sg75
g4028
sg68
(lp4399
g61
(g82
g63
NtRp4400
(dp4401
g66
(dp4402
g86
g87
ssg75
g4396
sg68
(lp4403
S'google_analytics_id'
p4404
asbag61
(g82
g63
NtRp4405
(dp4406
g66
(dp4407
g93
g94
ssg75
g4396
sg68
(lp4408
S':'
asbag61
(g82
g63
NtRp4409
(dp4410
g66
(dp4411
sg75
g4396
sg68
(lp4412
g61
(g62
g63
NtRp4413
(dp4414
g66
(dp4415
g74
I5
ssg75
g4409
sg68
(lp4416
S'None'
p4417
asbasbasbag61
(g77
g63
NtRp4418
(dp4419
g66
(dp4420
sg75
g4028
sg68
(lp4421
g61
(g82
g63
NtRp4422
(dp4423
g66
(dp4424
g86
g87
ssg75
g4418
sg68
(lp4425
S'headers'
p4426
asbag61
(g82
g63
NtRp4427
(dp4428
g66
(dp4429
g93
g94
ssg75
g4418
sg68
(lp4430
S':'
asbag61
(g82
g63
NtRp4431
(dp4432
g66
(dp4433
sg75
g4418
sg68
(lp4434
g61
(g62
g63
NtRp4435
(dp4436
g66
(dp4437
g74
I5
ssg75
g4431
sg68
(lp4438
g61
(g70
g63
NtRp4439
(dp4440
g66
(dp4441
g74
I4
ssg75
Nsg68
(lp4442
g61
(g77
g63
NtRp4443
(dp4444
g66
(dp4445
sg75
g4439
sg68
(lp4446
g61
(g82
g63
NtRp4447
(dp4448
g66
(dp4449
g86
g87
ssg75
g4443
sg68
(lp4450
S'X-Powered-By'
p4451
asbag61
(g82
g63
NtRp4452
(dp4453
g66
(dp4454
g93
g94
ssg75
g4443
sg68
(lp4455
S':'
asbag61
(g82
g63
NtRp4456
(dp4457
g66
(dp4458
sg75
g4443
sg68
(lp4459
g61
(g62
g63
NtRp4460
(dp4461
g66
(dp4462
g74
I4
ssg75
g4456
sg68
(lp4463
S'web2py'
p4464
asbasbasbasbasbasbasbag61
(g77
g63
NtRp4465
(dp4466
g66
(dp4467
sg75
g4028
sg68
(lp4468
g61
(g82
g63
NtRp4469
(dp4470
g66
(dp4471
g86
g87
ssg75
g4465
sg68
(lp4472
S'logo'
p4473
asbag61
(g82
g63
NtRp4474
(dp4475
g66
(dp4476
g93
g94
ssg75
g4465
sg68
(lp4477
S':'
asbag61
(g82
g63
NtRp4478
(dp4479
g66
(dp4480
sg75
g4465
sg68
(lp4481
g61
(g62
g63
NtRp4482
(dp4483
g66
(dp4484
g74
I5
ssg75
g4478
sg68
(lp4485
g61
(cgluon.html
A
p4486
g63
NtRp4487
(dp4488
g66
(dp4489
S'_class'
p4490
S'brand'
p4491
sS'_href'
p4492
S'principal'
p4493
ssg75
Nsg68
(lp4494
g61
(cgluon.html
B
p4495
g63
NtRp4496
(dp4497
g66
(dp4498
sg75
g4487
sg68
(lp4499
S'hosts'
p4500
ag61
(cgluon.html
SPAN
p4501
g63
NtRp4502
(dp4503
g66
(dp4504
sg75
g4496
sg68
(lp4505
S'3'
asbaS''
asbacgluon.html
XML_unpickle
p4506
(S's\r\x00\x00\x00&trade;&nbsp;'
tRp4507
asbasbasbasbag61
(g77
g63
NtRp4508
(dp4509
g66
(dp4510
sg75
g4028
sg68
(lp4511
g61
(g82
g63
NtRp4512
(dp4513
g66
(dp4514
g86
g87
ssg75
g4508
sg68
(lp4515
S'menu'
p4516
asbag61
(g82
g63
NtRp4517
(dp4518
g66
(dp4519
g93
g94
ssg75
g4508
sg68
(lp4520
S':'
asbag61
(g82
g63
NtRp4521
(dp4522
g66
(dp4523
sg75
g4508
sg68
(lp4524
g61
(g62
g63
NtRp4525
(dp4526
g66
(dp4527
g74
I5
ssg75
g4521
sg68
(lp4528
g61
(g70
g63
NtRp4529
(dp4530
g66
(dp4531
g74
I4
ssg75
Nsg68
(lp4532
g61
(g77
g63
NtRp4533
(dp4534
g66
(dp4535
sg75
g4529
sg68
(lp4536
g61
(g82
g63
NtRp4537
(dp4538
g66
(dp4539
sg75
g4533
sg68
(lp4540
g61
(g62
g63
NtRp4541
(dp4542
g66
(dp4543
g74
I4
ssg75
g4537
sg68
(lp4544
g61
(g70
g63
NtRp4545
(dp4546
g66
(dp4547
g74
I3
ssg75
Nsg68
(lp4548
g61
(g77
g63
NtRp4549
(dp4550
g66
(dp4551
sg75
g4545
sg68
(lp4552
g61
(g82
g63
NtRp4553
(dp4554
g66
(dp4555
sg75
g4549
sg68
(lp4556
g61
(g62
g63
NtRp4557
(dp4558
g66
(dp4559
g74
I3
ssg75
g4553
sg68
(lp4560
cgluon.languages
lazyT_unpickle
p4561
(S't\x08\x00\x00\x00Clientes'
tRp4562
asbasbasbag61
(g77
g63
NtRp4563
(dp4564
g66
(dp4565
sg75
g4545
sg68
(lp4566
g61
(g82
g63
NtRp4567
(dp4568
g66
(dp4569
sg75
g4563
sg68
(lp4570
g61
(g62
g63
NtRp4571
(dp4572
g66
(dp4573
g74
I3
ssg75
g4567
sg68
(lp4574
g104
asbasbasbag61
(g77
g63
NtRp4575
(dp4576
g66
(dp4577
sg75
g4545
sg68
(lp4578
g61
(g82
g63
NtRp4579
(dp4580
g66
(dp4581
sg75
g4575
sg68
(lp4582
g61
(g62
g63
NtRp4583
(dp4584
g66
(dp4585
g74
I3
ssg75
g4579
sg68
(lp4586
S'/show_cliente'
p4587
asbasbasbag61
(g77
g63
NtRp4588
(dp4589
g66
(dp4590
sg75
g4545
sg68
(lp4591
g61
(g82
g63
NtRp4592
(dp4593
g66
(dp4594
sg75
g4588
sg68
(lp4595
g61
(g62
g63
NtRp4596
(dp4597
g66
(dp4598
g74
I3
ssg75
g4592
sg68
(lp4599
g61
(g70
g63
NtRp4600
(dp4601
g66
(dp4602
g74
I2
ssg75
Nsg68
(lp4603
sbasbasbasbasbasbasbasbag61
(g77
g63
NtRp4604
(dp4605
g66
(dp4606
sg75
g4529
sg68
(lp4607
g61
(g82
g63
NtRp4608
(dp4609
g66
(dp4610
sg75
g4604
sg68
(lp4611
g61
(g62
g63
NtRp4612
(dp4613
g66
(dp4614
g74
I4
ssg75
g4608
sg68
(lp4615
g61
(g70
g63
NtRp4616
(dp4617
g66
(dp4618
g74
I3
ssg75
Nsg68
(lp4619
g61
(g77
g63
NtRp4620
(dp4621
g66
(dp4622
sg75
g4616
sg68
(lp4623
g61
(g82
g63
NtRp4624
(dp4625
g66
(dp4626
sg75
g4620
sg68
(lp4627
g61
(g62
g63
NtRp4628
(dp4629
g66
(dp4630
g74
I3
ssg75
g4624
sg68
(lp4631
g4561
(S't\n\x00\x00\x00Servidores'
tRp4632
asbasbasbag61
(g77
g63
NtRp4633
(dp4634
g66
(dp4635
sg75
g4616
sg68
(lp4636
g61
(g82
g63
NtRp4637
(dp4638
g66
(dp4639
sg75
g4633
sg68
(lp4640
g61
(g62
g63
NtRp4641
(dp4642
g66
(dp4643
g74
I3
ssg75
g4637
sg68
(lp4644
g104
asbasbasbag61
(g77
g63
NtRp4645
(dp4646
g66
(dp4647
sg75
g4616
sg68
(lp4648
g61
(g82
g63
NtRp4649
(dp4650
g66
(dp4651
sg75
g4645
sg68
(lp4652
g61
(g62
g63
NtRp4653
(dp4654
g66
(dp4655
g74
I3
ssg75
g4649
sg68
(lp4656
S'/show_servidor'
p4657
asbasbasbag61
(g77
g63
NtRp4658
(dp4659
g66
(dp4660
sg75
g4616
sg68
(lp4661
g61
(g82
g63
NtRp4662
(dp4663
g66
(dp4664
sg75
g4658
sg68
(lp4665
g61
(g62
g63
NtRp4666
(dp4667
g66
(dp4668
g74
I3
ssg75
g4662
sg68
(lp4669
g61
(g70
g63
NtRp4670
(dp4671
g66
(dp4672
g74
I2
ssg75
Nsg68
(lp4673
sbasbasbasbasbasbasbasbag61
(g77
g63
NtRp4674
(dp4675
g66
(dp4676
sg75
g4529
sg68
(lp4677
g61
(g82
g63
NtRp4678
(dp4679
g66
(dp4680
sg75
g4674
sg68
(lp4681
g61
(g62
g63
NtRp4682
(dp4683
g66
(dp4684
g74
I4
ssg75
g4678
sg68
(lp4685
g61
(g70
g63
NtRp4686
(dp4687
g66
(dp4688
g74
I3
ssg75
Nsg68
(lp4689
g61
(g77
g63
NtRp4690
(dp4691
g66
(dp4692
sg75
g4686
sg68
(lp4693
g61
(g82
g63
NtRp4694
(dp4695
g66
(dp4696
sg75
g4690
sg68
(lp4697
g61
(g62
g63
NtRp4698
(dp4699
g66
(dp4700
g74
I3
ssg75
g4694
sg68
(lp4701
g4561
(S't\x07\x00\x00\x00Distros'
tRp4702
asbasbasbag61
(g77
g63
NtRp4703
(dp4704
g66
(dp4705
sg75
g4686
sg68
(lp4706
g61
(g82
g63
NtRp4707
(dp4708
g66
(dp4709
sg75
g4703
sg68
(lp4710
g61
(g62
g63
NtRp4711
(dp4712
g66
(dp4713
g74
I3
ssg75
g4707
sg68
(lp4714
g104
asbasbasbag61
(g77
g63
NtRp4715
(dp4716
g66
(dp4717
sg75
g4686
sg68
(lp4718
g61
(g82
g63
NtRp4719
(dp4720
g66
(dp4721
sg75
g4715
sg68
(lp4722
g61
(g62
g63
NtRp4723
(dp4724
g66
(dp4725
g74
I3
ssg75
g4719
sg68
(lp4726
S'/show_distro'
p4727
asbasbasbag61
(g77
g63
NtRp4728
(dp4729
g66
(dp4730
sg75
g4686
sg68
(lp4731
g61
(g82
g63
NtRp4732
(dp4733
g66
(dp4734
sg75
g4728
sg68
(lp4735
g61
(g62
g63
NtRp4736
(dp4737
g66
(dp4738
g74
I3
ssg75
g4732
sg68
(lp4739
g61
(g70
g63
NtRp4740
(dp4741
g66
(dp4742
g74
I2
ssg75
Nsg68
(lp4743
sbasbasbasbasbasbasbasbag61
(g77
g63
NtRp4744
(dp4745
g66
(dp4746
sg75
g4529
sg68
(lp4747
g61
(g82
g63
NtRp4748
(dp4749
g66
(dp4750
sg75
g4744
sg68
(lp4751
g61
(g62
g63
NtRp4752
(dp4753
g66
(dp4754
g74
I4
ssg75
g4748
sg68
(lp4755
g61
(g70
g63
NtRp4756
(dp4757
g66
(dp4758
g74
I3
ssg75
Nsg68
(lp4759
g61
(g77
g63
NtRp4760
(dp4761
g66
(dp4762
sg75
g4756
sg68
(lp4763
g61
(g82
g63
NtRp4764
(dp4765
g66
(dp4766
sg75
g4760
sg68
(lp4767
g61
(g62
g63
NtRp4768
(dp4769
g66
(dp4770
g74
I3
ssg75
g4764
sg68
(lp4771
g4561
(S's\x05\x00\x00\x00+host'
tRp4772
asbasbasbag61
(g77
g63
NtRp4773
(dp4774
g66
(dp4775
sg75
g4756
sg68
(lp4776
g61
(g82
g63
NtRp4777
(dp4778
g66
(dp4779
sg75
g4773
sg68
(lp4780
g61
(g62
g63
NtRp4781
(dp4782
g66
(dp4783
g74
I3
ssg75
g4777
sg68
(lp4784
g104
asbasbasbag61
(g77
g63
NtRp4785
(dp4786
g66
(dp4787
sg75
g4756
sg68
(lp4788
g61
(g82
g63
NtRp4789
(dp4790
g66
(dp4791
sg75
g4785
sg68
(lp4792
g61
(g62
g63
NtRp4793
(dp4794
g66
(dp4795
g74
I3
ssg75
g4789
sg68
(lp4796
S'/interface'
p4797
asbasbasbag61
(g77
g63
NtRp4798
(dp4799
g66
(dp4800
sg75
g4756
sg68
(lp4801
g61
(g82
g63
NtRp4802
(dp4803
g66
(dp4804
sg75
g4798
sg68
(lp4805
g61
(g62
g63
NtRp4806
(dp4807
g66
(dp4808
g74
I3
ssg75
g4802
sg68
(lp4809
g61
(g70
g63
NtRp4810
(dp4811
g66
(dp4812
g74
I2
ssg75
Nsg68
(lp4813
sbasbasbasbasbasbasbasbasbasbasbasbag61
(g77
g63
NtRp4814
(dp4815
g66
(dp4816
sg75
g4028
sg68
(lp4817
g61
(g82
g63
NtRp4818
(dp4819
g66
(dp4820
g86
g87
ssg75
g4814
sg68
(lp4821
S'menu2'
p4822
asbag61
(g82
g63
NtRp4823
(dp4824
g66
(dp4825
g93
g94
ssg75
g4814
sg68
(lp4826
S':'
asbag61
(g82
g63
NtRp4827
(dp4828
g66
(dp4829
sg75
g4814
sg68
(lp4830
g61
(g62
g63
NtRp4831
(dp4832
g66
(dp4833
g74
I5
ssg75
g4827
sg68
(lp4834
g61
(g70
g63
NtRp4835
(dp4836
g66
(dp4837
g74
I4
ssg75
Nsg68
(lp4838
g61
(g77
g63
NtRp4839
(dp4840
g66
(dp4841
sg75
g4835
sg68
(lp4842
g61
(g82
g63
NtRp4843
(dp4844
g66
(dp4845
sg75
g4839
sg68
(lp4846
g61
(g62
g63
NtRp4847
(dp4848
g66
(dp4849
g74
I4
ssg75
g4843
sg68
(lp4850
g61
(g70
g63
NtRp4851
(dp4852
g66
(dp4853
g74
I3
ssg75
Nsg68
(lp4854
g61
(g77
g63
NtRp4855
(dp4856
g66
(dp4857
sg75
g4851
sg68
(lp4858
g61
(g82
g63
NtRp4859
(dp4860
g66
(dp4861
sg75
g4855
sg68
(lp4862
g61
(g62
g63
NtRp4863
(dp4864
g66
(dp4865
g74
I3
ssg75
g4859
sg68
(lp4866
g61
(g4501
g63
NtRp4867
(dp4868
g66
(dp4869
g4490
S'dropdown-toggle'
p4870
ssg75
Nsg68
(lp4871
S'Admin'
p4872
asbasbasbasbag61
(g77
g63
NtRp4873
(dp4874
g66
(dp4875
sg75
g4851
sg68
(lp4876
g61
(g82
g63
NtRp4877
(dp4878
g66
(dp4879
sg75
g4873
sg68
(lp4880
g61
(g62
g63
NtRp4881
(dp4882
g66
(dp4883
g74
I3
ssg75
g4877
sg68
(lp4884
g104
asbasbasbag61
(g77
g63
NtRp4885
(dp4886
g66
(dp4887
sg75
g4851
sg68
(lp4888
g61
(g82
g63
NtRp4889
(dp4890
g66
(dp4891
sg75
g4885
sg68
(lp4892
g61
(g62
g63
NtRp4893
(dp4894
g66
(dp4895
g74
I3
ssg75
g4889
sg68
(lp4896
S'#'
asbasbasbag61
(g77
g63
NtRp4897
(dp4898
g66
(dp4899
sg75
g4851
sg68
(lp4900
g61
(g82
g63
NtRp4901
(dp4902
g66
(dp4903
sg75
g4897
sg68
(lp4904
g61
(g62
g63
NtRp4905
(dp4906
g66
(dp4907
g74
I3
ssg75
g4901
sg68
(lp4908
g61
(g70
g63
NtRp4909
(dp4910
g66
(dp4911
g74
I2
ssg75
Nsg68
(lp4912
g61
(g77
g63
NtRp4913
(dp4914
g66
(dp4915
sg75
g4909
sg68
(lp4916
g61
(g82
g63
NtRp4917
(dp4918
g66
(dp4919
sg75
g4913
sg68
(lp4920
g61
(g62
g63
NtRp4921
(dp4922
g66
(dp4923
g74
I2
ssg75
g4917
sg68
(lp4924
g61
(g70
g63
NtRp4925
(dp4926
g66
(dp4927
g74
I1
ssg75
Nsg68
(lp4928
g61
(g77
g63
NtRp4929
(dp4930
g66
(dp4931
sg75
g4925
sg68
(lp4932
g61
(g82
g63
NtRp4933
(dp4934
g66
(dp4935
sg75
g4929
sg68
(lp4936
g61
(g62
g63
NtRp4937
(dp4938
g66
(dp4939
g74
I1
ssg75
g4933
sg68
(lp4940
g4561
(S's\t\x00\x00\x00Usu\xc3\xa1rios'
tRp4941
asbasbasbag61
(g77
g63
NtRp4942
(dp4943
g66
(dp4944
sg75
g4925
sg68
(lp4945
g61
(g82
g63
NtRp4946
(dp4947
g66
(dp4948
sg75
g4942
sg68
(lp4949
g61
(g62
g63
NtRp4950
(dp4951
g66
(dp4952
g74
I1
ssg75
g4946
sg68
(lp4953
I00
asbasbasbag61
(g77
g63
NtRp4954
(dp4955
g66
(dp4956
sg75
g4925
sg68
(lp4957
g61
(g82
g63
NtRp4958
(dp4959
g66
(dp4960
sg75
g4954
sg68
(lp4961
g61
(g62
g63
NtRp4962
(dp4963
g66
(dp4964
g74
I1
ssg75
g4958
sg68
(lp4965
S'/manager/users'
p4966
asbasbasbasbasbasbasbag61
(g77
g63
NtRp4967
(dp4968
g66
(dp4969
sg75
g4909
sg68
(lp4970
g61
(g82
g63
NtRp4971
(dp4972
g66
(dp4973
sg75
g4967
sg68
(lp4974
g61
(g62
g63
NtRp4975
(dp4976
g66
(dp4977
g74
I2
ssg75
g4971
sg68
(lp4978
g61
(g70
g63
NtRp4979
(dp4980
g66
(dp4981
g74
I1
ssg75
Nsg68
(lp4982
g61
(g77
g63
NtRp4983
(dp4984
g66
(dp4985
sg75
g4979
sg68
(lp4986
g61
(g82
g63
NtRp4987
(dp4988
g66
(dp4989
sg75
g4983
sg68
(lp4990
g61
(g62
g63
NtRp4991
(dp4992
g66
(dp4993
g74
I1
ssg75
g4987
sg68
(lp4994
g4561
(S't\x06\x00\x00\x00Grupos'
tRp4995
asbasbasbag61
(g77
g63
NtRp4996
(dp4997
g66
(dp4998
sg75
g4979
sg68
(lp4999
g61
(g82
g63
NtRp5000
(dp5001
g66
(dp5002
sg75
g4996
sg68
(lp5003
g61
(g62
g63
NtRp5004
(dp5005
g66
(dp5006
g74
I1
ssg75
g5000
sg68
(lp5007
I00
asbasbasbag61
(g77
g63
NtRp5008
(dp5009
g66
(dp5010
sg75
g4979
sg68
(lp5011
g61
(g82
g63
NtRp5012
(dp5013
g66
(dp5014
sg75
g5008
sg68
(lp5015
g61
(g62
g63
NtRp5016
(dp5017
g66
(dp5018
g74
I1
ssg75
g5012
sg68
(lp5019
S'/manager/groups'
p5020
asbasbasbasbasbasbasbag61
(g77
g63
NtRp5021
(dp5022
g66
(dp5023
sg75
g4909
sg68
(lp5024
g61
(g82
g63
NtRp5025
(dp5026
g66
(dp5027
sg75
g5021
sg68
(lp5028
g61
(g62
g63
NtRp5029
(dp5030
g66
(dp5031
g74
I2
ssg75
g5025
sg68
(lp5032
g61
(g70
g63
NtRp5033
(dp5034
g66
(dp5035
g74
I1
ssg75
Nsg68
(lp5036
g61
(g77
g63
NtRp5037
(dp5038
g66
(dp5039
sg75
g5033
sg68
(lp5040
g61
(g82
g63
NtRp5041
(dp5042
g66
(dp5043
sg75
g5037
sg68
(lp5044
g61
(g62
g63
NtRp5045
(dp5046
g66
(dp5047
g74
I1
ssg75
g5041
sg68
(lp5048
g4561
(S't\x07\x00\x00\x00Membros'
tRp5049
asbasbasbag61
(g77
g63
NtRp5050
(dp5051
g66
(dp5052
sg75
g5033
sg68
(lp5053
g61
(g82
g63
NtRp5054
(dp5055
g66
(dp5056
sg75
g5050
sg68
(lp5057
g61
(g62
g63
NtRp5058
(dp5059
g66
(dp5060
g74
I1
ssg75
g5054
sg68
(lp5061
I00
asbasbasbag61
(g77
g63
NtRp5062
(dp5063
g66
(dp5064
sg75
g5033
sg68
(lp5065
g61
(g82
g63
NtRp5066
(dp5067
g66
(dp5068
sg75
g5062
sg68
(lp5069
g61
(g62
g63
NtRp5070
(dp5071
g66
(dp5072
g74
I1
ssg75
g5066
sg68
(lp5073
S'/manager/membership'
p5074
asbasbasbasbasbasbasbasbasbasbasbasbasbasbasbag61
(g77
g63
NtRp5075
(dp5076
g66
(dp5077
sg75
g4835
sg68
(lp5078
g61
(g82
g63
NtRp5079
(dp5080
g66
(dp5081
sg75
g5075
sg68
(lp5082
g61
(g62
g63
NtRp5083
(dp5084
g66
(dp5085
g74
I4
ssg75
g5079
sg68
(lp5086
g61
(g70
g63
NtRp5087
(dp5088
g66
(dp5089
g74
I3
ssg75
Nsg68
(lp5090
g61
(g77
g63
NtRp5091
(dp5092
g66
(dp5093
sg75
g5087
sg68
(lp5094
g61
(g82
g63
NtRp5095
(dp5096
g66
(dp5097
sg75
g5091
sg68
(lp5098
g61
(g62
g63
NtRp5099
(dp5100
g66
(dp5101
g74
I3
ssg75
g5095
sg68
(lp5102
g61
(g4501
g63
NtRp5103
(dp5104
g66
(dp5105
g4490
g4870
ssg75
Nsg68
(lp5106
S'Login'
p5107
asbasbasbasbag61
(g77
g63
NtRp5108
(dp5109
g66
(dp5110
sg75
g5087
sg68
(lp5111
g61
(g82
g63
NtRp5112
(dp5113
g66
(dp5114
sg75
g5108
sg68
(lp5115
g61
(g62
g63
NtRp5116
(dp5117
g66
(dp5118
g74
I3
ssg75
g5112
sg68
(lp5119
g104
asbasbasbag61
(g77
g63
NtRp5120
(dp5121
g66
(dp5122
sg75
g5087
sg68
(lp5123
g61
(g82
g63
NtRp5124
(dp5125
g66
(dp5126
sg75
g5120
sg68
(lp5127
g61
(g62
g63
NtRp5128
(dp5129
g66
(dp5130
g74
I3
ssg75
g5124
sg68
(lp5131
S'#'
asbasbasbag61
(g77
g63
NtRp5132
(dp5133
g66
(dp5134
sg75
g5087
sg68
(lp5135
g61
(g82
g63
NtRp5136
(dp5137
g66
(dp5138
sg75
g5132
sg68
(lp5139
g61
(g62
g63
NtRp5140
(dp5141
g66
(dp5142
g74
I3
ssg75
g5136
sg68
(lp5143
g61
(g70
g63
NtRp5144
(dp5145
g66
(dp5146
g74
I2
ssg75
Nsg68
(lp5147
g61
(g77
g63
NtRp5148
(dp5149
g66
(dp5150
sg75
g5144
sg68
(lp5151
g61
(g82
g63
NtRp5152
(dp5153
g66
(dp5154
sg75
g5148
sg68
(lp5155
g61
(g62
g63
NtRp5156
(dp5157
g66
(dp5158
g74
I2
ssg75
g5152
sg68
(lp5159
g61
(g70
g63
NtRp5160
(dp5161
g66
(dp5162
g74
I1
ssg75
Nsg68
(lp5163
g61
(g77
g63
NtRp5164
(dp5165
g66
(dp5166
sg75
g5160
sg68
(lp5167
g61
(g82
g63
NtRp5168
(dp5169
g66
(dp5170
sg75
g5164
sg68
(lp5171
g61
(g62
g63
NtRp5172
(dp5173
g66
(dp5174
g74
I1
ssg75
g5168
sg68
(lp5175
g4561
(S't\x06\x00\x00\x00Logout'
tRp5176
asbasbasbag61
(g77
g63
NtRp5177
(dp5178
g66
(dp5179
sg75
g5160
sg68
(lp5180
g61
(g82
g63
NtRp5181
(dp5182
g66
(dp5183
sg75
g5177
sg68
(lp5184
g61
(g62
g63
NtRp5185
(dp5186
g66
(dp5187
g74
I1
ssg75
g5181
sg68
(lp5188
I00
asbasbasbag61
(g77
g63
NtRp5189
(dp5190
g66
(dp5191
sg75
g5160
sg68
(lp5192
g61
(g82
g63
NtRp5193
(dp5194
g66
(dp5195
sg75
g5189
sg68
(lp5196
g61
(g62
g63
NtRp5197
(dp5198
g66
(dp5199
g74
I1
ssg75
g5193
sg68
(lp5200
S'/initial/user/logout'
p5201
asbasbasbasbasbasbasbasbasbasbasbasbasbasbasbasbasbasbasbag61
(g77
g63
NtRp5202
(dp5203
g66
(dp5204
sg75
g4028
sg68
(lp5205
g61
(g82
g63
NtRp5206
(dp5207
g66
(dp5208
g86
g87
ssg75
g5202
sg68
(lp5209
S'meta'
p5210
asbag61
(g82
g63
NtRp5211
(dp5212
g66
(dp5213
g93
g94
ssg75
g5202
sg68
(lp5214
S':'
asbag61
(g82
g63
NtRp5215
(dp5216
g66
(dp5217
sg75
g5202
sg68
(lp5218
g61
(g62
g63
NtRp5219
(dp5220
g66
(dp5221
g74
I5
ssg75
g5215
sg68
(lp5222
g61
(g70
g63
NtRp5223
(dp5224
g66
(dp5225
g74
I4
ssg75
Nsg68
(lp5226
g61
(g77
g63
NtRp5227
(dp5228
g66
(dp5229
sg75
g5223
sg68
(lp5230
g61
(g82
g63
NtRp5231
(dp5232
g66
(dp5233
g86
g87
ssg75
g5227
sg68
(lp5234
S'author'
p5235
asbag61
(g82
g63
NtRp5236
(dp5237
g66
(dp5238
g93
g94
ssg75
g5227
sg68
(lp5239
S':'
asbag61
(g82
g63
NtRp5240
(dp5241
g66
(dp5242
sg75
g5227
sg68
(lp5243
g61
(g62
g63
NtRp5244
(dp5245
g66
(dp5246
g74
I4
ssg75
g5240
sg68
(lp5247
S'Your Name <you@example.com>'
p5248
asbasbasbag61
(g77
g63
NtRp5249
(dp5250
g66
(dp5251
sg75
g5223
sg68
(lp5252
g61
(g82
g63
NtRp5253
(dp5254
g66
(dp5255
g86
g87
ssg75
g5249
sg68
(lp5256
S'description'
p5257
asbag61
(g82
g63
NtRp5258
(dp5259
g66
(dp5260
g93
g94
ssg75
g5249
sg68
(lp5261
S':'
asbag61
(g82
g63
NtRp5262
(dp5263
g66
(dp5264
sg75
g5249
sg68
(lp5265
g61
(g62
g63
NtRp5266
(dp5267
g66
(dp5268
g74
I4
ssg75
g5262
sg68
(lp5269
S'a cool new app'
p5270
asbasbasbag61
(g77
g63
NtRp5271
(dp5272
g66
(dp5273
sg75
g5223
sg68
(lp5274
g61
(g82
g63
NtRp5275
(dp5276
g66
(dp5277
g86
g87
ssg75
g5271
sg68
(lp5278
S'generator'
p5279
asbag61
(g82
g63
NtRp5280
(dp5281
g66
(dp5282
g93
g94
ssg75
g5271
sg68
(lp5283
S':'
asbag61
(g82
g63
NtRp5284
(dp5285
g66
(dp5286
sg75
g5271
sg68
(lp5287
g61
(g62
g63
NtRp5288
(dp5289
g66
(dp5290
g74
I4
ssg75
g5284
sg68
(lp5291
S'Web2py Web Framework'
p5292
asbasbasbag61
(g77
g63
NtRp5293
(dp5294
g66
(dp5295
sg75
g5223
sg68
(lp5296
g61
(g82
g63
NtRp5297
(dp5298
g66
(dp5299
g86
g87
ssg75
g5293
sg68
(lp5300
S'keywords'
p5301
asbag61
(g82
g63
NtRp5302
(dp5303
g66
(dp5304
g93
g94
ssg75
g5293
sg68
(lp5305
S':'
asbag61
(g82
g63
NtRp5306
(dp5307
g66
(dp5308
sg75
g5293
sg68
(lp5309
g61
(g62
g63
NtRp5310
(dp5311
g66
(dp5312
g74
I4
ssg75
g5306
sg68
(lp5313
S'web2py, python, framework'
p5314
asbasbasbasbasbasbasbag61
(g77
g63
NtRp5315
(dp5316
g66
(dp5317
sg75
g4028
sg68
(lp5318
g61
(g82
g63
NtRp5319
(dp5320
g66
(dp5321
g86
g87
ssg75
g5315
sg68
(lp5322
S'models_to_run'
p5323
asbag61
(g82
g63
NtRp5324
(dp5325
g66
(dp5326
g93
g94
ssg75
g5315
sg68
(lp5327
S':'
asbag61
(g82
g63
NtRp5328
(dp5329
g66
(dp5330
sg75
g5315
sg68
(lp5331
g61
(g62
g63
NtRp5332
(dp5333
g66
(dp5334
g74
I5
ssg75
g5328
sg68
(lp5335
g61
(g70
g63
NtRp5336
(dp5337
g66
(dp5338
g74
I4
ssg75
Nsg68
(lp5339
g61
(g77
g63
NtRp5340
(dp5341
g66
(dp5342
sg75
g5336
sg68
(lp5343
g61
(g82
g63
NtRp5344
(dp5345
g66
(dp5346
sg75
g5340
sg68
(lp5347
g61
(g62
g63
NtRp5348
(dp5349
g66
(dp5350
g74
I4
ssg75
g5344
sg68
(lp5351
S'^\\w+\\.py$'
p5352
asbasbasbag61
(g77
g63
NtRp5353
(dp5354
g66
(dp5355
sg75
g5336
sg68
(lp5356
g61
(g82
g63
NtRp5357
(dp5358
g66
(dp5359
sg75
g5353
sg68
(lp5360
g61
(g62
g63
NtRp5361
(dp5362
g66
(dp5363
g74
I4
ssg75
g5357
sg68
(lp5364
S'^initial/\\w+\\.py$'
p5365
asbasbasbag61
(g77
g63
NtRp5366
(dp5367
g66
(dp5368
sg75
g5336
sg68
(lp5369
g61
(g82
g63
NtRp5370
(dp5371
g66
(dp5372
sg75
g5366
sg68
(lp5373
g61
(g62
g63
NtRp5374
(dp5375
g66
(dp5376
g74
I4
ssg75
g5370
sg68
(lp5377
S'^initial/show_cliente/\\w+\\.py$'
p5378
asbasbasbasbasbasbasbag61
(g77
g63
NtRp5379
(dp5380
g66
(dp5381
sg75
g4028
sg68
(lp5382
g61
(g82
g63
NtRp5383
(dp5384
g66
(dp5385
g86
g87
ssg75
g5379
sg68
(lp5386
S'postprocessing'
p5387
asbag61
(g82
g63
NtRp5388
(dp5389
g66
(dp5390
g93
g94
ssg75
g5379
sg68
(lp5391
S':'
asbag61
(g82
g63
NtRp5392
(dp5393
g66
(dp5394
sg75
g5379
sg68
(lp5395
g61
(g62
g63
NtRp5396
(dp5397
g66
(dp5398
g74
I5
ssg75
g5392
sg68
(lp5399
g61
(g70
g63
NtRp5400
(dp5401
g66
(dp5402
g74
I4
ssg75
Nsg68
(lp5403
sbasbasbasbag61
(g77
g63
NtRp5404
(dp5405
g66
(dp5406
sg75
g4028
sg68
(lp5407
g61
(g82
g63
NtRp5408
(dp5409
g66
(dp5410
g86
g87
ssg75
g5404
sg68
(lp5411
S'session_cookie_expires'
p5412
asbag61
(g82
g63
NtRp5413
(dp5414
g66
(dp5415
g93
g94
ssg75
g5404
sg68
(lp5416
S':'
asbag61
(g82
g63
NtRp5417
(dp5418
g66
(dp5419
sg75
g5404
sg68
(lp5420
g61
(g62
g63
NtRp5421
(dp5422
g66
(dp5423
g74
I5
ssg75
g5417
sg68
(lp5424
S'None'
p5425
asbasbasbag61
(g77
g63
NtRp5426
(dp5427
g66
(dp5428
sg75
g4028
sg68
(lp5429
g61
(g82
g63
NtRp5430
(dp5431
g66
(dp5432
g86
g87
ssg75
g5426
sg68
(lp5433
S'session_data_name'
p5434
asbag61
(g82
g63
NtRp5435
(dp5436
g66
(dp5437
g93
g94
ssg75
g5426
sg68
(lp5438
S':'
asbag61
(g82
g63
NtRp5439
(dp5440
g66
(dp5441
sg75
g5426
sg68
(lp5442
g61
(g62
g63
NtRp5443
(dp5444
g66
(dp5445
g74
I5
ssg75
g5439
sg68
(lp5446
S'session_data_projeto'
p5447
asbasbasbag61
(g77
g63
NtRp5448
(dp5449
g66
(dp5450
sg75
g4028
sg68
(lp5451
g61
(g82
g63
NtRp5452
(dp5453
g66
(dp5454
g86
g87
ssg75
g5448
sg68
(lp5455
S'session_file'
p5456
asbag61
(g82
g63
NtRp5457
(dp5458
g66
(dp5459
g93
g94
ssg75
g5448
sg68
(lp5460
S':'
asbag61
(g82
g63
NtRp5461
(dp5462
g66
(dp5463
sg75
g5448
sg68
(lp5464
g61
(g62
g63
NtRp5465
(dp5466
g66
(dp5467
g74
I5
ssg75
g5461
sg68
(lp5468
S"<open file '/var/www/conferencia/applications/projeto/sessions/127.0.0.1-001edd4c-cc9d-40b6-92aa-d3bbbc6019b5', mode 'rb+' at 0x7f24982620c0>"
p5469
asbasbasbag61
(g77
g63
NtRp5470
(dp5471
g66
(dp5472
sg75
g4028
sg68
(lp5473
g61
(g82
g63
NtRp5474
(dp5475
g66
(dp5476
g86
g87
ssg75
g5470
sg68
(lp5477
S'session_filename'
p5478
asbag61
(g82
g63
NtRp5479
(dp5480
g66
(dp5481
g93
g94
ssg75
g5470
sg68
(lp5482
S':'
asbag61
(g82
g63
NtRp5483
(dp5484
g66
(dp5485
sg75
g5470
sg68
(lp5486
g61
(g62
g63
NtRp5487
(dp5488
g66
(dp5489
g74
I5
ssg75
g5483
sg68
(lp5490
S'/var/www/conferencia/applications/projeto/sessions/127.0.0.1-001edd4c-cc9d-40b6-92aa-d3bbbc6019b5'
p5491
asbasbasbag61
(g77
g63
NtRp5492
(dp5493
g66
(dp5494
sg75
g4028
sg68
(lp5495
g61
(g82
g63
NtRp5496
(dp5497
g66
(dp5498
g86
g87
ssg75
g5492
sg68
(lp5499
S'session_id'
p5500
asbag61
(g82
g63
NtRp5501
(dp5502
g66
(dp5503
g93
g94
ssg75
g5492
sg68
(lp5504
S':'
asbag61
(g82
g63
NtRp5505
(dp5506
g66
(dp5507
sg75
g5492
sg68
(lp5508
g61
(g62
g63
NtRp5509
(dp5510
g66
(dp5511
g74
I5
ssg75
g5505
sg68
(lp5512
g505
asbasbasbag61
(g77
g63
NtRp5513
(dp5514
g66
(dp5515
sg75
g4028
sg68
(lp5516
g61
(g82
g63
NtRp5517
(dp5518
g66
(dp5519
g86
g87
ssg75
g5513
sg68
(lp5520
S'session_id_name'
p5521
asbag61
(g82
g63
NtRp5522
(dp5523
g66
(dp5524
g93
g94
ssg75
g5513
sg68
(lp5525
S':'
asbag61
(g82
g63
NtRp5526
(dp5527
g66
(dp5528
sg75
g5513
sg68
(lp5529
g61
(g62
g63
NtRp5530
(dp5531
g66
(dp5532
g74
I5
ssg75
g5526
sg68
(lp5533
g4085
asbasbasbag61
(g77
g63
NtRp5534
(dp5535
g66
(dp5536
sg75
g4028
sg68
(lp5537
g61
(g82
g63
NtRp5538
(dp5539
g66
(dp5540
g86
g87
ssg75
g5534
sg68
(lp5541
S'session_locked'
p5542
asbag61
(g82
g63
NtRp5543
(dp5544
g66
(dp5545
g93
g94
ssg75
g5534
sg68
(lp5546
S':'
asbag61
(g82
g63
NtRp5547
(dp5548
g66
(dp5549
sg75
g5534
sg68
(lp5550
g61
(g62
g63
NtRp5551
(dp5552
g66
(dp5553
g74
I5
ssg75
g5547
sg68
(lp5554
g1774
asbasbasbag61
(g77
g63
NtRp5555
(dp5556
g66
(dp5557
sg75
g4028
sg68
(lp5558
g61
(g82
g63
NtRp5559
(dp5560
g66
(dp5561
g86
g87
ssg75
g5555
sg68
(lp5562
S'session_new'
p5563
asbag61
(g82
g63
NtRp5564
(dp5565
g66
(dp5566
g93
g94
ssg75
g5555
sg68
(lp5567
S':'
asbag61
(g82
g63
NtRp5568
(dp5569
g66
(dp5570
sg75
g5555
sg68
(lp5571
g61
(g62
g63
NtRp5572
(dp5573
g66
(dp5574
g74
I5
ssg75
g5568
sg68
(lp5575
g104
asbasbasbag61
(g77
g63
NtRp5576
(dp5577
g66
(dp5578
sg75
g4028
sg68
(lp5579
g61
(g82
g63
NtRp5580
(dp5581
g66
(dp5582
g86
g87
ssg75
g5576
sg68
(lp5583
S'session_storage_type'
p5584
asbag61
(g82
g63
NtRp5585
(dp5586
g66
(dp5587
g93
g94
ssg75
g5576
sg68
(lp5588
S':'
asbag61
(g82
g63
NtRp5589
(dp5590
g66
(dp5591
sg75
g5576
sg68
(lp5592
g61
(g62
g63
NtRp5593
(dp5594
g66
(dp5595
g74
I5
ssg75
g5589
sg68
(lp5596
g3540
asbasbasbag61
(g77
g63
NtRp5597
(dp5598
g66
(dp5599
sg75
g4028
sg68
(lp5600
g61
(g82
g63
NtRp5601
(dp5602
g66
(dp5603
g86
g87
ssg75
g5597
sg68
(lp5604
S'status'
p5605
asbag61
(g82
g63
NtRp5606
(dp5607
g66
(dp5608
g93
g94
ssg75
g5597
sg68
(lp5609
S':'
asbag61
(g82
g63
NtRp5610
(dp5611
g66
(dp5612
sg75
g5597
sg68
(lp5613
g61
(g62
g63
NtRp5614
(dp5615
g66
(dp5616
g74
I5
ssg75
g5610
sg68
(lp5617
S'200'
p5618
asbasbasbag61
(g77
g63
NtRp5619
(dp5620
g66
(dp5621
sg75
g4028
sg68
(lp5622
g61
(g82
g63
NtRp5623
(dp5624
g66
(dp5625
g86
g87
ssg75
g5619
sg68
(lp5626
S'subtitle'
p5627
asbag61
(g82
g63
NtRp5628
(dp5629
g66
(dp5630
g93
g94
ssg75
g5619
sg68
(lp5631
S':'
asbag61
(g82
g63
NtRp5632
(dp5633
g66
(dp5634
sg75
g5619
sg68
(lp5635
g61
(g62
g63
NtRp5636
(dp5637
g66
(dp5638
g74
I5
ssg75
g5632
sg68
(lp5639
g4561
(S's\r\x00\x00\x00customize me!'
tRp5640
asbasbasbag61
(g77
g63
NtRp5641
(dp5642
g66
(dp5643
sg75
g4028
sg68
(lp5644
g61
(g82
g63
NtRp5645
(dp5646
g66
(dp5647
g86
g87
ssg75
g5641
sg68
(lp5648
S'title'
p5649
asbag61
(g82
g63
NtRp5650
(dp5651
g66
(dp5652
g93
g94
ssg75
g5641
sg68
(lp5653
S':'
asbag61
(g82
g63
NtRp5654
(dp5655
g66
(dp5656
sg75
g5641
sg68
(lp5657
g61
(g62
g63
NtRp5658
(dp5659
g66
(dp5660
g74
I5
ssg75
g5654
sg68
(lp5661
S'Eventos'
p5662
asbasbasbag61
(g77
g63
NtRp5663
(dp5664
g66
(dp5665
sg75
g4028
sg68
(lp5666
g61
(g82
g63
NtRp5667
(dp5668
g66
(dp5669
g86
g87
ssg75
g5663
sg68
(lp5670
S'view'
p5671
asbag61
(g82
g63
NtRp5672
(dp5673
g66
(dp5674
g93
g94
ssg75
g5663
sg68
(lp5675
S':'
asbag61
(g82
g63
NtRp5676
(dp5677
g66
(dp5678
sg75
g5663
sg68
(lp5679
g61
(g62
g63
NtRp5680
(dp5681
g66
(dp5682
g74
I5
ssg75
g5676
sg68
(lp5683
S'initial/show_cliente.html'
p5684
asbasbasbasbasbsS'locals'
p5685
(dp5686
S'exc'
p5687
S'ProgrammingError(\'ERROR\', \'42P01\', \'relation "meetme_id_seq" does not exist\')'
p5688
sS'msg_class'
p5689
S"<class 'gluon.contrib.pg8000.protocol.RowDescription'>"
p5690
sS'self'
p5691
S'<gluon.contrib.pg8000.protocol.MessageReader object>'
p5692
sg46
S'()'
p5693
sS'handler'
p5694
S'<function <lambda>>'
p5695
sS'kwargs'
p5696
g21
sS'msg'
p5697
S'<ErrorResponse ERROR 42P01 \'relation "meetme_id_seq" does not exist\'>'
p5698
sS'msg_handled'
p5699
g104
sssS'traceback'
p5700
S'Traceback (most recent call last):\n  File "/var/www/conferencia/gluon/restricted.py", line 212, in restricted\n    exec ccode in environment\n  File "/var/www/conferencia/applications/projeto/controllers/initial.py", line 324, in <module>\n  File "/var/www/conferencia/gluon/globals.py", line 193, in <lambda>\n    self._caller = lambda f: f()\n  File "/var/www/conferencia/applications/projeto/controllers/initial.py", line 14, in show_cliente\n    links=[lambda row: A(\'Editar\',\n  File "/var/www/conferencia/gluon/sqlhtml.py", line 1881, in grid\n    onsuccess=oncreate)\n  File "/var/www/conferencia/gluon/html.py", line 2179, in process\n    self.validate(**kwargs)\n  File "/var/www/conferencia/gluon/html.py", line 2118, in validate\n    if self.accepts(**kwargs):\n  File "/var/www/conferencia/gluon/sqlhtml.py", line 1486, in accepts\n    self.vars.id = self.table.insert(**fields)\n  File "/var/www/conferencia/gluon/dal.py", line 7918, in insert\n    ret =  self._db._adapter.insert(self,self._listify(fields))\n  File "/var/www/conferencia/gluon/dal.py", line 1180, in insert\n    id = self.lastrowid(table)\n  File "/var/www/conferencia/gluon/dal.py", line 2537, in lastrowid\n    self.execute("select currval(\'%s\')" % table._sequence_name)\n  File "/var/www/conferencia/gluon/dal.py", line 1709, in execute\n    return self.log_execute(*a, **b)\n  File "/var/www/conferencia/gluon/dal.py", line 1703, in log_execute\n    ret = self.cursor.execute(*a, **b)\n  File "/var/www/conferencia/gluon/contrib/pg8000/dbapi.py", line 246, in _fn\n    return fn(self, *args, **kwargs)\n  File "/var/www/conferencia/gluon/contrib/pg8000/dbapi.py", line 317, in execute\n    self._execute(operation, args)\n  File "/var/www/conferencia/gluon/contrib/pg8000/dbapi.py", line 322, in _execute\n    self.cursor.execute(new_query, *new_args)\n  File "/var/www/conferencia/gluon/contrib/pg8000/interface.py", line 398, in execute\n    self._stmt = PreparedStatement(self.connection, query, statement_name="", *[{"type": type(x), "value": x} for x in args])\n  File "/var/www/conferencia/gluon/contrib/pg8000/interface.py", line 138, in __init__\n    self._parse_row_desc = self.c.parse(self._statement_name, statement, types)\n  File "/var/www/conferencia/gluon/contrib/pg8000/protocol.py", line 943, in _fn\n    return fn(self, *args, **kwargs)\n  File "/var/www/conferencia/gluon/contrib/pg8000/protocol.py", line 1104, in parse\n    return reader.handle_messages()\n  File "/var/www/conferencia/gluon/contrib/pg8000/protocol.py", line 929, in handle_messages\n    raise exc\nProgrammingError: (\'ERROR\', \'42P01\', \'relation "meetme_id_seq" does not exist\')\n'
p5701
s.