(dp1
S'output'
p2
S"<type 'exceptions.SyntaxError'> user is tampering with form's record_id: {'confno': None} != 1014"
p3
sS'layer'
p4
S'/var/www/conferencia/applications/projeto/controllers/initial.py'
p5
sS'code'
p6
S'# coding: utf-8\n\ndef show_cliente():\n\tresponse.title="Eventos"\n\tprint request.now\n\n\tgrid = SQLFORM.grid(db.meetme, orderby=db.meetme.endtime,\n\t\tuser_signature=False, searchable=True, csv=False, \n\t\tpaginate=50, details=False,  \n\t\tignore_rw = True, maxtextlength=36, \n    \t)\n\treturn response.render("initial/show_grid.html", grid=grid)\n\ndef show_servidor():\n\tresponse.title="Eventos"\n\tdata = request.now\n\n\tquery=(db.meetme.endtime > \'2013-04-03 09:38:17.902532\') \n\tquery2=(\'SELECT * from meetme order by id desc LIMIT 4;\')\n\tprint query\n\n\tgrid = SQLFORM.grid(query=query, orderby=db.meetme.endtime,\n\t\tuser_signature=False, searchable=True, csv=False, \n\t\tpaginate=50, details=False,  \n\t\tignore_rw = True, maxtextlength=36, \n    \t)\n\treturn response.render("initial/show_grid.html", grid=grid)\n\n\n@auth.requires_login()\ndef show_distro():\n\tresponse.title="Distribui\xc3\xa7\xc3\xb5es"\n\n\tdb.args=Distro.id.readable=False\n\tdb.args=Distro.img.readable=False\n\tgrid = SQLFORM.grid(Distro,\n\t\tuser_signature=True, searchable=True, csv=False,\n\t\tpaginate=50, details=False, ignore_rw = True, \n\t\tmaxtextlength=26, links_placement=\'left\',\n\t\tcreate=auth.has_membership("admin"),\n\t\teditable=auth.has_membership("admin"),\n\t\tdeletable=auth.has_membership("admin"),  \n    \tlinks = [lambda row: A(\'hosts\', \n    \t\t_class=\'btn\', \n    \t\t_title=\'ver servidores\', \n    \t\t_href=URL("initial", "/distro_host", \n    \t\tvars=dict(f=row.id, n1=\'Distros\', p1=\'show_distro\'))), \n    \tdict(header=\'\',body=lambda row: A( IMG(_src=URL("static", "images", args=(row.img) ))))]\n\t\t)\n\treturn response.render("initial/show_grid.html", grid=grid)\n\n\n@auth.requires_login()\ndef cliente_host():\n\tfiltro = request.vars[\'f\']\n\tqueryset = db(db.cliente.id == filtro)\n\trows = queryset.select()\n\tcliente = rows[0]\n\tresponse.title = cliente.nome\n\tprint cliente\n\n\tnome_ant1 = request.vars[\'n1\']\n\tfuncao_ant1 = request.vars[\'p1\']\n\tnome_atual = cliente.nome\n\n\tquery = ((db.hosts.id_cliente == filtro) & (db.distro.id == db.hosts.id_distro))\n\tlinks = [dict(header=\'\',body=lambda row: A( IMG(_src=URL("static", "images", args=(row.distro.img)) ))), \n\t lambda row: A(\'Detalhes\', \n    \t\t      _class=\'btn\', \n    \t\t      _title=\'Detalhes\', \n    \t\t      _href=URL("initial", "/detalhes_nav", \n    \t\t      vars=dict(f=row.hosts.id, c=filtro, n=cliente.nome, \n    \t\t      \t\t\tn1=\'Clientes\', p1=\'show_cliente\', p=\'cliente_host\'))),\n\t lambda row: A(\'Editar\', \n    \t\t      _class=\'btn\', \n    \t\t      _title=\'Editar\', \n    \t\t      _href=URL("initial", "/edit_host", \n    \t\t      vars=dict(f=row.hosts.id, c=filtro, n=cliente.nome, \n    \t\t      \t\tn1=\'Clientes\', p1=\'show_cliente\', p=\'cliente_host\')))]\n\tdb.hosts.id.readable=False\n\tdb.distro.img.readable=False\n\t\n\tfields = (db.hosts.id, db.hosts.id_servidor, db.hosts.id_distro, db.distro.img, \n\t\t\t  db.hosts.ip_chegada, db.hosts.porta_ssh, db.hosts.gateway)\n\theaders = {\'hosts.id\':   \'ID\',\n\t\t\t   \'hosts.id_cliente\': \'Cliente\',\n               \'hosts.id_servidor\': \'Servidor\',\n               \'hosts.id_distro\': \'Distro\',\n               \'hosts.nome\': \'Nome\',\n\t           \'hosts.servicos\': \'Servicos\'}\n\tgrid = SQLFORM.grid(query=query, fields=fields, headers=headers, csv=False,\n\t\t\t\t\t\tdetails=False, searchable=False, maxtextlength=23, links=links, \n\t\t\t\t\t\tlinks_placement=\'left\', editable=False, create=False)\n\n\treturn response.render("initial/show_grid2.html", grid=grid, nome_ant1=nome_ant1, \n\t\t\t\t\t\tfuncao_ant1=funcao_ant1, nome_atual=nome_atual)\n\n@auth.requires_login()\ndef servidor_host():\n\tfiltro = request.vars[\'f\']\n\tqueryset = db(db.servidor.id == filtro)\n\trows = queryset.select()\n\tservidor = rows[0]\n\tresponse.title = servidor.nome\n\n\tnome_ant1 = request.vars[\'n1\']\n\tfuncao_ant1 = request.vars[\'p1\']\n\tnome_atual = servidor.nome\t\n\n\tdb.distro.img.readable=False\n\tdb.hosts.id.readable=False\n\tquery = ((db.hosts.id_servidor == filtro) & (db.distro.id == db.hosts.id_distro))\n\n\tlinks = [dict(header=\'\',body=lambda row: A( IMG(_src=URL("static", "images", args=(row.distro.img)) ))), \n\t lambda row: A(\'Detalhes\', \n    \t\t      _class=\'btn\', \n    \t\t      _title=\'Detalhes\', \n    \t\t      _href=URL("initial", "/detalhes_nav", \n    \t\t      vars=dict(f=row.hosts.id, c=filtro, n=servidor.nome, \n    \t\t      \t\tn1=\'Servidores\', p1=\'show_servidor\', p=\'servidor_host\'))),\n\t lambda row: A(\'Editar\', \n    \t\t      _class=\'btn\', \n    \t\t      _title=\'Editar\', \n    \t\t      _href=URL("initial", "/edit_host", \n    \t\t      vars=dict(f=row.hosts.id, c=filtro, n=servidor.nome, \n    \t\t      \t\tn1=\'Servidores\', p1=\'show_servidor\', p=\'servidor_host\')))]\n\n\tfields = (db.hosts.id, db.hosts.id_cliente, db.hosts.id_distro, db.distro.img, \n\t\t\t\tdb.hosts.ip_chegada, db.hosts.porta_ssh, db.hosts.gateway)\n\theaders = {\'hosts.id\':   \'ID\',\n\t\t\t   \'hosts.id_cliente\': \'Cliente\',\n               \'hosts.id_servidor\': \'Servidor\',\n               \'hosts.id_distro\': \'Distro\',\n               \'hosts.nome\': \'Nome\',\n\t           \'hosts.servicos\': \'Servicos\'}\n\tgrid = SQLFORM.grid(query=query, fields=fields, headers=headers, csv=False,\n\t\t\t\t\t\tdetails=False, searchable=False, maxtextlength=23, links=links, \n\t\t\t\t\t\tlinks_placement=\'left\', editable=False, create=False)\n\n\treturn response.render("initial/show_grid2.html", grid=grid, nome_ant1=nome_ant1, \n\t\t\t\t\t\tfuncao_ant1=funcao_ant1, nome_atual=nome_atual)\n\n@auth.requires_login()\ndef distro_host():\n\tfiltro = request.vars[\'f\']\n\tqueryset = db(db.distro.id == filtro)\n\trows = queryset.select()\n\tdistro = rows[0]\n\tresponse.title = distro.nome\n\n\tnome_ant1 = request.vars[\'n1\']\n\tfuncao_ant1 = request.vars[\'p1\']\n\tnome_atual = distro.nome\t\n\t\n\tdb.hosts.id.readable=False\n\tdb.distro.img.readable=False\n\tquery = ((db.hosts.id_distro == filtro) & (db.distro.id == db.hosts.id_distro))\n\tlinks = [dict(header=\'\',body=lambda row: A( IMG(_src=URL("static", "images", args=(row.distro.img)) ))), \n\t lambda row: A(\'Detalhes\', \n    \t\t      _class=\'btn\', \n    \t\t      _title=\'Detalhes\', \n    \t\t      _href=URL("initial", "/detalhes_nav", \n    \t\t      vars=dict(f=row.hosts.id, c=filtro, n=distro.nome, \n    \t\t      \t\tn1=\'Distros\', p1=\'show_distro\', p=\'distro_host\'))),\n\t lambda row: A(\'Editar\', \n    \t\t      _class=\'btn\', \n    \t\t      _title=\'Editar\', \n    \t\t      _href=URL("initial", "/edit_host", \n    \t\t      vars=dict(f=row.hosts.id, c=filtro, n=distro.nome, \n    \t\t      \t\tn1=\'Distros\', p1=\'show_distro\', p=\'distro_host\')))]\n\n\tfields = (db.hosts.id, db.hosts.id_cliente, db.hosts.id_servidor, db.distro.img, \n\t\t\t  db.hosts.ip_chegada, db.hosts.porta_ssh, db.hosts.gateway)\n\theaders = {\'hosts.id\':   \'ID\',\n\t\t\t\t\'hosts.id_cliente\': \'Cliente\',\n               \'hosts.id_servidor\': \'Servidor\',\n               \'hosts.id_distro\': \'Distro\',\n               \'hosts.nome\': \'Nome\',\n\t           \'hosts.servicos\': \'Servicos\'}\n\tgrid = SQLFORM.grid(query=query, fields=fields, headers=headers, csv=False,\n\t\t\t\t\t\tdetails=False, searchable=False, maxtextlength=23, links=links, \n\t\t\t\t\t\tlinks_placement=\'left\', editable=False, create=False)\n\n\treturn response.render("initial/show_grid2.html", grid=grid, nome_ant1=nome_ant1, \n\t\t\t\t\t\tfuncao_ant1=funcao_ant1, nome_atual=nome_atual)\n\ndef detalhes_nav():\n\t#detalhes\n\tfiltro = request.vars[\'f\'] #id_host\n\tid_cliente = request.vars[\'c\'] #id_cliente\n\tnome_ant = request.vars[\'n\'] #nome (asterisk ou agronelli ou debian)\n\tnome_ant1 = request.vars[\'n1\'] #nome (servidores ou clientes ou distros)\n\tfuncao_ant = request.vars[\'p\'] #funcao(host_servidores)\n\tfuncao_ant1 = request.vars[\'p1\'] #funcao(show_servidores)\n\t\n\n\tquery = ((db.hosts.id == filtro) & (db.hosts.id_cliente == db.cliente.id)\n\t \t    & (db.hosts.id_servidor == db.servidor.id) \n\t \t    & (db.hosts.id_distro == db.distro.id)) \n\tdetalhes = db.hosts(query)\n\t\n\t\n\treturn response.render("initial/detalhes_host.html", detalhes=detalhes, \n\t\t\t\tid_cliente=id_cliente, funcao_ant=funcao_ant, funcao_ant1=funcao_ant1, \n\t\t\t\tnome_ant=nome_ant, nome_ant1=nome_ant1, filtro=filtro)\n\n\ndef edit_host():\n    form = SQLFORM(db.hosts, request.vars[\'f\'], submit_button=\'Editar\', fields = [\'id_cliente\', \'id_servidor\', \'id_distro\', \'servicos\',\n\t\t\t\t\'if1\', \'ip1\', \'masc1\', \'obs1\', \'if2\', \'ip2\', \'masc2\', \'obs2\',\n\t\t\t\t\'if3\', \'ip3\', \'masc3\', \'obs3\', \'if4\', \'ip4\', \'masc4\', \'obs4\',\n\t\t\t\t\'nome\', \'ip_chegada\', \'porta_ssh\', \'gateway\', \'rotas\', \'obs_gerais\'],\n\t\t\t\tlabels = {\'id_cliente\':\'Cliente\', \'id_servidor\':\'Servidor\', \'id_distro\':\'Distro\',\n\t\t\t\t\'if1\':\'Interface 1\', \'ip1\':\'IP\', \'masc1\':\'M\xc3\xa1scara\', \'obs1\':\'Obs\',\n\t\t\t\t\'if2\':\'Interface 2\', \'ip2\':\'IP\', \'masc2\':\'M\xc3\xa1scara\', \'obs2\':\'Obs\',\n\t\t\t\t\'if3\':\'Interface 3\', \'ip3\':\'IP\', \'masc3\':\'M\xc3\xa1scara\', \'obs3\':\'Obs\',\n\t\t\t\t\'if4\':\'Interface 4\', \'ip4\':\'IP\', \'masc4\':\'M\xc3\xa1scara\', \'obs4\':\'Obs\'})\n\n    if form.process().accepted:\n       response.flash = \'Editado com sucesso\'\n    elif form.errors:\n       response.flash = \'Ops, algo n\xc3\xa3o est\xc3\xa1 correto\'\n    else:\n       response.flash = \'Edite os dados do host\'\n\n    return response.render("initial/show_form.html", form=form, id_cliente = request.vars[\'c\'], \n    \t\t\t\tnome_ant = request.vars[\'n\'], nome_ant1 = request.vars[\'n1\'], \n    \t\t\t\tfuncao_ant = request.vars[\'p\'], funcao_ant1 = request.vars[\'p1\'])\n\n\n@auth.requires_login()\ndef interface():\n\t#adicionar\n    form = SQLFORM(db.hosts, submit_button=\'Adicionar\', \n    \t\t\tfields = [\'id_cliente\', \'id_servidor\', \'id_distro\', \'servicos\',\n\t\t\t\t\'if1\', \'ip1\', \'masc1\', \'obs1\', \'if2\', \'ip2\', \'masc2\', \'obs2\',\n\t\t\t\t\'if3\', \'ip3\', \'masc3\', \'obs3\', \'if4\', \'ip4\', \'masc4\', \'obs4\',\n\t\t\t\t\'nome\', \'ip_chegada\', \'porta_ssh\', \'gateway\', \'rotas\', \'obs_gerais\'], \n\t\t\t\tlabels = {\'id_cliente\':\'Cliente\', \'id_servidor\':\'Servidor\', \'id_distro\':\'Distro\',\n\t\t\t\t\'if1\':\'Interface 1\', \'ip1\':\'IP\', \'masc1\':\'M\xc3\xa1scara\', \'obs1\':\'Obs\',\n\t\t\t\t\'if2\':\'Interface 2\', \'ip2\':\'IP\', \'masc2\':\'M\xc3\xa1scara\', \'obs2\':\'Obs\',\n\t\t\t\t\'if3\':\'Interface 3\', \'ip3\':\'IP\', \'masc3\':\'M\xc3\xa1scara\', \'obs3\':\'Obs\',\n\t\t\t\t\'if4\':\'Interface 4\', \'ip4\':\'IP\', \'masc4\':\'M\xc3\xa1scara\', \'obs4\':\'Obs\'})\n   \n    if form.process().accepted:\n    \thost = request.vars\n    \temail(host)\n    \tresponse.flash = \'Inserido com sucesso\'\t\t\n    elif form.errors:\n       response.flash = \'Ops, algo n\xc3\xa3o est\xc3\xa1 correto\'\n    else:\n       response.flash = \'Insira os dados do novo host\'\n    return response.render("initial/show_form2.html", form=form)\n\ndef about():\n\tfiltro = request.vars[\'f\']\n\tquery = ((db.hosts.id_servidor == filtro) & (db.distro.id == db.hosts.id_distro))\n\tfields = (db.hosts.id, db.hosts.id_cliente, db.hosts.id_distro, db.distro.img, \n\t\t\t\tdb.hosts.ip_chegada, db.hosts.porta_ssh, db.hosts.gateway)\n\theaders = {\'host.id\':   \'ID\',\n               \'host.id_servidor\': \'Servidor\',\n               \'host.id_distro\': \'Distro\',\n               \'host.nome\': \'Nome\',\n\t           \'host.servicos\': \'Servicos\'}\n\tgrid = SQLFORM.grid(query=query, fields=fields, headers=headers, csv=False,\n\t\t\t\t\t\tdetails=False, maxtextlength=23, searchable=True, editable=False, create=False)\n\n\treturn response.render("initial/teste.html", grid=grid,)\n\ndef user():\n\t#if request.args(0) == \'register\':\n    #    \tdb.auth_user.bio.writable = db.auth_user.bio.readable = False\n\treturn response.render("initial/user.html", user=auth())\n\ndef register():\n\treturn auth.register()\n\ndef login():\n        return auth.login()\n\ndef account():\n    return dict(register=auth.register(),\n                login=auth.login())\n\t\ndef download():\n\treturn response.download(request, db)\n\n\ndef principal():\n\tresponse.title="Usu\xc3\xa1rios"\n\n\tgrid = SQLFORM.grid(db.usuario,\n\t\tuser_signature=False, searchable=True, csv=False, \n\t\tpaginate=50, details=False,  \n\t\tignore_rw = True, maxtextlength=36, \n    \t)\n\treturn response.render("initial/show_grid.html", grid=grid)\n\n\t\ndef detalhes_clean():\n\tfiltro = request.vars[\'f\'] #id_host\n\t\t\n\n\tquery = ((db.hosts.id == filtro) & (db.hosts.id_cliente == db.cliente.id)\n\t \t    & (db.hosts.id_servidor == db.servidor.id) \n\t \t    & (db.hosts.id_distro == db.distro.id)) \n\tdetalhes = db.hosts(query)\n\n\t\n\treturn response.render("initial/detalhes_host_clean.html", detalhes=detalhes)\n\ndef email(host):\n\tif auth.has_membership(\'voip\'):\n\t\tmail.send(\n\t\t\tto="fndiaz02@gmail.com",\n\t\t\tsubject="host adicionado",\n\t\t\tmessage="<html>Um novo host foi adicionado pelo usu\xc3\xa1rio %s <br>nome: %s <br>vpn: %s<br><br>\xc3\x89 preciso fazer a instala\xc3\xa7\xc3\xa3o do client zabbix e bacula</html>" % (auth.user.first_name, host.nome, host.ip_chegada,)\n\t\t\t)\n\telif auth.has_membership(\'internet\'):\n\t\tmail.send(\n\t\t\tto="fernando@ad2.com.br",\n\t\t\tsubject="host adicionado",\n\t\t\tmessage="<html>Um novo host foi adicionado pelo usu\xc3\xa1rio %s <br>nome: %s <br>vpn: %s<br><br>\xc3\x89 preciso fazer a instala\xc3\xa7\xc3\xa3o do client zabbix e bacula</html>" % (auth.user.first_name, host.nome, host.ip_chegada,)\n\t\t\t)\n\nresponse._vars=response._caller(show_cliente)\n'
p7
sS'snapshot'
p8
(dp9
S'exception'
p10
(dp11
S'__getslice__'
p12
S"<method-wrapper '__getslice__' of exceptions.SyntaxError object>"
p13
sS'text'
p14
S'None'
p15
sS'__str__'
p16
S"<method-wrapper '__str__' of exceptions.SyntaxError object>"
p17
sS'__reduce__'
p18
S'<built-in method __reduce__ of exceptions.SyntaxError object>'
p19
sS'__dict__'
p20
S'{}'
p21
sS'__sizeof__'
p22
S'<built-in method __sizeof__ of exceptions.SyntaxError object>'
p23
sS'__init__'
p24
S"<method-wrapper '__init__' of exceptions.SyntaxError object>"
p25
sS'__setattr__'
p26
S"<method-wrapper '__setattr__' of exceptions.SyntaxError object>"
p27
sS'__reduce_ex__'
p28
S'<built-in method __reduce_ex__ of exceptions.SyntaxError object>'
p29
sS'__new__'
p30
S'<built-in method __new__ of type object>'
p31
sS'__format__'
p32
S'<built-in method __format__ of exceptions.SyntaxError object>'
p33
sS'__class__'
p34
S"<type 'exceptions.SyntaxError'>"
p35
sS'filename'
p36
S'None'
p37
sS'lineno'
p38
S'None'
p39
sS'msg'
p40
S'"user is tampering with form\'s record_id: {\'confno\': None} != 1014"'
p41
sS'__doc__'
p42
S"'Invalid syntax.'"
p43
sS'__getitem__'
p44
S"<method-wrapper '__getitem__' of exceptions.SyntaxError object>"
p45
sS'__setstate__'
p46
S'<built-in method __setstate__ of exceptions.SyntaxError object>'
p47
sS'__getattribute__'
p48
S"<method-wrapper '__getattribute__' of exceptions.SyntaxError object>"
p49
sS'print_file_and_line'
p50
S'None'
p51
sS'args'
p52
S'("user is tampering with form\'s record_id: {\'confno\': None} != 1014",)'
p53
sS'__subclasshook__'
p54
S'<built-in method __subclasshook__ of type object>'
p55
sS'offset'
p56
S'None'
p57
sS'__unicode__'
p58
S'<built-in method __unicode__ of exceptions.SyntaxError object>'
p59
sS'__delattr__'
p60
S"<method-wrapper '__delattr__' of exceptions.SyntaxError object>"
p61
sS'__repr__'
p62
S"<method-wrapper '__repr__' of exceptions.SyntaxError object>"
p63
sS'__hash__'
p64
S"<method-wrapper '__hash__' of exceptions.SyntaxError object>"
p65
ssS'evalue'
p66
S"user is tampering with form's record_id: {'confno': None} != 1014"
p67
sS'request'
p68
ccopy_reg
_reconstructor
p69
(cgluon.html
BEAUTIFY
p70
c__builtin__
object
p71
NtRp72
(dp73
S'attributes'
p74
(dp75
sS'components'
p76
(lp77
g69
(cgluon.html
TABLE
p78
g71
NtRp79
(dp80
g74
(dp81
S'level'
p82
I5
ssS'parent'
p83
Nsg76
(lp84
g69
(cgluon.html
TR
p85
g71
NtRp86
(dp87
g74
(dp88
sg83
g79
sg76
(lp89
g69
(cgluon.html
TD
p90
g71
NtRp91
(dp92
g74
(dp93
S'_style'
p94
S'font-weight:bold;vertical-align:top'
p95
ssg83
g86
sg76
(lp96
S'ajax'
p97
asbag69
(g90
g71
NtRp98
(dp99
g74
(dp100
S'_valign'
p101
S'top'
p102
ssg83
g86
sg76
(lp103
S':'
asbag69
(g90
g71
NtRp104
(dp105
g74
(dp106
sg83
g86
sg76
(lp107
g69
(g70
g71
NtRp108
(dp109
g74
(dp110
g82
I5
ssg83
g104
sg76
(lp111
S'False'
p112
asbasbasbag69
(g85
g71
NtRp113
(dp114
g74
(dp115
sg83
g79
sg76
(lp116
g69
(g90
g71
NtRp117
(dp118
g74
(dp119
g94
g95
ssg83
g113
sg76
(lp120
S'application'
p121
asbag69
(g90
g71
NtRp122
(dp123
g74
(dp124
g101
g102
ssg83
g113
sg76
(lp125
S':'
asbag69
(g90
g71
NtRp126
(dp127
g74
(dp128
sg83
g113
sg76
(lp129
g69
(g70
g71
NtRp130
(dp131
g74
(dp132
g82
I5
ssg83
g126
sg76
(lp133
S'projeto'
p134
asbasbasbag69
(g85
g71
NtRp135
(dp136
g74
(dp137
sg83
g79
sg76
(lp138
g69
(g90
g71
NtRp139
(dp140
g74
(dp141
g94
g95
ssg83
g135
sg76
(lp142
g52
asbag69
(g90
g71
NtRp143
(dp144
g74
(dp145
g101
g102
ssg83
g135
sg76
(lp146
S':'
asbag69
(g90
g71
NtRp147
(dp148
g74
(dp149
sg83
g135
sg76
(lp150
g69
(g70
g71
NtRp151
(dp152
g74
(dp153
g82
I5
ssg83
g147
sg76
(lp154
g69
(g78
g71
NtRp155
(dp156
g74
(dp157
g82
I4
ssg83
Nsg76
(lp158
g69
(g85
g71
NtRp159
(dp160
g74
(dp161
sg83
g155
sg76
(lp162
g69
(g90
g71
NtRp163
(dp164
g74
(dp165
sg83
g159
sg76
(lp166
g69
(g70
g71
NtRp167
(dp168
g74
(dp169
g82
I4
ssg83
g163
sg76
(lp170
S'edit'
p171
asbasbasbag69
(g85
g71
NtRp172
(dp173
g74
(dp174
sg83
g155
sg76
(lp175
g69
(g90
g71
NtRp176
(dp177
g74
(dp178
sg83
g172
sg76
(lp179
g69
(g70
g71
NtRp180
(dp181
g74
(dp182
g82
I4
ssg83
g176
sg76
(lp183
S'meetme'
p184
asbasbasbag69
(g85
g71
NtRp185
(dp186
g74
(dp187
sg83
g155
sg76
(lp188
g69
(g90
g71
NtRp189
(dp190
g74
(dp191
sg83
g185
sg76
(lp192
g69
(g70
g71
NtRp193
(dp194
g74
(dp195
g82
I4
ssg83
g189
sg76
(lp196
S'1014'
p197
asbasbasbasbasbasbasbag69
(g85
g71
NtRp198
(dp199
g74
(dp200
sg83
g79
sg76
(lp201
g69
(g90
g71
NtRp202
(dp203
g74
(dp204
g94
g95
ssg83
g198
sg76
(lp205
S'body'
p206
asbag69
(g90
g71
NtRp207
(dp208
g74
(dp209
g101
g102
ssg83
g198
sg76
(lp210
S':'
asbag69
(g90
g71
NtRp211
(dp212
g74
(dp213
sg83
g198
sg76
(lp214
g69
(g70
g71
NtRp215
(dp216
g74
(dp217
g82
I5
ssg83
g211
sg76
(lp218
S"<open file '<fdopen>', mode 'w+b' at 0x7f63407acc90>"
p219
asbasbasbag69
(g85
g71
NtRp220
(dp221
g74
(dp222
sg83
g79
sg76
(lp223
g69
(g90
g71
NtRp224
(dp225
g74
(dp226
g94
g95
ssg83
g220
sg76
(lp227
S'cid'
p228
asbag69
(g90
g71
NtRp229
(dp230
g74
(dp231
g101
g102
ssg83
g220
sg76
(lp232
S':'
asbag69
(g90
g71
NtRp233
(dp234
g74
(dp235
sg83
g220
sg76
(lp236
g69
(g70
g71
NtRp237
(dp238
g74
(dp239
g82
I5
ssg83
g233
sg76
(lp240
S'None'
p241
asbasbasbag69
(g85
g71
NtRp242
(dp243
g74
(dp244
sg83
g79
sg76
(lp245
g69
(g90
g71
NtRp246
(dp247
g74
(dp248
g94
g95
ssg83
g242
sg76
(lp249
S'client'
p250
asbag69
(g90
g71
NtRp251
(dp252
g74
(dp253
g101
g102
ssg83
g242
sg76
(lp254
S':'
asbag69
(g90
g71
NtRp255
(dp256
g74
(dp257
sg83
g242
sg76
(lp258
g69
(g70
g71
NtRp259
(dp260
g74
(dp261
g82
I5
ssg83
g255
sg76
(lp262
S'127.0.0.1'
p263
asbasbasbag69
(g85
g71
NtRp264
(dp265
g74
(dp266
sg83
g79
sg76
(lp267
g69
(g90
g71
NtRp268
(dp269
g74
(dp270
g94
g95
ssg83
g264
sg76
(lp271
S'controller'
p272
asbag69
(g90
g71
NtRp273
(dp274
g74
(dp275
g101
g102
ssg83
g264
sg76
(lp276
S':'
asbag69
(g90
g71
NtRp277
(dp278
g74
(dp279
sg83
g264
sg76
(lp280
g69
(g70
g71
NtRp281
(dp282
g74
(dp283
g82
I5
ssg83
g277
sg76
(lp284
S'initial'
p285
asbasbasbag69
(g85
g71
NtRp286
(dp287
g74
(dp288
sg83
g79
sg76
(lp289
g69
(g90
g71
NtRp290
(dp291
g74
(dp292
g94
g95
ssg83
g286
sg76
(lp293
S'cookies'
p294
asbag69
(g90
g71
NtRp295
(dp296
g74
(dp297
g101
g102
ssg83
g286
sg76
(lp298
S':'
asbag69
(g90
g71
NtRp299
(dp300
g74
(dp301
sg83
g286
sg76
(lp302
g69
(g70
g71
NtRp303
(dp304
g74
(dp305
g82
I5
ssg83
g299
sg76
(lp306
g69
(g78
g71
NtRp307
(dp308
g74
(dp309
g82
I4
ssg83
Nsg76
(lp310
g69
(g85
g71
NtRp311
(dp312
g74
(dp313
sg83
g307
sg76
(lp314
g69
(g90
g71
NtRp315
(dp316
g74
(dp317
g94
g95
ssg83
g311
sg76
(lp318
S'session_id_admin'
p319
asbag69
(g90
g71
NtRp320
(dp321
g74
(dp322
g101
g102
ssg83
g311
sg76
(lp323
S':'
asbag69
(g90
g71
NtRp324
(dp325
g74
(dp326
sg83
g311
sg76
(lp327
g69
(g70
g71
NtRp328
(dp329
g74
(dp330
g82
I4
ssg83
g324
sg76
(lp331
S'127.0.0.1-9ca8fc56-3213-4881-b103-95238a337326'
p332
ag69
(g78
g71
NtRp333
(dp334
g74
(dp335
g82
I3
ssg83
Nsg76
(lp336
g69
(g85
g71
NtRp337
(dp338
g74
(dp339
sg83
g333
sg76
(lp340
g69
(g90
g71
NtRp341
(dp342
g74
(dp343
g94
g95
ssg83
g337
sg76
(lp344
S'comment'
p345
asbag69
(g90
g71
NtRp346
(dp347
g74
(dp348
g101
g102
ssg83
g337
sg76
(lp349
S':'
asbag69
(g90
g71
NtRp350
(dp351
g74
(dp352
sg83
g337
sg76
(lp353
g69
(g70
g71
NtRp354
(dp355
g74
(dp356
g82
I3
ssg83
g350
sg76
(lp357
S''
asbasbasbag69
(g85
g71
NtRp358
(dp359
g74
(dp360
sg83
g333
sg76
(lp361
g69
(g90
g71
NtRp362
(dp363
g74
(dp364
g94
g95
ssg83
g358
sg76
(lp365
S'domain'
p366
asbag69
(g90
g71
NtRp367
(dp368
g74
(dp369
g101
g102
ssg83
g358
sg76
(lp370
S':'
asbag69
(g90
g71
NtRp371
(dp372
g74
(dp373
sg83
g358
sg76
(lp374
g69
(g70
g71
NtRp375
(dp376
g74
(dp377
g82
I3
ssg83
g371
sg76
(lp378
S''
asbasbasbag69
(g85
g71
NtRp379
(dp380
g74
(dp381
sg83
g333
sg76
(lp382
g69
(g90
g71
NtRp383
(dp384
g74
(dp385
g94
g95
ssg83
g379
sg76
(lp386
S'expires'
p387
asbag69
(g90
g71
NtRp388
(dp389
g74
(dp390
g101
g102
ssg83
g379
sg76
(lp391
S':'
asbag69
(g90
g71
NtRp392
(dp393
g74
(dp394
sg83
g379
sg76
(lp395
g69
(g70
g71
NtRp396
(dp397
g74
(dp398
g82
I3
ssg83
g392
sg76
(lp399
S''
asbasbasbag69
(g85
g71
NtRp400
(dp401
g74
(dp402
sg83
g333
sg76
(lp403
g69
(g90
g71
NtRp404
(dp405
g74
(dp406
g94
g95
ssg83
g400
sg76
(lp407
S'httponly'
p408
asbag69
(g90
g71
NtRp409
(dp410
g74
(dp411
g101
g102
ssg83
g400
sg76
(lp412
S':'
asbag69
(g90
g71
NtRp413
(dp414
g74
(dp415
sg83
g400
sg76
(lp416
g69
(g70
g71
NtRp417
(dp418
g74
(dp419
g82
I3
ssg83
g413
sg76
(lp420
S''
asbasbasbag69
(g85
g71
NtRp421
(dp422
g74
(dp423
sg83
g333
sg76
(lp424
g69
(g90
g71
NtRp425
(dp426
g74
(dp427
g94
g95
ssg83
g421
sg76
(lp428
S'max-age'
p429
asbag69
(g90
g71
NtRp430
(dp431
g74
(dp432
g101
g102
ssg83
g421
sg76
(lp433
S':'
asbag69
(g90
g71
NtRp434
(dp435
g74
(dp436
sg83
g421
sg76
(lp437
g69
(g70
g71
NtRp438
(dp439
g74
(dp440
g82
I3
ssg83
g434
sg76
(lp441
S''
asbasbasbag69
(g85
g71
NtRp442
(dp443
g74
(dp444
sg83
g333
sg76
(lp445
g69
(g90
g71
NtRp446
(dp447
g74
(dp448
g94
g95
ssg83
g442
sg76
(lp449
S'path'
p450
asbag69
(g90
g71
NtRp451
(dp452
g74
(dp453
g101
g102
ssg83
g442
sg76
(lp454
S':'
asbag69
(g90
g71
NtRp455
(dp456
g74
(dp457
sg83
g442
sg76
(lp458
g69
(g70
g71
NtRp459
(dp460
g74
(dp461
g82
I3
ssg83
g455
sg76
(lp462
S''
asbasbasbag69
(g85
g71
NtRp463
(dp464
g74
(dp465
sg83
g333
sg76
(lp466
g69
(g90
g71
NtRp467
(dp468
g74
(dp469
g94
g95
ssg83
g463
sg76
(lp470
S'secure'
p471
asbag69
(g90
g71
NtRp472
(dp473
g74
(dp474
g101
g102
ssg83
g463
sg76
(lp475
S':'
asbag69
(g90
g71
NtRp476
(dp477
g74
(dp478
sg83
g463
sg76
(lp479
g69
(g70
g71
NtRp480
(dp481
g74
(dp482
g82
I3
ssg83
g476
sg76
(lp483
S''
asbasbasbag69
(g85
g71
NtRp484
(dp485
g74
(dp486
sg83
g333
sg76
(lp487
g69
(g90
g71
NtRp488
(dp489
g74
(dp490
g94
g95
ssg83
g484
sg76
(lp491
S'version'
p492
asbag69
(g90
g71
NtRp493
(dp494
g74
(dp495
g101
g102
ssg83
g484
sg76
(lp496
S':'
asbag69
(g90
g71
NtRp497
(dp498
g74
(dp499
sg83
g484
sg76
(lp500
g69
(g70
g71
NtRp501
(dp502
g74
(dp503
g82
I3
ssg83
g497
sg76
(lp504
S''
asbasbasbasbasbasbasbag69
(g85
g71
NtRp505
(dp506
g74
(dp507
sg83
g307
sg76
(lp508
g69
(g90
g71
NtRp509
(dp510
g74
(dp511
g94
g95
ssg83
g505
sg76
(lp512
S'session_id_projeto'
p513
asbag69
(g90
g71
NtRp514
(dp515
g74
(dp516
g101
g102
ssg83
g505
sg76
(lp517
S':'
asbag69
(g90
g71
NtRp518
(dp519
g74
(dp520
sg83
g505
sg76
(lp521
g69
(g70
g71
NtRp522
(dp523
g74
(dp524
g82
I4
ssg83
g518
sg76
(lp525
S'127.0.0.1-001edd4c-cc9d-40b6-92aa-d3bbbc6019b5'
p526
ag69
(g78
g71
NtRp527
(dp528
g74
(dp529
g82
I3
ssg83
Nsg76
(lp530
g69
(g85
g71
NtRp531
(dp532
g74
(dp533
sg83
g527
sg76
(lp534
g69
(g90
g71
NtRp535
(dp536
g74
(dp537
g94
g95
ssg83
g531
sg76
(lp538
g345
asbag69
(g90
g71
NtRp539
(dp540
g74
(dp541
g101
g102
ssg83
g531
sg76
(lp542
S':'
asbag69
(g90
g71
NtRp543
(dp544
g74
(dp545
sg83
g531
sg76
(lp546
g69
(g70
g71
NtRp547
(dp548
g74
(dp549
g82
I3
ssg83
g543
sg76
(lp550
S''
asbasbasbag69
(g85
g71
NtRp551
(dp552
g74
(dp553
sg83
g527
sg76
(lp554
g69
(g90
g71
NtRp555
(dp556
g74
(dp557
g94
g95
ssg83
g551
sg76
(lp558
g366
asbag69
(g90
g71
NtRp559
(dp560
g74
(dp561
g101
g102
ssg83
g551
sg76
(lp562
S':'
asbag69
(g90
g71
NtRp563
(dp564
g74
(dp565
sg83
g551
sg76
(lp566
g69
(g70
g71
NtRp567
(dp568
g74
(dp569
g82
I3
ssg83
g563
sg76
(lp570
S''
asbasbasbag69
(g85
g71
NtRp571
(dp572
g74
(dp573
sg83
g527
sg76
(lp574
g69
(g90
g71
NtRp575
(dp576
g74
(dp577
g94
g95
ssg83
g571
sg76
(lp578
g387
asbag69
(g90
g71
NtRp579
(dp580
g74
(dp581
g101
g102
ssg83
g571
sg76
(lp582
S':'
asbag69
(g90
g71
NtRp583
(dp584
g74
(dp585
sg83
g571
sg76
(lp586
g69
(g70
g71
NtRp587
(dp588
g74
(dp589
g82
I3
ssg83
g583
sg76
(lp590
S''
asbasbasbag69
(g85
g71
NtRp591
(dp592
g74
(dp593
sg83
g527
sg76
(lp594
g69
(g90
g71
NtRp595
(dp596
g74
(dp597
g94
g95
ssg83
g591
sg76
(lp598
g408
asbag69
(g90
g71
NtRp599
(dp600
g74
(dp601
g101
g102
ssg83
g591
sg76
(lp602
S':'
asbag69
(g90
g71
NtRp603
(dp604
g74
(dp605
sg83
g591
sg76
(lp606
g69
(g70
g71
NtRp607
(dp608
g74
(dp609
g82
I3
ssg83
g603
sg76
(lp610
S''
asbasbasbag69
(g85
g71
NtRp611
(dp612
g74
(dp613
sg83
g527
sg76
(lp614
g69
(g90
g71
NtRp615
(dp616
g74
(dp617
g94
g95
ssg83
g611
sg76
(lp618
g429
asbag69
(g90
g71
NtRp619
(dp620
g74
(dp621
g101
g102
ssg83
g611
sg76
(lp622
S':'
asbag69
(g90
g71
NtRp623
(dp624
g74
(dp625
sg83
g611
sg76
(lp626
g69
(g70
g71
NtRp627
(dp628
g74
(dp629
g82
I3
ssg83
g623
sg76
(lp630
S''
asbasbasbag69
(g85
g71
NtRp631
(dp632
g74
(dp633
sg83
g527
sg76
(lp634
g69
(g90
g71
NtRp635
(dp636
g74
(dp637
g94
g95
ssg83
g631
sg76
(lp638
g450
asbag69
(g90
g71
NtRp639
(dp640
g74
(dp641
g101
g102
ssg83
g631
sg76
(lp642
S':'
asbag69
(g90
g71
NtRp643
(dp644
g74
(dp645
sg83
g631
sg76
(lp646
g69
(g70
g71
NtRp647
(dp648
g74
(dp649
g82
I3
ssg83
g643
sg76
(lp650
S''
asbasbasbag69
(g85
g71
NtRp651
(dp652
g74
(dp653
sg83
g527
sg76
(lp654
g69
(g90
g71
NtRp655
(dp656
g74
(dp657
g94
g95
ssg83
g651
sg76
(lp658
g471
asbag69
(g90
g71
NtRp659
(dp660
g74
(dp661
g101
g102
ssg83
g651
sg76
(lp662
S':'
asbag69
(g90
g71
NtRp663
(dp664
g74
(dp665
sg83
g651
sg76
(lp666
g69
(g70
g71
NtRp667
(dp668
g74
(dp669
g82
I3
ssg83
g663
sg76
(lp670
S''
asbasbasbag69
(g85
g71
NtRp671
(dp672
g74
(dp673
sg83
g527
sg76
(lp674
g69
(g90
g71
NtRp675
(dp676
g74
(dp677
g94
g95
ssg83
g671
sg76
(lp678
g492
asbag69
(g90
g71
NtRp679
(dp680
g74
(dp681
g101
g102
ssg83
g671
sg76
(lp682
S':'
asbag69
(g90
g71
NtRp683
(dp684
g74
(dp685
sg83
g671
sg76
(lp686
g69
(g70
g71
NtRp687
(dp688
g74
(dp689
g82
I3
ssg83
g683
sg76
(lp690
S''
asbasbasbasbasbasbasbasbasbasbasbag69
(g85
g71
NtRp691
(dp692
g74
(dp693
sg83
g79
sg76
(lp694
g69
(g90
g71
NtRp695
(dp696
g74
(dp697
g94
g95
ssg83
g691
sg76
(lp698
S'env'
p699
asbag69
(g90
g71
NtRp700
(dp701
g74
(dp702
g101
g102
ssg83
g691
sg76
(lp703
S':'
asbag69
(g90
g71
NtRp704
(dp705
g74
(dp706
sg83
g691
sg76
(lp707
g69
(g70
g71
NtRp708
(dp709
g74
(dp710
g82
I5
ssg83
g704
sg76
(lp711
g69
(g78
g71
NtRp712
(dp713
g74
(dp714
g82
I4
ssg83
Nsg76
(lp715
g69
(g85
g71
NtRp716
(dp717
g74
(dp718
sg83
g712
sg76
(lp719
g69
(g90
g71
NtRp720
(dp721
g74
(dp722
g94
g95
ssg83
g716
sg76
(lp723
S'app_folders'
p724
asbag69
(g90
g71
NtRp725
(dp726
g74
(dp727
g101
g102
ssg83
g716
sg76
(lp728
S':'
asbag69
(g90
g71
NtRp729
(dp730
g74
(dp731
sg83
g716
sg76
(lp732
g69
(g70
g71
NtRp733
(dp734
g74
(dp735
g82
I4
ssg83
g729
sg76
(lp736
S"set(['/var/www/conferencia/applications/admin/', '/var/www/conferencia/applications/projeto/'])"
p737
asbasbasbag69
(g85
g71
NtRp738
(dp739
g74
(dp740
sg83
g712
sg76
(lp741
g69
(g90
g71
NtRp742
(dp743
g74
(dp744
g94
g95
ssg83
g738
sg76
(lp745
S'applications_parent'
p746
asbag69
(g90
g71
NtRp747
(dp748
g74
(dp749
g101
g102
ssg83
g738
sg76
(lp750
S':'
asbag69
(g90
g71
NtRp751
(dp752
g74
(dp753
sg83
g738
sg76
(lp754
g69
(g70
g71
NtRp755
(dp756
g74
(dp757
g82
I4
ssg83
g751
sg76
(lp758
S'/var/www/conferencia'
p759
asbasbasbag69
(g85
g71
NtRp760
(dp761
g74
(dp762
sg83
g712
sg76
(lp763
g69
(g90
g71
NtRp764
(dp765
g74
(dp766
g94
g95
ssg83
g760
sg76
(lp767
S'cmd_args'
p768
asbag69
(g90
g71
NtRp769
(dp770
g74
(dp771
g101
g102
ssg83
g760
sg76
(lp772
S':'
asbag69
(g90
g71
NtRp773
(dp774
g74
(dp775
sg83
g760
sg76
(lp776
g69
(g70
g71
NtRp777
(dp778
g74
(dp779
g82
I4
ssg83
g773
sg76
(lp780
g69
(g78
g71
NtRp781
(dp782
g74
(dp783
g82
I3
ssg83
Nsg76
(lp784
sbasbasbasbag69
(g85
g71
NtRp785
(dp786
g74
(dp787
sg83
g712
sg76
(lp788
g69
(g90
g71
NtRp789
(dp790
g74
(dp791
g94
g95
ssg83
g785
sg76
(lp792
S'cmd_options'
p793
asbag69
(g90
g71
NtRp794
(dp795
g74
(dp796
g101
g102
ssg83
g785
sg76
(lp797
S':'
asbag69
(g90
g71
NtRp798
(dp799
g74
(dp800
sg83
g785
sg76
(lp801
g69
(g70
g71
NtRp802
(dp803
g74
(dp804
g82
I4
ssg83
g798
sg76
(lp805
S"<Values at 0x2c3b248: {'verbose': False, 'ip': '127.0.0.1', 'with_scheduler': False, 'ips': [], 'shutdown_timeout': 5, 'taskbar': False, 'port': 8000, 'maxthreads': None, 'softcron': False, 'server_name': 'fernando-workstation', 'bpython': False, 'nogui': False, 'pid_filename': 'httpserver.pid', 'extcron': False, 'runcron': False, 'run_system_tests': False, 'test': None, 'folder': '/var/www/conferencia', 'config': '', 'minthreads': None, 'winservice': '', 'shell': None, 'run': '', 'log_filename': 'httpserver.log', 'debuglevel': 30, 'args': [''], 'socket_timeout': 5, 'ssl_ca_certificate': None, 'scheduler': None, 'profiler_filename': None, 'ssl_private_key': '', 'scheduler_groups': None, 'password': '123456', 'request_queue_size': 5, 'ssl_certificate': '', 'cronjob': False, 'numthreads': None, 'quiet': False, 'interfaces': None, 'import_models': False, 'timeout': 10, 'plain': False, 'nobanner': False}>"
p806
asbasbasbag69
(g85
g71
NtRp807
(dp808
g74
(dp809
sg83
g712
sg76
(lp810
g69
(g90
g71
NtRp811
(dp812
g74
(dp813
g94
g95
ssg83
g807
sg76
(lp814
S'content_length'
p815
asbag69
(g90
g71
NtRp816
(dp817
g74
(dp818
g101
g102
ssg83
g807
sg76
(lp819
S':'
asbag69
(g90
g71
NtRp820
(dp821
g74
(dp822
sg83
g807
sg76
(lp823
g69
(g70
g71
NtRp824
(dp825
g74
(dp826
g82
I4
ssg83
g820
sg76
(lp827
S'1105'
p828
asbasbasbag69
(g85
g71
NtRp829
(dp830
g74
(dp831
sg83
g712
sg76
(lp832
g69
(g90
g71
NtRp833
(dp834
g74
(dp835
g94
g95
ssg83
g829
sg76
(lp836
S'content_type'
p837
asbag69
(g90
g71
NtRp838
(dp839
g74
(dp840
g101
g102
ssg83
g829
sg76
(lp841
S':'
asbag69
(g90
g71
NtRp842
(dp843
g74
(dp844
sg83
g829
sg76
(lp845
g69
(g70
g71
NtRp846
(dp847
g74
(dp848
g82
I4
ssg83
g842
sg76
(lp849
S'multipart/form-data; boundary=----WebKitFormBoundary8AvhJnMTupk8GLLl'
p850
asbasbasbag69
(g85
g71
NtRp851
(dp852
g74
(dp853
sg83
g712
sg76
(lp854
g69
(g90
g71
NtRp855
(dp856
g74
(dp857
g94
g95
ssg83
g851
sg76
(lp858
S'db_sessions'
p859
asbag69
(g90
g71
NtRp860
(dp861
g74
(dp862
g101
g102
ssg83
g851
sg76
(lp863
S':'
asbag69
(g90
g71
NtRp864
(dp865
g74
(dp866
sg83
g851
sg76
(lp867
g69
(g70
g71
NtRp868
(dp869
g74
(dp870
g82
I4
ssg83
g864
sg76
(lp871
S'set([])'
p872
asbasbasbag69
(g85
g71
NtRp873
(dp874
g74
(dp875
sg83
g712
sg76
(lp876
g69
(g90
g71
NtRp877
(dp878
g74
(dp879
g94
g95
ssg83
g873
sg76
(lp880
S'debugging'
p881
asbag69
(g90
g71
NtRp882
(dp883
g74
(dp884
g101
g102
ssg83
g873
sg76
(lp885
S':'
asbag69
(g90
g71
NtRp886
(dp887
g74
(dp888
sg83
g873
sg76
(lp889
g69
(g70
g71
NtRp890
(dp891
g74
(dp892
g82
I4
ssg83
g886
sg76
(lp893
g112
asbasbasbag69
(g85
g71
NtRp894
(dp895
g74
(dp896
sg83
g712
sg76
(lp897
g69
(g90
g71
NtRp898
(dp899
g74
(dp900
g94
g95
ssg83
g894
sg76
(lp901
S'gluon_parent'
p902
asbag69
(g90
g71
NtRp903
(dp904
g74
(dp905
g101
g102
ssg83
g894
sg76
(lp906
S':'
asbag69
(g90
g71
NtRp907
(dp908
g74
(dp909
sg83
g894
sg76
(lp910
g69
(g70
g71
NtRp911
(dp912
g74
(dp913
g82
I4
ssg83
g907
sg76
(lp914
S'/var/www/conferencia'
p915
asbasbasbag69
(g85
g71
NtRp916
(dp917
g74
(dp918
sg83
g712
sg76
(lp919
g69
(g90
g71
NtRp920
(dp921
g74
(dp922
g94
g95
ssg83
g916
sg76
(lp923
S'http_accept'
p924
asbag69
(g90
g71
NtRp925
(dp926
g74
(dp927
g101
g102
ssg83
g916
sg76
(lp928
S':'
asbag69
(g90
g71
NtRp929
(dp930
g74
(dp931
sg83
g916
sg76
(lp932
g69
(g70
g71
NtRp933
(dp934
g74
(dp935
g82
I4
ssg83
g929
sg76
(lp936
S'text/html,application/xhtml+xml,application/xml;q=0.9,*/*;q=0.8'
p937
asbasbasbag69
(g85
g71
NtRp938
(dp939
g74
(dp940
sg83
g712
sg76
(lp941
g69
(g90
g71
NtRp942
(dp943
g74
(dp944
g94
g95
ssg83
g938
sg76
(lp945
S'http_accept_charset'
p946
asbag69
(g90
g71
NtRp947
(dp948
g74
(dp949
g101
g102
ssg83
g938
sg76
(lp950
S':'
asbag69
(g90
g71
NtRp951
(dp952
g74
(dp953
sg83
g938
sg76
(lp954
g69
(g70
g71
NtRp955
(dp956
g74
(dp957
g82
I4
ssg83
g951
sg76
(lp958
S'ISO-8859-1,utf-8;q=0.7,*;q=0.3'
p959
asbasbasbag69
(g85
g71
NtRp960
(dp961
g74
(dp962
sg83
g712
sg76
(lp963
g69
(g90
g71
NtRp964
(dp965
g74
(dp966
g94
g95
ssg83
g960
sg76
(lp967
S'http_accept_encoding'
p968
asbag69
(g90
g71
NtRp969
(dp970
g74
(dp971
g101
g102
ssg83
g960
sg76
(lp972
S':'
asbag69
(g90
g71
NtRp973
(dp974
g74
(dp975
sg83
g960
sg76
(lp976
g69
(g70
g71
NtRp977
(dp978
g74
(dp979
g82
I4
ssg83
g973
sg76
(lp980
S'gzip,deflate,sdch'
p981
asbasbasbag69
(g85
g71
NtRp982
(dp983
g74
(dp984
sg83
g712
sg76
(lp985
g69
(g90
g71
NtRp986
(dp987
g74
(dp988
g94
g95
ssg83
g982
sg76
(lp989
S'http_accept_language'
p990
asbag69
(g90
g71
NtRp991
(dp992
g74
(dp993
g101
g102
ssg83
g982
sg76
(lp994
S':'
asbag69
(g90
g71
NtRp995
(dp996
g74
(dp997
sg83
g982
sg76
(lp998
g69
(g70
g71
NtRp999
(dp1000
g74
(dp1001
g82
I4
ssg83
g995
sg76
(lp1002
S'pt-BR,pt;q=0.8,en-US;q=0.6,en;q=0.4'
p1003
asbasbasbag69
(g85
g71
NtRp1004
(dp1005
g74
(dp1006
sg83
g712
sg76
(lp1007
g69
(g90
g71
NtRp1008
(dp1009
g74
(dp1010
g94
g95
ssg83
g1004
sg76
(lp1011
S'http_cache_control'
p1012
asbag69
(g90
g71
NtRp1013
(dp1014
g74
(dp1015
g101
g102
ssg83
g1004
sg76
(lp1016
S':'
asbag69
(g90
g71
NtRp1017
(dp1018
g74
(dp1019
sg83
g1004
sg76
(lp1020
g69
(g70
g71
NtRp1021
(dp1022
g74
(dp1023
g82
I4
ssg83
g1017
sg76
(lp1024
S'max-age=0'
p1025
asbasbasbag69
(g85
g71
NtRp1026
(dp1027
g74
(dp1028
sg83
g712
sg76
(lp1029
g69
(g90
g71
NtRp1030
(dp1031
g74
(dp1032
g94
g95
ssg83
g1026
sg76
(lp1033
S'http_connection'
p1034
asbag69
(g90
g71
NtRp1035
(dp1036
g74
(dp1037
g101
g102
ssg83
g1026
sg76
(lp1038
S':'
asbag69
(g90
g71
NtRp1039
(dp1040
g74
(dp1041
sg83
g1026
sg76
(lp1042
g69
(g70
g71
NtRp1043
(dp1044
g74
(dp1045
g82
I4
ssg83
g1039
sg76
(lp1046
S'keep-alive'
p1047
asbasbasbag69
(g85
g71
NtRp1048
(dp1049
g74
(dp1050
sg83
g712
sg76
(lp1051
g69
(g90
g71
NtRp1052
(dp1053
g74
(dp1054
g94
g95
ssg83
g1048
sg76
(lp1055
S'http_content_length'
p1056
asbag69
(g90
g71
NtRp1057
(dp1058
g74
(dp1059
g101
g102
ssg83
g1048
sg76
(lp1060
S':'
asbag69
(g90
g71
NtRp1061
(dp1062
g74
(dp1063
sg83
g1048
sg76
(lp1064
g69
(g70
g71
NtRp1065
(dp1066
g74
(dp1067
g82
I4
ssg83
g1061
sg76
(lp1068
g828
asbasbasbag69
(g85
g71
NtRp1069
(dp1070
g74
(dp1071
sg83
g712
sg76
(lp1072
g69
(g90
g71
NtRp1073
(dp1074
g74
(dp1075
g94
g95
ssg83
g1069
sg76
(lp1076
S'http_content_type'
p1077
asbag69
(g90
g71
NtRp1078
(dp1079
g74
(dp1080
g101
g102
ssg83
g1069
sg76
(lp1081
S':'
asbag69
(g90
g71
NtRp1082
(dp1083
g74
(dp1084
sg83
g1069
sg76
(lp1085
g69
(g70
g71
NtRp1086
(dp1087
g74
(dp1088
g82
I4
ssg83
g1082
sg76
(lp1089
g850
asbasbasbag69
(g85
g71
NtRp1090
(dp1091
g74
(dp1092
sg83
g712
sg76
(lp1093
g69
(g90
g71
NtRp1094
(dp1095
g74
(dp1096
g94
g95
ssg83
g1090
sg76
(lp1097
S'http_cookie'
p1098
asbag69
(g90
g71
NtRp1099
(dp1100
g74
(dp1101
g101
g102
ssg83
g1090
sg76
(lp1102
S':'
asbag69
(g90
g71
NtRp1103
(dp1104
g74
(dp1105
sg83
g1090
sg76
(lp1106
g69
(g70
g71
NtRp1107
(dp1108
g74
(dp1109
g82
I4
ssg83
g1103
sg76
(lp1110
S'session_id_admin=127.0.0.1-9ca8fc56-3213-4881-b103-95238a337326; session_id_projeto=127.0.0.1-001edd4c-cc9d-40b6-92aa-d3bbbc6019b5'
p1111
asbasbasbag69
(g85
g71
NtRp1112
(dp1113
g74
(dp1114
sg83
g712
sg76
(lp1115
g69
(g90
g71
NtRp1116
(dp1117
g74
(dp1118
g94
g95
ssg83
g1112
sg76
(lp1119
S'http_host'
p1120
asbag69
(g90
g71
NtRp1121
(dp1122
g74
(dp1123
g101
g102
ssg83
g1112
sg76
(lp1124
S':'
asbag69
(g90
g71
NtRp1125
(dp1126
g74
(dp1127
sg83
g1112
sg76
(lp1128
g69
(g70
g71
NtRp1129
(dp1130
g74
(dp1131
g82
I4
ssg83
g1125
sg76
(lp1132
S'127.0.0.1:8000'
p1133
asbasbasbag69
(g85
g71
NtRp1134
(dp1135
g74
(dp1136
sg83
g712
sg76
(lp1137
g69
(g90
g71
NtRp1138
(dp1139
g74
(dp1140
g94
g95
ssg83
g1134
sg76
(lp1141
S'http_origin'
p1142
asbag69
(g90
g71
NtRp1143
(dp1144
g74
(dp1145
g101
g102
ssg83
g1134
sg76
(lp1146
S':'
asbag69
(g90
g71
NtRp1147
(dp1148
g74
(dp1149
sg83
g1134
sg76
(lp1150
g69
(g70
g71
NtRp1151
(dp1152
g74
(dp1153
g82
I4
ssg83
g1147
sg76
(lp1154
S'http://127.0.0.1:8000'
p1155
asbasbasbag69
(g85
g71
NtRp1156
(dp1157
g74
(dp1158
sg83
g712
sg76
(lp1159
g69
(g90
g71
NtRp1160
(dp1161
g74
(dp1162
g94
g95
ssg83
g1156
sg76
(lp1163
S'http_referer'
p1164
asbag69
(g90
g71
NtRp1165
(dp1166
g74
(dp1167
g101
g102
ssg83
g1156
sg76
(lp1168
S':'
asbag69
(g90
g71
NtRp1169
(dp1170
g74
(dp1171
sg83
g1156
sg76
(lp1172
g69
(g70
g71
NtRp1173
(dp1174
g74
(dp1175
g82
I4
ssg83
g1169
sg76
(lp1176
S'http://127.0.0.1:8000/show_cliente/edit/meetme/1014'
p1177
asbasbasbag69
(g85
g71
NtRp1178
(dp1179
g74
(dp1180
sg83
g712
sg76
(lp1181
g69
(g90
g71
NtRp1182
(dp1183
g74
(dp1184
g94
g95
ssg83
g1178
sg76
(lp1185
S'http_user_agent'
p1186
asbag69
(g90
g71
NtRp1187
(dp1188
g74
(dp1189
g101
g102
ssg83
g1178
sg76
(lp1190
S':'
asbag69
(g90
g71
NtRp1191
(dp1192
g74
(dp1193
sg83
g1178
sg76
(lp1194
g69
(g70
g71
NtRp1195
(dp1196
g74
(dp1197
g82
I4
ssg83
g1191
sg76
(lp1198
S'Mozilla/5.0 (X11; Linux x86_64) AppleWebKit/537.4 (KHTML, like Gecko) Ubuntu/12.10 Chromium/22.0.1229.94 Chrome/22.0.1229.94 Safari/537.4'
p1199
asbasbasbag69
(g85
g71
NtRp1200
(dp1201
g74
(dp1202
sg83
g712
sg76
(lp1203
g69
(g90
g71
NtRp1204
(dp1205
g74
(dp1206
g94
g95
ssg83
g1200
sg76
(lp1207
S'is_jython'
p1208
asbag69
(g90
g71
NtRp1209
(dp1210
g74
(dp1211
g101
g102
ssg83
g1200
sg76
(lp1212
S':'
asbag69
(g90
g71
NtRp1213
(dp1214
g74
(dp1215
sg83
g1200
sg76
(lp1216
g69
(g70
g71
NtRp1217
(dp1218
g74
(dp1219
g82
I4
ssg83
g1213
sg76
(lp1220
g112
asbasbasbag69
(g85
g71
NtRp1221
(dp1222
g74
(dp1223
sg83
g712
sg76
(lp1224
g69
(g90
g71
NtRp1225
(dp1226
g74
(dp1227
g94
g95
ssg83
g1221
sg76
(lp1228
S'is_pypy'
p1229
asbag69
(g90
g71
NtRp1230
(dp1231
g74
(dp1232
g101
g102
ssg83
g1221
sg76
(lp1233
S':'
asbag69
(g90
g71
NtRp1234
(dp1235
g74
(dp1236
sg83
g1221
sg76
(lp1237
g69
(g70
g71
NtRp1238
(dp1239
g74
(dp1240
g82
I4
ssg83
g1234
sg76
(lp1241
g112
asbasbasbag69
(g85
g71
NtRp1242
(dp1243
g74
(dp1244
sg83
g712
sg76
(lp1245
g69
(g90
g71
NtRp1246
(dp1247
g74
(dp1248
g94
g95
ssg83
g1242
sg76
(lp1249
S'local_hosts'
p1250
asbag69
(g90
g71
NtRp1251
(dp1252
g74
(dp1253
g101
g102
ssg83
g1242
sg76
(lp1254
S':'
asbag69
(g90
g71
NtRp1255
(dp1256
g74
(dp1257
sg83
g1242
sg76
(lp1258
g69
(g70
g71
NtRp1259
(dp1260
g74
(dp1261
g82
I4
ssg83
g1255
sg76
(lp1262
g69
(g78
g71
NtRp1263
(dp1264
g74
(dp1265
g82
I3
ssg83
Nsg76
(lp1266
g69
(g85
g71
NtRp1267
(dp1268
g74
(dp1269
sg83
g1263
sg76
(lp1270
g69
(g90
g71
NtRp1271
(dp1272
g74
(dp1273
sg83
g1267
sg76
(lp1274
g69
(g70
g71
NtRp1275
(dp1276
g74
(dp1277
g82
I3
ssg83
g1271
sg76
(lp1278
S'::1'
p1279
asbasbasbag69
(g85
g71
NtRp1280
(dp1281
g74
(dp1282
sg83
g1263
sg76
(lp1283
g69
(g90
g71
NtRp1284
(dp1285
g74
(dp1286
sg83
g1280
sg76
(lp1287
g69
(g70
g71
NtRp1288
(dp1289
g74
(dp1290
g82
I3
ssg83
g1284
sg76
(lp1291
S'::ffff:127.0.0.1'
p1292
asbasbasbag69
(g85
g71
NtRp1293
(dp1294
g74
(dp1295
sg83
g1263
sg76
(lp1296
g69
(g90
g71
NtRp1297
(dp1298
g74
(dp1299
sg83
g1293
sg76
(lp1300
g69
(g70
g71
NtRp1301
(dp1302
g74
(dp1303
g82
I3
ssg83
g1297
sg76
(lp1304
S'127.0.0.1'
p1305
asbasbasbag69
(g85
g71
NtRp1306
(dp1307
g74
(dp1308
sg83
g1263
sg76
(lp1309
g69
(g90
g71
NtRp1310
(dp1311
g74
(dp1312
sg83
g1306
sg76
(lp1313
g69
(g70
g71
NtRp1314
(dp1315
g74
(dp1316
g82
I3
ssg83
g1310
sg76
(lp1317
S'fernando-workstation'
p1318
asbasbasbasbasbasbasbag69
(g85
g71
NtRp1319
(dp1320
g74
(dp1321
sg83
g712
sg76
(lp1322
g69
(g90
g71
NtRp1323
(dp1324
g74
(dp1325
g94
g95
ssg83
g1319
sg76
(lp1326
S'path_info'
p1327
asbag69
(g90
g71
NtRp1328
(dp1329
g74
(dp1330
g101
g102
ssg83
g1319
sg76
(lp1331
S':'
asbag69
(g90
g71
NtRp1332
(dp1333
g74
(dp1334
sg83
g1319
sg76
(lp1335
g69
(g70
g71
NtRp1336
(dp1337
g74
(dp1338
g82
I4
ssg83
g1332
sg76
(lp1339
S'/show_cliente/edit/meetme/1014'
p1340
asbasbasbag69
(g85
g71
NtRp1341
(dp1342
g74
(dp1343
sg83
g712
sg76
(lp1344
g69
(g90
g71
NtRp1345
(dp1346
g74
(dp1347
g94
g95
ssg83
g1341
sg76
(lp1348
S'query_string'
p1349
asbag69
(g90
g71
NtRp1350
(dp1351
g74
(dp1352
g101
g102
ssg83
g1341
sg76
(lp1353
S':'
asbag69
(g90
g71
NtRp1354
(dp1355
g74
(dp1356
sg83
g1341
sg76
(lp1357
g69
(g70
g71
NtRp1358
(dp1359
g74
(dp1360
g82
I4
ssg83
g1354
sg76
(lp1361
S''
asbasbasbag69
(g85
g71
NtRp1362
(dp1363
g74
(dp1364
sg83
g712
sg76
(lp1365
g69
(g90
g71
NtRp1366
(dp1367
g74
(dp1368
g94
g95
ssg83
g1362
sg76
(lp1369
S'remote_addr'
p1370
asbag69
(g90
g71
NtRp1371
(dp1372
g74
(dp1373
g101
g102
ssg83
g1362
sg76
(lp1374
S':'
asbag69
(g90
g71
NtRp1375
(dp1376
g74
(dp1377
sg83
g1362
sg76
(lp1378
g69
(g70
g71
NtRp1379
(dp1380
g74
(dp1381
g82
I4
ssg83
g1375
sg76
(lp1382
g263
asbasbasbag69
(g85
g71
NtRp1383
(dp1384
g74
(dp1385
sg83
g712
sg76
(lp1386
g69
(g90
g71
NtRp1387
(dp1388
g74
(dp1389
g94
g95
ssg83
g1383
sg76
(lp1390
S'remote_port'
p1391
asbag69
(g90
g71
NtRp1392
(dp1393
g74
(dp1394
g101
g102
ssg83
g1383
sg76
(lp1395
S':'
asbag69
(g90
g71
NtRp1396
(dp1397
g74
(dp1398
sg83
g1383
sg76
(lp1399
g69
(g70
g71
NtRp1400
(dp1401
g74
(dp1402
g82
I4
ssg83
g1396
sg76
(lp1403
S'38661'
p1404
asbasbasbag69
(g85
g71
NtRp1405
(dp1406
g74
(dp1407
sg83
g712
sg76
(lp1408
g69
(g90
g71
NtRp1409
(dp1410
g74
(dp1411
g94
g95
ssg83
g1405
sg76
(lp1412
S'request_method'
p1413
asbag69
(g90
g71
NtRp1414
(dp1415
g74
(dp1416
g101
g102
ssg83
g1405
sg76
(lp1417
S':'
asbag69
(g90
g71
NtRp1418
(dp1419
g74
(dp1420
sg83
g1405
sg76
(lp1421
g69
(g70
g71
NtRp1422
(dp1423
g74
(dp1424
g82
I4
ssg83
g1418
sg76
(lp1425
S'POST'
p1426
asbasbasbag69
(g85
g71
NtRp1427
(dp1428
g74
(dp1429
sg83
g712
sg76
(lp1430
g69
(g90
g71
NtRp1431
(dp1432
g74
(dp1433
g94
g95
ssg83
g1427
sg76
(lp1434
S'request_uri'
p1435
asbag69
(g90
g71
NtRp1436
(dp1437
g74
(dp1438
g101
g102
ssg83
g1427
sg76
(lp1439
S':'
asbag69
(g90
g71
NtRp1440
(dp1441
g74
(dp1442
sg83
g1427
sg76
(lp1443
g69
(g70
g71
NtRp1444
(dp1445
g74
(dp1446
g82
I4
ssg83
g1440
sg76
(lp1447
S'/projeto/initial/show_cliente/edit/meetme/1014'
p1448
asbasbasbag69
(g85
g71
NtRp1449
(dp1450
g74
(dp1451
sg83
g712
sg76
(lp1452
g69
(g90
g71
NtRp1453
(dp1454
g74
(dp1455
g94
g95
ssg83
g1449
sg76
(lp1456
S'script_name'
p1457
asbag69
(g90
g71
NtRp1458
(dp1459
g74
(dp1460
g101
g102
ssg83
g1449
sg76
(lp1461
S':'
asbag69
(g90
g71
NtRp1462
(dp1463
g74
(dp1464
sg83
g1449
sg76
(lp1465
g69
(g70
g71
NtRp1466
(dp1467
g74
(dp1468
g82
I4
ssg83
g1462
sg76
(lp1469
S''
asbasbasbag69
(g85
g71
NtRp1470
(dp1471
g74
(dp1472
sg83
g712
sg76
(lp1473
g69
(g90
g71
NtRp1474
(dp1475
g74
(dp1476
g94
g95
ssg83
g1470
sg76
(lp1477
S'server_name'
p1478
asbag69
(g90
g71
NtRp1479
(dp1480
g74
(dp1481
g101
g102
ssg83
g1470
sg76
(lp1482
S':'
asbag69
(g90
g71
NtRp1483
(dp1484
g74
(dp1485
sg83
g1470
sg76
(lp1486
g69
(g70
g71
NtRp1487
(dp1488
g74
(dp1489
g82
I4
ssg83
g1483
sg76
(lp1490
S'fernando-workstation'
p1491
asbasbasbag69
(g85
g71
NtRp1492
(dp1493
g74
(dp1494
sg83
g712
sg76
(lp1495
g69
(g90
g71
NtRp1496
(dp1497
g74
(dp1498
g94
g95
ssg83
g1492
sg76
(lp1499
S'server_port'
p1500
asbag69
(g90
g71
NtRp1501
(dp1502
g74
(dp1503
g101
g102
ssg83
g1492
sg76
(lp1504
S':'
asbag69
(g90
g71
NtRp1505
(dp1506
g74
(dp1507
sg83
g1492
sg76
(lp1508
g69
(g70
g71
NtRp1509
(dp1510
g74
(dp1511
g82
I4
ssg83
g1505
sg76
(lp1512
S'8000'
p1513
asbasbasbag69
(g85
g71
NtRp1514
(dp1515
g74
(dp1516
sg83
g712
sg76
(lp1517
g69
(g90
g71
NtRp1518
(dp1519
g74
(dp1520
g94
g95
ssg83
g1514
sg76
(lp1521
S'server_protocol'
p1522
asbag69
(g90
g71
NtRp1523
(dp1524
g74
(dp1525
g101
g102
ssg83
g1514
sg76
(lp1526
S':'
asbag69
(g90
g71
NtRp1527
(dp1528
g74
(dp1529
sg83
g1514
sg76
(lp1530
g69
(g70
g71
NtRp1531
(dp1532
g74
(dp1533
g82
I4
ssg83
g1527
sg76
(lp1534
S'HTTP/1.1'
p1535
asbasbasbag69
(g85
g71
NtRp1536
(dp1537
g74
(dp1538
sg83
g712
sg76
(lp1539
g69
(g90
g71
NtRp1540
(dp1541
g74
(dp1542
g94
g95
ssg83
g1536
sg76
(lp1543
S'server_software'
p1544
asbag69
(g90
g71
NtRp1545
(dp1546
g74
(dp1547
g101
g102
ssg83
g1536
sg76
(lp1548
S':'
asbag69
(g90
g71
NtRp1549
(dp1550
g74
(dp1551
sg83
g1536
sg76
(lp1552
g69
(g70
g71
NtRp1553
(dp1554
g74
(dp1555
g82
I4
ssg83
g1549
sg76
(lp1556
S'Rocket 1.2.6'
p1557
asbasbasbag69
(g85
g71
NtRp1558
(dp1559
g74
(dp1560
sg83
g712
sg76
(lp1561
g69
(g90
g71
NtRp1562
(dp1563
g74
(dp1564
g94
g95
ssg83
g1558
sg76
(lp1565
S'web2py_original_uri'
p1566
asbag69
(g90
g71
NtRp1567
(dp1568
g74
(dp1569
g101
g102
ssg83
g1558
sg76
(lp1570
S':'
asbag69
(g90
g71
NtRp1571
(dp1572
g74
(dp1573
sg83
g1558
sg76
(lp1574
g69
(g70
g71
NtRp1575
(dp1576
g74
(dp1577
g82
I4
ssg83
g1571
sg76
(lp1578
g1340
asbasbasbag69
(g85
g71
NtRp1579
(dp1580
g74
(dp1581
sg83
g712
sg76
(lp1582
g69
(g90
g71
NtRp1583
(dp1584
g74
(dp1585
g94
g95
ssg83
g1579
sg76
(lp1586
S'web2py_path'
p1587
asbag69
(g90
g71
NtRp1588
(dp1589
g74
(dp1590
g101
g102
ssg83
g1579
sg76
(lp1591
S':'
asbag69
(g90
g71
NtRp1592
(dp1593
g74
(dp1594
sg83
g1579
sg76
(lp1595
g69
(g70
g71
NtRp1596
(dp1597
g74
(dp1598
g82
I4
ssg83
g1592
sg76
(lp1599
g759
asbasbasbag69
(g85
g71
NtRp1600
(dp1601
g74
(dp1602
sg83
g712
sg76
(lp1603
g69
(g90
g71
NtRp1604
(dp1605
g74
(dp1606
g94
g95
ssg83
g1600
sg76
(lp1607
S'web2py_version'
p1608
asbag69
(g90
g71
NtRp1609
(dp1610
g74
(dp1611
g101
g102
ssg83
g1600
sg76
(lp1612
S':'
asbag69
(g90
g71
NtRp1613
(dp1614
g74
(dp1615
sg83
g1600
sg76
(lp1616
g69
(g70
g71
NtRp1617
(dp1618
g74
(dp1619
g82
I4
ssg83
g1613
sg76
(lp1620
g69
(g78
g71
NtRp1621
(dp1622
g74
(dp1623
g82
I3
ssg83
Nsg76
(lp1624
g69
(g85
g71
NtRp1625
(dp1626
g74
(dp1627
sg83
g1621
sg76
(lp1628
g69
(g90
g71
NtRp1629
(dp1630
g74
(dp1631
sg83
g1625
sg76
(lp1632
g69
(g70
g71
NtRp1633
(dp1634
g74
(dp1635
g82
I3
ssg83
g1629
sg76
(lp1636
S'2'
asbasbasbag69
(g85
g71
NtRp1637
(dp1638
g74
(dp1639
sg83
g1621
sg76
(lp1640
g69
(g90
g71
NtRp1641
(dp1642
g74
(dp1643
sg83
g1637
sg76
(lp1644
g69
(g70
g71
NtRp1645
(dp1646
g74
(dp1647
g82
I3
ssg83
g1641
sg76
(lp1648
S'3'
asbasbasbag69
(g85
g71
NtRp1649
(dp1650
g74
(dp1651
sg83
g1621
sg76
(lp1652
g69
(g90
g71
NtRp1653
(dp1654
g74
(dp1655
sg83
g1649
sg76
(lp1656
g69
(g70
g71
NtRp1657
(dp1658
g74
(dp1659
g82
I3
ssg83
g1653
sg76
(lp1660
S'2'
asbasbasbag69
(g85
g71
NtRp1661
(dp1662
g74
(dp1663
sg83
g1621
sg76
(lp1664
g69
(g90
g71
NtRp1665
(dp1666
g74
(dp1667
sg83
g1661
sg76
(lp1668
g69
(g70
g71
NtRp1669
(dp1670
g74
(dp1671
g82
I3
ssg83
g1665
sg76
(lp1672
S'datetime.datetime(2012, 12, 17, 15, 3, 30)'
p1673
asbasbasbag69
(g85
g71
NtRp1674
(dp1675
g74
(dp1676
sg83
g1621
sg76
(lp1677
g69
(g90
g71
NtRp1678
(dp1679
g74
(dp1680
sg83
g1674
sg76
(lp1681
g69
(g70
g71
NtRp1682
(dp1683
g74
(dp1684
g82
I3
ssg83
g1678
sg76
(lp1685
S'stable'
p1686
asbasbasbasbasbasbasbag69
(g85
g71
NtRp1687
(dp1688
g74
(dp1689
sg83
g712
sg76
(lp1690
g69
(g90
g71
NtRp1691
(dp1692
g74
(dp1693
g94
g95
ssg83
g1687
sg76
(lp1694
S'wsgi_errors'
p1695
asbag69
(g90
g71
NtRp1696
(dp1697
g74
(dp1698
g101
g102
ssg83
g1687
sg76
(lp1699
S':'
asbag69
(g90
g71
NtRp1700
(dp1701
g74
(dp1702
sg83
g1687
sg76
(lp1703
g69
(g70
g71
NtRp1704
(dp1705
g74
(dp1706
g82
I4
ssg83
g1700
sg76
(lp1707
S"<open file '<stderr>', mode 'w' at 0x7f635a603270>"
p1708
asbasbasbag69
(g85
g71
NtRp1709
(dp1710
g74
(dp1711
sg83
g712
sg76
(lp1712
g69
(g90
g71
NtRp1713
(dp1714
g74
(dp1715
g94
g95
ssg83
g1709
sg76
(lp1716
S'wsgi_file_wrapper'
p1717
asbag69
(g90
g71
NtRp1718
(dp1719
g74
(dp1720
g101
g102
ssg83
g1709
sg76
(lp1721
S':'
asbag69
(g90
g71
NtRp1722
(dp1723
g74
(dp1724
sg83
g1709
sg76
(lp1725
g69
(g70
g71
NtRp1726
(dp1727
g74
(dp1728
g82
I4
ssg83
g1722
sg76
(lp1729
S'<class wsgiref.util.FileWrapper at 0x2bb2598>'
p1730
asbasbasbag69
(g85
g71
NtRp1731
(dp1732
g74
(dp1733
sg83
g712
sg76
(lp1734
g69
(g90
g71
NtRp1735
(dp1736
g74
(dp1737
g94
g95
ssg83
g1731
sg76
(lp1738
S'wsgi_input'
p1739
asbag69
(g90
g71
NtRp1740
(dp1741
g74
(dp1742
g101
g102
ssg83
g1731
sg76
(lp1743
S':'
asbag69
(g90
g71
NtRp1744
(dp1745
g74
(dp1746
sg83
g1731
sg76
(lp1747
g69
(g70
g71
NtRp1748
(dp1749
g74
(dp1750
g82
I4
ssg83
g1744
sg76
(lp1751
S'<socket._fileobject object at 0x7f634c253050>'
p1752
asbasbasbag69
(g85
g71
NtRp1753
(dp1754
g74
(dp1755
sg83
g712
sg76
(lp1756
g69
(g90
g71
NtRp1757
(dp1758
g74
(dp1759
g94
g95
ssg83
g1753
sg76
(lp1760
S'wsgi_multiprocess'
p1761
asbag69
(g90
g71
NtRp1762
(dp1763
g74
(dp1764
g101
g102
ssg83
g1753
sg76
(lp1765
S':'
asbag69
(g90
g71
NtRp1766
(dp1767
g74
(dp1768
sg83
g1753
sg76
(lp1769
g69
(g70
g71
NtRp1770
(dp1771
g74
(dp1772
g82
I4
ssg83
g1766
sg76
(lp1773
g112
asbasbasbag69
(g85
g71
NtRp1774
(dp1775
g74
(dp1776
sg83
g712
sg76
(lp1777
g69
(g90
g71
NtRp1778
(dp1779
g74
(dp1780
g94
g95
ssg83
g1774
sg76
(lp1781
S'wsgi_multithread'
p1782
asbag69
(g90
g71
NtRp1783
(dp1784
g74
(dp1785
g101
g102
ssg83
g1774
sg76
(lp1786
S':'
asbag69
(g90
g71
NtRp1787
(dp1788
g74
(dp1789
sg83
g1774
sg76
(lp1790
g69
(g70
g71
NtRp1791
(dp1792
g74
(dp1793
g82
I4
ssg83
g1787
sg76
(lp1794
S'True'
p1795
asbasbasbag69
(g85
g71
NtRp1796
(dp1797
g74
(dp1798
sg83
g712
sg76
(lp1799
g69
(g90
g71
NtRp1800
(dp1801
g74
(dp1802
g94
g95
ssg83
g1796
sg76
(lp1803
S'wsgi_run_once'
p1804
asbag69
(g90
g71
NtRp1805
(dp1806
g74
(dp1807
g101
g102
ssg83
g1796
sg76
(lp1808
S':'
asbag69
(g90
g71
NtRp1809
(dp1810
g74
(dp1811
sg83
g1796
sg76
(lp1812
g69
(g70
g71
NtRp1813
(dp1814
g74
(dp1815
g82
I4
ssg83
g1809
sg76
(lp1816
g112
asbasbasbag69
(g85
g71
NtRp1817
(dp1818
g74
(dp1819
sg83
g712
sg76
(lp1820
g69
(g90
g71
NtRp1821
(dp1822
g74
(dp1823
g94
g95
ssg83
g1817
sg76
(lp1824
S'wsgi_url_scheme'
p1825
asbag69
(g90
g71
NtRp1826
(dp1827
g74
(dp1828
g101
g102
ssg83
g1817
sg76
(lp1829
S':'
asbag69
(g90
g71
NtRp1830
(dp1831
g74
(dp1832
sg83
g1817
sg76
(lp1833
g69
(g70
g71
NtRp1834
(dp1835
g74
(dp1836
g82
I4
ssg83
g1830
sg76
(lp1837
S'http'
p1838
asbasbasbag69
(g85
g71
NtRp1839
(dp1840
g74
(dp1841
sg83
g712
sg76
(lp1842
g69
(g90
g71
NtRp1843
(dp1844
g74
(dp1845
g94
g95
ssg83
g1839
sg76
(lp1846
S'wsgi_version'
p1847
asbag69
(g90
g71
NtRp1848
(dp1849
g74
(dp1850
g101
g102
ssg83
g1839
sg76
(lp1851
S':'
asbag69
(g90
g71
NtRp1852
(dp1853
g74
(dp1854
sg83
g1839
sg76
(lp1855
g69
(g70
g71
NtRp1856
(dp1857
g74
(dp1858
g82
I4
ssg83
g1852
sg76
(lp1859
g69
(g78
g71
NtRp1860
(dp1861
g74
(dp1862
g82
I3
ssg83
Nsg76
(lp1863
g69
(g85
g71
NtRp1864
(dp1865
g74
(dp1866
sg83
g1860
sg76
(lp1867
g69
(g90
g71
NtRp1868
(dp1869
g74
(dp1870
sg83
g1864
sg76
(lp1871
g69
(g70
g71
NtRp1872
(dp1873
g74
(dp1874
g82
I3
ssg83
g1868
sg76
(lp1875
S'1'
asbasbasbag69
(g85
g71
NtRp1876
(dp1877
g74
(dp1878
sg83
g1860
sg76
(lp1879
g69
(g90
g71
NtRp1880
(dp1881
g74
(dp1882
sg83
g1876
sg76
(lp1883
g69
(g70
g71
NtRp1884
(dp1885
g74
(dp1886
g82
I3
ssg83
g1880
sg76
(lp1887
S'0'
asbasbasbasbasbasbasbasbasbasbasbag69
(g85
g71
NtRp1888
(dp1889
g74
(dp1890
sg83
g79
sg76
(lp1891
g69
(g90
g71
NtRp1892
(dp1893
g74
(dp1894
g94
g95
ssg83
g1888
sg76
(lp1895
S'extension'
p1896
asbag69
(g90
g71
NtRp1897
(dp1898
g74
(dp1899
g101
g102
ssg83
g1888
sg76
(lp1900
S':'
asbag69
(g90
g71
NtRp1901
(dp1902
g74
(dp1903
sg83
g1888
sg76
(lp1904
g69
(g70
g71
NtRp1905
(dp1906
g74
(dp1907
g82
I5
ssg83
g1901
sg76
(lp1908
S'html'
p1909
asbasbasbag69
(g85
g71
NtRp1910
(dp1911
g74
(dp1912
sg83
g79
sg76
(lp1913
g69
(g90
g71
NtRp1914
(dp1915
g74
(dp1916
g94
g95
ssg83
g1910
sg76
(lp1917
S'folder'
p1918
asbag69
(g90
g71
NtRp1919
(dp1920
g74
(dp1921
g101
g102
ssg83
g1910
sg76
(lp1922
S':'
asbag69
(g90
g71
NtRp1923
(dp1924
g74
(dp1925
sg83
g1910
sg76
(lp1926
g69
(g70
g71
NtRp1927
(dp1928
g74
(dp1929
g82
I5
ssg83
g1923
sg76
(lp1930
S'/var/www/conferencia/applications/projeto/'
p1931
asbasbasbag69
(g85
g71
NtRp1932
(dp1933
g74
(dp1934
sg83
g79
sg76
(lp1935
g69
(g90
g71
NtRp1936
(dp1937
g74
(dp1938
g94
g95
ssg83
g1932
sg76
(lp1939
S'function'
p1940
asbag69
(g90
g71
NtRp1941
(dp1942
g74
(dp1943
g101
g102
ssg83
g1932
sg76
(lp1944
S':'
asbag69
(g90
g71
NtRp1945
(dp1946
g74
(dp1947
sg83
g1932
sg76
(lp1948
g69
(g70
g71
NtRp1949
(dp1950
g74
(dp1951
g82
I5
ssg83
g1945
sg76
(lp1952
S'show_cliente'
p1953
asbasbasbag69
(g85
g71
NtRp1954
(dp1955
g74
(dp1956
sg83
g79
sg76
(lp1957
g69
(g90
g71
NtRp1958
(dp1959
g74
(dp1960
g94
g95
ssg83
g1954
sg76
(lp1961
S'get_vars'
p1962
asbag69
(g90
g71
NtRp1963
(dp1964
g74
(dp1965
g101
g102
ssg83
g1954
sg76
(lp1966
S':'
asbag69
(g90
g71
NtRp1967
(dp1968
g74
(dp1969
sg83
g1954
sg76
(lp1970
g69
(g70
g71
NtRp1971
(dp1972
g74
(dp1973
g82
I5
ssg83
g1967
sg76
(lp1974
g69
(g78
g71
NtRp1975
(dp1976
g74
(dp1977
g82
I4
ssg83
Nsg76
(lp1978
sbasbasbasbag69
(g85
g71
NtRp1979
(dp1980
g74
(dp1981
sg83
g79
sg76
(lp1982
g69
(g90
g71
NtRp1983
(dp1984
g74
(dp1985
g94
g95
ssg83
g1979
sg76
(lp1986
S'global_settings'
p1987
asbag69
(g90
g71
NtRp1988
(dp1989
g74
(dp1990
g101
g102
ssg83
g1979
sg76
(lp1991
S':'
asbag69
(g90
g71
NtRp1992
(dp1993
g74
(dp1994
sg83
g1979
sg76
(lp1995
g69
(g70
g71
NtRp1996
(dp1997
g74
(dp1998
g82
I5
ssg83
g1992
sg76
(lp1999
g69
(g78
g71
NtRp2000
(dp2001
g74
(dp2002
g82
I4
ssg83
Nsg76
(lp2003
g69
(g85
g71
NtRp2004
(dp2005
g74
(dp2006
sg83
g2000
sg76
(lp2007
g69
(g90
g71
NtRp2008
(dp2009
g74
(dp2010
g94
g95
ssg83
g2004
sg76
(lp2011
g724
asbag69
(g90
g71
NtRp2012
(dp2013
g74
(dp2014
g101
g102
ssg83
g2004
sg76
(lp2015
S':'
asbag69
(g90
g71
NtRp2016
(dp2017
g74
(dp2018
sg83
g2004
sg76
(lp2019
g69
(g70
g71
NtRp2020
(dp2021
g74
(dp2022
g82
I4
ssg83
g2016
sg76
(lp2023
S"set(['/var/www/conferencia/applications/admin/', '/var/www/conferencia/applications/projeto/'])"
p2024
asbasbasbag69
(g85
g71
NtRp2025
(dp2026
g74
(dp2027
sg83
g2000
sg76
(lp2028
g69
(g90
g71
NtRp2029
(dp2030
g74
(dp2031
g94
g95
ssg83
g2025
sg76
(lp2032
g746
asbag69
(g90
g71
NtRp2033
(dp2034
g74
(dp2035
g101
g102
ssg83
g2025
sg76
(lp2036
S':'
asbag69
(g90
g71
NtRp2037
(dp2038
g74
(dp2039
sg83
g2025
sg76
(lp2040
g69
(g70
g71
NtRp2041
(dp2042
g74
(dp2043
g82
I4
ssg83
g2037
sg76
(lp2044
g759
asbasbasbag69
(g85
g71
NtRp2045
(dp2046
g74
(dp2047
sg83
g2000
sg76
(lp2048
g69
(g90
g71
NtRp2049
(dp2050
g74
(dp2051
g94
g95
ssg83
g2045
sg76
(lp2052
g768
asbag69
(g90
g71
NtRp2053
(dp2054
g74
(dp2055
g101
g102
ssg83
g2045
sg76
(lp2056
S':'
asbag69
(g90
g71
NtRp2057
(dp2058
g74
(dp2059
sg83
g2045
sg76
(lp2060
g69
(g70
g71
NtRp2061
(dp2062
g74
(dp2063
g82
I4
ssg83
g2057
sg76
(lp2064
g69
(g78
g71
NtRp2065
(dp2066
g74
(dp2067
g82
I3
ssg83
Nsg76
(lp2068
sbasbasbasbag69
(g85
g71
NtRp2069
(dp2070
g74
(dp2071
sg83
g2000
sg76
(lp2072
g69
(g90
g71
NtRp2073
(dp2074
g74
(dp2075
g94
g95
ssg83
g2069
sg76
(lp2076
g793
asbag69
(g90
g71
NtRp2077
(dp2078
g74
(dp2079
g101
g102
ssg83
g2069
sg76
(lp2080
S':'
asbag69
(g90
g71
NtRp2081
(dp2082
g74
(dp2083
sg83
g2069
sg76
(lp2084
g69
(g70
g71
NtRp2085
(dp2086
g74
(dp2087
g82
I4
ssg83
g2081
sg76
(lp2088
S"<Values at 0x2c3b248: {'verbose': False, 'ip': '127.0.0.1', 'with_scheduler': False, 'ips': [], 'shutdown_timeout': 5, 'taskbar': False, 'port': 8000, 'maxthreads': None, 'softcron': False, 'server_name': 'fernando-workstation', 'bpython': False, 'nogui': False, 'pid_filename': 'httpserver.pid', 'extcron': False, 'runcron': False, 'run_system_tests': False, 'test': None, 'folder': '/var/www/conferencia', 'config': '', 'minthreads': None, 'winservice': '', 'shell': None, 'run': '', 'log_filename': 'httpserver.log', 'debuglevel': 30, 'args': [''], 'socket_timeout': 5, 'ssl_ca_certificate': None, 'scheduler': None, 'profiler_filename': None, 'ssl_private_key': '', 'scheduler_groups': None, 'password': '123456', 'request_queue_size': 5, 'ssl_certificate': '', 'cronjob': False, 'numthreads': None, 'quiet': False, 'interfaces': None, 'import_models': False, 'timeout': 10, 'plain': False, 'nobanner': False}>"
p2089
asbasbasbag69
(g85
g71
NtRp2090
(dp2091
g74
(dp2092
sg83
g2000
sg76
(lp2093
g69
(g90
g71
NtRp2094
(dp2095
g74
(dp2096
g94
g95
ssg83
g2090
sg76
(lp2097
g859
asbag69
(g90
g71
NtRp2098
(dp2099
g74
(dp2100
g101
g102
ssg83
g2090
sg76
(lp2101
S':'
asbag69
(g90
g71
NtRp2102
(dp2103
g74
(dp2104
sg83
g2090
sg76
(lp2105
g69
(g70
g71
NtRp2106
(dp2107
g74
(dp2108
g82
I4
ssg83
g2102
sg76
(lp2109
S'set([])'
p2110
asbasbasbag69
(g85
g71
NtRp2111
(dp2112
g74
(dp2113
sg83
g2000
sg76
(lp2114
g69
(g90
g71
NtRp2115
(dp2116
g74
(dp2117
g94
g95
ssg83
g2111
sg76
(lp2118
g881
asbag69
(g90
g71
NtRp2119
(dp2120
g74
(dp2121
g101
g102
ssg83
g2111
sg76
(lp2122
S':'
asbag69
(g90
g71
NtRp2123
(dp2124
g74
(dp2125
sg83
g2111
sg76
(lp2126
g69
(g70
g71
NtRp2127
(dp2128
g74
(dp2129
g82
I4
ssg83
g2123
sg76
(lp2130
g112
asbasbasbag69
(g85
g71
NtRp2131
(dp2132
g74
(dp2133
sg83
g2000
sg76
(lp2134
g69
(g90
g71
NtRp2135
(dp2136
g74
(dp2137
g94
g95
ssg83
g2131
sg76
(lp2138
g902
asbag69
(g90
g71
NtRp2139
(dp2140
g74
(dp2141
g101
g102
ssg83
g2131
sg76
(lp2142
S':'
asbag69
(g90
g71
NtRp2143
(dp2144
g74
(dp2145
sg83
g2131
sg76
(lp2146
g69
(g70
g71
NtRp2147
(dp2148
g74
(dp2149
g82
I4
ssg83
g2143
sg76
(lp2150
g915
asbasbasbag69
(g85
g71
NtRp2151
(dp2152
g74
(dp2153
sg83
g2000
sg76
(lp2154
g69
(g90
g71
NtRp2155
(dp2156
g74
(dp2157
g94
g95
ssg83
g2151
sg76
(lp2158
g1208
asbag69
(g90
g71
NtRp2159
(dp2160
g74
(dp2161
g101
g102
ssg83
g2151
sg76
(lp2162
S':'
asbag69
(g90
g71
NtRp2163
(dp2164
g74
(dp2165
sg83
g2151
sg76
(lp2166
g69
(g70
g71
NtRp2167
(dp2168
g74
(dp2169
g82
I4
ssg83
g2163
sg76
(lp2170
g112
asbasbasbag69
(g85
g71
NtRp2171
(dp2172
g74
(dp2173
sg83
g2000
sg76
(lp2174
g69
(g90
g71
NtRp2175
(dp2176
g74
(dp2177
g94
g95
ssg83
g2171
sg76
(lp2178
g1229
asbag69
(g90
g71
NtRp2179
(dp2180
g74
(dp2181
g101
g102
ssg83
g2171
sg76
(lp2182
S':'
asbag69
(g90
g71
NtRp2183
(dp2184
g74
(dp2185
sg83
g2171
sg76
(lp2186
g69
(g70
g71
NtRp2187
(dp2188
g74
(dp2189
g82
I4
ssg83
g2183
sg76
(lp2190
g112
asbasbasbag69
(g85
g71
NtRp2191
(dp2192
g74
(dp2193
sg83
g2000
sg76
(lp2194
g69
(g90
g71
NtRp2195
(dp2196
g74
(dp2197
g94
g95
ssg83
g2191
sg76
(lp2198
g1250
asbag69
(g90
g71
NtRp2199
(dp2200
g74
(dp2201
g101
g102
ssg83
g2191
sg76
(lp2202
S':'
asbag69
(g90
g71
NtRp2203
(dp2204
g74
(dp2205
sg83
g2191
sg76
(lp2206
g69
(g70
g71
NtRp2207
(dp2208
g74
(dp2209
g82
I4
ssg83
g2203
sg76
(lp2210
g69
(g78
g71
NtRp2211
(dp2212
g74
(dp2213
g82
I3
ssg83
Nsg76
(lp2214
g69
(g85
g71
NtRp2215
(dp2216
g74
(dp2217
sg83
g2211
sg76
(lp2218
g69
(g90
g71
NtRp2219
(dp2220
g74
(dp2221
sg83
g2215
sg76
(lp2222
g69
(g70
g71
NtRp2223
(dp2224
g74
(dp2225
g82
I3
ssg83
g2219
sg76
(lp2226
g1279
asbasbasbag69
(g85
g71
NtRp2227
(dp2228
g74
(dp2229
sg83
g2211
sg76
(lp2230
g69
(g90
g71
NtRp2231
(dp2232
g74
(dp2233
sg83
g2227
sg76
(lp2234
g69
(g70
g71
NtRp2235
(dp2236
g74
(dp2237
g82
I3
ssg83
g2231
sg76
(lp2238
g1292
asbasbasbag69
(g85
g71
NtRp2239
(dp2240
g74
(dp2241
sg83
g2211
sg76
(lp2242
g69
(g90
g71
NtRp2243
(dp2244
g74
(dp2245
sg83
g2239
sg76
(lp2246
g69
(g70
g71
NtRp2247
(dp2248
g74
(dp2249
g82
I3
ssg83
g2243
sg76
(lp2250
g1305
asbasbasbag69
(g85
g71
NtRp2251
(dp2252
g74
(dp2253
sg83
g2211
sg76
(lp2254
g69
(g90
g71
NtRp2255
(dp2256
g74
(dp2257
sg83
g2251
sg76
(lp2258
g69
(g70
g71
NtRp2259
(dp2260
g74
(dp2261
g82
I3
ssg83
g2255
sg76
(lp2262
g1318
asbasbasbasbasbasbasbag69
(g85
g71
NtRp2263
(dp2264
g74
(dp2265
sg83
g2000
sg76
(lp2266
g69
(g90
g71
NtRp2267
(dp2268
g74
(dp2269
g94
g95
ssg83
g2263
sg76
(lp2270
g1608
asbag69
(g90
g71
NtRp2271
(dp2272
g74
(dp2273
g101
g102
ssg83
g2263
sg76
(lp2274
S':'
asbag69
(g90
g71
NtRp2275
(dp2276
g74
(dp2277
sg83
g2263
sg76
(lp2278
g69
(g70
g71
NtRp2279
(dp2280
g74
(dp2281
g82
I4
ssg83
g2275
sg76
(lp2282
g69
(g78
g71
NtRp2283
(dp2284
g74
(dp2285
g82
I3
ssg83
Nsg76
(lp2286
g69
(g85
g71
NtRp2287
(dp2288
g74
(dp2289
sg83
g2283
sg76
(lp2290
g69
(g90
g71
NtRp2291
(dp2292
g74
(dp2293
sg83
g2287
sg76
(lp2294
g69
(g70
g71
NtRp2295
(dp2296
g74
(dp2297
g82
I3
ssg83
g2291
sg76
(lp2298
S'2'
asbasbasbag69
(g85
g71
NtRp2299
(dp2300
g74
(dp2301
sg83
g2283
sg76
(lp2302
g69
(g90
g71
NtRp2303
(dp2304
g74
(dp2305
sg83
g2299
sg76
(lp2306
g69
(g70
g71
NtRp2307
(dp2308
g74
(dp2309
g82
I3
ssg83
g2303
sg76
(lp2310
S'3'
asbasbasbag69
(g85
g71
NtRp2311
(dp2312
g74
(dp2313
sg83
g2283
sg76
(lp2314
g69
(g90
g71
NtRp2315
(dp2316
g74
(dp2317
sg83
g2311
sg76
(lp2318
g69
(g70
g71
NtRp2319
(dp2320
g74
(dp2321
g82
I3
ssg83
g2315
sg76
(lp2322
S'2'
asbasbasbag69
(g85
g71
NtRp2323
(dp2324
g74
(dp2325
sg83
g2283
sg76
(lp2326
g69
(g90
g71
NtRp2327
(dp2328
g74
(dp2329
sg83
g2323
sg76
(lp2330
g69
(g70
g71
NtRp2331
(dp2332
g74
(dp2333
g82
I3
ssg83
g2327
sg76
(lp2334
S'datetime.datetime(2012, 12, 17, 15, 3, 30)'
p2335
asbasbasbag69
(g85
g71
NtRp2336
(dp2337
g74
(dp2338
sg83
g2283
sg76
(lp2339
g69
(g90
g71
NtRp2340
(dp2341
g74
(dp2342
sg83
g2336
sg76
(lp2343
g69
(g70
g71
NtRp2344
(dp2345
g74
(dp2346
g82
I3
ssg83
g2340
sg76
(lp2347
g1686
asbasbasbasbasbasbasbasbasbasbasbag69
(g85
g71
NtRp2348
(dp2349
g74
(dp2350
sg83
g79
sg76
(lp2351
g69
(g90
g71
NtRp2352
(dp2353
g74
(dp2354
g94
g95
ssg83
g2348
sg76
(lp2355
S'is_https'
p2356
asbag69
(g90
g71
NtRp2357
(dp2358
g74
(dp2359
g101
g102
ssg83
g2348
sg76
(lp2360
S':'
asbag69
(g90
g71
NtRp2361
(dp2362
g74
(dp2363
sg83
g2348
sg76
(lp2364
g69
(g70
g71
NtRp2365
(dp2366
g74
(dp2367
g82
I5
ssg83
g2361
sg76
(lp2368
g112
asbasbasbag69
(g85
g71
NtRp2369
(dp2370
g74
(dp2371
sg83
g79
sg76
(lp2372
g69
(g90
g71
NtRp2373
(dp2374
g74
(dp2375
g94
g95
ssg83
g2369
sg76
(lp2376
S'is_local'
p2377
asbag69
(g90
g71
NtRp2378
(dp2379
g74
(dp2380
g101
g102
ssg83
g2369
sg76
(lp2381
S':'
asbag69
(g90
g71
NtRp2382
(dp2383
g74
(dp2384
sg83
g2369
sg76
(lp2385
g69
(g70
g71
NtRp2386
(dp2387
g74
(dp2388
g82
I5
ssg83
g2382
sg76
(lp2389
g1795
asbasbasbag69
(g85
g71
NtRp2390
(dp2391
g74
(dp2392
sg83
g79
sg76
(lp2393
g69
(g90
g71
NtRp2394
(dp2395
g74
(dp2396
g94
g95
ssg83
g2390
sg76
(lp2397
S'is_restful'
p2398
asbag69
(g90
g71
NtRp2399
(dp2400
g74
(dp2401
g101
g102
ssg83
g2390
sg76
(lp2402
S':'
asbag69
(g90
g71
NtRp2403
(dp2404
g74
(dp2405
sg83
g2390
sg76
(lp2406
g69
(g70
g71
NtRp2407
(dp2408
g74
(dp2409
g82
I5
ssg83
g2403
sg76
(lp2410
g112
asbasbasbag69
(g85
g71
NtRp2411
(dp2412
g74
(dp2413
sg83
g79
sg76
(lp2414
g69
(g90
g71
NtRp2415
(dp2416
g74
(dp2417
g94
g95
ssg83
g2411
sg76
(lp2418
S'now'
p2419
asbag69
(g90
g71
NtRp2420
(dp2421
g74
(dp2422
g101
g102
ssg83
g2411
sg76
(lp2423
S':'
asbag69
(g90
g71
NtRp2424
(dp2425
g74
(dp2426
sg83
g2411
sg76
(lp2427
g69
(g70
g71
NtRp2428
(dp2429
g74
(dp2430
g82
I5
ssg83
g2424
sg76
(lp2431
S'datetime.datetime(2013, 4, 3, 14, 15, 53, 957049)'
p2432
asbasbasbag69
(g85
g71
NtRp2433
(dp2434
g74
(dp2435
sg83
g79
sg76
(lp2436
g69
(g90
g71
NtRp2437
(dp2438
g74
(dp2439
g94
g95
ssg83
g2433
sg76
(lp2440
S'post_vars'
p2441
asbag69
(g90
g71
NtRp2442
(dp2443
g74
(dp2444
g101
g102
ssg83
g2433
sg76
(lp2445
S':'
asbag69
(g90
g71
NtRp2446
(dp2447
g74
(dp2448
sg83
g2433
sg76
(lp2449
g69
(g70
g71
NtRp2450
(dp2451
g74
(dp2452
g82
I5
ssg83
g2446
sg76
(lp2453
g69
(g78
g71
NtRp2454
(dp2455
g74
(dp2456
g82
I4
ssg83
Nsg76
(lp2457
g69
(g85
g71
NtRp2458
(dp2459
g74
(dp2460
sg83
g2454
sg76
(lp2461
g69
(g90
g71
NtRp2462
(dp2463
g74
(dp2464
g94
g95
ssg83
g2458
sg76
(lp2465
S'admin_user'
p2466
asbag69
(g90
g71
NtRp2467
(dp2468
g74
(dp2469
g101
g102
ssg83
g2458
sg76
(lp2470
S':'
asbag69
(g90
g71
NtRp2471
(dp2472
g74
(dp2473
sg83
g2458
sg76
(lp2474
g69
(g70
g71
NtRp2475
(dp2476
g74
(dp2477
g82
I4
ssg83
g2471
sg76
(lp2478
S'4'
asbasbasbag69
(g85
g71
NtRp2479
(dp2480
g74
(dp2481
sg83
g2454
sg76
(lp2482
g69
(g90
g71
NtRp2483
(dp2484
g74
(dp2485
g94
g95
ssg83
g2479
sg76
(lp2486
S'endtime'
p2487
asbag69
(g90
g71
NtRp2488
(dp2489
g74
(dp2490
g101
g102
ssg83
g2479
sg76
(lp2491
S':'
asbag69
(g90
g71
NtRp2492
(dp2493
g74
(dp2494
sg83
g2479
sg76
(lp2495
g69
(g70
g71
NtRp2496
(dp2497
g74
(dp2498
g82
I4
ssg83
g2492
sg76
(lp2499
S'2013-04-11 14:14:05'
p2500
asbasbasbag69
(g85
g71
NtRp2501
(dp2502
g74
(dp2503
sg83
g2454
sg76
(lp2504
g69
(g90
g71
NtRp2505
(dp2506
g74
(dp2507
g94
g95
ssg83
g2501
sg76
(lp2508
S'gravacao'
p2509
asbag69
(g90
g71
NtRp2510
(dp2511
g74
(dp2512
g101
g102
ssg83
g2501
sg76
(lp2513
S':'
asbag69
(g90
g71
NtRp2514
(dp2515
g74
(dp2516
sg83
g2501
sg76
(lp2517
g69
(g70
g71
NtRp2518
(dp2519
g74
(dp2520
g82
I4
ssg83
g2514
sg76
(lp2521
S'on'
p2522
asbasbasbag69
(g85
g71
NtRp2523
(dp2524
g74
(dp2525
sg83
g2454
sg76
(lp2526
g69
(g90
g71
NtRp2527
(dp2528
g74
(dp2529
g94
g95
ssg83
g2523
sg76
(lp2530
S'membros_user'
p2531
asbag69
(g90
g71
NtRp2532
(dp2533
g74
(dp2534
g101
g102
ssg83
g2523
sg76
(lp2535
S':'
asbag69
(g90
g71
NtRp2536
(dp2537
g74
(dp2538
sg83
g2523
sg76
(lp2539
g69
(g70
g71
NtRp2540
(dp2541
g74
(dp2542
g82
I4
ssg83
g2536
sg76
(lp2543
g69
(g78
g71
NtRp2544
(dp2545
g74
(dp2546
g82
I3
ssg83
Nsg76
(lp2547
g69
(g85
g71
NtRp2548
(dp2549
g74
(dp2550
sg83
g2544
sg76
(lp2551
g69
(g90
g71
NtRp2552
(dp2553
g74
(dp2554
sg83
g2548
sg76
(lp2555
g69
(g70
g71
NtRp2556
(dp2557
g74
(dp2558
g82
I3
ssg83
g2552
sg76
(lp2559
S'4'
asbasbasbag69
(g85
g71
NtRp2560
(dp2561
g74
(dp2562
sg83
g2544
sg76
(lp2563
g69
(g90
g71
NtRp2564
(dp2565
g74
(dp2566
sg83
g2560
sg76
(lp2567
g69
(g70
g71
NtRp2568
(dp2569
g74
(dp2570
g82
I3
ssg83
g2564
sg76
(lp2571
S'2'
asbasbasbag69
(g85
g71
NtRp2572
(dp2573
g74
(dp2574
sg83
g2544
sg76
(lp2575
g69
(g90
g71
NtRp2576
(dp2577
g74
(dp2578
sg83
g2572
sg76
(lp2579
g69
(g70
g71
NtRp2580
(dp2581
g74
(dp2582
g82
I3
ssg83
g2576
sg76
(lp2583
S'1'
asbasbasbag69
(g85
g71
NtRp2584
(dp2585
g74
(dp2586
sg83
g2544
sg76
(lp2587
g69
(g90
g71
NtRp2588
(dp2589
g74
(dp2590
sg83
g2584
sg76
(lp2591
g69
(g70
g71
NtRp2592
(dp2593
g74
(dp2594
g82
I3
ssg83
g2588
sg76
(lp2595
S'3'
asbasbasbasbasbasbasbag69
(g85
g71
NtRp2596
(dp2597
g74
(dp2598
sg83
g2454
sg76
(lp2599
g69
(g90
g71
NtRp2600
(dp2601
g74
(dp2602
g94
g95
ssg83
g2596
sg76
(lp2603
S'starttime'
p2604
asbag69
(g90
g71
NtRp2605
(dp2606
g74
(dp2607
g101
g102
ssg83
g2596
sg76
(lp2608
S':'
asbag69
(g90
g71
NtRp2609
(dp2610
g74
(dp2611
sg83
g2596
sg76
(lp2612
g69
(g70
g71
NtRp2613
(dp2614
g74
(dp2615
g82
I4
ssg83
g2609
sg76
(lp2616
S'2013-04-11 14:13:50'
p2617
asbasbasbasbasbasbasbag69
(g85
g71
NtRp2618
(dp2619
g74
(dp2620
sg83
g79
sg76
(lp2621
g69
(g90
g71
NtRp2622
(dp2623
g74
(dp2624
g94
g95
ssg83
g2618
sg76
(lp2625
S'url'
p2626
asbag69
(g90
g71
NtRp2627
(dp2628
g74
(dp2629
g101
g102
ssg83
g2618
sg76
(lp2630
S':'
asbag69
(g90
g71
NtRp2631
(dp2632
g74
(dp2633
sg83
g2618
sg76
(lp2634
g69
(g70
g71
NtRp2635
(dp2636
g74
(dp2637
g82
I5
ssg83
g2631
sg76
(lp2638
g1340
asbasbasbag69
(g85
g71
NtRp2639
(dp2640
g74
(dp2641
sg83
g79
sg76
(lp2642
g69
(g90
g71
NtRp2643
(dp2644
g74
(dp2645
g94
g95
ssg83
g2639
sg76
(lp2646
S'utcnow'
p2647
asbag69
(g90
g71
NtRp2648
(dp2649
g74
(dp2650
g101
g102
ssg83
g2639
sg76
(lp2651
S':'
asbag69
(g90
g71
NtRp2652
(dp2653
g74
(dp2654
sg83
g2639
sg76
(lp2655
g69
(g70
g71
NtRp2656
(dp2657
g74
(dp2658
g82
I5
ssg83
g2652
sg76
(lp2659
S'datetime.datetime(2013, 4, 3, 17, 15, 53, 957101)'
p2660
asbasbasbag69
(g85
g71
NtRp2661
(dp2662
g74
(dp2663
sg83
g79
sg76
(lp2664
g69
(g90
g71
NtRp2665
(dp2666
g74
(dp2667
g94
g95
ssg83
g2661
sg76
(lp2668
S'uuid'
p2669
asbag69
(g90
g71
NtRp2670
(dp2671
g74
(dp2672
g101
g102
ssg83
g2661
sg76
(lp2673
S':'
asbag69
(g90
g71
NtRp2674
(dp2675
g74
(dp2676
sg83
g2661
sg76
(lp2677
g69
(g70
g71
NtRp2678
(dp2679
g74
(dp2680
g82
I5
ssg83
g2674
sg76
(lp2681
S'projeto/127.0.0.1.2013-04-03.14-15-53.0797c76c-92b1-4e9e-bc1d-eeead063e2e6'
p2682
asbasbasbag69
(g85
g71
NtRp2683
(dp2684
g74
(dp2685
sg83
g79
sg76
(lp2686
g69
(g90
g71
NtRp2687
(dp2688
g74
(dp2689
g94
g95
ssg83
g2683
sg76
(lp2690
S'vars'
p2691
asbag69
(g90
g71
NtRp2692
(dp2693
g74
(dp2694
g101
g102
ssg83
g2683
sg76
(lp2695
S':'
asbag69
(g90
g71
NtRp2696
(dp2697
g74
(dp2698
sg83
g2683
sg76
(lp2699
g69
(g70
g71
NtRp2700
(dp2701
g74
(dp2702
g82
I5
ssg83
g2696
sg76
(lp2703
g69
(g78
g71
NtRp2704
(dp2705
g74
(dp2706
g82
I4
ssg83
Nsg76
(lp2707
g69
(g85
g71
NtRp2708
(dp2709
g74
(dp2710
sg83
g2704
sg76
(lp2711
g69
(g90
g71
NtRp2712
(dp2713
g74
(dp2714
g94
g95
ssg83
g2708
sg76
(lp2715
g2466
asbag69
(g90
g71
NtRp2716
(dp2717
g74
(dp2718
g101
g102
ssg83
g2708
sg76
(lp2719
S':'
asbag69
(g90
g71
NtRp2720
(dp2721
g74
(dp2722
sg83
g2708
sg76
(lp2723
g69
(g70
g71
NtRp2724
(dp2725
g74
(dp2726
g82
I4
ssg83
g2720
sg76
(lp2727
S'4'
asbasbasbag69
(g85
g71
NtRp2728
(dp2729
g74
(dp2730
sg83
g2704
sg76
(lp2731
g69
(g90
g71
NtRp2732
(dp2733
g74
(dp2734
g94
g95
ssg83
g2728
sg76
(lp2735
g2487
asbag69
(g90
g71
NtRp2736
(dp2737
g74
(dp2738
g101
g102
ssg83
g2728
sg76
(lp2739
S':'
asbag69
(g90
g71
NtRp2740
(dp2741
g74
(dp2742
sg83
g2728
sg76
(lp2743
g69
(g70
g71
NtRp2744
(dp2745
g74
(dp2746
g82
I4
ssg83
g2740
sg76
(lp2747
g2500
asbasbasbag69
(g85
g71
NtRp2748
(dp2749
g74
(dp2750
sg83
g2704
sg76
(lp2751
g69
(g90
g71
NtRp2752
(dp2753
g74
(dp2754
g94
g95
ssg83
g2748
sg76
(lp2755
g2509
asbag69
(g90
g71
NtRp2756
(dp2757
g74
(dp2758
g101
g102
ssg83
g2748
sg76
(lp2759
S':'
asbag69
(g90
g71
NtRp2760
(dp2761
g74
(dp2762
sg83
g2748
sg76
(lp2763
g69
(g70
g71
NtRp2764
(dp2765
g74
(dp2766
g82
I4
ssg83
g2760
sg76
(lp2767
g2522
asbasbasbag69
(g85
g71
NtRp2768
(dp2769
g74
(dp2770
sg83
g2704
sg76
(lp2771
g69
(g90
g71
NtRp2772
(dp2773
g74
(dp2774
g94
g95
ssg83
g2768
sg76
(lp2775
g2531
asbag69
(g90
g71
NtRp2776
(dp2777
g74
(dp2778
g101
g102
ssg83
g2768
sg76
(lp2779
S':'
asbag69
(g90
g71
NtRp2780
(dp2781
g74
(dp2782
sg83
g2768
sg76
(lp2783
g69
(g70
g71
NtRp2784
(dp2785
g74
(dp2786
g82
I4
ssg83
g2780
sg76
(lp2787
g69
(g78
g71
NtRp2788
(dp2789
g74
(dp2790
g82
I3
ssg83
Nsg76
(lp2791
g69
(g85
g71
NtRp2792
(dp2793
g74
(dp2794
sg83
g2788
sg76
(lp2795
g69
(g90
g71
NtRp2796
(dp2797
g74
(dp2798
sg83
g2792
sg76
(lp2799
g69
(g70
g71
NtRp2800
(dp2801
g74
(dp2802
g82
I3
ssg83
g2796
sg76
(lp2803
S'4'
asbasbasbag69
(g85
g71
NtRp2804
(dp2805
g74
(dp2806
sg83
g2788
sg76
(lp2807
g69
(g90
g71
NtRp2808
(dp2809
g74
(dp2810
sg83
g2804
sg76
(lp2811
g69
(g70
g71
NtRp2812
(dp2813
g74
(dp2814
g82
I3
ssg83
g2808
sg76
(lp2815
S'2'
asbasbasbag69
(g85
g71
NtRp2816
(dp2817
g74
(dp2818
sg83
g2788
sg76
(lp2819
g69
(g90
g71
NtRp2820
(dp2821
g74
(dp2822
sg83
g2816
sg76
(lp2823
g69
(g70
g71
NtRp2824
(dp2825
g74
(dp2826
g82
I3
ssg83
g2820
sg76
(lp2827
S'1'
asbasbasbag69
(g85
g71
NtRp2828
(dp2829
g74
(dp2830
sg83
g2788
sg76
(lp2831
g69
(g90
g71
NtRp2832
(dp2833
g74
(dp2834
sg83
g2828
sg76
(lp2835
g69
(g70
g71
NtRp2836
(dp2837
g74
(dp2838
g82
I3
ssg83
g2832
sg76
(lp2839
S'3'
asbasbasbasbasbasbasbag69
(g85
g71
NtRp2840
(dp2841
g74
(dp2842
sg83
g2704
sg76
(lp2843
g69
(g90
g71
NtRp2844
(dp2845
g74
(dp2846
g94
g95
ssg83
g2840
sg76
(lp2847
g2604
asbag69
(g90
g71
NtRp2848
(dp2849
g74
(dp2850
g101
g102
ssg83
g2840
sg76
(lp2851
S':'
asbag69
(g90
g71
NtRp2852
(dp2853
g74
(dp2854
sg83
g2840
sg76
(lp2855
g69
(g70
g71
NtRp2856
(dp2857
g74
(dp2858
g82
I4
ssg83
g2852
sg76
(lp2859
g2617
asbasbasbasbasbasbasbag69
(g85
g71
NtRp2860
(dp2861
g74
(dp2862
sg83
g79
sg76
(lp2863
g69
(g90
g71
NtRp2864
(dp2865
g74
(dp2866
g94
g95
ssg83
g2860
sg76
(lp2867
S'wsgi'
p2868
asbag69
(g90
g71
NtRp2869
(dp2870
g74
(dp2871
g101
g102
ssg83
g2860
sg76
(lp2872
S':'
asbag69
(g90
g71
NtRp2873
(dp2874
g74
(dp2875
sg83
g2860
sg76
(lp2876
g69
(g70
g71
NtRp2877
(dp2878
g74
(dp2879
g82
I5
ssg83
g2873
sg76
(lp2880
g69
(g78
g71
NtRp2881
(dp2882
g74
(dp2883
g82
I4
ssg83
Nsg76
(lp2884
g69
(g85
g71
NtRp2885
(dp2886
g74
(dp2887
sg83
g2881
sg76
(lp2888
g69
(g90
g71
NtRp2889
(dp2890
g74
(dp2891
g94
g95
ssg83
g2885
sg76
(lp2892
S'environ'
p2893
asbag69
(g90
g71
NtRp2894
(dp2895
g74
(dp2896
g101
g102
ssg83
g2885
sg76
(lp2897
S':'
asbag69
(g90
g71
NtRp2898
(dp2899
g74
(dp2900
sg83
g2885
sg76
(lp2901
g69
(g70
g71
NtRp2902
(dp2903
g74
(dp2904
g82
I4
ssg83
g2898
sg76
(lp2905
g69
(g78
g71
NtRp2906
(dp2907
g74
(dp2908
g82
I3
ssg83
Nsg76
(lp2909
g69
(g85
g71
NtRp2910
(dp2911
g74
(dp2912
sg83
g2906
sg76
(lp2913
g69
(g90
g71
NtRp2914
(dp2915
g74
(dp2916
g94
g95
ssg83
g2910
sg76
(lp2917
S'CONTENT_LENGTH'
p2918
asbag69
(g90
g71
NtRp2919
(dp2920
g74
(dp2921
g101
g102
ssg83
g2910
sg76
(lp2922
S':'
asbag69
(g90
g71
NtRp2923
(dp2924
g74
(dp2925
sg83
g2910
sg76
(lp2926
g69
(g70
g71
NtRp2927
(dp2928
g74
(dp2929
g82
I3
ssg83
g2923
sg76
(lp2930
g828
asbasbasbag69
(g85
g71
NtRp2931
(dp2932
g74
(dp2933
sg83
g2906
sg76
(lp2934
g69
(g90
g71
NtRp2935
(dp2936
g74
(dp2937
g94
g95
ssg83
g2931
sg76
(lp2938
S'CONTENT_TYPE'
p2939
asbag69
(g90
g71
NtRp2940
(dp2941
g74
(dp2942
g101
g102
ssg83
g2931
sg76
(lp2943
S':'
asbag69
(g90
g71
NtRp2944
(dp2945
g74
(dp2946
sg83
g2931
sg76
(lp2947
g69
(g70
g71
NtRp2948
(dp2949
g74
(dp2950
g82
I3
ssg83
g2944
sg76
(lp2951
g850
asbasbasbag69
(g85
g71
NtRp2952
(dp2953
g74
(dp2954
sg83
g2906
sg76
(lp2955
g69
(g90
g71
NtRp2956
(dp2957
g74
(dp2958
g94
g95
ssg83
g2952
sg76
(lp2959
S'HTTP_ACCEPT'
p2960
asbag69
(g90
g71
NtRp2961
(dp2962
g74
(dp2963
g101
g102
ssg83
g2952
sg76
(lp2964
S':'
asbag69
(g90
g71
NtRp2965
(dp2966
g74
(dp2967
sg83
g2952
sg76
(lp2968
g69
(g70
g71
NtRp2969
(dp2970
g74
(dp2971
g82
I3
ssg83
g2965
sg76
(lp2972
g937
asbasbasbag69
(g85
g71
NtRp2973
(dp2974
g74
(dp2975
sg83
g2906
sg76
(lp2976
g69
(g90
g71
NtRp2977
(dp2978
g74
(dp2979
g94
g95
ssg83
g2973
sg76
(lp2980
S'HTTP_ACCEPT_CHARSET'
p2981
asbag69
(g90
g71
NtRp2982
(dp2983
g74
(dp2984
g101
g102
ssg83
g2973
sg76
(lp2985
S':'
asbag69
(g90
g71
NtRp2986
(dp2987
g74
(dp2988
sg83
g2973
sg76
(lp2989
g69
(g70
g71
NtRp2990
(dp2991
g74
(dp2992
g82
I3
ssg83
g2986
sg76
(lp2993
g959
asbasbasbag69
(g85
g71
NtRp2994
(dp2995
g74
(dp2996
sg83
g2906
sg76
(lp2997
g69
(g90
g71
NtRp2998
(dp2999
g74
(dp3000
g94
g95
ssg83
g2994
sg76
(lp3001
S'HTTP_ACCEPT_ENCODING'
p3002
asbag69
(g90
g71
NtRp3003
(dp3004
g74
(dp3005
g101
g102
ssg83
g2994
sg76
(lp3006
S':'
asbag69
(g90
g71
NtRp3007
(dp3008
g74
(dp3009
sg83
g2994
sg76
(lp3010
g69
(g70
g71
NtRp3011
(dp3012
g74
(dp3013
g82
I3
ssg83
g3007
sg76
(lp3014
g981
asbasbasbag69
(g85
g71
NtRp3015
(dp3016
g74
(dp3017
sg83
g2906
sg76
(lp3018
g69
(g90
g71
NtRp3019
(dp3020
g74
(dp3021
g94
g95
ssg83
g3015
sg76
(lp3022
S'HTTP_ACCEPT_LANGUAGE'
p3023
asbag69
(g90
g71
NtRp3024
(dp3025
g74
(dp3026
g101
g102
ssg83
g3015
sg76
(lp3027
S':'
asbag69
(g90
g71
NtRp3028
(dp3029
g74
(dp3030
sg83
g3015
sg76
(lp3031
g69
(g70
g71
NtRp3032
(dp3033
g74
(dp3034
g82
I3
ssg83
g3028
sg76
(lp3035
g1003
asbasbasbag69
(g85
g71
NtRp3036
(dp3037
g74
(dp3038
sg83
g2906
sg76
(lp3039
g69
(g90
g71
NtRp3040
(dp3041
g74
(dp3042
g94
g95
ssg83
g3036
sg76
(lp3043
S'HTTP_CACHE_CONTROL'
p3044
asbag69
(g90
g71
NtRp3045
(dp3046
g74
(dp3047
g101
g102
ssg83
g3036
sg76
(lp3048
S':'
asbag69
(g90
g71
NtRp3049
(dp3050
g74
(dp3051
sg83
g3036
sg76
(lp3052
g69
(g70
g71
NtRp3053
(dp3054
g74
(dp3055
g82
I3
ssg83
g3049
sg76
(lp3056
g1025
asbasbasbag69
(g85
g71
NtRp3057
(dp3058
g74
(dp3059
sg83
g2906
sg76
(lp3060
g69
(g90
g71
NtRp3061
(dp3062
g74
(dp3063
g94
g95
ssg83
g3057
sg76
(lp3064
S'HTTP_CONNECTION'
p3065
asbag69
(g90
g71
NtRp3066
(dp3067
g74
(dp3068
g101
g102
ssg83
g3057
sg76
(lp3069
S':'
asbag69
(g90
g71
NtRp3070
(dp3071
g74
(dp3072
sg83
g3057
sg76
(lp3073
g69
(g70
g71
NtRp3074
(dp3075
g74
(dp3076
g82
I3
ssg83
g3070
sg76
(lp3077
g1047
asbasbasbag69
(g85
g71
NtRp3078
(dp3079
g74
(dp3080
sg83
g2906
sg76
(lp3081
g69
(g90
g71
NtRp3082
(dp3083
g74
(dp3084
g94
g95
ssg83
g3078
sg76
(lp3085
S'HTTP_CONTENT_LENGTH'
p3086
asbag69
(g90
g71
NtRp3087
(dp3088
g74
(dp3089
g101
g102
ssg83
g3078
sg76
(lp3090
S':'
asbag69
(g90
g71
NtRp3091
(dp3092
g74
(dp3093
sg83
g3078
sg76
(lp3094
g69
(g70
g71
NtRp3095
(dp3096
g74
(dp3097
g82
I3
ssg83
g3091
sg76
(lp3098
g828
asbasbasbag69
(g85
g71
NtRp3099
(dp3100
g74
(dp3101
sg83
g2906
sg76
(lp3102
g69
(g90
g71
NtRp3103
(dp3104
g74
(dp3105
g94
g95
ssg83
g3099
sg76
(lp3106
S'HTTP_CONTENT_TYPE'
p3107
asbag69
(g90
g71
NtRp3108
(dp3109
g74
(dp3110
g101
g102
ssg83
g3099
sg76
(lp3111
S':'
asbag69
(g90
g71
NtRp3112
(dp3113
g74
(dp3114
sg83
g3099
sg76
(lp3115
g69
(g70
g71
NtRp3116
(dp3117
g74
(dp3118
g82
I3
ssg83
g3112
sg76
(lp3119
g850
asbasbasbag69
(g85
g71
NtRp3120
(dp3121
g74
(dp3122
sg83
g2906
sg76
(lp3123
g69
(g90
g71
NtRp3124
(dp3125
g74
(dp3126
g94
g95
ssg83
g3120
sg76
(lp3127
S'HTTP_COOKIE'
p3128
asbag69
(g90
g71
NtRp3129
(dp3130
g74
(dp3131
g101
g102
ssg83
g3120
sg76
(lp3132
S':'
asbag69
(g90
g71
NtRp3133
(dp3134
g74
(dp3135
sg83
g3120
sg76
(lp3136
g69
(g70
g71
NtRp3137
(dp3138
g74
(dp3139
g82
I3
ssg83
g3133
sg76
(lp3140
g1111
asbasbasbag69
(g85
g71
NtRp3141
(dp3142
g74
(dp3143
sg83
g2906
sg76
(lp3144
g69
(g90
g71
NtRp3145
(dp3146
g74
(dp3147
g94
g95
ssg83
g3141
sg76
(lp3148
S'HTTP_HOST'
p3149
asbag69
(g90
g71
NtRp3150
(dp3151
g74
(dp3152
g101
g102
ssg83
g3141
sg76
(lp3153
S':'
asbag69
(g90
g71
NtRp3154
(dp3155
g74
(dp3156
sg83
g3141
sg76
(lp3157
g69
(g70
g71
NtRp3158
(dp3159
g74
(dp3160
g82
I3
ssg83
g3154
sg76
(lp3161
g1133
asbasbasbag69
(g85
g71
NtRp3162
(dp3163
g74
(dp3164
sg83
g2906
sg76
(lp3165
g69
(g90
g71
NtRp3166
(dp3167
g74
(dp3168
g94
g95
ssg83
g3162
sg76
(lp3169
S'HTTP_ORIGIN'
p3170
asbag69
(g90
g71
NtRp3171
(dp3172
g74
(dp3173
g101
g102
ssg83
g3162
sg76
(lp3174
S':'
asbag69
(g90
g71
NtRp3175
(dp3176
g74
(dp3177
sg83
g3162
sg76
(lp3178
g69
(g70
g71
NtRp3179
(dp3180
g74
(dp3181
g82
I3
ssg83
g3175
sg76
(lp3182
g1155
asbasbasbag69
(g85
g71
NtRp3183
(dp3184
g74
(dp3185
sg83
g2906
sg76
(lp3186
g69
(g90
g71
NtRp3187
(dp3188
g74
(dp3189
g94
g95
ssg83
g3183
sg76
(lp3190
S'HTTP_REFERER'
p3191
asbag69
(g90
g71
NtRp3192
(dp3193
g74
(dp3194
g101
g102
ssg83
g3183
sg76
(lp3195
S':'
asbag69
(g90
g71
NtRp3196
(dp3197
g74
(dp3198
sg83
g3183
sg76
(lp3199
g69
(g70
g71
NtRp3200
(dp3201
g74
(dp3202
g82
I3
ssg83
g3196
sg76
(lp3203
g1177
asbasbasbag69
(g85
g71
NtRp3204
(dp3205
g74
(dp3206
sg83
g2906
sg76
(lp3207
g69
(g90
g71
NtRp3208
(dp3209
g74
(dp3210
g94
g95
ssg83
g3204
sg76
(lp3211
S'HTTP_USER_AGENT'
p3212
asbag69
(g90
g71
NtRp3213
(dp3214
g74
(dp3215
g101
g102
ssg83
g3204
sg76
(lp3216
S':'
asbag69
(g90
g71
NtRp3217
(dp3218
g74
(dp3219
sg83
g3204
sg76
(lp3220
g69
(g70
g71
NtRp3221
(dp3222
g74
(dp3223
g82
I3
ssg83
g3217
sg76
(lp3224
g1199
asbasbasbag69
(g85
g71
NtRp3225
(dp3226
g74
(dp3227
sg83
g2906
sg76
(lp3228
g69
(g90
g71
NtRp3229
(dp3230
g74
(dp3231
g94
g95
ssg83
g3225
sg76
(lp3232
S'PATH_INFO'
p3233
asbag69
(g90
g71
NtRp3234
(dp3235
g74
(dp3236
g101
g102
ssg83
g3225
sg76
(lp3237
S':'
asbag69
(g90
g71
NtRp3238
(dp3239
g74
(dp3240
sg83
g3225
sg76
(lp3241
g69
(g70
g71
NtRp3242
(dp3243
g74
(dp3244
g82
I3
ssg83
g3238
sg76
(lp3245
g1340
asbasbasbag69
(g85
g71
NtRp3246
(dp3247
g74
(dp3248
sg83
g2906
sg76
(lp3249
g69
(g90
g71
NtRp3250
(dp3251
g74
(dp3252
g94
g95
ssg83
g3246
sg76
(lp3253
S'QUERY_STRING'
p3254
asbag69
(g90
g71
NtRp3255
(dp3256
g74
(dp3257
g101
g102
ssg83
g3246
sg76
(lp3258
S':'
asbag69
(g90
g71
NtRp3259
(dp3260
g74
(dp3261
sg83
g3246
sg76
(lp3262
g69
(g70
g71
NtRp3263
(dp3264
g74
(dp3265
g82
I3
ssg83
g3259
sg76
(lp3266
S''
asbasbasbag69
(g85
g71
NtRp3267
(dp3268
g74
(dp3269
sg83
g2906
sg76
(lp3270
g69
(g90
g71
NtRp3271
(dp3272
g74
(dp3273
g94
g95
ssg83
g3267
sg76
(lp3274
S'REMOTE_ADDR'
p3275
asbag69
(g90
g71
NtRp3276
(dp3277
g74
(dp3278
g101
g102
ssg83
g3267
sg76
(lp3279
S':'
asbag69
(g90
g71
NtRp3280
(dp3281
g74
(dp3282
sg83
g3267
sg76
(lp3283
g69
(g70
g71
NtRp3284
(dp3285
g74
(dp3286
g82
I3
ssg83
g3280
sg76
(lp3287
g263
asbasbasbag69
(g85
g71
NtRp3288
(dp3289
g74
(dp3290
sg83
g2906
sg76
(lp3291
g69
(g90
g71
NtRp3292
(dp3293
g74
(dp3294
g94
g95
ssg83
g3288
sg76
(lp3295
S'REMOTE_PORT'
p3296
asbag69
(g90
g71
NtRp3297
(dp3298
g74
(dp3299
g101
g102
ssg83
g3288
sg76
(lp3300
S':'
asbag69
(g90
g71
NtRp3301
(dp3302
g74
(dp3303
sg83
g3288
sg76
(lp3304
g69
(g70
g71
NtRp3305
(dp3306
g74
(dp3307
g82
I3
ssg83
g3301
sg76
(lp3308
g1404
asbasbasbag69
(g85
g71
NtRp3309
(dp3310
g74
(dp3311
sg83
g2906
sg76
(lp3312
g69
(g90
g71
NtRp3313
(dp3314
g74
(dp3315
g94
g95
ssg83
g3309
sg76
(lp3316
S'REQUEST_METHOD'
p3317
asbag69
(g90
g71
NtRp3318
(dp3319
g74
(dp3320
g101
g102
ssg83
g3309
sg76
(lp3321
S':'
asbag69
(g90
g71
NtRp3322
(dp3323
g74
(dp3324
sg83
g3309
sg76
(lp3325
g69
(g70
g71
NtRp3326
(dp3327
g74
(dp3328
g82
I3
ssg83
g3322
sg76
(lp3329
g1426
asbasbasbag69
(g85
g71
NtRp3330
(dp3331
g74
(dp3332
sg83
g2906
sg76
(lp3333
g69
(g90
g71
NtRp3334
(dp3335
g74
(dp3336
g94
g95
ssg83
g3330
sg76
(lp3337
S'REQUEST_URI'
p3338
asbag69
(g90
g71
NtRp3339
(dp3340
g74
(dp3341
g101
g102
ssg83
g3330
sg76
(lp3342
S':'
asbag69
(g90
g71
NtRp3343
(dp3344
g74
(dp3345
sg83
g3330
sg76
(lp3346
g69
(g70
g71
NtRp3347
(dp3348
g74
(dp3349
g82
I3
ssg83
g3343
sg76
(lp3350
g1448
asbasbasbag69
(g85
g71
NtRp3351
(dp3352
g74
(dp3353
sg83
g2906
sg76
(lp3354
g69
(g90
g71
NtRp3355
(dp3356
g74
(dp3357
g94
g95
ssg83
g3351
sg76
(lp3358
S'SCRIPT_NAME'
p3359
asbag69
(g90
g71
NtRp3360
(dp3361
g74
(dp3362
g101
g102
ssg83
g3351
sg76
(lp3363
S':'
asbag69
(g90
g71
NtRp3364
(dp3365
g74
(dp3366
sg83
g3351
sg76
(lp3367
g69
(g70
g71
NtRp3368
(dp3369
g74
(dp3370
g82
I3
ssg83
g3364
sg76
(lp3371
S''
asbasbasbag69
(g85
g71
NtRp3372
(dp3373
g74
(dp3374
sg83
g2906
sg76
(lp3375
g69
(g90
g71
NtRp3376
(dp3377
g74
(dp3378
g94
g95
ssg83
g3372
sg76
(lp3379
S'SERVER_NAME'
p3380
asbag69
(g90
g71
NtRp3381
(dp3382
g74
(dp3383
g101
g102
ssg83
g3372
sg76
(lp3384
S':'
asbag69
(g90
g71
NtRp3385
(dp3386
g74
(dp3387
sg83
g3372
sg76
(lp3388
g69
(g70
g71
NtRp3389
(dp3390
g74
(dp3391
g82
I3
ssg83
g3385
sg76
(lp3392
g1491
asbasbasbag69
(g85
g71
NtRp3393
(dp3394
g74
(dp3395
sg83
g2906
sg76
(lp3396
g69
(g90
g71
NtRp3397
(dp3398
g74
(dp3399
g94
g95
ssg83
g3393
sg76
(lp3400
S'SERVER_PORT'
p3401
asbag69
(g90
g71
NtRp3402
(dp3403
g74
(dp3404
g101
g102
ssg83
g3393
sg76
(lp3405
S':'
asbag69
(g90
g71
NtRp3406
(dp3407
g74
(dp3408
sg83
g3393
sg76
(lp3409
g69
(g70
g71
NtRp3410
(dp3411
g74
(dp3412
g82
I3
ssg83
g3406
sg76
(lp3413
g1513
asbasbasbag69
(g85
g71
NtRp3414
(dp3415
g74
(dp3416
sg83
g2906
sg76
(lp3417
g69
(g90
g71
NtRp3418
(dp3419
g74
(dp3420
g94
g95
ssg83
g3414
sg76
(lp3421
S'SERVER_PROTOCOL'
p3422
asbag69
(g90
g71
NtRp3423
(dp3424
g74
(dp3425
g101
g102
ssg83
g3414
sg76
(lp3426
S':'
asbag69
(g90
g71
NtRp3427
(dp3428
g74
(dp3429
sg83
g3414
sg76
(lp3430
g69
(g70
g71
NtRp3431
(dp3432
g74
(dp3433
g82
I3
ssg83
g3427
sg76
(lp3434
g1535
asbasbasbag69
(g85
g71
NtRp3435
(dp3436
g74
(dp3437
sg83
g2906
sg76
(lp3438
g69
(g90
g71
NtRp3439
(dp3440
g74
(dp3441
g94
g95
ssg83
g3435
sg76
(lp3442
S'SERVER_SOFTWARE'
p3443
asbag69
(g90
g71
NtRp3444
(dp3445
g74
(dp3446
g101
g102
ssg83
g3435
sg76
(lp3447
S':'
asbag69
(g90
g71
NtRp3448
(dp3449
g74
(dp3450
sg83
g3435
sg76
(lp3451
g69
(g70
g71
NtRp3452
(dp3453
g74
(dp3454
g82
I3
ssg83
g3448
sg76
(lp3455
g1557
asbasbasbag69
(g85
g71
NtRp3456
(dp3457
g74
(dp3458
sg83
g2906
sg76
(lp3459
g69
(g90
g71
NtRp3460
(dp3461
g74
(dp3462
g94
g95
ssg83
g3456
sg76
(lp3463
S'WEB2PY_ORIGINAL_URI'
p3464
asbag69
(g90
g71
NtRp3465
(dp3466
g74
(dp3467
g101
g102
ssg83
g3456
sg76
(lp3468
S':'
asbag69
(g90
g71
NtRp3469
(dp3470
g74
(dp3471
sg83
g3456
sg76
(lp3472
g69
(g70
g71
NtRp3473
(dp3474
g74
(dp3475
g82
I3
ssg83
g3469
sg76
(lp3476
g1340
asbasbasbag69
(g85
g71
NtRp3477
(dp3478
g74
(dp3479
sg83
g2906
sg76
(lp3480
g69
(g90
g71
NtRp3481
(dp3482
g74
(dp3483
g94
g95
ssg83
g3477
sg76
(lp3484
S'wsgi.errors'
p3485
asbag69
(g90
g71
NtRp3486
(dp3487
g74
(dp3488
g101
g102
ssg83
g3477
sg76
(lp3489
S':'
asbag69
(g90
g71
NtRp3490
(dp3491
g74
(dp3492
sg83
g3477
sg76
(lp3493
g69
(g70
g71
NtRp3494
(dp3495
g74
(dp3496
g82
I3
ssg83
g3490
sg76
(lp3497
S"<open file '<stderr>', mode 'w' at 0x7f635a603270>"
p3498
asbasbasbag69
(g85
g71
NtRp3499
(dp3500
g74
(dp3501
sg83
g2906
sg76
(lp3502
g69
(g90
g71
NtRp3503
(dp3504
g74
(dp3505
g94
g95
ssg83
g3499
sg76
(lp3506
S'wsgi.file_wrapper'
p3507
asbag69
(g90
g71
NtRp3508
(dp3509
g74
(dp3510
g101
g102
ssg83
g3499
sg76
(lp3511
S':'
asbag69
(g90
g71
NtRp3512
(dp3513
g74
(dp3514
sg83
g3499
sg76
(lp3515
g69
(g70
g71
NtRp3516
(dp3517
g74
(dp3518
g82
I3
ssg83
g3512
sg76
(lp3519
S'<class wsgiref.util.FileWrapper at 0x2bb2598>'
p3520
asbasbasbag69
(g85
g71
NtRp3521
(dp3522
g74
(dp3523
sg83
g2906
sg76
(lp3524
g69
(g90
g71
NtRp3525
(dp3526
g74
(dp3527
g94
g95
ssg83
g3521
sg76
(lp3528
S'wsgi.input'
p3529
asbag69
(g90
g71
NtRp3530
(dp3531
g74
(dp3532
g101
g102
ssg83
g3521
sg76
(lp3533
S':'
asbag69
(g90
g71
NtRp3534
(dp3535
g74
(dp3536
sg83
g3521
sg76
(lp3537
g69
(g70
g71
NtRp3538
(dp3539
g74
(dp3540
g82
I3
ssg83
g3534
sg76
(lp3541
S"<open file '<fdopen>', mode 'w+b' at 0x7f63407acc90>"
p3542
asbasbasbag69
(g85
g71
NtRp3543
(dp3544
g74
(dp3545
sg83
g2906
sg76
(lp3546
g69
(g90
g71
NtRp3547
(dp3548
g74
(dp3549
g94
g95
ssg83
g3543
sg76
(lp3550
S'wsgi.multiprocess'
p3551
asbag69
(g90
g71
NtRp3552
(dp3553
g74
(dp3554
g101
g102
ssg83
g3543
sg76
(lp3555
S':'
asbag69
(g90
g71
NtRp3556
(dp3557
g74
(dp3558
sg83
g3543
sg76
(lp3559
g69
(g70
g71
NtRp3560
(dp3561
g74
(dp3562
g82
I3
ssg83
g3556
sg76
(lp3563
g112
asbasbasbag69
(g85
g71
NtRp3564
(dp3565
g74
(dp3566
sg83
g2906
sg76
(lp3567
g69
(g90
g71
NtRp3568
(dp3569
g74
(dp3570
g94
g95
ssg83
g3564
sg76
(lp3571
S'wsgi.multithread'
p3572
asbag69
(g90
g71
NtRp3573
(dp3574
g74
(dp3575
g101
g102
ssg83
g3564
sg76
(lp3576
S':'
asbag69
(g90
g71
NtRp3577
(dp3578
g74
(dp3579
sg83
g3564
sg76
(lp3580
g69
(g70
g71
NtRp3581
(dp3582
g74
(dp3583
g82
I3
ssg83
g3577
sg76
(lp3584
g1795
asbasbasbag69
(g85
g71
NtRp3585
(dp3586
g74
(dp3587
sg83
g2906
sg76
(lp3588
g69
(g90
g71
NtRp3589
(dp3590
g74
(dp3591
g94
g95
ssg83
g3585
sg76
(lp3592
S'wsgi.run_once'
p3593
asbag69
(g90
g71
NtRp3594
(dp3595
g74
(dp3596
g101
g102
ssg83
g3585
sg76
(lp3597
S':'
asbag69
(g90
g71
NtRp3598
(dp3599
g74
(dp3600
sg83
g3585
sg76
(lp3601
g69
(g70
g71
NtRp3602
(dp3603
g74
(dp3604
g82
I3
ssg83
g3598
sg76
(lp3605
g112
asbasbasbag69
(g85
g71
NtRp3606
(dp3607
g74
(dp3608
sg83
g2906
sg76
(lp3609
g69
(g90
g71
NtRp3610
(dp3611
g74
(dp3612
g94
g95
ssg83
g3606
sg76
(lp3613
S'wsgi.url_scheme'
p3614
asbag69
(g90
g71
NtRp3615
(dp3616
g74
(dp3617
g101
g102
ssg83
g3606
sg76
(lp3618
S':'
asbag69
(g90
g71
NtRp3619
(dp3620
g74
(dp3621
sg83
g3606
sg76
(lp3622
g69
(g70
g71
NtRp3623
(dp3624
g74
(dp3625
g82
I3
ssg83
g3619
sg76
(lp3626
g1838
asbasbasbag69
(g85
g71
NtRp3627
(dp3628
g74
(dp3629
sg83
g2906
sg76
(lp3630
g69
(g90
g71
NtRp3631
(dp3632
g74
(dp3633
g94
g95
ssg83
g3627
sg76
(lp3634
S'wsgi.version'
p3635
asbag69
(g90
g71
NtRp3636
(dp3637
g74
(dp3638
g101
g102
ssg83
g3627
sg76
(lp3639
S':'
asbag69
(g90
g71
NtRp3640
(dp3641
g74
(dp3642
sg83
g3627
sg76
(lp3643
g69
(g70
g71
NtRp3644
(dp3645
g74
(dp3646
g82
I3
ssg83
g3640
sg76
(lp3647
S'1'
asbasbasbasbasbasbasbasbasbasbasbasbasbsS'frames'
p3648
(lp3649
(dp3650
S'file'
p3651
S'/var/www/conferencia/gluon/restricted.py'
p3652
sS'dump'
p3653
(dp3654
S'environment'
p3655
S"{'A': <class 'gluon.html.A'>, 'Auth': <class 'gluon.tools.Auth'>, 'B': <class 'gluon.html.B'>, 'BEAUTIFY': <class 'gluon.html.BEAUTIFY'>, 'BODY': <class 'gluon.html.BODY'>, 'BR': <class 'gluon.html.BR'>, 'BUTTON': <class 'gluon.html.BUTTON'>, 'CAT': <class 'gluon.html.CAT'>, 'CENTER': <class 'gluon.html.CENTER'>, 'CLEANUP': <class 'gluon.validators.CLEANUP'>, ...}"
p3656
sS'ccode'
p3657
S'<code object <module> at 0x7f6340b73530, file "/...ications/projeto/controllers/initial.py", line 3>'
p3658
ssS'lnum'
p3659
I212
sS'lines'
p3660
(dp3661
I207
S'    try:'
p3662
sI208
S'        if isinstance(code, types.CodeType):'
p3663
sI209
S'            ccode = code'
p3664
sI210
S'        else:'
p3665
sI211
S'            ccode = compile2(code, layer)'
p3666
sI212
S'        exec ccode in environment'
p3667
sI213
S'    except HTTP:'
p3668
sI214
S'        raise'
p3669
sI215
S'    except RestrictedError:'
p3670
sI216
S'        # do not encapsulate (obfuscate) the original RestrictedError'
p3671
ssS'call'
p3672
S"(code='# coding: utf-8\\n\\ndef show_cliente():\\n\\tresponse.t...)\\n\\nresponse._vars=response._caller(show_cliente)\\n', environment={'A': <class 'gluon.html.A'>, 'Auth': <class 'gluon.tools.Auth'>, 'B': <class 'gluon.html.B'>, 'BEAUTIFY': <class 'gluon.html.BEAUTIFY'>, 'BODY': <class 'gluon.html.BODY'>, 'BR': <class 'gluon.html.BR'>, 'BUTTON': <class 'gluon.html.BUTTON'>, 'CAT': <class 'gluon.html.CAT'>, 'CENTER': <class 'gluon.html.CENTER'>, 'CLEANUP': <class 'gluon.validators.CLEANUP'>, ...}, layer='/var/www/conferencia/applications/projeto/controllers/initial.py')"
p3673
sS'func'
p3674
S'restricted'
p3675
sa(dp3676
g3651
S'/var/www/conferencia/applications/projeto/controllers/initial.py'
p3677
sg3653
(dp3678
sg3659
I326
sg3660
(dp3679
I320
S'\t\tmail.send('
p3680
sI321
S'\t\t\tto="fernando@ad2.com.br",'
p3681
sI322
S'\t\t\tsubject="host adicionado",'
p3682
sI323
S'\t\t\tmessage="<html>Um novo host foi adicionado pelo usu\xc3\xa1rio %s <br>nome: %s <br>vpn: %s<br><br>\xc3\x89 preciso fazer a instala\xc3\xa7\xc3\xa3o do client zabbix e bacula</html>" % (auth.user.first_name, host.nome, host.ip_chegada,)'
p3683
sI324
S'\t\t\t)'
p3684
sI315
S'\t\t\tto="fndiaz02@gmail.com",'
p3685
sI316
S'\t\t\tsubject="host adicionado",'
p3686
sI317
S'\t\t\tmessage="<html>Um novo host foi adicionado pelo usu\xc3\xa1rio %s <br>nome: %s <br>vpn: %s<br><br>\xc3\x89 preciso fazer a instala\xc3\xa7\xc3\xa3o do client zabbix e bacula</html>" % (auth.user.first_name, host.nome, host.ip_chegada,)'
p3687
sI318
S'\t\t\t)'
p3688
sI319
S"\telif auth.has_membership('internet'):"
p3689
ssg3672
S'()'
p3690
sg3674
S'<module>'
p3691
sa(dp3692
g3651
S'/var/www/conferencia/gluon/globals.py'
p3693
sg3653
(dp3694
S'self'
p3695
S'undefined'
p3696
sS'f'
S'<function show_cliente>'
p3697
ssg3659
I193
sg3660
(dp3698
I192
S'        self._vars = None'
p3699
sI193
S'        self._caller = lambda f: f()'
p3700
sI194
S'        self._view_environment = None'
p3701
sI195
S'        self._custom_commit = None'
p3702
sI196
S'        self._custom_rollback = None'
p3703
sI197
S''
sI188
S'        self.menu = []             # used by the default view layout'
p3704
sI189
S'        self.files = []            # used by web2py_ajax.html'
p3705
sI190
S'        self.generic_patterns = []  # patterns to allow generic views'
p3706
sI191
S"        self.delimiters = ('{{', '}}')"
p3707
ssg3672
S'(f=<function show_cliente>)'
p3708
sg3674
S'<lambda>'
p3709
sa(dp3710
g3651
S'/var/www/conferencia/applications/projeto/controllers/initial.py'
p3711
sg3653
(dp3712
S'ignore_rw'
p3713
g3696
sS'builtinTrue'
p3714
g1795
sS'maxtextlength'
p3715
g3696
ssg3659
I10
sg3660
(dp3716
I5
S'\tprint request.now'
p3717
sI6
S''
sI7
S'\tgrid = SQLFORM.grid(db.meetme, orderby=db.meetme.endtime,'
p3718
sI8
S'\t\tuser_signature=False, searchable=True, csv=False,'
p3719
sI9
S'\t\tpaginate=50, details=False,'
p3720
sI10
S'\t\tignore_rw = True, maxtextlength=36,'
p3721
sI11
S'    \t)'
p3722
sI12
S'\treturn response.render("initial/show_grid.html", grid=grid)'
p3723
sI13
S''
sI14
S'def show_servidor():'
p3724
ssg3672
S'()'
p3725
sg3674
S'show_cliente'
p3726
sa(dp3727
g3651
S'/var/www/conferencia/gluon/sqlhtml.py'
p3728
sg3653
(dp3729
S'builtinnext'
p3730
S'<built-in function next>'
p3731
sS'referrer'
p3732
S"'/show_cliente'"
p3733
ssg3659
I1920
sg3660
(dp3734
I1920
S'                next=referrer)'
p3735
sI1921
S'            res = DIV(buttons(view=details, record=record),'
p3736
sI1922
S'                      update_form, formfooter, _class=_class)'
p3737
sI1923
S'            res.create_form = create_form'
p3738
sI1924
S'            res.update_form = update_form'
p3739
sI1915
S'                **sqlformargs)'
p3740
sI1916
S'            update_form.process('
p3741
sI1917
S'                formname=formname,'
p3742
sI1918
S'                onvalidation=onvalidation,'
p3743
sI1919
S'                onsuccess=onupdate,'
p3744
ssg3672
S"(query=<Table meetme (confno,starttime,endtime,membros_user,admin_user,gravacao)>, fields=[<gluon.dal.Field object>, <gluon.dal.Field object>, <gluon.dal.Field object>, <gluon.dal.Field object>, <gluon.dal.Field object>, <gluon.dal.Field object>], field_id=<gluon.dal.Field object>, left=None, headers={}, orderby=<gluon.dal.Field object>, groupby=None, searchable=True, sortable=True, paginate=50, deletable=True, editable=True, details=False, selectable=None, create=True, csv=False, links=None, links_in_grid=True, upload=<function <lambda>>, args=[], user_signature=False, maxtextlengths={}, maxtextlength=36, onvalidation=None, oncreate=None, onupdate=None, ondelete=None, sorter_icons=(<gluon.html.XML object>, <gluon.html.XML object>), ui={'button': 'button btn', 'buttonadd': 'icon plus icon-plus', 'buttonback': 'icon leftarrow icon-arrow-left', 'buttondelete': 'icon trash icon-trash', 'buttonedit': 'icon pen icon-pencil', 'buttonexport': 'icon downarrow icon-download', 'buttontable': 'icon rightarrow icon-arrow-right', 'buttontext': 'buttontext button', 'buttonview': 'icon magnifier icon-zoom-in', 'content': '', ...}, showbuttontext=True, _class='web2py_grid', formname='web2py_grid', search_widget='default', ignore_rw=True, formstyle='table3cols', exportclasses=None, formargs={}, createargs={}, editargs={}, viewargs={}, buttons_placement='right', links_placement='right')"
p3745
sg3674
S'grid'
p3746
sa(dp3747
g3651
S'/var/www/conferencia/gluon/html.py'
p3748
sg3653
(dp3749
S'self'
p3750
S'<gluon.sqlhtml.SQLFORM object>'
p3751
sS'self.validate'
p3752
S'<bound method SQLFORM.validate of <gluon.sqlhtml.SQLFORM object>>'
p3753
sS'kwargs'
p3754
S"{'dbio': True, 'formname': 'web2py_grid', 'next': '/show_cliente', 'onsuccess': None, 'onvalidation': None}"
p3755
ssg3659
I2179
sg3660
(dp3756
I2176
S'        """'
p3757
sI2177
S"        kwargs['dbio'] = kwargs.get('dbio', True)"
p3758
sI2178
S'                                    # necessary for SQLHTML forms'
p3759
sI2179
S'        self.validate(**kwargs)'
p3760
sI2180
S'        return self'
p3761
sI2181
S''
sI2182
S'    REDIRECT_JS = "window.location=\'%s\';return false"'
p3762
sI2183
S''
sI2174
S'        def action():'
p3763
sI2175
S'            return dict(form=SQLFORM(db.table).process(onsuccess=my_callback)'
p3764
ssg3672
S"(self=<gluon.sqlhtml.SQLFORM object>, **kwargs={'dbio': True, 'formname': 'web2py_grid', 'next': '/show_cliente', 'onsuccess': None, 'onvalidation': None})"
p3765
sg3674
S'process'
p3766
sa(dp3767
g3651
S'/var/www/conferencia/gluon/html.py'
p3768
sg3653
(dp3769
S'self'
p3770
S'<gluon.sqlhtml.SQLFORM object>'
p3771
sS'self.accepts'
p3772
S'<bound method SQLFORM.accepts of <gluon.sqlhtml.SQLFORM object>>'
p3773
sS'kwargs'
p3774
S"{'dbio': True, 'formname': 'web2py_grid', 'onvalidation': None, 'request_vars': <Storage {'admin_user': '4', 'starttime': '2013-...013-04-11 14:14:05', '_formname': 'web2py_grid'}>, 'session': <Storage {'_formkey[web2py_grid]': '69d9c72b-12e... {'version': '22.0.1229.94', 'name': 'Chrome'}}}>}"
p3775
ssg3659
I2118
sg3660
(dp3776
I2113
S"        for key in ('message_onsuccess', 'message_onfailure', 'onsuccess',"
p3777
sI2114
S"                    'onfailure', 'next', 'message_onchange', 'onchange'):"
p3778
sI2115
S'            if key in kwargs:'
p3779
sI2116
S'                del kwargs[key]'
p3780
sI2117
S''
sI2118
S'        if self.accepts(**kwargs):'
p3781
sI2119
S"            if onsuccess == 'flash':"
p3782
sI2120
S'                if next:'
p3783
sI2121
S'                    current.session.flash = message_onsuccess'
p3784
sI2122
S'                else:'
p3785
ssg3672
S"(self=<gluon.sqlhtml.SQLFORM object>, **kwargs={'dbio': True, 'formname': 'web2py_grid', 'onvalidation': None, 'request_vars': <Storage {'admin_user': '4', 'starttime': '2013-...013-04-11 14:14:05', '_formname': 'web2py_grid'}>, 'session': <Storage {'_formkey[web2py_grid]': '69d9c72b-12e... {'version': '22.0.1229.94', 'name': 'Chrome'}}}>})"
p3786
sg3674
S'validate'
p3787
sa(dp3788
g3651
S'/var/www/conferencia/gluon/sqlhtml.py'
p3789
sg3653
(dp3790
S'record_id'
p3791
S"{'confno': None}"
p3792
sS'self'
p3793
S'<gluon.sqlhtml.SQLFORM object>'
p3794
sS'self.record_id'
p3795
S"'1014'"
p3796
ssg3659
I1343
sg3660
(dp3797
I1344
S''
sI1345
S'        if record_id and dbio and not keyed:'
p3798
sI1346
S'            self.vars.id = self.record[self.id_field_name]'
p3799
sI1347
S''
sI1338
S'            self.accepted = ret'
p3800
sI1339
S'            return ret'
p3801
sI1340
S''
sI1341
S'        if record_id and str(record_id) != str(self.record_id):'
p3802
sI1342
S"            raise SyntaxError('user is tampering with form\\'s record_id: '"
p3803
sI1343
S"                              '%s != %s' % (record_id, self.record_id))"
p3804
ssg3672
S"(self=<gluon.sqlhtml.SQLFORM object>, request_vars=<Storage {'admin_user': '4', 'starttime': '2013-...013-04-11 14:14:05', '_formname': 'web2py_grid'}>, session=<Storage {'_formkey[web2py_grid]': '69d9c72b-12e... {'version': '22.0.1229.94', 'name': 'Chrome'}}}>, formname='web2py_grid', keepvalues=True, onvalidation=None, dbio=True, hideerror=False, detect_record_change=False, **kwargs={})"
p3805
sg3674
S'accepts'
p3806
sasS'pyver'
p3807
S'Python 2.7.3: /usr/bin/python'
p3808
sS'session'
p3809
g69
(g70
g71
NtRp3810
(dp3811
g74
(dp3812
sg76
(lp3813
g69
(g78
g71
NtRp3814
(dp3815
g74
(dp3816
g82
I5
ssg83
Nsg76
(lp3817
sbasbsS'etype'
p3818
S"<type 'exceptions.SyntaxError'>"
p3819
sS'date'
p3820
S'Wed Apr  3 14:15:54 2013'
p3821
sS'response'
p3822
g69
(g70
g71
NtRp3823
(dp3824
g74
(dp3825
sg76
(lp3826
g69
(g78
g71
NtRp3827
(dp3828
g74
(dp3829
g82
I5
ssg83
Nsg76
(lp3830
g69
(g85
g71
NtRp3831
(dp3832
g74
(dp3833
sg83
g3827
sg76
(lp3834
g69
(g90
g71
NtRp3835
(dp3836
g74
(dp3837
g94
g95
ssg83
g3831
sg76
(lp3838
g206
asbag69
(g90
g71
NtRp3839
(dp3840
g74
(dp3841
g101
g102
ssg83
g3831
sg76
(lp3842
S':'
asbag69
(g90
g71
NtRp3843
(dp3844
g74
(dp3845
sg83
g3831
sg76
(lp3846
g69
(g70
g71
NtRp3847
(dp3848
g74
(dp3849
g82
I5
ssg83
g3843
sg76
(lp3850
S'<cStringIO.StringO object at 0x7f634c20b030>'
p3851
asbasbasbag69
(g85
g71
NtRp3852
(dp3853
g74
(dp3854
sg83
g3827
sg76
(lp3855
g69
(g90
g71
NtRp3856
(dp3857
g74
(dp3858
g94
g95
ssg83
g3852
sg76
(lp3859
g294
asbag69
(g90
g71
NtRp3860
(dp3861
g74
(dp3862
g101
g102
ssg83
g3852
sg76
(lp3863
S':'
asbag69
(g90
g71
NtRp3864
(dp3865
g74
(dp3866
sg83
g3852
sg76
(lp3867
g69
(g70
g71
NtRp3868
(dp3869
g74
(dp3870
g82
I5
ssg83
g3864
sg76
(lp3871
g69
(g78
g71
NtRp3872
(dp3873
g74
(dp3874
g82
I4
ssg83
Nsg76
(lp3875
g69
(g85
g71
NtRp3876
(dp3877
g74
(dp3878
sg83
g3872
sg76
(lp3879
g69
(g90
g71
NtRp3880
(dp3881
g74
(dp3882
g94
g95
ssg83
g3876
sg76
(lp3883
S'session_id_projeto'
p3884
asbag69
(g90
g71
NtRp3885
(dp3886
g74
(dp3887
g101
g102
ssg83
g3876
sg76
(lp3888
S':'
asbag69
(g90
g71
NtRp3889
(dp3890
g74
(dp3891
sg83
g3876
sg76
(lp3892
g69
(g70
g71
NtRp3893
(dp3894
g74
(dp3895
g82
I4
ssg83
g3889
sg76
(lp3896
g526
ag69
(g78
g71
NtRp3897
(dp3898
g74
(dp3899
g82
I3
ssg83
Nsg76
(lp3900
g69
(g85
g71
NtRp3901
(dp3902
g74
(dp3903
sg83
g3897
sg76
(lp3904
g69
(g90
g71
NtRp3905
(dp3906
g74
(dp3907
g94
g95
ssg83
g3901
sg76
(lp3908
g345
asbag69
(g90
g71
NtRp3909
(dp3910
g74
(dp3911
g101
g102
ssg83
g3901
sg76
(lp3912
S':'
asbag69
(g90
g71
NtRp3913
(dp3914
g74
(dp3915
sg83
g3901
sg76
(lp3916
g69
(g70
g71
NtRp3917
(dp3918
g74
(dp3919
g82
I3
ssg83
g3913
sg76
(lp3920
S''
asbasbasbag69
(g85
g71
NtRp3921
(dp3922
g74
(dp3923
sg83
g3897
sg76
(lp3924
g69
(g90
g71
NtRp3925
(dp3926
g74
(dp3927
g94
g95
ssg83
g3921
sg76
(lp3928
g366
asbag69
(g90
g71
NtRp3929
(dp3930
g74
(dp3931
g101
g102
ssg83
g3921
sg76
(lp3932
S':'
asbag69
(g90
g71
NtRp3933
(dp3934
g74
(dp3935
sg83
g3921
sg76
(lp3936
g69
(g70
g71
NtRp3937
(dp3938
g74
(dp3939
g82
I3
ssg83
g3933
sg76
(lp3940
S''
asbasbasbag69
(g85
g71
NtRp3941
(dp3942
g74
(dp3943
sg83
g3897
sg76
(lp3944
g69
(g90
g71
NtRp3945
(dp3946
g74
(dp3947
g94
g95
ssg83
g3941
sg76
(lp3948
g387
asbag69
(g90
g71
NtRp3949
(dp3950
g74
(dp3951
g101
g102
ssg83
g3941
sg76
(lp3952
S':'
asbag69
(g90
g71
NtRp3953
(dp3954
g74
(dp3955
sg83
g3941
sg76
(lp3956
g69
(g70
g71
NtRp3957
(dp3958
g74
(dp3959
g82
I3
ssg83
g3953
sg76
(lp3960
S''
asbasbasbag69
(g85
g71
NtRp3961
(dp3962
g74
(dp3963
sg83
g3897
sg76
(lp3964
g69
(g90
g71
NtRp3965
(dp3966
g74
(dp3967
g94
g95
ssg83
g3961
sg76
(lp3968
g408
asbag69
(g90
g71
NtRp3969
(dp3970
g74
(dp3971
g101
g102
ssg83
g3961
sg76
(lp3972
S':'
asbag69
(g90
g71
NtRp3973
(dp3974
g74
(dp3975
sg83
g3961
sg76
(lp3976
g69
(g70
g71
NtRp3977
(dp3978
g74
(dp3979
g82
I3
ssg83
g3973
sg76
(lp3980
S''
asbasbasbag69
(g85
g71
NtRp3981
(dp3982
g74
(dp3983
sg83
g3897
sg76
(lp3984
g69
(g90
g71
NtRp3985
(dp3986
g74
(dp3987
g94
g95
ssg83
g3981
sg76
(lp3988
g429
asbag69
(g90
g71
NtRp3989
(dp3990
g74
(dp3991
g101
g102
ssg83
g3981
sg76
(lp3992
S':'
asbag69
(g90
g71
NtRp3993
(dp3994
g74
(dp3995
sg83
g3981
sg76
(lp3996
g69
(g70
g71
NtRp3997
(dp3998
g74
(dp3999
g82
I3
ssg83
g3993
sg76
(lp4000
S''
asbasbasbag69
(g85
g71
NtRp4001
(dp4002
g74
(dp4003
sg83
g3897
sg76
(lp4004
g69
(g90
g71
NtRp4005
(dp4006
g74
(dp4007
g94
g95
ssg83
g4001
sg76
(lp4008
g450
asbag69
(g90
g71
NtRp4009
(dp4010
g74
(dp4011
g101
g102
ssg83
g4001
sg76
(lp4012
S':'
asbag69
(g90
g71
NtRp4013
(dp4014
g74
(dp4015
sg83
g4001
sg76
(lp4016
g69
(g70
g71
NtRp4017
(dp4018
g74
(dp4019
g82
I3
ssg83
g4013
sg76
(lp4020
S'/'
asbasbasbag69
(g85
g71
NtRp4021
(dp4022
g74
(dp4023
sg83
g3897
sg76
(lp4024
g69
(g90
g71
NtRp4025
(dp4026
g74
(dp4027
g94
g95
ssg83
g4021
sg76
(lp4028
g471
asbag69
(g90
g71
NtRp4029
(dp4030
g74
(dp4031
g101
g102
ssg83
g4021
sg76
(lp4032
S':'
asbag69
(g90
g71
NtRp4033
(dp4034
g74
(dp4035
sg83
g4021
sg76
(lp4036
g69
(g70
g71
NtRp4037
(dp4038
g74
(dp4039
g82
I3
ssg83
g4033
sg76
(lp4040
S''
asbasbasbag69
(g85
g71
NtRp4041
(dp4042
g74
(dp4043
sg83
g3897
sg76
(lp4044
g69
(g90
g71
NtRp4045
(dp4046
g74
(dp4047
g94
g95
ssg83
g4041
sg76
(lp4048
g492
asbag69
(g90
g71
NtRp4049
(dp4050
g74
(dp4051
g101
g102
ssg83
g4041
sg76
(lp4052
S':'
asbag69
(g90
g71
NtRp4053
(dp4054
g74
(dp4055
sg83
g4041
sg76
(lp4056
g69
(g70
g71
NtRp4057
(dp4058
g74
(dp4059
g82
I3
ssg83
g4053
sg76
(lp4060
S''
asbasbasbasbasbasbasbasbasbasbasbag69
(g85
g71
NtRp4061
(dp4062
g74
(dp4063
sg83
g3827
sg76
(lp4064
g69
(g90
g71
NtRp4065
(dp4066
g74
(dp4067
g94
g95
ssg83
g4061
sg76
(lp4068
S'delimiters'
p4069
asbag69
(g90
g71
NtRp4070
(dp4071
g74
(dp4072
g101
g102
ssg83
g4061
sg76
(lp4073
S':'
asbag69
(g90
g71
NtRp4074
(dp4075
g74
(dp4076
sg83
g4061
sg76
(lp4077
g69
(g70
g71
NtRp4078
(dp4079
g74
(dp4080
g82
I5
ssg83
g4074
sg76
(lp4081
g69
(g78
g71
NtRp4082
(dp4083
g74
(dp4084
g82
I4
ssg83
Nsg76
(lp4085
g69
(g85
g71
NtRp4086
(dp4087
g74
(dp4088
sg83
g4082
sg76
(lp4089
g69
(g90
g71
NtRp4090
(dp4091
g74
(dp4092
sg83
g4086
sg76
(lp4093
g69
(g70
g71
NtRp4094
(dp4095
g74
(dp4096
g82
I4
ssg83
g4090
sg76
(lp4097
S'{{'
p4098
asbasbasbag69
(g85
g71
NtRp4099
(dp4100
g74
(dp4101
sg83
g4082
sg76
(lp4102
g69
(g90
g71
NtRp4103
(dp4104
g74
(dp4105
sg83
g4099
sg76
(lp4106
g69
(g70
g71
NtRp4107
(dp4108
g74
(dp4109
g82
I4
ssg83
g4103
sg76
(lp4110
S'}}'
p4111
asbasbasbasbasbasbasbag69
(g85
g71
NtRp4112
(dp4113
g74
(dp4114
sg83
g3827
sg76
(lp4115
g69
(g90
g71
NtRp4116
(dp4117
g74
(dp4118
g94
g95
ssg83
g4112
sg76
(lp4119
S'files'
p4120
asbag69
(g90
g71
NtRp4121
(dp4122
g74
(dp4123
g101
g102
ssg83
g4112
sg76
(lp4124
S':'
asbag69
(g90
g71
NtRp4125
(dp4126
g74
(dp4127
sg83
g4112
sg76
(lp4128
g69
(g70
g71
NtRp4129
(dp4130
g74
(dp4131
g82
I5
ssg83
g4125
sg76
(lp4132
g69
(g78
g71
NtRp4133
(dp4134
g74
(dp4135
g82
I4
ssg83
Nsg76
(lp4136
sbasbasbasbag69
(g85
g71
NtRp4137
(dp4138
g74
(dp4139
sg83
g3827
sg76
(lp4140
g69
(g90
g71
NtRp4141
(dp4142
g74
(dp4143
g94
g95
ssg83
g4137
sg76
(lp4144
S'flash'
p4145
asbag69
(g90
g71
NtRp4146
(dp4147
g74
(dp4148
g101
g102
ssg83
g4137
sg76
(lp4149
S':'
asbag69
(g90
g71
NtRp4150
(dp4151
g74
(dp4152
sg83
g4137
sg76
(lp4153
g69
(g70
g71
NtRp4154
(dp4155
g74
(dp4156
g82
I5
ssg83
g4150
sg76
(lp4157
S''
asbasbasbag69
(g85
g71
NtRp4158
(dp4159
g74
(dp4160
sg83
g3827
sg76
(lp4161
g69
(g90
g71
NtRp4162
(dp4163
g74
(dp4164
g94
g95
ssg83
g4158
sg76
(lp4165
S'generic_patterns'
p4166
asbag69
(g90
g71
NtRp4167
(dp4168
g74
(dp4169
g101
g102
ssg83
g4158
sg76
(lp4170
S':'
asbag69
(g90
g71
NtRp4171
(dp4172
g74
(dp4173
sg83
g4158
sg76
(lp4174
g69
(g70
g71
NtRp4175
(dp4176
g74
(dp4177
g82
I5
ssg83
g4171
sg76
(lp4178
g69
(g78
g71
NtRp4179
(dp4180
g74
(dp4181
g82
I4
ssg83
Nsg76
(lp4182
g69
(g85
g71
NtRp4183
(dp4184
g74
(dp4185
sg83
g4179
sg76
(lp4186
g69
(g90
g71
NtRp4187
(dp4188
g74
(dp4189
sg83
g4183
sg76
(lp4190
g69
(g70
g71
NtRp4191
(dp4192
g74
(dp4193
g82
I4
ssg83
g4187
sg76
(lp4194
S'*'
asbasbasbasbasbasbasbag69
(g85
g71
NtRp4195
(dp4196
g74
(dp4197
sg83
g3827
sg76
(lp4198
g69
(g90
g71
NtRp4199
(dp4200
g74
(dp4201
g94
g95
ssg83
g4195
sg76
(lp4202
S'google_analytics_id'
p4203
asbag69
(g90
g71
NtRp4204
(dp4205
g74
(dp4206
g101
g102
ssg83
g4195
sg76
(lp4207
S':'
asbag69
(g90
g71
NtRp4208
(dp4209
g74
(dp4210
sg83
g4195
sg76
(lp4211
g69
(g70
g71
NtRp4212
(dp4213
g74
(dp4214
g82
I5
ssg83
g4208
sg76
(lp4215
S'None'
p4216
asbasbasbag69
(g85
g71
NtRp4217
(dp4218
g74
(dp4219
sg83
g3827
sg76
(lp4220
g69
(g90
g71
NtRp4221
(dp4222
g74
(dp4223
g94
g95
ssg83
g4217
sg76
(lp4224
S'headers'
p4225
asbag69
(g90
g71
NtRp4226
(dp4227
g74
(dp4228
g101
g102
ssg83
g4217
sg76
(lp4229
S':'
asbag69
(g90
g71
NtRp4230
(dp4231
g74
(dp4232
sg83
g4217
sg76
(lp4233
g69
(g70
g71
NtRp4234
(dp4235
g74
(dp4236
g82
I5
ssg83
g4230
sg76
(lp4237
g69
(g78
g71
NtRp4238
(dp4239
g74
(dp4240
g82
I4
ssg83
Nsg76
(lp4241
g69
(g85
g71
NtRp4242
(dp4243
g74
(dp4244
sg83
g4238
sg76
(lp4245
g69
(g90
g71
NtRp4246
(dp4247
g74
(dp4248
g94
g95
ssg83
g4242
sg76
(lp4249
S'X-Powered-By'
p4250
asbag69
(g90
g71
NtRp4251
(dp4252
g74
(dp4253
g101
g102
ssg83
g4242
sg76
(lp4254
S':'
asbag69
(g90
g71
NtRp4255
(dp4256
g74
(dp4257
sg83
g4242
sg76
(lp4258
g69
(g70
g71
NtRp4259
(dp4260
g74
(dp4261
g82
I4
ssg83
g4255
sg76
(lp4262
S'web2py'
p4263
asbasbasbasbasbasbasbag69
(g85
g71
NtRp4264
(dp4265
g74
(dp4266
sg83
g3827
sg76
(lp4267
g69
(g90
g71
NtRp4268
(dp4269
g74
(dp4270
g94
g95
ssg83
g4264
sg76
(lp4271
S'logo'
p4272
asbag69
(g90
g71
NtRp4273
(dp4274
g74
(dp4275
g101
g102
ssg83
g4264
sg76
(lp4276
S':'
asbag69
(g90
g71
NtRp4277
(dp4278
g74
(dp4279
sg83
g4264
sg76
(lp4280
g69
(g70
g71
NtRp4281
(dp4282
g74
(dp4283
g82
I5
ssg83
g4277
sg76
(lp4284
g69
(cgluon.html
A
p4285
g71
NtRp4286
(dp4287
g74
(dp4288
S'_class'
p4289
S'brand'
p4290
sS'_href'
p4291
S'principal'
p4292
ssg83
Nsg76
(lp4293
g69
(cgluon.html
B
p4294
g71
NtRp4295
(dp4296
g74
(dp4297
sg83
g4286
sg76
(lp4298
S'hosts'
p4299
ag69
(cgluon.html
SPAN
p4300
g71
NtRp4301
(dp4302
g74
(dp4303
sg83
g4295
sg76
(lp4304
S'3'
asbaS''
asbacgluon.html
XML_unpickle
p4305
(S's\r\x00\x00\x00&trade;&nbsp;'
tRp4306
asbasbasbasbag69
(g85
g71
NtRp4307
(dp4308
g74
(dp4309
sg83
g3827
sg76
(lp4310
g69
(g90
g71
NtRp4311
(dp4312
g74
(dp4313
g94
g95
ssg83
g4307
sg76
(lp4314
S'menu'
p4315
asbag69
(g90
g71
NtRp4316
(dp4317
g74
(dp4318
g101
g102
ssg83
g4307
sg76
(lp4319
S':'
asbag69
(g90
g71
NtRp4320
(dp4321
g74
(dp4322
sg83
g4307
sg76
(lp4323
g69
(g70
g71
NtRp4324
(dp4325
g74
(dp4326
g82
I5
ssg83
g4320
sg76
(lp4327
g69
(g78
g71
NtRp4328
(dp4329
g74
(dp4330
g82
I4
ssg83
Nsg76
(lp4331
g69
(g85
g71
NtRp4332
(dp4333
g74
(dp4334
sg83
g4328
sg76
(lp4335
g69
(g90
g71
NtRp4336
(dp4337
g74
(dp4338
sg83
g4332
sg76
(lp4339
g69
(g70
g71
NtRp4340
(dp4341
g74
(dp4342
g82
I4
ssg83
g4336
sg76
(lp4343
g69
(g78
g71
NtRp4344
(dp4345
g74
(dp4346
g82
I3
ssg83
Nsg76
(lp4347
g69
(g85
g71
NtRp4348
(dp4349
g74
(dp4350
sg83
g4344
sg76
(lp4351
g69
(g90
g71
NtRp4352
(dp4353
g74
(dp4354
sg83
g4348
sg76
(lp4355
g69
(g70
g71
NtRp4356
(dp4357
g74
(dp4358
g82
I3
ssg83
g4352
sg76
(lp4359
cgluon.languages
lazyT_unpickle
p4360
(S't\x08\x00\x00\x00Clientes'
tRp4361
asbasbasbag69
(g85
g71
NtRp4362
(dp4363
g74
(dp4364
sg83
g4344
sg76
(lp4365
g69
(g90
g71
NtRp4366
(dp4367
g74
(dp4368
sg83
g4362
sg76
(lp4369
g69
(g70
g71
NtRp4370
(dp4371
g74
(dp4372
g82
I3
ssg83
g4366
sg76
(lp4373
g112
asbasbasbag69
(g85
g71
NtRp4374
(dp4375
g74
(dp4376
sg83
g4344
sg76
(lp4377
g69
(g90
g71
NtRp4378
(dp4379
g74
(dp4380
sg83
g4374
sg76
(lp4381
g69
(g70
g71
NtRp4382
(dp4383
g74
(dp4384
g82
I3
ssg83
g4378
sg76
(lp4385
S'/show_cliente'
p4386
asbasbasbag69
(g85
g71
NtRp4387
(dp4388
g74
(dp4389
sg83
g4344
sg76
(lp4390
g69
(g90
g71
NtRp4391
(dp4392
g74
(dp4393
sg83
g4387
sg76
(lp4394
g69
(g70
g71
NtRp4395
(dp4396
g74
(dp4397
g82
I3
ssg83
g4391
sg76
(lp4398
g69
(g78
g71
NtRp4399
(dp4400
g74
(dp4401
g82
I2
ssg83
Nsg76
(lp4402
sbasbasbasbasbasbasbasbag69
(g85
g71
NtRp4403
(dp4404
g74
(dp4405
sg83
g4328
sg76
(lp4406
g69
(g90
g71
NtRp4407
(dp4408
g74
(dp4409
sg83
g4403
sg76
(lp4410
g69
(g70
g71
NtRp4411
(dp4412
g74
(dp4413
g82
I4
ssg83
g4407
sg76
(lp4414
g69
(g78
g71
NtRp4415
(dp4416
g74
(dp4417
g82
I3
ssg83
Nsg76
(lp4418
g69
(g85
g71
NtRp4419
(dp4420
g74
(dp4421
sg83
g4415
sg76
(lp4422
g69
(g90
g71
NtRp4423
(dp4424
g74
(dp4425
sg83
g4419
sg76
(lp4426
g69
(g70
g71
NtRp4427
(dp4428
g74
(dp4429
g82
I3
ssg83
g4423
sg76
(lp4430
g4360
(S't\n\x00\x00\x00Servidores'
tRp4431
asbasbasbag69
(g85
g71
NtRp4432
(dp4433
g74
(dp4434
sg83
g4415
sg76
(lp4435
g69
(g90
g71
NtRp4436
(dp4437
g74
(dp4438
sg83
g4432
sg76
(lp4439
g69
(g70
g71
NtRp4440
(dp4441
g74
(dp4442
g82
I3
ssg83
g4436
sg76
(lp4443
g112
asbasbasbag69
(g85
g71
NtRp4444
(dp4445
g74
(dp4446
sg83
g4415
sg76
(lp4447
g69
(g90
g71
NtRp4448
(dp4449
g74
(dp4450
sg83
g4444
sg76
(lp4451
g69
(g70
g71
NtRp4452
(dp4453
g74
(dp4454
g82
I3
ssg83
g4448
sg76
(lp4455
S'/show_servidor'
p4456
asbasbasbag69
(g85
g71
NtRp4457
(dp4458
g74
(dp4459
sg83
g4415
sg76
(lp4460
g69
(g90
g71
NtRp4461
(dp4462
g74
(dp4463
sg83
g4457
sg76
(lp4464
g69
(g70
g71
NtRp4465
(dp4466
g74
(dp4467
g82
I3
ssg83
g4461
sg76
(lp4468
g69
(g78
g71
NtRp4469
(dp4470
g74
(dp4471
g82
I2
ssg83
Nsg76
(lp4472
sbasbasbasbasbasbasbasbag69
(g85
g71
NtRp4473
(dp4474
g74
(dp4475
sg83
g4328
sg76
(lp4476
g69
(g90
g71
NtRp4477
(dp4478
g74
(dp4479
sg83
g4473
sg76
(lp4480
g69
(g70
g71
NtRp4481
(dp4482
g74
(dp4483
g82
I4
ssg83
g4477
sg76
(lp4484
g69
(g78
g71
NtRp4485
(dp4486
g74
(dp4487
g82
I3
ssg83
Nsg76
(lp4488
g69
(g85
g71
NtRp4489
(dp4490
g74
(dp4491
sg83
g4485
sg76
(lp4492
g69
(g90
g71
NtRp4493
(dp4494
g74
(dp4495
sg83
g4489
sg76
(lp4496
g69
(g70
g71
NtRp4497
(dp4498
g74
(dp4499
g82
I3
ssg83
g4493
sg76
(lp4500
g4360
(S't\x07\x00\x00\x00Distros'
tRp4501
asbasbasbag69
(g85
g71
NtRp4502
(dp4503
g74
(dp4504
sg83
g4485
sg76
(lp4505
g69
(g90
g71
NtRp4506
(dp4507
g74
(dp4508
sg83
g4502
sg76
(lp4509
g69
(g70
g71
NtRp4510
(dp4511
g74
(dp4512
g82
I3
ssg83
g4506
sg76
(lp4513
g112
asbasbasbag69
(g85
g71
NtRp4514
(dp4515
g74
(dp4516
sg83
g4485
sg76
(lp4517
g69
(g90
g71
NtRp4518
(dp4519
g74
(dp4520
sg83
g4514
sg76
(lp4521
g69
(g70
g71
NtRp4522
(dp4523
g74
(dp4524
g82
I3
ssg83
g4518
sg76
(lp4525
S'/show_distro'
p4526
asbasbasbag69
(g85
g71
NtRp4527
(dp4528
g74
(dp4529
sg83
g4485
sg76
(lp4530
g69
(g90
g71
NtRp4531
(dp4532
g74
(dp4533
sg83
g4527
sg76
(lp4534
g69
(g70
g71
NtRp4535
(dp4536
g74
(dp4537
g82
I3
ssg83
g4531
sg76
(lp4538
g69
(g78
g71
NtRp4539
(dp4540
g74
(dp4541
g82
I2
ssg83
Nsg76
(lp4542
sbasbasbasbasbasbasbasbag69
(g85
g71
NtRp4543
(dp4544
g74
(dp4545
sg83
g4328
sg76
(lp4546
g69
(g90
g71
NtRp4547
(dp4548
g74
(dp4549
sg83
g4543
sg76
(lp4550
g69
(g70
g71
NtRp4551
(dp4552
g74
(dp4553
g82
I4
ssg83
g4547
sg76
(lp4554
g69
(g78
g71
NtRp4555
(dp4556
g74
(dp4557
g82
I3
ssg83
Nsg76
(lp4558
g69
(g85
g71
NtRp4559
(dp4560
g74
(dp4561
sg83
g4555
sg76
(lp4562
g69
(g90
g71
NtRp4563
(dp4564
g74
(dp4565
sg83
g4559
sg76
(lp4566
g69
(g70
g71
NtRp4567
(dp4568
g74
(dp4569
g82
I3
ssg83
g4563
sg76
(lp4570
g4360
(S's\x05\x00\x00\x00+host'
tRp4571
asbasbasbag69
(g85
g71
NtRp4572
(dp4573
g74
(dp4574
sg83
g4555
sg76
(lp4575
g69
(g90
g71
NtRp4576
(dp4577
g74
(dp4578
sg83
g4572
sg76
(lp4579
g69
(g70
g71
NtRp4580
(dp4581
g74
(dp4582
g82
I3
ssg83
g4576
sg76
(lp4583
g112
asbasbasbag69
(g85
g71
NtRp4584
(dp4585
g74
(dp4586
sg83
g4555
sg76
(lp4587
g69
(g90
g71
NtRp4588
(dp4589
g74
(dp4590
sg83
g4584
sg76
(lp4591
g69
(g70
g71
NtRp4592
(dp4593
g74
(dp4594
g82
I3
ssg83
g4588
sg76
(lp4595
S'/interface'
p4596
asbasbasbag69
(g85
g71
NtRp4597
(dp4598
g74
(dp4599
sg83
g4555
sg76
(lp4600
g69
(g90
g71
NtRp4601
(dp4602
g74
(dp4603
sg83
g4597
sg76
(lp4604
g69
(g70
g71
NtRp4605
(dp4606
g74
(dp4607
g82
I3
ssg83
g4601
sg76
(lp4608
g69
(g78
g71
NtRp4609
(dp4610
g74
(dp4611
g82
I2
ssg83
Nsg76
(lp4612
sbasbasbasbasbasbasbasbasbasbasbasbag69
(g85
g71
NtRp4613
(dp4614
g74
(dp4615
sg83
g3827
sg76
(lp4616
g69
(g90
g71
NtRp4617
(dp4618
g74
(dp4619
g94
g95
ssg83
g4613
sg76
(lp4620
S'menu2'
p4621
asbag69
(g90
g71
NtRp4622
(dp4623
g74
(dp4624
g101
g102
ssg83
g4613
sg76
(lp4625
S':'
asbag69
(g90
g71
NtRp4626
(dp4627
g74
(dp4628
sg83
g4613
sg76
(lp4629
g69
(g70
g71
NtRp4630
(dp4631
g74
(dp4632
g82
I5
ssg83
g4626
sg76
(lp4633
g69
(g78
g71
NtRp4634
(dp4635
g74
(dp4636
g82
I4
ssg83
Nsg76
(lp4637
g69
(g85
g71
NtRp4638
(dp4639
g74
(dp4640
sg83
g4634
sg76
(lp4641
g69
(g90
g71
NtRp4642
(dp4643
g74
(dp4644
sg83
g4638
sg76
(lp4645
g69
(g70
g71
NtRp4646
(dp4647
g74
(dp4648
g82
I4
ssg83
g4642
sg76
(lp4649
g69
(g78
g71
NtRp4650
(dp4651
g74
(dp4652
g82
I3
ssg83
Nsg76
(lp4653
g69
(g85
g71
NtRp4654
(dp4655
g74
(dp4656
sg83
g4650
sg76
(lp4657
g69
(g90
g71
NtRp4658
(dp4659
g74
(dp4660
sg83
g4654
sg76
(lp4661
g69
(g70
g71
NtRp4662
(dp4663
g74
(dp4664
g82
I3
ssg83
g4658
sg76
(lp4665
g69
(g4300
g71
NtRp4666
(dp4667
g74
(dp4668
g4289
S'dropdown-toggle'
p4669
ssg83
Nsg76
(lp4670
S'Admin'
p4671
asbasbasbasbag69
(g85
g71
NtRp4672
(dp4673
g74
(dp4674
sg83
g4650
sg76
(lp4675
g69
(g90
g71
NtRp4676
(dp4677
g74
(dp4678
sg83
g4672
sg76
(lp4679
g69
(g70
g71
NtRp4680
(dp4681
g74
(dp4682
g82
I3
ssg83
g4676
sg76
(lp4683
g112
asbasbasbag69
(g85
g71
NtRp4684
(dp4685
g74
(dp4686
sg83
g4650
sg76
(lp4687
g69
(g90
g71
NtRp4688
(dp4689
g74
(dp4690
sg83
g4684
sg76
(lp4691
g69
(g70
g71
NtRp4692
(dp4693
g74
(dp4694
g82
I3
ssg83
g4688
sg76
(lp4695
S'#'
asbasbasbag69
(g85
g71
NtRp4696
(dp4697
g74
(dp4698
sg83
g4650
sg76
(lp4699
g69
(g90
g71
NtRp4700
(dp4701
g74
(dp4702
sg83
g4696
sg76
(lp4703
g69
(g70
g71
NtRp4704
(dp4705
g74
(dp4706
g82
I3
ssg83
g4700
sg76
(lp4707
g69
(g78
g71
NtRp4708
(dp4709
g74
(dp4710
g82
I2
ssg83
Nsg76
(lp4711
g69
(g85
g71
NtRp4712
(dp4713
g74
(dp4714
sg83
g4708
sg76
(lp4715
g69
(g90
g71
NtRp4716
(dp4717
g74
(dp4718
sg83
g4712
sg76
(lp4719
g69
(g70
g71
NtRp4720
(dp4721
g74
(dp4722
g82
I2
ssg83
g4716
sg76
(lp4723
g69
(g78
g71
NtRp4724
(dp4725
g74
(dp4726
g82
I1
ssg83
Nsg76
(lp4727
g69
(g85
g71
NtRp4728
(dp4729
g74
(dp4730
sg83
g4724
sg76
(lp4731
g69
(g90
g71
NtRp4732
(dp4733
g74
(dp4734
sg83
g4728
sg76
(lp4735
g69
(g70
g71
NtRp4736
(dp4737
g74
(dp4738
g82
I1
ssg83
g4732
sg76
(lp4739
g4360
(S's\t\x00\x00\x00Usu\xc3\xa1rios'
tRp4740
asbasbasbag69
(g85
g71
NtRp4741
(dp4742
g74
(dp4743
sg83
g4724
sg76
(lp4744
g69
(g90
g71
NtRp4745
(dp4746
g74
(dp4747
sg83
g4741
sg76
(lp4748
g69
(g70
g71
NtRp4749
(dp4750
g74
(dp4751
g82
I1
ssg83
g4745
sg76
(lp4752
I00
asbasbasbag69
(g85
g71
NtRp4753
(dp4754
g74
(dp4755
sg83
g4724
sg76
(lp4756
g69
(g90
g71
NtRp4757
(dp4758
g74
(dp4759
sg83
g4753
sg76
(lp4760
g69
(g70
g71
NtRp4761
(dp4762
g74
(dp4763
g82
I1
ssg83
g4757
sg76
(lp4764
S'/manager/users'
p4765
asbasbasbasbasbasbasbag69
(g85
g71
NtRp4766
(dp4767
g74
(dp4768
sg83
g4708
sg76
(lp4769
g69
(g90
g71
NtRp4770
(dp4771
g74
(dp4772
sg83
g4766
sg76
(lp4773
g69
(g70
g71
NtRp4774
(dp4775
g74
(dp4776
g82
I2
ssg83
g4770
sg76
(lp4777
g69
(g78
g71
NtRp4778
(dp4779
g74
(dp4780
g82
I1
ssg83
Nsg76
(lp4781
g69
(g85
g71
NtRp4782
(dp4783
g74
(dp4784
sg83
g4778
sg76
(lp4785
g69
(g90
g71
NtRp4786
(dp4787
g74
(dp4788
sg83
g4782
sg76
(lp4789
g69
(g70
g71
NtRp4790
(dp4791
g74
(dp4792
g82
I1
ssg83
g4786
sg76
(lp4793
g4360
(S't\x06\x00\x00\x00Grupos'
tRp4794
asbasbasbag69
(g85
g71
NtRp4795
(dp4796
g74
(dp4797
sg83
g4778
sg76
(lp4798
g69
(g90
g71
NtRp4799
(dp4800
g74
(dp4801
sg83
g4795
sg76
(lp4802
g69
(g70
g71
NtRp4803
(dp4804
g74
(dp4805
g82
I1
ssg83
g4799
sg76
(lp4806
I00
asbasbasbag69
(g85
g71
NtRp4807
(dp4808
g74
(dp4809
sg83
g4778
sg76
(lp4810
g69
(g90
g71
NtRp4811
(dp4812
g74
(dp4813
sg83
g4807
sg76
(lp4814
g69
(g70
g71
NtRp4815
(dp4816
g74
(dp4817
g82
I1
ssg83
g4811
sg76
(lp4818
S'/manager/groups'
p4819
asbasbasbasbasbasbasbag69
(g85
g71
NtRp4820
(dp4821
g74
(dp4822
sg83
g4708
sg76
(lp4823
g69
(g90
g71
NtRp4824
(dp4825
g74
(dp4826
sg83
g4820
sg76
(lp4827
g69
(g70
g71
NtRp4828
(dp4829
g74
(dp4830
g82
I2
ssg83
g4824
sg76
(lp4831
g69
(g78
g71
NtRp4832
(dp4833
g74
(dp4834
g82
I1
ssg83
Nsg76
(lp4835
g69
(g85
g71
NtRp4836
(dp4837
g74
(dp4838
sg83
g4832
sg76
(lp4839
g69
(g90
g71
NtRp4840
(dp4841
g74
(dp4842
sg83
g4836
sg76
(lp4843
g69
(g70
g71
NtRp4844
(dp4845
g74
(dp4846
g82
I1
ssg83
g4840
sg76
(lp4847
g4360
(S't\x07\x00\x00\x00Membros'
tRp4848
asbasbasbag69
(g85
g71
NtRp4849
(dp4850
g74
(dp4851
sg83
g4832
sg76
(lp4852
g69
(g90
g71
NtRp4853
(dp4854
g74
(dp4855
sg83
g4849
sg76
(lp4856
g69
(g70
g71
NtRp4857
(dp4858
g74
(dp4859
g82
I1
ssg83
g4853
sg76
(lp4860
I00
asbasbasbag69
(g85
g71
NtRp4861
(dp4862
g74
(dp4863
sg83
g4832
sg76
(lp4864
g69
(g90
g71
NtRp4865
(dp4866
g74
(dp4867
sg83
g4861
sg76
(lp4868
g69
(g70
g71
NtRp4869
(dp4870
g74
(dp4871
g82
I1
ssg83
g4865
sg76
(lp4872
S'/manager/membership'
p4873
asbasbasbasbasbasbasbasbasbasbasbasbasbasbasbag69
(g85
g71
NtRp4874
(dp4875
g74
(dp4876
sg83
g4634
sg76
(lp4877
g69
(g90
g71
NtRp4878
(dp4879
g74
(dp4880
sg83
g4874
sg76
(lp4881
g69
(g70
g71
NtRp4882
(dp4883
g74
(dp4884
g82
I4
ssg83
g4878
sg76
(lp4885
g69
(g78
g71
NtRp4886
(dp4887
g74
(dp4888
g82
I3
ssg83
Nsg76
(lp4889
g69
(g85
g71
NtRp4890
(dp4891
g74
(dp4892
sg83
g4886
sg76
(lp4893
g69
(g90
g71
NtRp4894
(dp4895
g74
(dp4896
sg83
g4890
sg76
(lp4897
g69
(g70
g71
NtRp4898
(dp4899
g74
(dp4900
g82
I3
ssg83
g4894
sg76
(lp4901
g69
(g4300
g71
NtRp4902
(dp4903
g74
(dp4904
g4289
g4669
ssg83
Nsg76
(lp4905
S'Login'
p4906
asbasbasbasbag69
(g85
g71
NtRp4907
(dp4908
g74
(dp4909
sg83
g4886
sg76
(lp4910
g69
(g90
g71
NtRp4911
(dp4912
g74
(dp4913
sg83
g4907
sg76
(lp4914
g69
(g70
g71
NtRp4915
(dp4916
g74
(dp4917
g82
I3
ssg83
g4911
sg76
(lp4918
g112
asbasbasbag69
(g85
g71
NtRp4919
(dp4920
g74
(dp4921
sg83
g4886
sg76
(lp4922
g69
(g90
g71
NtRp4923
(dp4924
g74
(dp4925
sg83
g4919
sg76
(lp4926
g69
(g70
g71
NtRp4927
(dp4928
g74
(dp4929
g82
I3
ssg83
g4923
sg76
(lp4930
S'#'
asbasbasbag69
(g85
g71
NtRp4931
(dp4932
g74
(dp4933
sg83
g4886
sg76
(lp4934
g69
(g90
g71
NtRp4935
(dp4936
g74
(dp4937
sg83
g4931
sg76
(lp4938
g69
(g70
g71
NtRp4939
(dp4940
g74
(dp4941
g82
I3
ssg83
g4935
sg76
(lp4942
g69
(g78
g71
NtRp4943
(dp4944
g74
(dp4945
g82
I2
ssg83
Nsg76
(lp4946
g69
(g85
g71
NtRp4947
(dp4948
g74
(dp4949
sg83
g4943
sg76
(lp4950
g69
(g90
g71
NtRp4951
(dp4952
g74
(dp4953
sg83
g4947
sg76
(lp4954
g69
(g70
g71
NtRp4955
(dp4956
g74
(dp4957
g82
I2
ssg83
g4951
sg76
(lp4958
g69
(g78
g71
NtRp4959
(dp4960
g74
(dp4961
g82
I1
ssg83
Nsg76
(lp4962
g69
(g85
g71
NtRp4963
(dp4964
g74
(dp4965
sg83
g4959
sg76
(lp4966
g69
(g90
g71
NtRp4967
(dp4968
g74
(dp4969
sg83
g4963
sg76
(lp4970
g69
(g70
g71
NtRp4971
(dp4972
g74
(dp4973
g82
I1
ssg83
g4967
sg76
(lp4974
g4360
(S't\x06\x00\x00\x00Logout'
tRp4975
asbasbasbag69
(g85
g71
NtRp4976
(dp4977
g74
(dp4978
sg83
g4959
sg76
(lp4979
g69
(g90
g71
NtRp4980
(dp4981
g74
(dp4982
sg83
g4976
sg76
(lp4983
g69
(g70
g71
NtRp4984
(dp4985
g74
(dp4986
g82
I1
ssg83
g4980
sg76
(lp4987
I00
asbasbasbag69
(g85
g71
NtRp4988
(dp4989
g74
(dp4990
sg83
g4959
sg76
(lp4991
g69
(g90
g71
NtRp4992
(dp4993
g74
(dp4994
sg83
g4988
sg76
(lp4995
g69
(g70
g71
NtRp4996
(dp4997
g74
(dp4998
g82
I1
ssg83
g4992
sg76
(lp4999
S'/initial/user/logout'
p5000
asbasbasbasbasbasbasbasbasbasbasbasbasbasbasbasbasbasbasbag69
(g85
g71
NtRp5001
(dp5002
g74
(dp5003
sg83
g3827
sg76
(lp5004
g69
(g90
g71
NtRp5005
(dp5006
g74
(dp5007
g94
g95
ssg83
g5001
sg76
(lp5008
S'meta'
p5009
asbag69
(g90
g71
NtRp5010
(dp5011
g74
(dp5012
g101
g102
ssg83
g5001
sg76
(lp5013
S':'
asbag69
(g90
g71
NtRp5014
(dp5015
g74
(dp5016
sg83
g5001
sg76
(lp5017
g69
(g70
g71
NtRp5018
(dp5019
g74
(dp5020
g82
I5
ssg83
g5014
sg76
(lp5021
g69
(g78
g71
NtRp5022
(dp5023
g74
(dp5024
g82
I4
ssg83
Nsg76
(lp5025
g69
(g85
g71
NtRp5026
(dp5027
g74
(dp5028
sg83
g5022
sg76
(lp5029
g69
(g90
g71
NtRp5030
(dp5031
g74
(dp5032
g94
g95
ssg83
g5026
sg76
(lp5033
S'author'
p5034
asbag69
(g90
g71
NtRp5035
(dp5036
g74
(dp5037
g101
g102
ssg83
g5026
sg76
(lp5038
S':'
asbag69
(g90
g71
NtRp5039
(dp5040
g74
(dp5041
sg83
g5026
sg76
(lp5042
g69
(g70
g71
NtRp5043
(dp5044
g74
(dp5045
g82
I4
ssg83
g5039
sg76
(lp5046
S'Your Name <you@example.com>'
p5047
asbasbasbag69
(g85
g71
NtRp5048
(dp5049
g74
(dp5050
sg83
g5022
sg76
(lp5051
g69
(g90
g71
NtRp5052
(dp5053
g74
(dp5054
g94
g95
ssg83
g5048
sg76
(lp5055
S'description'
p5056
asbag69
(g90
g71
NtRp5057
(dp5058
g74
(dp5059
g101
g102
ssg83
g5048
sg76
(lp5060
S':'
asbag69
(g90
g71
NtRp5061
(dp5062
g74
(dp5063
sg83
g5048
sg76
(lp5064
g69
(g70
g71
NtRp5065
(dp5066
g74
(dp5067
g82
I4
ssg83
g5061
sg76
(lp5068
S'a cool new app'
p5069
asbasbasbag69
(g85
g71
NtRp5070
(dp5071
g74
(dp5072
sg83
g5022
sg76
(lp5073
g69
(g90
g71
NtRp5074
(dp5075
g74
(dp5076
g94
g95
ssg83
g5070
sg76
(lp5077
S'generator'
p5078
asbag69
(g90
g71
NtRp5079
(dp5080
g74
(dp5081
g101
g102
ssg83
g5070
sg76
(lp5082
S':'
asbag69
(g90
g71
NtRp5083
(dp5084
g74
(dp5085
sg83
g5070
sg76
(lp5086
g69
(g70
g71
NtRp5087
(dp5088
g74
(dp5089
g82
I4
ssg83
g5083
sg76
(lp5090
S'Web2py Web Framework'
p5091
asbasbasbag69
(g85
g71
NtRp5092
(dp5093
g74
(dp5094
sg83
g5022
sg76
(lp5095
g69
(g90
g71
NtRp5096
(dp5097
g74
(dp5098
g94
g95
ssg83
g5092
sg76
(lp5099
S'keywords'
p5100
asbag69
(g90
g71
NtRp5101
(dp5102
g74
(dp5103
g101
g102
ssg83
g5092
sg76
(lp5104
S':'
asbag69
(g90
g71
NtRp5105
(dp5106
g74
(dp5107
sg83
g5092
sg76
(lp5108
g69
(g70
g71
NtRp5109
(dp5110
g74
(dp5111
g82
I4
ssg83
g5105
sg76
(lp5112
S'web2py, python, framework'
p5113
asbasbasbasbasbasbasbag69
(g85
g71
NtRp5114
(dp5115
g74
(dp5116
sg83
g3827
sg76
(lp5117
g69
(g90
g71
NtRp5118
(dp5119
g74
(dp5120
g94
g95
ssg83
g5114
sg76
(lp5121
S'models_to_run'
p5122
asbag69
(g90
g71
NtRp5123
(dp5124
g74
(dp5125
g101
g102
ssg83
g5114
sg76
(lp5126
S':'
asbag69
(g90
g71
NtRp5127
(dp5128
g74
(dp5129
sg83
g5114
sg76
(lp5130
g69
(g70
g71
NtRp5131
(dp5132
g74
(dp5133
g82
I5
ssg83
g5127
sg76
(lp5134
g69
(g78
g71
NtRp5135
(dp5136
g74
(dp5137
g82
I4
ssg83
Nsg76
(lp5138
g69
(g85
g71
NtRp5139
(dp5140
g74
(dp5141
sg83
g5135
sg76
(lp5142
g69
(g90
g71
NtRp5143
(dp5144
g74
(dp5145
sg83
g5139
sg76
(lp5146
g69
(g70
g71
NtRp5147
(dp5148
g74
(dp5149
g82
I4
ssg83
g5143
sg76
(lp5150
S'^\\w+\\.py$'
p5151
asbasbasbag69
(g85
g71
NtRp5152
(dp5153
g74
(dp5154
sg83
g5135
sg76
(lp5155
g69
(g90
g71
NtRp5156
(dp5157
g74
(dp5158
sg83
g5152
sg76
(lp5159
g69
(g70
g71
NtRp5160
(dp5161
g74
(dp5162
g82
I4
ssg83
g5156
sg76
(lp5163
S'^initial/\\w+\\.py$'
p5164
asbasbasbag69
(g85
g71
NtRp5165
(dp5166
g74
(dp5167
sg83
g5135
sg76
(lp5168
g69
(g90
g71
NtRp5169
(dp5170
g74
(dp5171
sg83
g5165
sg76
(lp5172
g69
(g70
g71
NtRp5173
(dp5174
g74
(dp5175
g82
I4
ssg83
g5169
sg76
(lp5176
S'^initial/show_cliente/\\w+\\.py$'
p5177
asbasbasbasbasbasbasbag69
(g85
g71
NtRp5178
(dp5179
g74
(dp5180
sg83
g3827
sg76
(lp5181
g69
(g90
g71
NtRp5182
(dp5183
g74
(dp5184
g94
g95
ssg83
g5178
sg76
(lp5185
S'postprocessing'
p5186
asbag69
(g90
g71
NtRp5187
(dp5188
g74
(dp5189
g101
g102
ssg83
g5178
sg76
(lp5190
S':'
asbag69
(g90
g71
NtRp5191
(dp5192
g74
(dp5193
sg83
g5178
sg76
(lp5194
g69
(g70
g71
NtRp5195
(dp5196
g74
(dp5197
g82
I5
ssg83
g5191
sg76
(lp5198
g69
(g78
g71
NtRp5199
(dp5200
g74
(dp5201
g82
I4
ssg83
Nsg76
(lp5202
sbasbasbasbag69
(g85
g71
NtRp5203
(dp5204
g74
(dp5205
sg83
g3827
sg76
(lp5206
g69
(g90
g71
NtRp5207
(dp5208
g74
(dp5209
g94
g95
ssg83
g5203
sg76
(lp5210
S'session_cookie_expires'
p5211
asbag69
(g90
g71
NtRp5212
(dp5213
g74
(dp5214
g101
g102
ssg83
g5203
sg76
(lp5215
S':'
asbag69
(g90
g71
NtRp5216
(dp5217
g74
(dp5218
sg83
g5203
sg76
(lp5219
g69
(g70
g71
NtRp5220
(dp5221
g74
(dp5222
g82
I5
ssg83
g5216
sg76
(lp5223
S'None'
p5224
asbasbasbag69
(g85
g71
NtRp5225
(dp5226
g74
(dp5227
sg83
g3827
sg76
(lp5228
g69
(g90
g71
NtRp5229
(dp5230
g74
(dp5231
g94
g95
ssg83
g5225
sg76
(lp5232
S'session_data_name'
p5233
asbag69
(g90
g71
NtRp5234
(dp5235
g74
(dp5236
g101
g102
ssg83
g5225
sg76
(lp5237
S':'
asbag69
(g90
g71
NtRp5238
(dp5239
g74
(dp5240
sg83
g5225
sg76
(lp5241
g69
(g70
g71
NtRp5242
(dp5243
g74
(dp5244
g82
I5
ssg83
g5238
sg76
(lp5245
S'session_data_projeto'
p5246
asbasbasbag69
(g85
g71
NtRp5247
(dp5248
g74
(dp5249
sg83
g3827
sg76
(lp5250
g69
(g90
g71
NtRp5251
(dp5252
g74
(dp5253
g94
g95
ssg83
g5247
sg76
(lp5254
S'session_file'
p5255
asbag69
(g90
g71
NtRp5256
(dp5257
g74
(dp5258
g101
g102
ssg83
g5247
sg76
(lp5259
S':'
asbag69
(g90
g71
NtRp5260
(dp5261
g74
(dp5262
sg83
g5247
sg76
(lp5263
g69
(g70
g71
NtRp5264
(dp5265
g74
(dp5266
g82
I5
ssg83
g5260
sg76
(lp5267
S"<open file '/var/www/conferencia/applications/projeto/sessions/127.0.0.1-001edd4c-cc9d-40b6-92aa-d3bbbc6019b5', mode 'rb+' at 0x7f63407ac8a0>"
p5268
asbasbasbag69
(g85
g71
NtRp5269
(dp5270
g74
(dp5271
sg83
g3827
sg76
(lp5272
g69
(g90
g71
NtRp5273
(dp5274
g74
(dp5275
g94
g95
ssg83
g5269
sg76
(lp5276
S'session_filename'
p5277
asbag69
(g90
g71
NtRp5278
(dp5279
g74
(dp5280
g101
g102
ssg83
g5269
sg76
(lp5281
S':'
asbag69
(g90
g71
NtRp5282
(dp5283
g74
(dp5284
sg83
g5269
sg76
(lp5285
g69
(g70
g71
NtRp5286
(dp5287
g74
(dp5288
g82
I5
ssg83
g5282
sg76
(lp5289
S'/var/www/conferencia/applications/projeto/sessions/127.0.0.1-001edd4c-cc9d-40b6-92aa-d3bbbc6019b5'
p5290
asbasbasbag69
(g85
g71
NtRp5291
(dp5292
g74
(dp5293
sg83
g3827
sg76
(lp5294
g69
(g90
g71
NtRp5295
(dp5296
g74
(dp5297
g94
g95
ssg83
g5291
sg76
(lp5298
S'session_id'
p5299
asbag69
(g90
g71
NtRp5300
(dp5301
g74
(dp5302
g101
g102
ssg83
g5291
sg76
(lp5303
S':'
asbag69
(g90
g71
NtRp5304
(dp5305
g74
(dp5306
sg83
g5291
sg76
(lp5307
g69
(g70
g71
NtRp5308
(dp5309
g74
(dp5310
g82
I5
ssg83
g5304
sg76
(lp5311
g526
asbasbasbag69
(g85
g71
NtRp5312
(dp5313
g74
(dp5314
sg83
g3827
sg76
(lp5315
g69
(g90
g71
NtRp5316
(dp5317
g74
(dp5318
g94
g95
ssg83
g5312
sg76
(lp5319
S'session_id_name'
p5320
asbag69
(g90
g71
NtRp5321
(dp5322
g74
(dp5323
g101
g102
ssg83
g5312
sg76
(lp5324
S':'
asbag69
(g90
g71
NtRp5325
(dp5326
g74
(dp5327
sg83
g5312
sg76
(lp5328
g69
(g70
g71
NtRp5329
(dp5330
g74
(dp5331
g82
I5
ssg83
g5325
sg76
(lp5332
g3884
asbasbasbag69
(g85
g71
NtRp5333
(dp5334
g74
(dp5335
sg83
g3827
sg76
(lp5336
g69
(g90
g71
NtRp5337
(dp5338
g74
(dp5339
g94
g95
ssg83
g5333
sg76
(lp5340
S'session_locked'
p5341
asbag69
(g90
g71
NtRp5342
(dp5343
g74
(dp5344
g101
g102
ssg83
g5333
sg76
(lp5345
S':'
asbag69
(g90
g71
NtRp5346
(dp5347
g74
(dp5348
sg83
g5333
sg76
(lp5349
g69
(g70
g71
NtRp5350
(dp5351
g74
(dp5352
g82
I5
ssg83
g5346
sg76
(lp5353
g1795
asbasbasbag69
(g85
g71
NtRp5354
(dp5355
g74
(dp5356
sg83
g3827
sg76
(lp5357
g69
(g90
g71
NtRp5358
(dp5359
g74
(dp5360
g94
g95
ssg83
g5354
sg76
(lp5361
S'session_new'
p5362
asbag69
(g90
g71
NtRp5363
(dp5364
g74
(dp5365
g101
g102
ssg83
g5354
sg76
(lp5366
S':'
asbag69
(g90
g71
NtRp5367
(dp5368
g74
(dp5369
sg83
g5354
sg76
(lp5370
g69
(g70
g71
NtRp5371
(dp5372
g74
(dp5373
g82
I5
ssg83
g5367
sg76
(lp5374
g112
asbasbasbag69
(g85
g71
NtRp5375
(dp5376
g74
(dp5377
sg83
g3827
sg76
(lp5378
g69
(g90
g71
NtRp5379
(dp5380
g74
(dp5381
g94
g95
ssg83
g5375
sg76
(lp5382
S'session_storage_type'
p5383
asbag69
(g90
g71
NtRp5384
(dp5385
g74
(dp5386
g101
g102
ssg83
g5375
sg76
(lp5387
S':'
asbag69
(g90
g71
NtRp5388
(dp5389
g74
(dp5390
sg83
g5375
sg76
(lp5391
g69
(g70
g71
NtRp5392
(dp5393
g74
(dp5394
g82
I5
ssg83
g5388
sg76
(lp5395
g3651
asbasbasbag69
(g85
g71
NtRp5396
(dp5397
g74
(dp5398
sg83
g3827
sg76
(lp5399
g69
(g90
g71
NtRp5400
(dp5401
g74
(dp5402
g94
g95
ssg83
g5396
sg76
(lp5403
S'status'
p5404
asbag69
(g90
g71
NtRp5405
(dp5406
g74
(dp5407
g101
g102
ssg83
g5396
sg76
(lp5408
S':'
asbag69
(g90
g71
NtRp5409
(dp5410
g74
(dp5411
sg83
g5396
sg76
(lp5412
g69
(g70
g71
NtRp5413
(dp5414
g74
(dp5415
g82
I5
ssg83
g5409
sg76
(lp5416
S'200'
p5417
asbasbasbag69
(g85
g71
NtRp5418
(dp5419
g74
(dp5420
sg83
g3827
sg76
(lp5421
g69
(g90
g71
NtRp5422
(dp5423
g74
(dp5424
g94
g95
ssg83
g5418
sg76
(lp5425
S'subtitle'
p5426
asbag69
(g90
g71
NtRp5427
(dp5428
g74
(dp5429
g101
g102
ssg83
g5418
sg76
(lp5430
S':'
asbag69
(g90
g71
NtRp5431
(dp5432
g74
(dp5433
sg83
g5418
sg76
(lp5434
g69
(g70
g71
NtRp5435
(dp5436
g74
(dp5437
g82
I5
ssg83
g5431
sg76
(lp5438
g4360
(S's\r\x00\x00\x00customize me!'
tRp5439
asbasbasbag69
(g85
g71
NtRp5440
(dp5441
g74
(dp5442
sg83
g3827
sg76
(lp5443
g69
(g90
g71
NtRp5444
(dp5445
g74
(dp5446
g94
g95
ssg83
g5440
sg76
(lp5447
S'title'
p5448
asbag69
(g90
g71
NtRp5449
(dp5450
g74
(dp5451
g101
g102
ssg83
g5440
sg76
(lp5452
S':'
asbag69
(g90
g71
NtRp5453
(dp5454
g74
(dp5455
sg83
g5440
sg76
(lp5456
g69
(g70
g71
NtRp5457
(dp5458
g74
(dp5459
g82
I5
ssg83
g5453
sg76
(lp5460
S'Eventos'
p5461
asbasbasbag69
(g85
g71
NtRp5462
(dp5463
g74
(dp5464
sg83
g3827
sg76
(lp5465
g69
(g90
g71
NtRp5466
(dp5467
g74
(dp5468
g94
g95
ssg83
g5462
sg76
(lp5469
S'view'
p5470
asbag69
(g90
g71
NtRp5471
(dp5472
g74
(dp5473
g101
g102
ssg83
g5462
sg76
(lp5474
S':'
asbag69
(g90
g71
NtRp5475
(dp5476
g74
(dp5477
sg83
g5462
sg76
(lp5478
g69
(g70
g71
NtRp5479
(dp5480
g74
(dp5481
g82
I5
ssg83
g5475
sg76
(lp5482
S'initial/show_cliente.html'
p5483
asbasbasbasbasbsS'locals'
p5484
(dp5485
S'dbio'
p5486
g1795
sS'keyed'
p5487
g1795
sS'field'
p5488
S'<gluon.dal.Field object>'
p5489
sS'request_vars'
p5490
S"<Storage {'admin_user': '4', 'starttime': '2013-...013-04-11 14:14:05', '_formname': 'web2py_grid'}>"
p5491
sS'fields'
p5492
g21
sS'detect_record_change'
p5493
g112
sS'kwargs'
p5494
g21
sS'ret'
p5495
g1795
sS'auch'
p5496
S'<Storage {}>'
p5497
sS'item'
p5498
S'<gluon.validators.IS_IN_DB object>'
p5499
sg3809
S"<Storage {'_formkey[web2py_grid]': '69d9c72b-12e... {'version': '22.0.1229.94', 'name': 'Chrome'}}}>"
p5500
sS'fieldname'
p5501
S"'gravacao'"
p5502
sS'onvalidation'
p5503
S'None'
p5504
sS'keepvalues'
p5505
g1795
sS'record_id'
p5506
S"{'confno': None}"
p5507
sS'formname_id'
p5508
S"'1014'"
p5509
sS'hideerror'
p5510
g112
sS'requires'
p5511
S'[]'
p5512
sS'self'
p5513
S'<gluon.sqlhtml.SQLFORM object>'
p5514
sS'formname'
p5515
S"'web2py_grid'"
p5516
sssS'traceback'
p5517
S'Traceback (most recent call last):\n  File "/var/www/conferencia/gluon/restricted.py", line 212, in restricted\n    exec ccode in environment\n  File "/var/www/conferencia/applications/projeto/controllers/initial.py", line 326, in <module>\n  File "/var/www/conferencia/gluon/globals.py", line 193, in <lambda>\n    self._caller = lambda f: f()\n  File "/var/www/conferencia/applications/projeto/controllers/initial.py", line 10, in show_cliente\n    ignore_rw = True, maxtextlength=36,\n  File "/var/www/conferencia/gluon/sqlhtml.py", line 1920, in grid\n    next=referrer)\n  File "/var/www/conferencia/gluon/html.py", line 2179, in process\n    self.validate(**kwargs)\n  File "/var/www/conferencia/gluon/html.py", line 2118, in validate\n    if self.accepts(**kwargs):\n  File "/var/www/conferencia/gluon/sqlhtml.py", line 1343, in accepts\n    \'%s != %s\' % (record_id, self.record_id))\nSyntaxError: user is tampering with form\'s record_id: {\'confno\': None} != 1014\n'
p5518
s.