(dp1
S'output'
p2
S"<type 'exceptions.SyntaxError'> user is tampering with form's record_id: {'confno': None} != 1013"
p3
sS'layer'
p4
S'/var/www/conferencia/applications/projeto/controllers/initial.py'
p5
sS'code'
p6
S'# coding: utf-8\n\ndef show_cliente():\n\tresponse.title="Eventos"\n\tprint request.now\n\n\n\n\n\tgrid = SQLFORM.grid(db.meetme, orderby=db.meetme.endtime,\n\t\tuser_signature=False, searchable=True, csv=False, \n\t\tpaginate=50, details=False,  \n\t\tignore_rw = True, maxtextlength=36,\n\t\tlinks=[lambda row: A(\'Editar\', \n    \t\t      _class=\'btn\', \n    \t\t      _title=\'Editar\', \n    \t\t      _href=URL("initial", "/edit_host", \n    \t\t      vars=dict(f=row.confno)))] \n    \t)\n\treturn response.render("initial/show_grid.html", grid=grid)\n\ndef show_servidor():\n\tresponse.title="Eventos"\n\tdata = request.now\n\n\tquery=(db.meetme.endtime > \'2013-04-03 09:38:17.902532\') \n\tquery2=(\'SELECT * from meetme order by id desc LIMIT 4;\')\n\tprint query\n\n\tgrid = SQLFORM.grid(query=query, orderby=db.meetme.endtime,\n\t\tuser_signature=False, searchable=True, csv=False, \n\t\tpaginate=50, details=False,  \n\t\tignore_rw = True, maxtextlength=36, \n    \t)\n\treturn response.render("initial/show_grid.html", grid=grid)\n\n\n@auth.requires_login()\ndef show_distro():\n\tresponse.title="Distribui\xc3\xa7\xc3\xb5es"\n\n\tdb.args=Distro.id.readable=False\n\tdb.args=Distro.img.readable=False\n\tgrid = SQLFORM.grid(Distro,\n\t\tuser_signature=True, searchable=True, csv=False,\n\t\tpaginate=50, details=False, ignore_rw = True, \n\t\tmaxtextlength=26, links_placement=\'left\',\n\t\tcreate=auth.has_membership("admin"),\n\t\teditable=auth.has_membership("admin"),\n\t\tdeletable=auth.has_membership("admin"),  \n    \tlinks = [lambda row: A(\'hosts\', \n    \t\t_class=\'btn\', \n    \t\t_title=\'ver servidores\', \n    \t\t_href=URL("initial", "/distro_host", \n    \t\tvars=dict(f=row.id, n1=\'Distros\', p1=\'show_distro\'))), \n    \tdict(header=\'\',body=lambda row: A( IMG(_src=URL("static", "images", args=(row.img) ))))]\n\t\t)\n\treturn response.render("initial/show_grid.html", grid=grid)\n\n\n@auth.requires_login()\ndef cliente_host():\n\tfiltro = request.vars[\'f\']\n\tqueryset = db(db.cliente.id == filtro)\n\trows = queryset.select()\n\tcliente = rows[0]\n\tresponse.title = cliente.nome\n\tprint cliente\n\n\tnome_ant1 = request.vars[\'n1\']\n\tfuncao_ant1 = request.vars[\'p1\']\n\tnome_atual = cliente.nome\n\n\tquery = ((db.hosts.id_cliente == filtro) & (db.distro.id == db.hosts.id_distro))\n\tlinks = [dict(header=\'\',body=lambda row: A( IMG(_src=URL("static", "images", args=(row.distro.img)) ))), \n\t lambda row: A(\'Detalhes\', \n    \t\t      _class=\'btn\', \n    \t\t      _title=\'Detalhes\', \n    \t\t      _href=URL("initial", "/detalhes_nav", \n    \t\t      vars=dict(f=row.hosts.id, c=filtro, n=cliente.nome, \n    \t\t      \t\t\tn1=\'Clientes\', p1=\'show_cliente\', p=\'cliente_host\'))),\n\t lambda row: A(\'Editar\', \n    \t\t      _class=\'btn\', \n    \t\t      _title=\'Editar\', \n    \t\t      _href=URL("initial", "/edit_host", \n    \t\t      vars=dict(f=row.hosts.id, c=filtro, n=cliente.nome, \n    \t\t      \t\tn1=\'Clientes\', p1=\'show_cliente\', p=\'cliente_host\')))]\n\tdb.hosts.id.readable=False\n\tdb.distro.img.readable=False\n\t\n\tfields = (db.hosts.id, db.hosts.id_servidor, db.hosts.id_distro, db.distro.img, \n\t\t\t  db.hosts.ip_chegada, db.hosts.porta_ssh, db.hosts.gateway)\n\theaders = {\'hosts.id\':   \'ID\',\n\t\t\t   \'hosts.id_cliente\': \'Cliente\',\n               \'hosts.id_servidor\': \'Servidor\',\n               \'hosts.id_distro\': \'Distro\',\n               \'hosts.nome\': \'Nome\',\n\t           \'hosts.servicos\': \'Servicos\'}\n\tgrid = SQLFORM.grid(query=query, fields=fields, headers=headers, csv=False,\n\t\t\t\t\t\tdetails=False, searchable=False, maxtextlength=23, links=links, \n\t\t\t\t\t\tlinks_placement=\'left\', editable=False, create=False)\n\n\treturn response.render("initial/show_grid2.html", grid=grid, nome_ant1=nome_ant1, \n\t\t\t\t\t\tfuncao_ant1=funcao_ant1, nome_atual=nome_atual)\n\n@auth.requires_login()\ndef servidor_host():\n\tfiltro = request.vars[\'f\']\n\tqueryset = db(db.servidor.id == filtro)\n\trows = queryset.select()\n\tservidor = rows[0]\n\tresponse.title = servidor.nome\n\n\tnome_ant1 = request.vars[\'n1\']\n\tfuncao_ant1 = request.vars[\'p1\']\n\tnome_atual = servidor.nome\t\n\n\tdb.distro.img.readable=False\n\tdb.hosts.id.readable=False\n\tquery = ((db.hosts.id_servidor == filtro) & (db.distro.id == db.hosts.id_distro))\n\n\tlinks = [dict(header=\'\',body=lambda row: A( IMG(_src=URL("static", "images", args=(row.distro.img)) ))), \n\t lambda row: A(\'Detalhes\', \n    \t\t      _class=\'btn\', \n    \t\t      _title=\'Detalhes\', \n    \t\t      _href=URL("initial", "/detalhes_nav", \n    \t\t      vars=dict(f=row.hosts.id, c=filtro, n=servidor.nome, \n    \t\t      \t\tn1=\'Servidores\', p1=\'show_servidor\', p=\'servidor_host\'))),\n\t lambda row: A(\'Editar\', \n    \t\t      _class=\'btn\', \n    \t\t      _title=\'Editar\', \n    \t\t      _href=URL("initial", "/edit_host", \n    \t\t      vars=dict(f=row.hosts.id, c=filtro, n=servidor.nome, \n    \t\t      \t\tn1=\'Servidores\', p1=\'show_servidor\', p=\'servidor_host\')))]\n\n\tfields = (db.hosts.id, db.hosts.id_cliente, db.hosts.id_distro, db.distro.img, \n\t\t\t\tdb.hosts.ip_chegada, db.hosts.porta_ssh, db.hosts.gateway)\n\theaders = {\'hosts.id\':   \'ID\',\n\t\t\t   \'hosts.id_cliente\': \'Cliente\',\n               \'hosts.id_servidor\': \'Servidor\',\n               \'hosts.id_distro\': \'Distro\',\n               \'hosts.nome\': \'Nome\',\n\t           \'hosts.servicos\': \'Servicos\'}\n\tgrid = SQLFORM.grid(query=query, fields=fields, headers=headers, csv=False,\n\t\t\t\t\t\tdetails=False, searchable=False, maxtextlength=23, links=links, \n\t\t\t\t\t\tlinks_placement=\'left\', editable=False, create=False)\n\n\treturn response.render("initial/show_grid2.html", grid=grid, nome_ant1=nome_ant1, \n\t\t\t\t\t\tfuncao_ant1=funcao_ant1, nome_atual=nome_atual)\n\n@auth.requires_login()\ndef distro_host():\n\tfiltro = request.vars[\'f\']\n\tqueryset = db(db.distro.id == filtro)\n\trows = queryset.select()\n\tdistro = rows[0]\n\tresponse.title = distro.nome\n\n\tnome_ant1 = request.vars[\'n1\']\n\tfuncao_ant1 = request.vars[\'p1\']\n\tnome_atual = distro.nome\t\n\t\n\tdb.hosts.id.readable=False\n\tdb.distro.img.readable=False\n\tquery = ((db.hosts.id_distro == filtro) & (db.distro.id == db.hosts.id_distro))\n\tlinks = [dict(header=\'\',body=lambda row: A( IMG(_src=URL("static", "images", args=(row.distro.img)) ))), \n\t lambda row: A(\'Detalhes\', \n    \t\t      _class=\'btn\', \n    \t\t      _title=\'Detalhes\', \n    \t\t      _href=URL("initial", "/detalhes_nav", \n    \t\t      vars=dict(f=row.hosts.id, c=filtro, n=distro.nome, \n    \t\t      \t\tn1=\'Distros\', p1=\'show_distro\', p=\'distro_host\'))),\n\t lambda row: A(\'Editar\', \n    \t\t      _class=\'btn\', \n    \t\t      _title=\'Editar\', \n    \t\t      _href=URL("initial", "/edit_host", \n    \t\t      vars=dict(f=row.hosts.id, c=filtro, n=distro.nome, \n    \t\t      \t\tn1=\'Distros\', p1=\'show_distro\', p=\'distro_host\')))]\n\n\tfields = (db.hosts.id, db.hosts.id_cliente, db.hosts.id_servidor, db.distro.img, \n\t\t\t  db.hosts.ip_chegada, db.hosts.porta_ssh, db.hosts.gateway)\n\theaders = {\'hosts.id\':   \'ID\',\n\t\t\t\t\'hosts.id_cliente\': \'Cliente\',\n               \'hosts.id_servidor\': \'Servidor\',\n               \'hosts.id_distro\': \'Distro\',\n               \'hosts.nome\': \'Nome\',\n\t           \'hosts.servicos\': \'Servicos\'}\n\tgrid = SQLFORM.grid(query=query, fields=fields, headers=headers, csv=False,\n\t\t\t\t\t\tdetails=False, searchable=False, maxtextlength=23, links=links, \n\t\t\t\t\t\tlinks_placement=\'left\', editable=False, create=False)\n\n\treturn response.render("initial/show_grid2.html", grid=grid, nome_ant1=nome_ant1, \n\t\t\t\t\t\tfuncao_ant1=funcao_ant1, nome_atual=nome_atual)\n\ndef detalhes_nav():\n\t#detalhes\n\tfiltro = request.vars[\'f\'] #id_host\n\tid_cliente = request.vars[\'c\'] #id_cliente\n\tnome_ant = request.vars[\'n\'] #nome (asterisk ou agronelli ou debian)\n\tnome_ant1 = request.vars[\'n1\'] #nome (servidores ou clientes ou distros)\n\tfuncao_ant = request.vars[\'p\'] #funcao(host_servidores)\n\tfuncao_ant1 = request.vars[\'p1\'] #funcao(show_servidores)\n\t\n\n\tquery = ((db.hosts.id == filtro) & (db.hosts.id_cliente == db.cliente.id)\n\t \t    & (db.hosts.id_servidor == db.servidor.id) \n\t \t    & (db.hosts.id_distro == db.distro.id)) \n\tdetalhes = db.hosts(query)\n\t\n\t\n\treturn response.render("initial/detalhes_host.html", detalhes=detalhes, \n\t\t\t\tid_cliente=id_cliente, funcao_ant=funcao_ant, funcao_ant1=funcao_ant1, \n\t\t\t\tnome_ant=nome_ant, nome_ant1=nome_ant1, filtro=filtro)\n\n\ndef edit_host():\n    form = SQLFORM(db.meetme, request.vars[\'f\'], submit_button=\'Editar\')\n\n    if form.process().accepted:\n       response.flash = \'Editado com sucesso\'\n    elif form.errors:\n       response.flash = \'Ops, algo n\xc3\xa3o est\xc3\xa1 correto\'\n    else:\n       response.flash = \'Edite os dados do host\'\n\n    return response.render("initial/show_form2.html", form=form)\n\n\n@auth.requires_login()\ndef interface():\n\t#adicionar\n    form = SQLFORM(db.hosts, submit_button=\'Adicionar\', \n    \t\t\tfields = [\'id_cliente\', \'id_servidor\', \'id_distro\', \'servicos\',\n\t\t\t\t\'if1\', \'ip1\', \'masc1\', \'obs1\', \'if2\', \'ip2\', \'masc2\', \'obs2\',\n\t\t\t\t\'if3\', \'ip3\', \'masc3\', \'obs3\', \'if4\', \'ip4\', \'masc4\', \'obs4\',\n\t\t\t\t\'nome\', \'ip_chegada\', \'porta_ssh\', \'gateway\', \'rotas\', \'obs_gerais\'], \n\t\t\t\tlabels = {\'id_cliente\':\'Cliente\', \'id_servidor\':\'Servidor\', \'id_distro\':\'Distro\',\n\t\t\t\t\'if1\':\'Interface 1\', \'ip1\':\'IP\', \'masc1\':\'M\xc3\xa1scara\', \'obs1\':\'Obs\',\n\t\t\t\t\'if2\':\'Interface 2\', \'ip2\':\'IP\', \'masc2\':\'M\xc3\xa1scara\', \'obs2\':\'Obs\',\n\t\t\t\t\'if3\':\'Interface 3\', \'ip3\':\'IP\', \'masc3\':\'M\xc3\xa1scara\', \'obs3\':\'Obs\',\n\t\t\t\t\'if4\':\'Interface 4\', \'ip4\':\'IP\', \'masc4\':\'M\xc3\xa1scara\', \'obs4\':\'Obs\'})\n   \n    if form.process().accepted:\n    \thost = request.vars\n    \temail(host)\n    \tresponse.flash = \'Inserido com sucesso\'\t\t\n    elif form.errors:\n       response.flash = \'Ops, algo n\xc3\xa3o est\xc3\xa1 correto\'\n    else:\n       response.flash = \'Insira os dados do novo host\'\n    return response.render("initial/show_form2.html", form=form)\n\ndef about():\n\tfiltro = request.vars[\'f\']\n\tquery = ((db.hosts.id_servidor == filtro) & (db.distro.id == db.hosts.id_distro))\n\tfields = (db.hosts.id, db.hosts.id_cliente, db.hosts.id_distro, db.distro.img, \n\t\t\t\tdb.hosts.ip_chegada, db.hosts.porta_ssh, db.hosts.gateway)\n\theaders = {\'host.id\':   \'ID\',\n               \'host.id_servidor\': \'Servidor\',\n               \'host.id_distro\': \'Distro\',\n               \'host.nome\': \'Nome\',\n\t           \'host.servicos\': \'Servicos\'}\n\tgrid = SQLFORM.grid(query=query, fields=fields, headers=headers, csv=False,\n\t\t\t\t\t\tdetails=False, maxtextlength=23, searchable=True, editable=False, create=False)\n\n\treturn response.render("initial/teste.html", grid=grid,)\n\ndef user():\n\t#if request.args(0) == \'register\':\n    #    \tdb.auth_user.bio.writable = db.auth_user.bio.readable = False\n\treturn response.render("initial/user.html", user=auth())\n\ndef register():\n\treturn auth.register()\n\ndef login():\n        return auth.login()\n\ndef account():\n    return dict(register=auth.register(),\n                login=auth.login())\n\t\ndef download():\n\treturn response.download(request, db)\n\n\ndef principal():\n\tresponse.title="Usu\xc3\xa1rios"\n\n\tgrid = SQLFORM.grid(db.usuario,\n\t\tuser_signature=False, searchable=True, csv=False, \n\t\tpaginate=50, details=False,  \n\t\tignore_rw = True, maxtextlength=36, \n    \t)\n\treturn response.render("initial/show_grid.html", grid=grid)\n\n\t\ndef detalhes_clean():\n\tfiltro = request.vars[\'f\'] #id_host\n\t\t\n\n\tquery = ((db.hosts.id == filtro) & (db.hosts.id_cliente == db.cliente.id)\n\t \t    & (db.hosts.id_servidor == db.servidor.id) \n\t \t    & (db.hosts.id_distro == db.distro.id)) \n\tdetalhes = db.hosts(query)\n\n\t\n\treturn response.render("initial/detalhes_host_clean.html", detalhes=detalhes)\n\ndef email(host):\n\tif auth.has_membership(\'voip\'):\n\t\tmail.send(\n\t\t\tto="fndiaz02@gmail.com",\n\t\t\tsubject="host adicionado",\n\t\t\tmessage="<html>Um novo host foi adicionado pelo usu\xc3\xa1rio %s <br>nome: %s <br>vpn: %s<br><br>\xc3\x89 preciso fazer a instala\xc3\xa7\xc3\xa3o do client zabbix e bacula</html>" % (auth.user.first_name, host.nome, host.ip_chegada,)\n\t\t\t)\n\telif auth.has_membership(\'internet\'):\n\t\tmail.send(\n\t\t\tto="fernando@ad2.com.br",\n\t\t\tsubject="host adicionado",\n\t\t\tmessage="<html>Um novo host foi adicionado pelo usu\xc3\xa1rio %s <br>nome: %s <br>vpn: %s<br><br>\xc3\x89 preciso fazer a instala\xc3\xa7\xc3\xa3o do client zabbix e bacula</html>" % (auth.user.first_name, host.nome, host.ip_chegada,)\n\t\t\t)\n\nresponse._vars=response._caller(edit_host)\n'
p7
sS'snapshot'
p8
(dp9
S'exception'
p10
(dp11
S'__getslice__'
p12
S"<method-wrapper '__getslice__' of exceptions.SyntaxError object>"
p13
sS'text'
p14
S'None'
p15
sS'__str__'
p16
S"<method-wrapper '__str__' of exceptions.SyntaxError object>"
p17
sS'__reduce__'
p18
S'<built-in method __reduce__ of exceptions.SyntaxError object>'
p19
sS'__dict__'
p20
S'{}'
p21
sS'__sizeof__'
p22
S'<built-in method __sizeof__ of exceptions.SyntaxError object>'
p23
sS'__init__'
p24
S"<method-wrapper '__init__' of exceptions.SyntaxError object>"
p25
sS'__setattr__'
p26
S"<method-wrapper '__setattr__' of exceptions.SyntaxError object>"
p27
sS'__reduce_ex__'
p28
S'<built-in method __reduce_ex__ of exceptions.SyntaxError object>'
p29
sS'__new__'
p30
S'<built-in method __new__ of type object>'
p31
sS'__format__'
p32
S'<built-in method __format__ of exceptions.SyntaxError object>'
p33
sS'__class__'
p34
S"<type 'exceptions.SyntaxError'>"
p35
sS'filename'
p36
S'None'
p37
sS'lineno'
p38
S'None'
p39
sS'msg'
p40
S'"user is tampering with form\'s record_id: {\'confno\': None} != 1013"'
p41
sS'__doc__'
p42
S"'Invalid syntax.'"
p43
sS'__getitem__'
p44
S"<method-wrapper '__getitem__' of exceptions.SyntaxError object>"
p45
sS'__setstate__'
p46
S'<built-in method __setstate__ of exceptions.SyntaxError object>'
p47
sS'__getattribute__'
p48
S"<method-wrapper '__getattribute__' of exceptions.SyntaxError object>"
p49
sS'print_file_and_line'
p50
S'None'
p51
sS'args'
p52
S'("user is tampering with form\'s record_id: {\'confno\': None} != 1013",)'
p53
sS'__subclasshook__'
p54
S'<built-in method __subclasshook__ of type object>'
p55
sS'offset'
p56
S'None'
p57
sS'__unicode__'
p58
S'<built-in method __unicode__ of exceptions.SyntaxError object>'
p59
sS'__delattr__'
p60
S"<method-wrapper '__delattr__' of exceptions.SyntaxError object>"
p61
sS'__repr__'
p62
S"<method-wrapper '__repr__' of exceptions.SyntaxError object>"
p63
sS'__hash__'
p64
S"<method-wrapper '__hash__' of exceptions.SyntaxError object>"
p65
ssS'evalue'
p66
S"user is tampering with form's record_id: {'confno': None} != 1013"
p67
sS'request'
p68
ccopy_reg
_reconstructor
p69
(cgluon.html
BEAUTIFY
p70
c__builtin__
object
p71
NtRp72
(dp73
S'attributes'
p74
(dp75
sS'components'
p76
(lp77
g69
(cgluon.html
TABLE
p78
g71
NtRp79
(dp80
g74
(dp81
S'level'
p82
I5
ssS'parent'
p83
Nsg76
(lp84
g69
(cgluon.html
TR
p85
g71
NtRp86
(dp87
g74
(dp88
sg83
g79
sg76
(lp89
g69
(cgluon.html
TD
p90
g71
NtRp91
(dp92
g74
(dp93
S'_style'
p94
S'font-weight:bold;vertical-align:top'
p95
ssg83
g86
sg76
(lp96
S'ajax'
p97
asbag69
(g90
g71
NtRp98
(dp99
g74
(dp100
S'_valign'
p101
S'top'
p102
ssg83
g86
sg76
(lp103
S':'
asbag69
(g90
g71
NtRp104
(dp105
g74
(dp106
sg83
g86
sg76
(lp107
g69
(g70
g71
NtRp108
(dp109
g74
(dp110
g82
I5
ssg83
g104
sg76
(lp111
S'False'
p112
asbasbasbag69
(g85
g71
NtRp113
(dp114
g74
(dp115
sg83
g79
sg76
(lp116
g69
(g90
g71
NtRp117
(dp118
g74
(dp119
g94
g95
ssg83
g113
sg76
(lp120
S'application'
p121
asbag69
(g90
g71
NtRp122
(dp123
g74
(dp124
g101
g102
ssg83
g113
sg76
(lp125
S':'
asbag69
(g90
g71
NtRp126
(dp127
g74
(dp128
sg83
g113
sg76
(lp129
g69
(g70
g71
NtRp130
(dp131
g74
(dp132
g82
I5
ssg83
g126
sg76
(lp133
S'projeto'
p134
asbasbasbag69
(g85
g71
NtRp135
(dp136
g74
(dp137
sg83
g79
sg76
(lp138
g69
(g90
g71
NtRp139
(dp140
g74
(dp141
g94
g95
ssg83
g135
sg76
(lp142
g52
asbag69
(g90
g71
NtRp143
(dp144
g74
(dp145
g101
g102
ssg83
g135
sg76
(lp146
S':'
asbag69
(g90
g71
NtRp147
(dp148
g74
(dp149
sg83
g135
sg76
(lp150
g69
(g70
g71
NtRp151
(dp152
g74
(dp153
g82
I5
ssg83
g147
sg76
(lp154
g69
(g78
g71
NtRp155
(dp156
g74
(dp157
g82
I4
ssg83
Nsg76
(lp158
sbasbasbasbag69
(g85
g71
NtRp159
(dp160
g74
(dp161
sg83
g79
sg76
(lp162
g69
(g90
g71
NtRp163
(dp164
g74
(dp165
g94
g95
ssg83
g159
sg76
(lp166
S'body'
p167
asbag69
(g90
g71
NtRp168
(dp169
g74
(dp170
g101
g102
ssg83
g159
sg76
(lp171
S':'
asbag69
(g90
g71
NtRp172
(dp173
g74
(dp174
sg83
g159
sg76
(lp175
g69
(g70
g71
NtRp176
(dp177
g74
(dp178
g82
I5
ssg83
g172
sg76
(lp179
S"<open file '<fdopen>', mode 'w+b' at 0x7f634c86e030>"
p180
asbasbasbag69
(g85
g71
NtRp181
(dp182
g74
(dp183
sg83
g79
sg76
(lp184
g69
(g90
g71
NtRp185
(dp186
g74
(dp187
g94
g95
ssg83
g181
sg76
(lp188
S'cid'
p189
asbag69
(g90
g71
NtRp190
(dp191
g74
(dp192
g101
g102
ssg83
g181
sg76
(lp193
S':'
asbag69
(g90
g71
NtRp194
(dp195
g74
(dp196
sg83
g181
sg76
(lp197
g69
(g70
g71
NtRp198
(dp199
g74
(dp200
g82
I5
ssg83
g194
sg76
(lp201
S'None'
p202
asbasbasbag69
(g85
g71
NtRp203
(dp204
g74
(dp205
sg83
g79
sg76
(lp206
g69
(g90
g71
NtRp207
(dp208
g74
(dp209
g94
g95
ssg83
g203
sg76
(lp210
S'client'
p211
asbag69
(g90
g71
NtRp212
(dp213
g74
(dp214
g101
g102
ssg83
g203
sg76
(lp215
S':'
asbag69
(g90
g71
NtRp216
(dp217
g74
(dp218
sg83
g203
sg76
(lp219
g69
(g70
g71
NtRp220
(dp221
g74
(dp222
g82
I5
ssg83
g216
sg76
(lp223
S'127.0.0.1'
p224
asbasbasbag69
(g85
g71
NtRp225
(dp226
g74
(dp227
sg83
g79
sg76
(lp228
g69
(g90
g71
NtRp229
(dp230
g74
(dp231
g94
g95
ssg83
g225
sg76
(lp232
S'controller'
p233
asbag69
(g90
g71
NtRp234
(dp235
g74
(dp236
g101
g102
ssg83
g225
sg76
(lp237
S':'
asbag69
(g90
g71
NtRp238
(dp239
g74
(dp240
sg83
g225
sg76
(lp241
g69
(g70
g71
NtRp242
(dp243
g74
(dp244
g82
I5
ssg83
g238
sg76
(lp245
S'initial'
p246
asbasbasbag69
(g85
g71
NtRp247
(dp248
g74
(dp249
sg83
g79
sg76
(lp250
g69
(g90
g71
NtRp251
(dp252
g74
(dp253
g94
g95
ssg83
g247
sg76
(lp254
S'cookies'
p255
asbag69
(g90
g71
NtRp256
(dp257
g74
(dp258
g101
g102
ssg83
g247
sg76
(lp259
S':'
asbag69
(g90
g71
NtRp260
(dp261
g74
(dp262
sg83
g247
sg76
(lp263
g69
(g70
g71
NtRp264
(dp265
g74
(dp266
g82
I5
ssg83
g260
sg76
(lp267
g69
(g78
g71
NtRp268
(dp269
g74
(dp270
g82
I4
ssg83
Nsg76
(lp271
g69
(g85
g71
NtRp272
(dp273
g74
(dp274
sg83
g268
sg76
(lp275
g69
(g90
g71
NtRp276
(dp277
g74
(dp278
g94
g95
ssg83
g272
sg76
(lp279
S'session_id_admin'
p280
asbag69
(g90
g71
NtRp281
(dp282
g74
(dp283
g101
g102
ssg83
g272
sg76
(lp284
S':'
asbag69
(g90
g71
NtRp285
(dp286
g74
(dp287
sg83
g272
sg76
(lp288
g69
(g70
g71
NtRp289
(dp290
g74
(dp291
g82
I4
ssg83
g285
sg76
(lp292
S'127.0.0.1-9ca8fc56-3213-4881-b103-95238a337326'
p293
ag69
(g78
g71
NtRp294
(dp295
g74
(dp296
g82
I3
ssg83
Nsg76
(lp297
g69
(g85
g71
NtRp298
(dp299
g74
(dp300
sg83
g294
sg76
(lp301
g69
(g90
g71
NtRp302
(dp303
g74
(dp304
g94
g95
ssg83
g298
sg76
(lp305
S'comment'
p306
asbag69
(g90
g71
NtRp307
(dp308
g74
(dp309
g101
g102
ssg83
g298
sg76
(lp310
S':'
asbag69
(g90
g71
NtRp311
(dp312
g74
(dp313
sg83
g298
sg76
(lp314
g69
(g70
g71
NtRp315
(dp316
g74
(dp317
g82
I3
ssg83
g311
sg76
(lp318
S''
asbasbasbag69
(g85
g71
NtRp319
(dp320
g74
(dp321
sg83
g294
sg76
(lp322
g69
(g90
g71
NtRp323
(dp324
g74
(dp325
g94
g95
ssg83
g319
sg76
(lp326
S'domain'
p327
asbag69
(g90
g71
NtRp328
(dp329
g74
(dp330
g101
g102
ssg83
g319
sg76
(lp331
S':'
asbag69
(g90
g71
NtRp332
(dp333
g74
(dp334
sg83
g319
sg76
(lp335
g69
(g70
g71
NtRp336
(dp337
g74
(dp338
g82
I3
ssg83
g332
sg76
(lp339
S''
asbasbasbag69
(g85
g71
NtRp340
(dp341
g74
(dp342
sg83
g294
sg76
(lp343
g69
(g90
g71
NtRp344
(dp345
g74
(dp346
g94
g95
ssg83
g340
sg76
(lp347
S'expires'
p348
asbag69
(g90
g71
NtRp349
(dp350
g74
(dp351
g101
g102
ssg83
g340
sg76
(lp352
S':'
asbag69
(g90
g71
NtRp353
(dp354
g74
(dp355
sg83
g340
sg76
(lp356
g69
(g70
g71
NtRp357
(dp358
g74
(dp359
g82
I3
ssg83
g353
sg76
(lp360
S''
asbasbasbag69
(g85
g71
NtRp361
(dp362
g74
(dp363
sg83
g294
sg76
(lp364
g69
(g90
g71
NtRp365
(dp366
g74
(dp367
g94
g95
ssg83
g361
sg76
(lp368
S'httponly'
p369
asbag69
(g90
g71
NtRp370
(dp371
g74
(dp372
g101
g102
ssg83
g361
sg76
(lp373
S':'
asbag69
(g90
g71
NtRp374
(dp375
g74
(dp376
sg83
g361
sg76
(lp377
g69
(g70
g71
NtRp378
(dp379
g74
(dp380
g82
I3
ssg83
g374
sg76
(lp381
S''
asbasbasbag69
(g85
g71
NtRp382
(dp383
g74
(dp384
sg83
g294
sg76
(lp385
g69
(g90
g71
NtRp386
(dp387
g74
(dp388
g94
g95
ssg83
g382
sg76
(lp389
S'max-age'
p390
asbag69
(g90
g71
NtRp391
(dp392
g74
(dp393
g101
g102
ssg83
g382
sg76
(lp394
S':'
asbag69
(g90
g71
NtRp395
(dp396
g74
(dp397
sg83
g382
sg76
(lp398
g69
(g70
g71
NtRp399
(dp400
g74
(dp401
g82
I3
ssg83
g395
sg76
(lp402
S''
asbasbasbag69
(g85
g71
NtRp403
(dp404
g74
(dp405
sg83
g294
sg76
(lp406
g69
(g90
g71
NtRp407
(dp408
g74
(dp409
g94
g95
ssg83
g403
sg76
(lp410
S'path'
p411
asbag69
(g90
g71
NtRp412
(dp413
g74
(dp414
g101
g102
ssg83
g403
sg76
(lp415
S':'
asbag69
(g90
g71
NtRp416
(dp417
g74
(dp418
sg83
g403
sg76
(lp419
g69
(g70
g71
NtRp420
(dp421
g74
(dp422
g82
I3
ssg83
g416
sg76
(lp423
S''
asbasbasbag69
(g85
g71
NtRp424
(dp425
g74
(dp426
sg83
g294
sg76
(lp427
g69
(g90
g71
NtRp428
(dp429
g74
(dp430
g94
g95
ssg83
g424
sg76
(lp431
S'secure'
p432
asbag69
(g90
g71
NtRp433
(dp434
g74
(dp435
g101
g102
ssg83
g424
sg76
(lp436
S':'
asbag69
(g90
g71
NtRp437
(dp438
g74
(dp439
sg83
g424
sg76
(lp440
g69
(g70
g71
NtRp441
(dp442
g74
(dp443
g82
I3
ssg83
g437
sg76
(lp444
S''
asbasbasbag69
(g85
g71
NtRp445
(dp446
g74
(dp447
sg83
g294
sg76
(lp448
g69
(g90
g71
NtRp449
(dp450
g74
(dp451
g94
g95
ssg83
g445
sg76
(lp452
S'version'
p453
asbag69
(g90
g71
NtRp454
(dp455
g74
(dp456
g101
g102
ssg83
g445
sg76
(lp457
S':'
asbag69
(g90
g71
NtRp458
(dp459
g74
(dp460
sg83
g445
sg76
(lp461
g69
(g70
g71
NtRp462
(dp463
g74
(dp464
g82
I3
ssg83
g458
sg76
(lp465
S''
asbasbasbasbasbasbasbag69
(g85
g71
NtRp466
(dp467
g74
(dp468
sg83
g268
sg76
(lp469
g69
(g90
g71
NtRp470
(dp471
g74
(dp472
g94
g95
ssg83
g466
sg76
(lp473
S'session_id_projeto'
p474
asbag69
(g90
g71
NtRp475
(dp476
g74
(dp477
g101
g102
ssg83
g466
sg76
(lp478
S':'
asbag69
(g90
g71
NtRp479
(dp480
g74
(dp481
sg83
g466
sg76
(lp482
g69
(g70
g71
NtRp483
(dp484
g74
(dp485
g82
I4
ssg83
g479
sg76
(lp486
S'127.0.0.1-001edd4c-cc9d-40b6-92aa-d3bbbc6019b5'
p487
ag69
(g78
g71
NtRp488
(dp489
g74
(dp490
g82
I3
ssg83
Nsg76
(lp491
g69
(g85
g71
NtRp492
(dp493
g74
(dp494
sg83
g488
sg76
(lp495
g69
(g90
g71
NtRp496
(dp497
g74
(dp498
g94
g95
ssg83
g492
sg76
(lp499
g306
asbag69
(g90
g71
NtRp500
(dp501
g74
(dp502
g101
g102
ssg83
g492
sg76
(lp503
S':'
asbag69
(g90
g71
NtRp504
(dp505
g74
(dp506
sg83
g492
sg76
(lp507
g69
(g70
g71
NtRp508
(dp509
g74
(dp510
g82
I3
ssg83
g504
sg76
(lp511
S''
asbasbasbag69
(g85
g71
NtRp512
(dp513
g74
(dp514
sg83
g488
sg76
(lp515
g69
(g90
g71
NtRp516
(dp517
g74
(dp518
g94
g95
ssg83
g512
sg76
(lp519
g327
asbag69
(g90
g71
NtRp520
(dp521
g74
(dp522
g101
g102
ssg83
g512
sg76
(lp523
S':'
asbag69
(g90
g71
NtRp524
(dp525
g74
(dp526
sg83
g512
sg76
(lp527
g69
(g70
g71
NtRp528
(dp529
g74
(dp530
g82
I3
ssg83
g524
sg76
(lp531
S''
asbasbasbag69
(g85
g71
NtRp532
(dp533
g74
(dp534
sg83
g488
sg76
(lp535
g69
(g90
g71
NtRp536
(dp537
g74
(dp538
g94
g95
ssg83
g532
sg76
(lp539
g348
asbag69
(g90
g71
NtRp540
(dp541
g74
(dp542
g101
g102
ssg83
g532
sg76
(lp543
S':'
asbag69
(g90
g71
NtRp544
(dp545
g74
(dp546
sg83
g532
sg76
(lp547
g69
(g70
g71
NtRp548
(dp549
g74
(dp550
g82
I3
ssg83
g544
sg76
(lp551
S''
asbasbasbag69
(g85
g71
NtRp552
(dp553
g74
(dp554
sg83
g488
sg76
(lp555
g69
(g90
g71
NtRp556
(dp557
g74
(dp558
g94
g95
ssg83
g552
sg76
(lp559
g369
asbag69
(g90
g71
NtRp560
(dp561
g74
(dp562
g101
g102
ssg83
g552
sg76
(lp563
S':'
asbag69
(g90
g71
NtRp564
(dp565
g74
(dp566
sg83
g552
sg76
(lp567
g69
(g70
g71
NtRp568
(dp569
g74
(dp570
g82
I3
ssg83
g564
sg76
(lp571
S''
asbasbasbag69
(g85
g71
NtRp572
(dp573
g74
(dp574
sg83
g488
sg76
(lp575
g69
(g90
g71
NtRp576
(dp577
g74
(dp578
g94
g95
ssg83
g572
sg76
(lp579
g390
asbag69
(g90
g71
NtRp580
(dp581
g74
(dp582
g101
g102
ssg83
g572
sg76
(lp583
S':'
asbag69
(g90
g71
NtRp584
(dp585
g74
(dp586
sg83
g572
sg76
(lp587
g69
(g70
g71
NtRp588
(dp589
g74
(dp590
g82
I3
ssg83
g584
sg76
(lp591
S''
asbasbasbag69
(g85
g71
NtRp592
(dp593
g74
(dp594
sg83
g488
sg76
(lp595
g69
(g90
g71
NtRp596
(dp597
g74
(dp598
g94
g95
ssg83
g592
sg76
(lp599
g411
asbag69
(g90
g71
NtRp600
(dp601
g74
(dp602
g101
g102
ssg83
g592
sg76
(lp603
S':'
asbag69
(g90
g71
NtRp604
(dp605
g74
(dp606
sg83
g592
sg76
(lp607
g69
(g70
g71
NtRp608
(dp609
g74
(dp610
g82
I3
ssg83
g604
sg76
(lp611
S''
asbasbasbag69
(g85
g71
NtRp612
(dp613
g74
(dp614
sg83
g488
sg76
(lp615
g69
(g90
g71
NtRp616
(dp617
g74
(dp618
g94
g95
ssg83
g612
sg76
(lp619
g432
asbag69
(g90
g71
NtRp620
(dp621
g74
(dp622
g101
g102
ssg83
g612
sg76
(lp623
S':'
asbag69
(g90
g71
NtRp624
(dp625
g74
(dp626
sg83
g612
sg76
(lp627
g69
(g70
g71
NtRp628
(dp629
g74
(dp630
g82
I3
ssg83
g624
sg76
(lp631
S''
asbasbasbag69
(g85
g71
NtRp632
(dp633
g74
(dp634
sg83
g488
sg76
(lp635
g69
(g90
g71
NtRp636
(dp637
g74
(dp638
g94
g95
ssg83
g632
sg76
(lp639
g453
asbag69
(g90
g71
NtRp640
(dp641
g74
(dp642
g101
g102
ssg83
g632
sg76
(lp643
S':'
asbag69
(g90
g71
NtRp644
(dp645
g74
(dp646
sg83
g632
sg76
(lp647
g69
(g70
g71
NtRp648
(dp649
g74
(dp650
g82
I3
ssg83
g644
sg76
(lp651
S''
asbasbasbasbasbasbasbasbasbasbasbag69
(g85
g71
NtRp652
(dp653
g74
(dp654
sg83
g79
sg76
(lp655
g69
(g90
g71
NtRp656
(dp657
g74
(dp658
g94
g95
ssg83
g652
sg76
(lp659
S'env'
p660
asbag69
(g90
g71
NtRp661
(dp662
g74
(dp663
g101
g102
ssg83
g652
sg76
(lp664
S':'
asbag69
(g90
g71
NtRp665
(dp666
g74
(dp667
sg83
g652
sg76
(lp668
g69
(g70
g71
NtRp669
(dp670
g74
(dp671
g82
I5
ssg83
g665
sg76
(lp672
g69
(g78
g71
NtRp673
(dp674
g74
(dp675
g82
I4
ssg83
Nsg76
(lp676
g69
(g85
g71
NtRp677
(dp678
g74
(dp679
sg83
g673
sg76
(lp680
g69
(g90
g71
NtRp681
(dp682
g74
(dp683
g94
g95
ssg83
g677
sg76
(lp684
S'app_folders'
p685
asbag69
(g90
g71
NtRp686
(dp687
g74
(dp688
g101
g102
ssg83
g677
sg76
(lp689
S':'
asbag69
(g90
g71
NtRp690
(dp691
g74
(dp692
sg83
g677
sg76
(lp693
g69
(g70
g71
NtRp694
(dp695
g74
(dp696
g82
I4
ssg83
g690
sg76
(lp697
S"set(['/var/www/conferencia/applications/admin/', '/var/www/conferencia/applications/projeto/'])"
p698
asbasbasbag69
(g85
g71
NtRp699
(dp700
g74
(dp701
sg83
g673
sg76
(lp702
g69
(g90
g71
NtRp703
(dp704
g74
(dp705
g94
g95
ssg83
g699
sg76
(lp706
S'applications_parent'
p707
asbag69
(g90
g71
NtRp708
(dp709
g74
(dp710
g101
g102
ssg83
g699
sg76
(lp711
S':'
asbag69
(g90
g71
NtRp712
(dp713
g74
(dp714
sg83
g699
sg76
(lp715
g69
(g70
g71
NtRp716
(dp717
g74
(dp718
g82
I4
ssg83
g712
sg76
(lp719
S'/var/www/conferencia'
p720
asbasbasbag69
(g85
g71
NtRp721
(dp722
g74
(dp723
sg83
g673
sg76
(lp724
g69
(g90
g71
NtRp725
(dp726
g74
(dp727
g94
g95
ssg83
g721
sg76
(lp728
S'cmd_args'
p729
asbag69
(g90
g71
NtRp730
(dp731
g74
(dp732
g101
g102
ssg83
g721
sg76
(lp733
S':'
asbag69
(g90
g71
NtRp734
(dp735
g74
(dp736
sg83
g721
sg76
(lp737
g69
(g70
g71
NtRp738
(dp739
g74
(dp740
g82
I4
ssg83
g734
sg76
(lp741
g69
(g78
g71
NtRp742
(dp743
g74
(dp744
g82
I3
ssg83
Nsg76
(lp745
sbasbasbasbag69
(g85
g71
NtRp746
(dp747
g74
(dp748
sg83
g673
sg76
(lp749
g69
(g90
g71
NtRp750
(dp751
g74
(dp752
g94
g95
ssg83
g746
sg76
(lp753
S'cmd_options'
p754
asbag69
(g90
g71
NtRp755
(dp756
g74
(dp757
g101
g102
ssg83
g746
sg76
(lp758
S':'
asbag69
(g90
g71
NtRp759
(dp760
g74
(dp761
sg83
g746
sg76
(lp762
g69
(g70
g71
NtRp763
(dp764
g74
(dp765
g82
I4
ssg83
g759
sg76
(lp766
S"<Values at 0x2c3b248: {'verbose': False, 'ip': '127.0.0.1', 'with_scheduler': False, 'ips': [], 'shutdown_timeout': 5, 'taskbar': False, 'port': 8000, 'maxthreads': None, 'softcron': False, 'server_name': 'fernando-workstation', 'bpython': False, 'nogui': False, 'pid_filename': 'httpserver.pid', 'extcron': False, 'runcron': False, 'run_system_tests': False, 'test': None, 'folder': '/var/www/conferencia', 'config': '', 'minthreads': None, 'winservice': '', 'shell': None, 'run': '', 'log_filename': 'httpserver.log', 'debuglevel': 30, 'args': [''], 'socket_timeout': 5, 'ssl_ca_certificate': None, 'scheduler': None, 'profiler_filename': None, 'ssl_private_key': '', 'scheduler_groups': None, 'password': '123456', 'request_queue_size': 5, 'ssl_certificate': '', 'cronjob': False, 'numthreads': None, 'quiet': False, 'interfaces': None, 'import_models': False, 'timeout': 10, 'plain': False, 'nobanner': False}>"
p767
asbasbasbag69
(g85
g71
NtRp768
(dp769
g74
(dp770
sg83
g673
sg76
(lp771
g69
(g90
g71
NtRp772
(dp773
g74
(dp774
g94
g95
ssg83
g768
sg76
(lp775
S'content_length'
p776
asbag69
(g90
g71
NtRp777
(dp778
g74
(dp779
g101
g102
ssg83
g768
sg76
(lp780
S':'
asbag69
(g90
g71
NtRp781
(dp782
g74
(dp783
sg83
g768
sg76
(lp784
g69
(g70
g71
NtRp785
(dp786
g74
(dp787
g82
I4
ssg83
g781
sg76
(lp788
S'708'
p789
asbasbasbag69
(g85
g71
NtRp790
(dp791
g74
(dp792
sg83
g673
sg76
(lp793
g69
(g90
g71
NtRp794
(dp795
g74
(dp796
g94
g95
ssg83
g790
sg76
(lp797
S'content_type'
p798
asbag69
(g90
g71
NtRp799
(dp800
g74
(dp801
g101
g102
ssg83
g790
sg76
(lp802
S':'
asbag69
(g90
g71
NtRp803
(dp804
g74
(dp805
sg83
g790
sg76
(lp806
g69
(g70
g71
NtRp807
(dp808
g74
(dp809
g82
I4
ssg83
g803
sg76
(lp810
S'multipart/form-data; boundary=----WebKitFormBoundaryjo20ACQJz3UKGWTk'
p811
asbasbasbag69
(g85
g71
NtRp812
(dp813
g74
(dp814
sg83
g673
sg76
(lp815
g69
(g90
g71
NtRp816
(dp817
g74
(dp818
g94
g95
ssg83
g812
sg76
(lp819
S'db_sessions'
p820
asbag69
(g90
g71
NtRp821
(dp822
g74
(dp823
g101
g102
ssg83
g812
sg76
(lp824
S':'
asbag69
(g90
g71
NtRp825
(dp826
g74
(dp827
sg83
g812
sg76
(lp828
g69
(g70
g71
NtRp829
(dp830
g74
(dp831
g82
I4
ssg83
g825
sg76
(lp832
S'set([])'
p833
asbasbasbag69
(g85
g71
NtRp834
(dp835
g74
(dp836
sg83
g673
sg76
(lp837
g69
(g90
g71
NtRp838
(dp839
g74
(dp840
g94
g95
ssg83
g834
sg76
(lp841
S'debugging'
p842
asbag69
(g90
g71
NtRp843
(dp844
g74
(dp845
g101
g102
ssg83
g834
sg76
(lp846
S':'
asbag69
(g90
g71
NtRp847
(dp848
g74
(dp849
sg83
g834
sg76
(lp850
g69
(g70
g71
NtRp851
(dp852
g74
(dp853
g82
I4
ssg83
g847
sg76
(lp854
g112
asbasbasbag69
(g85
g71
NtRp855
(dp856
g74
(dp857
sg83
g673
sg76
(lp858
g69
(g90
g71
NtRp859
(dp860
g74
(dp861
g94
g95
ssg83
g855
sg76
(lp862
S'gluon_parent'
p863
asbag69
(g90
g71
NtRp864
(dp865
g74
(dp866
g101
g102
ssg83
g855
sg76
(lp867
S':'
asbag69
(g90
g71
NtRp868
(dp869
g74
(dp870
sg83
g855
sg76
(lp871
g69
(g70
g71
NtRp872
(dp873
g74
(dp874
g82
I4
ssg83
g868
sg76
(lp875
S'/var/www/conferencia'
p876
asbasbasbag69
(g85
g71
NtRp877
(dp878
g74
(dp879
sg83
g673
sg76
(lp880
g69
(g90
g71
NtRp881
(dp882
g74
(dp883
g94
g95
ssg83
g877
sg76
(lp884
S'http_accept'
p885
asbag69
(g90
g71
NtRp886
(dp887
g74
(dp888
g101
g102
ssg83
g877
sg76
(lp889
S':'
asbag69
(g90
g71
NtRp890
(dp891
g74
(dp892
sg83
g877
sg76
(lp893
g69
(g70
g71
NtRp894
(dp895
g74
(dp896
g82
I4
ssg83
g890
sg76
(lp897
S'text/html,application/xhtml+xml,application/xml;q=0.9,*/*;q=0.8'
p898
asbasbasbag69
(g85
g71
NtRp899
(dp900
g74
(dp901
sg83
g673
sg76
(lp902
g69
(g90
g71
NtRp903
(dp904
g74
(dp905
g94
g95
ssg83
g899
sg76
(lp906
S'http_accept_charset'
p907
asbag69
(g90
g71
NtRp908
(dp909
g74
(dp910
g101
g102
ssg83
g899
sg76
(lp911
S':'
asbag69
(g90
g71
NtRp912
(dp913
g74
(dp914
sg83
g899
sg76
(lp915
g69
(g70
g71
NtRp916
(dp917
g74
(dp918
g82
I4
ssg83
g912
sg76
(lp919
S'ISO-8859-1,utf-8;q=0.7,*;q=0.3'
p920
asbasbasbag69
(g85
g71
NtRp921
(dp922
g74
(dp923
sg83
g673
sg76
(lp924
g69
(g90
g71
NtRp925
(dp926
g74
(dp927
g94
g95
ssg83
g921
sg76
(lp928
S'http_accept_encoding'
p929
asbag69
(g90
g71
NtRp930
(dp931
g74
(dp932
g101
g102
ssg83
g921
sg76
(lp933
S':'
asbag69
(g90
g71
NtRp934
(dp935
g74
(dp936
sg83
g921
sg76
(lp937
g69
(g70
g71
NtRp938
(dp939
g74
(dp940
g82
I4
ssg83
g934
sg76
(lp941
S'gzip,deflate,sdch'
p942
asbasbasbag69
(g85
g71
NtRp943
(dp944
g74
(dp945
sg83
g673
sg76
(lp946
g69
(g90
g71
NtRp947
(dp948
g74
(dp949
g94
g95
ssg83
g943
sg76
(lp950
S'http_accept_language'
p951
asbag69
(g90
g71
NtRp952
(dp953
g74
(dp954
g101
g102
ssg83
g943
sg76
(lp955
S':'
asbag69
(g90
g71
NtRp956
(dp957
g74
(dp958
sg83
g943
sg76
(lp959
g69
(g70
g71
NtRp960
(dp961
g74
(dp962
g82
I4
ssg83
g956
sg76
(lp963
S'pt-BR,pt;q=0.8,en-US;q=0.6,en;q=0.4'
p964
asbasbasbag69
(g85
g71
NtRp965
(dp966
g74
(dp967
sg83
g673
sg76
(lp968
g69
(g90
g71
NtRp969
(dp970
g74
(dp971
g94
g95
ssg83
g965
sg76
(lp972
S'http_cache_control'
p973
asbag69
(g90
g71
NtRp974
(dp975
g74
(dp976
g101
g102
ssg83
g965
sg76
(lp977
S':'
asbag69
(g90
g71
NtRp978
(dp979
g74
(dp980
sg83
g965
sg76
(lp981
g69
(g70
g71
NtRp982
(dp983
g74
(dp984
g82
I4
ssg83
g978
sg76
(lp985
S'max-age=0'
p986
asbasbasbag69
(g85
g71
NtRp987
(dp988
g74
(dp989
sg83
g673
sg76
(lp990
g69
(g90
g71
NtRp991
(dp992
g74
(dp993
g94
g95
ssg83
g987
sg76
(lp994
S'http_connection'
p995
asbag69
(g90
g71
NtRp996
(dp997
g74
(dp998
g101
g102
ssg83
g987
sg76
(lp999
S':'
asbag69
(g90
g71
NtRp1000
(dp1001
g74
(dp1002
sg83
g987
sg76
(lp1003
g69
(g70
g71
NtRp1004
(dp1005
g74
(dp1006
g82
I4
ssg83
g1000
sg76
(lp1007
S'keep-alive'
p1008
asbasbasbag69
(g85
g71
NtRp1009
(dp1010
g74
(dp1011
sg83
g673
sg76
(lp1012
g69
(g90
g71
NtRp1013
(dp1014
g74
(dp1015
g94
g95
ssg83
g1009
sg76
(lp1016
S'http_content_length'
p1017
asbag69
(g90
g71
NtRp1018
(dp1019
g74
(dp1020
g101
g102
ssg83
g1009
sg76
(lp1021
S':'
asbag69
(g90
g71
NtRp1022
(dp1023
g74
(dp1024
sg83
g1009
sg76
(lp1025
g69
(g70
g71
NtRp1026
(dp1027
g74
(dp1028
g82
I4
ssg83
g1022
sg76
(lp1029
g789
asbasbasbag69
(g85
g71
NtRp1030
(dp1031
g74
(dp1032
sg83
g673
sg76
(lp1033
g69
(g90
g71
NtRp1034
(dp1035
g74
(dp1036
g94
g95
ssg83
g1030
sg76
(lp1037
S'http_content_type'
p1038
asbag69
(g90
g71
NtRp1039
(dp1040
g74
(dp1041
g101
g102
ssg83
g1030
sg76
(lp1042
S':'
asbag69
(g90
g71
NtRp1043
(dp1044
g74
(dp1045
sg83
g1030
sg76
(lp1046
g69
(g70
g71
NtRp1047
(dp1048
g74
(dp1049
g82
I4
ssg83
g1043
sg76
(lp1050
g811
asbasbasbag69
(g85
g71
NtRp1051
(dp1052
g74
(dp1053
sg83
g673
sg76
(lp1054
g69
(g90
g71
NtRp1055
(dp1056
g74
(dp1057
g94
g95
ssg83
g1051
sg76
(lp1058
S'http_cookie'
p1059
asbag69
(g90
g71
NtRp1060
(dp1061
g74
(dp1062
g101
g102
ssg83
g1051
sg76
(lp1063
S':'
asbag69
(g90
g71
NtRp1064
(dp1065
g74
(dp1066
sg83
g1051
sg76
(lp1067
g69
(g70
g71
NtRp1068
(dp1069
g74
(dp1070
g82
I4
ssg83
g1064
sg76
(lp1071
S'session_id_admin=127.0.0.1-9ca8fc56-3213-4881-b103-95238a337326; session_id_projeto=127.0.0.1-001edd4c-cc9d-40b6-92aa-d3bbbc6019b5'
p1072
asbasbasbag69
(g85
g71
NtRp1073
(dp1074
g74
(dp1075
sg83
g673
sg76
(lp1076
g69
(g90
g71
NtRp1077
(dp1078
g74
(dp1079
g94
g95
ssg83
g1073
sg76
(lp1080
S'http_host'
p1081
asbag69
(g90
g71
NtRp1082
(dp1083
g74
(dp1084
g101
g102
ssg83
g1073
sg76
(lp1085
S':'
asbag69
(g90
g71
NtRp1086
(dp1087
g74
(dp1088
sg83
g1073
sg76
(lp1089
g69
(g70
g71
NtRp1090
(dp1091
g74
(dp1092
g82
I4
ssg83
g1086
sg76
(lp1093
S'127.0.0.1:8000'
p1094
asbasbasbag69
(g85
g71
NtRp1095
(dp1096
g74
(dp1097
sg83
g673
sg76
(lp1098
g69
(g90
g71
NtRp1099
(dp1100
g74
(dp1101
g94
g95
ssg83
g1095
sg76
(lp1102
S'http_origin'
p1103
asbag69
(g90
g71
NtRp1104
(dp1105
g74
(dp1106
g101
g102
ssg83
g1095
sg76
(lp1107
S':'
asbag69
(g90
g71
NtRp1108
(dp1109
g74
(dp1110
sg83
g1095
sg76
(lp1111
g69
(g70
g71
NtRp1112
(dp1113
g74
(dp1114
g82
I4
ssg83
g1108
sg76
(lp1115
S'http://127.0.0.1:8000'
p1116
asbasbasbag69
(g85
g71
NtRp1117
(dp1118
g74
(dp1119
sg83
g673
sg76
(lp1120
g69
(g90
g71
NtRp1121
(dp1122
g74
(dp1123
g94
g95
ssg83
g1117
sg76
(lp1124
S'http_referer'
p1125
asbag69
(g90
g71
NtRp1126
(dp1127
g74
(dp1128
g101
g102
ssg83
g1117
sg76
(lp1129
S':'
asbag69
(g90
g71
NtRp1130
(dp1131
g74
(dp1132
sg83
g1117
sg76
(lp1133
g69
(g70
g71
NtRp1134
(dp1135
g74
(dp1136
g82
I4
ssg83
g1130
sg76
(lp1137
S'http://127.0.0.1:8000/edit_host?f=1013'
p1138
asbasbasbag69
(g85
g71
NtRp1139
(dp1140
g74
(dp1141
sg83
g673
sg76
(lp1142
g69
(g90
g71
NtRp1143
(dp1144
g74
(dp1145
g94
g95
ssg83
g1139
sg76
(lp1146
S'http_user_agent'
p1147
asbag69
(g90
g71
NtRp1148
(dp1149
g74
(dp1150
g101
g102
ssg83
g1139
sg76
(lp1151
S':'
asbag69
(g90
g71
NtRp1152
(dp1153
g74
(dp1154
sg83
g1139
sg76
(lp1155
g69
(g70
g71
NtRp1156
(dp1157
g74
(dp1158
g82
I4
ssg83
g1152
sg76
(lp1159
S'Mozilla/5.0 (X11; Linux x86_64) AppleWebKit/537.4 (KHTML, like Gecko) Ubuntu/12.10 Chromium/22.0.1229.94 Chrome/22.0.1229.94 Safari/537.4'
p1160
asbasbasbag69
(g85
g71
NtRp1161
(dp1162
g74
(dp1163
sg83
g673
sg76
(lp1164
g69
(g90
g71
NtRp1165
(dp1166
g74
(dp1167
g94
g95
ssg83
g1161
sg76
(lp1168
S'is_jython'
p1169
asbag69
(g90
g71
NtRp1170
(dp1171
g74
(dp1172
g101
g102
ssg83
g1161
sg76
(lp1173
S':'
asbag69
(g90
g71
NtRp1174
(dp1175
g74
(dp1176
sg83
g1161
sg76
(lp1177
g69
(g70
g71
NtRp1178
(dp1179
g74
(dp1180
g82
I4
ssg83
g1174
sg76
(lp1181
g112
asbasbasbag69
(g85
g71
NtRp1182
(dp1183
g74
(dp1184
sg83
g673
sg76
(lp1185
g69
(g90
g71
NtRp1186
(dp1187
g74
(dp1188
g94
g95
ssg83
g1182
sg76
(lp1189
S'is_pypy'
p1190
asbag69
(g90
g71
NtRp1191
(dp1192
g74
(dp1193
g101
g102
ssg83
g1182
sg76
(lp1194
S':'
asbag69
(g90
g71
NtRp1195
(dp1196
g74
(dp1197
sg83
g1182
sg76
(lp1198
g69
(g70
g71
NtRp1199
(dp1200
g74
(dp1201
g82
I4
ssg83
g1195
sg76
(lp1202
g112
asbasbasbag69
(g85
g71
NtRp1203
(dp1204
g74
(dp1205
sg83
g673
sg76
(lp1206
g69
(g90
g71
NtRp1207
(dp1208
g74
(dp1209
g94
g95
ssg83
g1203
sg76
(lp1210
S'local_hosts'
p1211
asbag69
(g90
g71
NtRp1212
(dp1213
g74
(dp1214
g101
g102
ssg83
g1203
sg76
(lp1215
S':'
asbag69
(g90
g71
NtRp1216
(dp1217
g74
(dp1218
sg83
g1203
sg76
(lp1219
g69
(g70
g71
NtRp1220
(dp1221
g74
(dp1222
g82
I4
ssg83
g1216
sg76
(lp1223
g69
(g78
g71
NtRp1224
(dp1225
g74
(dp1226
g82
I3
ssg83
Nsg76
(lp1227
g69
(g85
g71
NtRp1228
(dp1229
g74
(dp1230
sg83
g1224
sg76
(lp1231
g69
(g90
g71
NtRp1232
(dp1233
g74
(dp1234
sg83
g1228
sg76
(lp1235
g69
(g70
g71
NtRp1236
(dp1237
g74
(dp1238
g82
I3
ssg83
g1232
sg76
(lp1239
S'::1'
p1240
asbasbasbag69
(g85
g71
NtRp1241
(dp1242
g74
(dp1243
sg83
g1224
sg76
(lp1244
g69
(g90
g71
NtRp1245
(dp1246
g74
(dp1247
sg83
g1241
sg76
(lp1248
g69
(g70
g71
NtRp1249
(dp1250
g74
(dp1251
g82
I3
ssg83
g1245
sg76
(lp1252
S'::ffff:127.0.0.1'
p1253
asbasbasbag69
(g85
g71
NtRp1254
(dp1255
g74
(dp1256
sg83
g1224
sg76
(lp1257
g69
(g90
g71
NtRp1258
(dp1259
g74
(dp1260
sg83
g1254
sg76
(lp1261
g69
(g70
g71
NtRp1262
(dp1263
g74
(dp1264
g82
I3
ssg83
g1258
sg76
(lp1265
S'127.0.0.1'
p1266
asbasbasbag69
(g85
g71
NtRp1267
(dp1268
g74
(dp1269
sg83
g1224
sg76
(lp1270
g69
(g90
g71
NtRp1271
(dp1272
g74
(dp1273
sg83
g1267
sg76
(lp1274
g69
(g70
g71
NtRp1275
(dp1276
g74
(dp1277
g82
I3
ssg83
g1271
sg76
(lp1278
S'fernando-workstation'
p1279
asbasbasbasbasbasbasbag69
(g85
g71
NtRp1280
(dp1281
g74
(dp1282
sg83
g673
sg76
(lp1283
g69
(g90
g71
NtRp1284
(dp1285
g74
(dp1286
g94
g95
ssg83
g1280
sg76
(lp1287
S'path_info'
p1288
asbag69
(g90
g71
NtRp1289
(dp1290
g74
(dp1291
g101
g102
ssg83
g1280
sg76
(lp1292
S':'
asbag69
(g90
g71
NtRp1293
(dp1294
g74
(dp1295
sg83
g1280
sg76
(lp1296
g69
(g70
g71
NtRp1297
(dp1298
g74
(dp1299
g82
I4
ssg83
g1293
sg76
(lp1300
S'/edit_host'
p1301
asbasbasbag69
(g85
g71
NtRp1302
(dp1303
g74
(dp1304
sg83
g673
sg76
(lp1305
g69
(g90
g71
NtRp1306
(dp1307
g74
(dp1308
g94
g95
ssg83
g1302
sg76
(lp1309
S'query_string'
p1310
asbag69
(g90
g71
NtRp1311
(dp1312
g74
(dp1313
g101
g102
ssg83
g1302
sg76
(lp1314
S':'
asbag69
(g90
g71
NtRp1315
(dp1316
g74
(dp1317
sg83
g1302
sg76
(lp1318
g69
(g70
g71
NtRp1319
(dp1320
g74
(dp1321
g82
I4
ssg83
g1315
sg76
(lp1322
S'f=1013'
p1323
asbasbasbag69
(g85
g71
NtRp1324
(dp1325
g74
(dp1326
sg83
g673
sg76
(lp1327
g69
(g90
g71
NtRp1328
(dp1329
g74
(dp1330
g94
g95
ssg83
g1324
sg76
(lp1331
S'remote_addr'
p1332
asbag69
(g90
g71
NtRp1333
(dp1334
g74
(dp1335
g101
g102
ssg83
g1324
sg76
(lp1336
S':'
asbag69
(g90
g71
NtRp1337
(dp1338
g74
(dp1339
sg83
g1324
sg76
(lp1340
g69
(g70
g71
NtRp1341
(dp1342
g74
(dp1343
g82
I4
ssg83
g1337
sg76
(lp1344
g224
asbasbasbag69
(g85
g71
NtRp1345
(dp1346
g74
(dp1347
sg83
g673
sg76
(lp1348
g69
(g90
g71
NtRp1349
(dp1350
g74
(dp1351
g94
g95
ssg83
g1345
sg76
(lp1352
S'remote_port'
p1353
asbag69
(g90
g71
NtRp1354
(dp1355
g74
(dp1356
g101
g102
ssg83
g1345
sg76
(lp1357
S':'
asbag69
(g90
g71
NtRp1358
(dp1359
g74
(dp1360
sg83
g1345
sg76
(lp1361
g69
(g70
g71
NtRp1362
(dp1363
g74
(dp1364
g82
I4
ssg83
g1358
sg76
(lp1365
S'38770'
p1366
asbasbasbag69
(g85
g71
NtRp1367
(dp1368
g74
(dp1369
sg83
g673
sg76
(lp1370
g69
(g90
g71
NtRp1371
(dp1372
g74
(dp1373
g94
g95
ssg83
g1367
sg76
(lp1374
S'request_method'
p1375
asbag69
(g90
g71
NtRp1376
(dp1377
g74
(dp1378
g101
g102
ssg83
g1367
sg76
(lp1379
S':'
asbag69
(g90
g71
NtRp1380
(dp1381
g74
(dp1382
sg83
g1367
sg76
(lp1383
g69
(g70
g71
NtRp1384
(dp1385
g74
(dp1386
g82
I4
ssg83
g1380
sg76
(lp1387
S'POST'
p1388
asbasbasbag69
(g85
g71
NtRp1389
(dp1390
g74
(dp1391
sg83
g673
sg76
(lp1392
g69
(g90
g71
NtRp1393
(dp1394
g74
(dp1395
g94
g95
ssg83
g1389
sg76
(lp1396
S'request_uri'
p1397
asbag69
(g90
g71
NtRp1398
(dp1399
g74
(dp1400
g101
g102
ssg83
g1389
sg76
(lp1401
S':'
asbag69
(g90
g71
NtRp1402
(dp1403
g74
(dp1404
sg83
g1389
sg76
(lp1405
g69
(g70
g71
NtRp1406
(dp1407
g74
(dp1408
g82
I4
ssg83
g1402
sg76
(lp1409
S'/projeto/initial/edit_host?f=1013'
p1410
asbasbasbag69
(g85
g71
NtRp1411
(dp1412
g74
(dp1413
sg83
g673
sg76
(lp1414
g69
(g90
g71
NtRp1415
(dp1416
g74
(dp1417
g94
g95
ssg83
g1411
sg76
(lp1418
S'script_name'
p1419
asbag69
(g90
g71
NtRp1420
(dp1421
g74
(dp1422
g101
g102
ssg83
g1411
sg76
(lp1423
S':'
asbag69
(g90
g71
NtRp1424
(dp1425
g74
(dp1426
sg83
g1411
sg76
(lp1427
g69
(g70
g71
NtRp1428
(dp1429
g74
(dp1430
g82
I4
ssg83
g1424
sg76
(lp1431
S''
asbasbasbag69
(g85
g71
NtRp1432
(dp1433
g74
(dp1434
sg83
g673
sg76
(lp1435
g69
(g90
g71
NtRp1436
(dp1437
g74
(dp1438
g94
g95
ssg83
g1432
sg76
(lp1439
S'server_name'
p1440
asbag69
(g90
g71
NtRp1441
(dp1442
g74
(dp1443
g101
g102
ssg83
g1432
sg76
(lp1444
S':'
asbag69
(g90
g71
NtRp1445
(dp1446
g74
(dp1447
sg83
g1432
sg76
(lp1448
g69
(g70
g71
NtRp1449
(dp1450
g74
(dp1451
g82
I4
ssg83
g1445
sg76
(lp1452
S'fernando-workstation'
p1453
asbasbasbag69
(g85
g71
NtRp1454
(dp1455
g74
(dp1456
sg83
g673
sg76
(lp1457
g69
(g90
g71
NtRp1458
(dp1459
g74
(dp1460
g94
g95
ssg83
g1454
sg76
(lp1461
S'server_port'
p1462
asbag69
(g90
g71
NtRp1463
(dp1464
g74
(dp1465
g101
g102
ssg83
g1454
sg76
(lp1466
S':'
asbag69
(g90
g71
NtRp1467
(dp1468
g74
(dp1469
sg83
g1454
sg76
(lp1470
g69
(g70
g71
NtRp1471
(dp1472
g74
(dp1473
g82
I4
ssg83
g1467
sg76
(lp1474
S'8000'
p1475
asbasbasbag69
(g85
g71
NtRp1476
(dp1477
g74
(dp1478
sg83
g673
sg76
(lp1479
g69
(g90
g71
NtRp1480
(dp1481
g74
(dp1482
g94
g95
ssg83
g1476
sg76
(lp1483
S'server_protocol'
p1484
asbag69
(g90
g71
NtRp1485
(dp1486
g74
(dp1487
g101
g102
ssg83
g1476
sg76
(lp1488
S':'
asbag69
(g90
g71
NtRp1489
(dp1490
g74
(dp1491
sg83
g1476
sg76
(lp1492
g69
(g70
g71
NtRp1493
(dp1494
g74
(dp1495
g82
I4
ssg83
g1489
sg76
(lp1496
S'HTTP/1.1'
p1497
asbasbasbag69
(g85
g71
NtRp1498
(dp1499
g74
(dp1500
sg83
g673
sg76
(lp1501
g69
(g90
g71
NtRp1502
(dp1503
g74
(dp1504
g94
g95
ssg83
g1498
sg76
(lp1505
S'server_software'
p1506
asbag69
(g90
g71
NtRp1507
(dp1508
g74
(dp1509
g101
g102
ssg83
g1498
sg76
(lp1510
S':'
asbag69
(g90
g71
NtRp1511
(dp1512
g74
(dp1513
sg83
g1498
sg76
(lp1514
g69
(g70
g71
NtRp1515
(dp1516
g74
(dp1517
g82
I4
ssg83
g1511
sg76
(lp1518
S'Rocket 1.2.6'
p1519
asbasbasbag69
(g85
g71
NtRp1520
(dp1521
g74
(dp1522
sg83
g673
sg76
(lp1523
g69
(g90
g71
NtRp1524
(dp1525
g74
(dp1526
g94
g95
ssg83
g1520
sg76
(lp1527
S'web2py_original_uri'
p1528
asbag69
(g90
g71
NtRp1529
(dp1530
g74
(dp1531
g101
g102
ssg83
g1520
sg76
(lp1532
S':'
asbag69
(g90
g71
NtRp1533
(dp1534
g74
(dp1535
sg83
g1520
sg76
(lp1536
g69
(g70
g71
NtRp1537
(dp1538
g74
(dp1539
g82
I4
ssg83
g1533
sg76
(lp1540
S'/edit_host?f=1013'
p1541
asbasbasbag69
(g85
g71
NtRp1542
(dp1543
g74
(dp1544
sg83
g673
sg76
(lp1545
g69
(g90
g71
NtRp1546
(dp1547
g74
(dp1548
g94
g95
ssg83
g1542
sg76
(lp1549
S'web2py_path'
p1550
asbag69
(g90
g71
NtRp1551
(dp1552
g74
(dp1553
g101
g102
ssg83
g1542
sg76
(lp1554
S':'
asbag69
(g90
g71
NtRp1555
(dp1556
g74
(dp1557
sg83
g1542
sg76
(lp1558
g69
(g70
g71
NtRp1559
(dp1560
g74
(dp1561
g82
I4
ssg83
g1555
sg76
(lp1562
g720
asbasbasbag69
(g85
g71
NtRp1563
(dp1564
g74
(dp1565
sg83
g673
sg76
(lp1566
g69
(g90
g71
NtRp1567
(dp1568
g74
(dp1569
g94
g95
ssg83
g1563
sg76
(lp1570
S'web2py_version'
p1571
asbag69
(g90
g71
NtRp1572
(dp1573
g74
(dp1574
g101
g102
ssg83
g1563
sg76
(lp1575
S':'
asbag69
(g90
g71
NtRp1576
(dp1577
g74
(dp1578
sg83
g1563
sg76
(lp1579
g69
(g70
g71
NtRp1580
(dp1581
g74
(dp1582
g82
I4
ssg83
g1576
sg76
(lp1583
g69
(g78
g71
NtRp1584
(dp1585
g74
(dp1586
g82
I3
ssg83
Nsg76
(lp1587
g69
(g85
g71
NtRp1588
(dp1589
g74
(dp1590
sg83
g1584
sg76
(lp1591
g69
(g90
g71
NtRp1592
(dp1593
g74
(dp1594
sg83
g1588
sg76
(lp1595
g69
(g70
g71
NtRp1596
(dp1597
g74
(dp1598
g82
I3
ssg83
g1592
sg76
(lp1599
S'2'
asbasbasbag69
(g85
g71
NtRp1600
(dp1601
g74
(dp1602
sg83
g1584
sg76
(lp1603
g69
(g90
g71
NtRp1604
(dp1605
g74
(dp1606
sg83
g1600
sg76
(lp1607
g69
(g70
g71
NtRp1608
(dp1609
g74
(dp1610
g82
I3
ssg83
g1604
sg76
(lp1611
S'3'
asbasbasbag69
(g85
g71
NtRp1612
(dp1613
g74
(dp1614
sg83
g1584
sg76
(lp1615
g69
(g90
g71
NtRp1616
(dp1617
g74
(dp1618
sg83
g1612
sg76
(lp1619
g69
(g70
g71
NtRp1620
(dp1621
g74
(dp1622
g82
I3
ssg83
g1616
sg76
(lp1623
S'2'
asbasbasbag69
(g85
g71
NtRp1624
(dp1625
g74
(dp1626
sg83
g1584
sg76
(lp1627
g69
(g90
g71
NtRp1628
(dp1629
g74
(dp1630
sg83
g1624
sg76
(lp1631
g69
(g70
g71
NtRp1632
(dp1633
g74
(dp1634
g82
I3
ssg83
g1628
sg76
(lp1635
S'datetime.datetime(2012, 12, 17, 15, 3, 30)'
p1636
asbasbasbag69
(g85
g71
NtRp1637
(dp1638
g74
(dp1639
sg83
g1584
sg76
(lp1640
g69
(g90
g71
NtRp1641
(dp1642
g74
(dp1643
sg83
g1637
sg76
(lp1644
g69
(g70
g71
NtRp1645
(dp1646
g74
(dp1647
g82
I3
ssg83
g1641
sg76
(lp1648
S'stable'
p1649
asbasbasbasbasbasbasbag69
(g85
g71
NtRp1650
(dp1651
g74
(dp1652
sg83
g673
sg76
(lp1653
g69
(g90
g71
NtRp1654
(dp1655
g74
(dp1656
g94
g95
ssg83
g1650
sg76
(lp1657
S'wsgi_errors'
p1658
asbag69
(g90
g71
NtRp1659
(dp1660
g74
(dp1661
g101
g102
ssg83
g1650
sg76
(lp1662
S':'
asbag69
(g90
g71
NtRp1663
(dp1664
g74
(dp1665
sg83
g1650
sg76
(lp1666
g69
(g70
g71
NtRp1667
(dp1668
g74
(dp1669
g82
I4
ssg83
g1663
sg76
(lp1670
S"<open file '<stderr>', mode 'w' at 0x7f635a603270>"
p1671
asbasbasbag69
(g85
g71
NtRp1672
(dp1673
g74
(dp1674
sg83
g673
sg76
(lp1675
g69
(g90
g71
NtRp1676
(dp1677
g74
(dp1678
g94
g95
ssg83
g1672
sg76
(lp1679
S'wsgi_file_wrapper'
p1680
asbag69
(g90
g71
NtRp1681
(dp1682
g74
(dp1683
g101
g102
ssg83
g1672
sg76
(lp1684
S':'
asbag69
(g90
g71
NtRp1685
(dp1686
g74
(dp1687
sg83
g1672
sg76
(lp1688
g69
(g70
g71
NtRp1689
(dp1690
g74
(dp1691
g82
I4
ssg83
g1685
sg76
(lp1692
S'<class wsgiref.util.FileWrapper at 0x2bb2598>'
p1693
asbasbasbag69
(g85
g71
NtRp1694
(dp1695
g74
(dp1696
sg83
g673
sg76
(lp1697
g69
(g90
g71
NtRp1698
(dp1699
g74
(dp1700
g94
g95
ssg83
g1694
sg76
(lp1701
S'wsgi_input'
p1702
asbag69
(g90
g71
NtRp1703
(dp1704
g74
(dp1705
g101
g102
ssg83
g1694
sg76
(lp1706
S':'
asbag69
(g90
g71
NtRp1707
(dp1708
g74
(dp1709
sg83
g1694
sg76
(lp1710
g69
(g70
g71
NtRp1711
(dp1712
g74
(dp1713
g82
I4
ssg83
g1707
sg76
(lp1714
S'<socket._fileobject object at 0x7f634c8719d0>'
p1715
asbasbasbag69
(g85
g71
NtRp1716
(dp1717
g74
(dp1718
sg83
g673
sg76
(lp1719
g69
(g90
g71
NtRp1720
(dp1721
g74
(dp1722
g94
g95
ssg83
g1716
sg76
(lp1723
S'wsgi_multiprocess'
p1724
asbag69
(g90
g71
NtRp1725
(dp1726
g74
(dp1727
g101
g102
ssg83
g1716
sg76
(lp1728
S':'
asbag69
(g90
g71
NtRp1729
(dp1730
g74
(dp1731
sg83
g1716
sg76
(lp1732
g69
(g70
g71
NtRp1733
(dp1734
g74
(dp1735
g82
I4
ssg83
g1729
sg76
(lp1736
g112
asbasbasbag69
(g85
g71
NtRp1737
(dp1738
g74
(dp1739
sg83
g673
sg76
(lp1740
g69
(g90
g71
NtRp1741
(dp1742
g74
(dp1743
g94
g95
ssg83
g1737
sg76
(lp1744
S'wsgi_multithread'
p1745
asbag69
(g90
g71
NtRp1746
(dp1747
g74
(dp1748
g101
g102
ssg83
g1737
sg76
(lp1749
S':'
asbag69
(g90
g71
NtRp1750
(dp1751
g74
(dp1752
sg83
g1737
sg76
(lp1753
g69
(g70
g71
NtRp1754
(dp1755
g74
(dp1756
g82
I4
ssg83
g1750
sg76
(lp1757
S'True'
p1758
asbasbasbag69
(g85
g71
NtRp1759
(dp1760
g74
(dp1761
sg83
g673
sg76
(lp1762
g69
(g90
g71
NtRp1763
(dp1764
g74
(dp1765
g94
g95
ssg83
g1759
sg76
(lp1766
S'wsgi_run_once'
p1767
asbag69
(g90
g71
NtRp1768
(dp1769
g74
(dp1770
g101
g102
ssg83
g1759
sg76
(lp1771
S':'
asbag69
(g90
g71
NtRp1772
(dp1773
g74
(dp1774
sg83
g1759
sg76
(lp1775
g69
(g70
g71
NtRp1776
(dp1777
g74
(dp1778
g82
I4
ssg83
g1772
sg76
(lp1779
g112
asbasbasbag69
(g85
g71
NtRp1780
(dp1781
g74
(dp1782
sg83
g673
sg76
(lp1783
g69
(g90
g71
NtRp1784
(dp1785
g74
(dp1786
g94
g95
ssg83
g1780
sg76
(lp1787
S'wsgi_url_scheme'
p1788
asbag69
(g90
g71
NtRp1789
(dp1790
g74
(dp1791
g101
g102
ssg83
g1780
sg76
(lp1792
S':'
asbag69
(g90
g71
NtRp1793
(dp1794
g74
(dp1795
sg83
g1780
sg76
(lp1796
g69
(g70
g71
NtRp1797
(dp1798
g74
(dp1799
g82
I4
ssg83
g1793
sg76
(lp1800
S'http'
p1801
asbasbasbag69
(g85
g71
NtRp1802
(dp1803
g74
(dp1804
sg83
g673
sg76
(lp1805
g69
(g90
g71
NtRp1806
(dp1807
g74
(dp1808
g94
g95
ssg83
g1802
sg76
(lp1809
S'wsgi_version'
p1810
asbag69
(g90
g71
NtRp1811
(dp1812
g74
(dp1813
g101
g102
ssg83
g1802
sg76
(lp1814
S':'
asbag69
(g90
g71
NtRp1815
(dp1816
g74
(dp1817
sg83
g1802
sg76
(lp1818
g69
(g70
g71
NtRp1819
(dp1820
g74
(dp1821
g82
I4
ssg83
g1815
sg76
(lp1822
g69
(g78
g71
NtRp1823
(dp1824
g74
(dp1825
g82
I3
ssg83
Nsg76
(lp1826
g69
(g85
g71
NtRp1827
(dp1828
g74
(dp1829
sg83
g1823
sg76
(lp1830
g69
(g90
g71
NtRp1831
(dp1832
g74
(dp1833
sg83
g1827
sg76
(lp1834
g69
(g70
g71
NtRp1835
(dp1836
g74
(dp1837
g82
I3
ssg83
g1831
sg76
(lp1838
S'1'
asbasbasbag69
(g85
g71
NtRp1839
(dp1840
g74
(dp1841
sg83
g1823
sg76
(lp1842
g69
(g90
g71
NtRp1843
(dp1844
g74
(dp1845
sg83
g1839
sg76
(lp1846
g69
(g70
g71
NtRp1847
(dp1848
g74
(dp1849
g82
I3
ssg83
g1843
sg76
(lp1850
S'0'
asbasbasbasbasbasbasbasbasbasbasbag69
(g85
g71
NtRp1851
(dp1852
g74
(dp1853
sg83
g79
sg76
(lp1854
g69
(g90
g71
NtRp1855
(dp1856
g74
(dp1857
g94
g95
ssg83
g1851
sg76
(lp1858
S'extension'
p1859
asbag69
(g90
g71
NtRp1860
(dp1861
g74
(dp1862
g101
g102
ssg83
g1851
sg76
(lp1863
S':'
asbag69
(g90
g71
NtRp1864
(dp1865
g74
(dp1866
sg83
g1851
sg76
(lp1867
g69
(g70
g71
NtRp1868
(dp1869
g74
(dp1870
g82
I5
ssg83
g1864
sg76
(lp1871
S'html'
p1872
asbasbasbag69
(g85
g71
NtRp1873
(dp1874
g74
(dp1875
sg83
g79
sg76
(lp1876
g69
(g90
g71
NtRp1877
(dp1878
g74
(dp1879
g94
g95
ssg83
g1873
sg76
(lp1880
S'folder'
p1881
asbag69
(g90
g71
NtRp1882
(dp1883
g74
(dp1884
g101
g102
ssg83
g1873
sg76
(lp1885
S':'
asbag69
(g90
g71
NtRp1886
(dp1887
g74
(dp1888
sg83
g1873
sg76
(lp1889
g69
(g70
g71
NtRp1890
(dp1891
g74
(dp1892
g82
I5
ssg83
g1886
sg76
(lp1893
S'/var/www/conferencia/applications/projeto/'
p1894
asbasbasbag69
(g85
g71
NtRp1895
(dp1896
g74
(dp1897
sg83
g79
sg76
(lp1898
g69
(g90
g71
NtRp1899
(dp1900
g74
(dp1901
g94
g95
ssg83
g1895
sg76
(lp1902
S'function'
p1903
asbag69
(g90
g71
NtRp1904
(dp1905
g74
(dp1906
g101
g102
ssg83
g1895
sg76
(lp1907
S':'
asbag69
(g90
g71
NtRp1908
(dp1909
g74
(dp1910
sg83
g1895
sg76
(lp1911
g69
(g70
g71
NtRp1912
(dp1913
g74
(dp1914
g82
I5
ssg83
g1908
sg76
(lp1915
S'edit_host'
p1916
asbasbasbag69
(g85
g71
NtRp1917
(dp1918
g74
(dp1919
sg83
g79
sg76
(lp1920
g69
(g90
g71
NtRp1921
(dp1922
g74
(dp1923
g94
g95
ssg83
g1917
sg76
(lp1924
S'get_vars'
p1925
asbag69
(g90
g71
NtRp1926
(dp1927
g74
(dp1928
g101
g102
ssg83
g1917
sg76
(lp1929
S':'
asbag69
(g90
g71
NtRp1930
(dp1931
g74
(dp1932
sg83
g1917
sg76
(lp1933
g69
(g70
g71
NtRp1934
(dp1935
g74
(dp1936
g82
I5
ssg83
g1930
sg76
(lp1937
g69
(g78
g71
NtRp1938
(dp1939
g74
(dp1940
g82
I4
ssg83
Nsg76
(lp1941
g69
(g85
g71
NtRp1942
(dp1943
g74
(dp1944
sg83
g1938
sg76
(lp1945
g69
(g90
g71
NtRp1946
(dp1947
g74
(dp1948
g94
g95
ssg83
g1942
sg76
(lp1949
S'f'
asbag69
(g90
g71
NtRp1950
(dp1951
g74
(dp1952
g101
g102
ssg83
g1942
sg76
(lp1953
S':'
asbag69
(g90
g71
NtRp1954
(dp1955
g74
(dp1956
sg83
g1942
sg76
(lp1957
g69
(g70
g71
NtRp1958
(dp1959
g74
(dp1960
g82
I4
ssg83
g1954
sg76
(lp1961
S'1013'
p1962
asbasbasbasbasbasbasbag69
(g85
g71
NtRp1963
(dp1964
g74
(dp1965
sg83
g79
sg76
(lp1966
g69
(g90
g71
NtRp1967
(dp1968
g74
(dp1969
g94
g95
ssg83
g1963
sg76
(lp1970
S'global_settings'
p1971
asbag69
(g90
g71
NtRp1972
(dp1973
g74
(dp1974
g101
g102
ssg83
g1963
sg76
(lp1975
S':'
asbag69
(g90
g71
NtRp1976
(dp1977
g74
(dp1978
sg83
g1963
sg76
(lp1979
g69
(g70
g71
NtRp1980
(dp1981
g74
(dp1982
g82
I5
ssg83
g1976
sg76
(lp1983
g69
(g78
g71
NtRp1984
(dp1985
g74
(dp1986
g82
I4
ssg83
Nsg76
(lp1987
g69
(g85
g71
NtRp1988
(dp1989
g74
(dp1990
sg83
g1984
sg76
(lp1991
g69
(g90
g71
NtRp1992
(dp1993
g74
(dp1994
g94
g95
ssg83
g1988
sg76
(lp1995
g685
asbag69
(g90
g71
NtRp1996
(dp1997
g74
(dp1998
g101
g102
ssg83
g1988
sg76
(lp1999
S':'
asbag69
(g90
g71
NtRp2000
(dp2001
g74
(dp2002
sg83
g1988
sg76
(lp2003
g69
(g70
g71
NtRp2004
(dp2005
g74
(dp2006
g82
I4
ssg83
g2000
sg76
(lp2007
S"set(['/var/www/conferencia/applications/admin/', '/var/www/conferencia/applications/projeto/'])"
p2008
asbasbasbag69
(g85
g71
NtRp2009
(dp2010
g74
(dp2011
sg83
g1984
sg76
(lp2012
g69
(g90
g71
NtRp2013
(dp2014
g74
(dp2015
g94
g95
ssg83
g2009
sg76
(lp2016
g707
asbag69
(g90
g71
NtRp2017
(dp2018
g74
(dp2019
g101
g102
ssg83
g2009
sg76
(lp2020
S':'
asbag69
(g90
g71
NtRp2021
(dp2022
g74
(dp2023
sg83
g2009
sg76
(lp2024
g69
(g70
g71
NtRp2025
(dp2026
g74
(dp2027
g82
I4
ssg83
g2021
sg76
(lp2028
g720
asbasbasbag69
(g85
g71
NtRp2029
(dp2030
g74
(dp2031
sg83
g1984
sg76
(lp2032
g69
(g90
g71
NtRp2033
(dp2034
g74
(dp2035
g94
g95
ssg83
g2029
sg76
(lp2036
g729
asbag69
(g90
g71
NtRp2037
(dp2038
g74
(dp2039
g101
g102
ssg83
g2029
sg76
(lp2040
S':'
asbag69
(g90
g71
NtRp2041
(dp2042
g74
(dp2043
sg83
g2029
sg76
(lp2044
g69
(g70
g71
NtRp2045
(dp2046
g74
(dp2047
g82
I4
ssg83
g2041
sg76
(lp2048
g69
(g78
g71
NtRp2049
(dp2050
g74
(dp2051
g82
I3
ssg83
Nsg76
(lp2052
sbasbasbasbag69
(g85
g71
NtRp2053
(dp2054
g74
(dp2055
sg83
g1984
sg76
(lp2056
g69
(g90
g71
NtRp2057
(dp2058
g74
(dp2059
g94
g95
ssg83
g2053
sg76
(lp2060
g754
asbag69
(g90
g71
NtRp2061
(dp2062
g74
(dp2063
g101
g102
ssg83
g2053
sg76
(lp2064
S':'
asbag69
(g90
g71
NtRp2065
(dp2066
g74
(dp2067
sg83
g2053
sg76
(lp2068
g69
(g70
g71
NtRp2069
(dp2070
g74
(dp2071
g82
I4
ssg83
g2065
sg76
(lp2072
S"<Values at 0x2c3b248: {'verbose': False, 'ip': '127.0.0.1', 'with_scheduler': False, 'ips': [], 'shutdown_timeout': 5, 'taskbar': False, 'port': 8000, 'maxthreads': None, 'softcron': False, 'server_name': 'fernando-workstation', 'bpython': False, 'nogui': False, 'pid_filename': 'httpserver.pid', 'extcron': False, 'runcron': False, 'run_system_tests': False, 'test': None, 'folder': '/var/www/conferencia', 'config': '', 'minthreads': None, 'winservice': '', 'shell': None, 'run': '', 'log_filename': 'httpserver.log', 'debuglevel': 30, 'args': [''], 'socket_timeout': 5, 'ssl_ca_certificate': None, 'scheduler': None, 'profiler_filename': None, 'ssl_private_key': '', 'scheduler_groups': None, 'password': '123456', 'request_queue_size': 5, 'ssl_certificate': '', 'cronjob': False, 'numthreads': None, 'quiet': False, 'interfaces': None, 'import_models': False, 'timeout': 10, 'plain': False, 'nobanner': False}>"
p2073
asbasbasbag69
(g85
g71
NtRp2074
(dp2075
g74
(dp2076
sg83
g1984
sg76
(lp2077
g69
(g90
g71
NtRp2078
(dp2079
g74
(dp2080
g94
g95
ssg83
g2074
sg76
(lp2081
g820
asbag69
(g90
g71
NtRp2082
(dp2083
g74
(dp2084
g101
g102
ssg83
g2074
sg76
(lp2085
S':'
asbag69
(g90
g71
NtRp2086
(dp2087
g74
(dp2088
sg83
g2074
sg76
(lp2089
g69
(g70
g71
NtRp2090
(dp2091
g74
(dp2092
g82
I4
ssg83
g2086
sg76
(lp2093
S'set([])'
p2094
asbasbasbag69
(g85
g71
NtRp2095
(dp2096
g74
(dp2097
sg83
g1984
sg76
(lp2098
g69
(g90
g71
NtRp2099
(dp2100
g74
(dp2101
g94
g95
ssg83
g2095
sg76
(lp2102
g842
asbag69
(g90
g71
NtRp2103
(dp2104
g74
(dp2105
g101
g102
ssg83
g2095
sg76
(lp2106
S':'
asbag69
(g90
g71
NtRp2107
(dp2108
g74
(dp2109
sg83
g2095
sg76
(lp2110
g69
(g70
g71
NtRp2111
(dp2112
g74
(dp2113
g82
I4
ssg83
g2107
sg76
(lp2114
g112
asbasbasbag69
(g85
g71
NtRp2115
(dp2116
g74
(dp2117
sg83
g1984
sg76
(lp2118
g69
(g90
g71
NtRp2119
(dp2120
g74
(dp2121
g94
g95
ssg83
g2115
sg76
(lp2122
g863
asbag69
(g90
g71
NtRp2123
(dp2124
g74
(dp2125
g101
g102
ssg83
g2115
sg76
(lp2126
S':'
asbag69
(g90
g71
NtRp2127
(dp2128
g74
(dp2129
sg83
g2115
sg76
(lp2130
g69
(g70
g71
NtRp2131
(dp2132
g74
(dp2133
g82
I4
ssg83
g2127
sg76
(lp2134
g876
asbasbasbag69
(g85
g71
NtRp2135
(dp2136
g74
(dp2137
sg83
g1984
sg76
(lp2138
g69
(g90
g71
NtRp2139
(dp2140
g74
(dp2141
g94
g95
ssg83
g2135
sg76
(lp2142
g1169
asbag69
(g90
g71
NtRp2143
(dp2144
g74
(dp2145
g101
g102
ssg83
g2135
sg76
(lp2146
S':'
asbag69
(g90
g71
NtRp2147
(dp2148
g74
(dp2149
sg83
g2135
sg76
(lp2150
g69
(g70
g71
NtRp2151
(dp2152
g74
(dp2153
g82
I4
ssg83
g2147
sg76
(lp2154
g112
asbasbasbag69
(g85
g71
NtRp2155
(dp2156
g74
(dp2157
sg83
g1984
sg76
(lp2158
g69
(g90
g71
NtRp2159
(dp2160
g74
(dp2161
g94
g95
ssg83
g2155
sg76
(lp2162
g1190
asbag69
(g90
g71
NtRp2163
(dp2164
g74
(dp2165
g101
g102
ssg83
g2155
sg76
(lp2166
S':'
asbag69
(g90
g71
NtRp2167
(dp2168
g74
(dp2169
sg83
g2155
sg76
(lp2170
g69
(g70
g71
NtRp2171
(dp2172
g74
(dp2173
g82
I4
ssg83
g2167
sg76
(lp2174
g112
asbasbasbag69
(g85
g71
NtRp2175
(dp2176
g74
(dp2177
sg83
g1984
sg76
(lp2178
g69
(g90
g71
NtRp2179
(dp2180
g74
(dp2181
g94
g95
ssg83
g2175
sg76
(lp2182
g1211
asbag69
(g90
g71
NtRp2183
(dp2184
g74
(dp2185
g101
g102
ssg83
g2175
sg76
(lp2186
S':'
asbag69
(g90
g71
NtRp2187
(dp2188
g74
(dp2189
sg83
g2175
sg76
(lp2190
g69
(g70
g71
NtRp2191
(dp2192
g74
(dp2193
g82
I4
ssg83
g2187
sg76
(lp2194
g69
(g78
g71
NtRp2195
(dp2196
g74
(dp2197
g82
I3
ssg83
Nsg76
(lp2198
g69
(g85
g71
NtRp2199
(dp2200
g74
(dp2201
sg83
g2195
sg76
(lp2202
g69
(g90
g71
NtRp2203
(dp2204
g74
(dp2205
sg83
g2199
sg76
(lp2206
g69
(g70
g71
NtRp2207
(dp2208
g74
(dp2209
g82
I3
ssg83
g2203
sg76
(lp2210
g1240
asbasbasbag69
(g85
g71
NtRp2211
(dp2212
g74
(dp2213
sg83
g2195
sg76
(lp2214
g69
(g90
g71
NtRp2215
(dp2216
g74
(dp2217
sg83
g2211
sg76
(lp2218
g69
(g70
g71
NtRp2219
(dp2220
g74
(dp2221
g82
I3
ssg83
g2215
sg76
(lp2222
g1253
asbasbasbag69
(g85
g71
NtRp2223
(dp2224
g74
(dp2225
sg83
g2195
sg76
(lp2226
g69
(g90
g71
NtRp2227
(dp2228
g74
(dp2229
sg83
g2223
sg76
(lp2230
g69
(g70
g71
NtRp2231
(dp2232
g74
(dp2233
g82
I3
ssg83
g2227
sg76
(lp2234
g1266
asbasbasbag69
(g85
g71
NtRp2235
(dp2236
g74
(dp2237
sg83
g2195
sg76
(lp2238
g69
(g90
g71
NtRp2239
(dp2240
g74
(dp2241
sg83
g2235
sg76
(lp2242
g69
(g70
g71
NtRp2243
(dp2244
g74
(dp2245
g82
I3
ssg83
g2239
sg76
(lp2246
g1279
asbasbasbasbasbasbasbag69
(g85
g71
NtRp2247
(dp2248
g74
(dp2249
sg83
g1984
sg76
(lp2250
g69
(g90
g71
NtRp2251
(dp2252
g74
(dp2253
g94
g95
ssg83
g2247
sg76
(lp2254
g1571
asbag69
(g90
g71
NtRp2255
(dp2256
g74
(dp2257
g101
g102
ssg83
g2247
sg76
(lp2258
S':'
asbag69
(g90
g71
NtRp2259
(dp2260
g74
(dp2261
sg83
g2247
sg76
(lp2262
g69
(g70
g71
NtRp2263
(dp2264
g74
(dp2265
g82
I4
ssg83
g2259
sg76
(lp2266
g69
(g78
g71
NtRp2267
(dp2268
g74
(dp2269
g82
I3
ssg83
Nsg76
(lp2270
g69
(g85
g71
NtRp2271
(dp2272
g74
(dp2273
sg83
g2267
sg76
(lp2274
g69
(g90
g71
NtRp2275
(dp2276
g74
(dp2277
sg83
g2271
sg76
(lp2278
g69
(g70
g71
NtRp2279
(dp2280
g74
(dp2281
g82
I3
ssg83
g2275
sg76
(lp2282
S'2'
asbasbasbag69
(g85
g71
NtRp2283
(dp2284
g74
(dp2285
sg83
g2267
sg76
(lp2286
g69
(g90
g71
NtRp2287
(dp2288
g74
(dp2289
sg83
g2283
sg76
(lp2290
g69
(g70
g71
NtRp2291
(dp2292
g74
(dp2293
g82
I3
ssg83
g2287
sg76
(lp2294
S'3'
asbasbasbag69
(g85
g71
NtRp2295
(dp2296
g74
(dp2297
sg83
g2267
sg76
(lp2298
g69
(g90
g71
NtRp2299
(dp2300
g74
(dp2301
sg83
g2295
sg76
(lp2302
g69
(g70
g71
NtRp2303
(dp2304
g74
(dp2305
g82
I3
ssg83
g2299
sg76
(lp2306
S'2'
asbasbasbag69
(g85
g71
NtRp2307
(dp2308
g74
(dp2309
sg83
g2267
sg76
(lp2310
g69
(g90
g71
NtRp2311
(dp2312
g74
(dp2313
sg83
g2307
sg76
(lp2314
g69
(g70
g71
NtRp2315
(dp2316
g74
(dp2317
g82
I3
ssg83
g2311
sg76
(lp2318
S'datetime.datetime(2012, 12, 17, 15, 3, 30)'
p2319
asbasbasbag69
(g85
g71
NtRp2320
(dp2321
g74
(dp2322
sg83
g2267
sg76
(lp2323
g69
(g90
g71
NtRp2324
(dp2325
g74
(dp2326
sg83
g2320
sg76
(lp2327
g69
(g70
g71
NtRp2328
(dp2329
g74
(dp2330
g82
I3
ssg83
g2324
sg76
(lp2331
g1649
asbasbasbasbasbasbasbasbasbasbasbag69
(g85
g71
NtRp2332
(dp2333
g74
(dp2334
sg83
g79
sg76
(lp2335
g69
(g90
g71
NtRp2336
(dp2337
g74
(dp2338
g94
g95
ssg83
g2332
sg76
(lp2339
S'is_https'
p2340
asbag69
(g90
g71
NtRp2341
(dp2342
g74
(dp2343
g101
g102
ssg83
g2332
sg76
(lp2344
S':'
asbag69
(g90
g71
NtRp2345
(dp2346
g74
(dp2347
sg83
g2332
sg76
(lp2348
g69
(g70
g71
NtRp2349
(dp2350
g74
(dp2351
g82
I5
ssg83
g2345
sg76
(lp2352
g112
asbasbasbag69
(g85
g71
NtRp2353
(dp2354
g74
(dp2355
sg83
g79
sg76
(lp2356
g69
(g90
g71
NtRp2357
(dp2358
g74
(dp2359
g94
g95
ssg83
g2353
sg76
(lp2360
S'is_local'
p2361
asbag69
(g90
g71
NtRp2362
(dp2363
g74
(dp2364
g101
g102
ssg83
g2353
sg76
(lp2365
S':'
asbag69
(g90
g71
NtRp2366
(dp2367
g74
(dp2368
sg83
g2353
sg76
(lp2369
g69
(g70
g71
NtRp2370
(dp2371
g74
(dp2372
g82
I5
ssg83
g2366
sg76
(lp2373
g1758
asbasbasbag69
(g85
g71
NtRp2374
(dp2375
g74
(dp2376
sg83
g79
sg76
(lp2377
g69
(g90
g71
NtRp2378
(dp2379
g74
(dp2380
g94
g95
ssg83
g2374
sg76
(lp2381
S'is_restful'
p2382
asbag69
(g90
g71
NtRp2383
(dp2384
g74
(dp2385
g101
g102
ssg83
g2374
sg76
(lp2386
S':'
asbag69
(g90
g71
NtRp2387
(dp2388
g74
(dp2389
sg83
g2374
sg76
(lp2390
g69
(g70
g71
NtRp2391
(dp2392
g74
(dp2393
g82
I5
ssg83
g2387
sg76
(lp2394
g112
asbasbasbag69
(g85
g71
NtRp2395
(dp2396
g74
(dp2397
sg83
g79
sg76
(lp2398
g69
(g90
g71
NtRp2399
(dp2400
g74
(dp2401
g94
g95
ssg83
g2395
sg76
(lp2402
S'now'
p2403
asbag69
(g90
g71
NtRp2404
(dp2405
g74
(dp2406
g101
g102
ssg83
g2395
sg76
(lp2407
S':'
asbag69
(g90
g71
NtRp2408
(dp2409
g74
(dp2410
sg83
g2395
sg76
(lp2411
g69
(g70
g71
NtRp2412
(dp2413
g74
(dp2414
g82
I5
ssg83
g2408
sg76
(lp2415
S'datetime.datetime(2013, 4, 3, 14, 55, 14, 485555)'
p2416
asbasbasbag69
(g85
g71
NtRp2417
(dp2418
g74
(dp2419
sg83
g79
sg76
(lp2420
g69
(g90
g71
NtRp2421
(dp2422
g74
(dp2423
g94
g95
ssg83
g2417
sg76
(lp2424
S'post_vars'
p2425
asbag69
(g90
g71
NtRp2426
(dp2427
g74
(dp2428
g101
g102
ssg83
g2417
sg76
(lp2429
S':'
asbag69
(g90
g71
NtRp2430
(dp2431
g74
(dp2432
sg83
g2417
sg76
(lp2433
g69
(g70
g71
NtRp2434
(dp2435
g74
(dp2436
g82
I5
ssg83
g2430
sg76
(lp2437
g69
(g78
g71
NtRp2438
(dp2439
g74
(dp2440
g82
I4
ssg83
Nsg76
(lp2441
g69
(g85
g71
NtRp2442
(dp2443
g74
(dp2444
sg83
g2438
sg76
(lp2445
g69
(g90
g71
NtRp2446
(dp2447
g74
(dp2448
g94
g95
ssg83
g2442
sg76
(lp2449
S'admin_user'
p2450
asbag69
(g90
g71
NtRp2451
(dp2452
g74
(dp2453
g101
g102
ssg83
g2442
sg76
(lp2454
S':'
asbag69
(g90
g71
NtRp2455
(dp2456
g74
(dp2457
sg83
g2442
sg76
(lp2458
g69
(g70
g71
NtRp2459
(dp2460
g74
(dp2461
g82
I4
ssg83
g2455
sg76
(lp2462
S'2'
asbasbasbag69
(g85
g71
NtRp2463
(dp2464
g74
(dp2465
sg83
g2438
sg76
(lp2466
g69
(g90
g71
NtRp2467
(dp2468
g74
(dp2469
g94
g95
ssg83
g2463
sg76
(lp2470
S'endtime'
p2471
asbag69
(g90
g71
NtRp2472
(dp2473
g74
(dp2474
g101
g102
ssg83
g2463
sg76
(lp2475
S':'
asbag69
(g90
g71
NtRp2476
(dp2477
g74
(dp2478
sg83
g2463
sg76
(lp2479
g69
(g70
g71
NtRp2480
(dp2481
g74
(dp2482
g82
I4
ssg83
g2476
sg76
(lp2483
S'2013-04-11 12:26:40'
p2484
asbasbasbag69
(g85
g71
NtRp2485
(dp2486
g74
(dp2487
sg83
g2438
sg76
(lp2488
g69
(g90
g71
NtRp2489
(dp2490
g74
(dp2491
g94
g95
ssg83
g2485
sg76
(lp2492
S'membros_user'
p2493
asbag69
(g90
g71
NtRp2494
(dp2495
g74
(dp2496
g101
g102
ssg83
g2485
sg76
(lp2497
S':'
asbag69
(g90
g71
NtRp2498
(dp2499
g74
(dp2500
sg83
g2485
sg76
(lp2501
g69
(g70
g71
NtRp2502
(dp2503
g74
(dp2504
g82
I4
ssg83
g2498
sg76
(lp2505
S'4'
asbasbasbag69
(g85
g71
NtRp2506
(dp2507
g74
(dp2508
sg83
g2438
sg76
(lp2509
g69
(g90
g71
NtRp2510
(dp2511
g74
(dp2512
g94
g95
ssg83
g2506
sg76
(lp2513
S'starttime'
p2514
asbag69
(g90
g71
NtRp2515
(dp2516
g74
(dp2517
g101
g102
ssg83
g2506
sg76
(lp2518
S':'
asbag69
(g90
g71
NtRp2519
(dp2520
g74
(dp2521
sg83
g2506
sg76
(lp2522
g69
(g70
g71
NtRp2523
(dp2524
g74
(dp2525
g82
I4
ssg83
g2519
sg76
(lp2526
S'2013-04-05 12:26:38'
p2527
asbasbasbasbasbasbasbag69
(g85
g71
NtRp2528
(dp2529
g74
(dp2530
sg83
g79
sg76
(lp2531
g69
(g90
g71
NtRp2532
(dp2533
g74
(dp2534
g94
g95
ssg83
g2528
sg76
(lp2535
S'url'
p2536
asbag69
(g90
g71
NtRp2537
(dp2538
g74
(dp2539
g101
g102
ssg83
g2528
sg76
(lp2540
S':'
asbag69
(g90
g71
NtRp2541
(dp2542
g74
(dp2543
sg83
g2528
sg76
(lp2544
g69
(g70
g71
NtRp2545
(dp2546
g74
(dp2547
g82
I5
ssg83
g2541
sg76
(lp2548
g1301
asbasbasbag69
(g85
g71
NtRp2549
(dp2550
g74
(dp2551
sg83
g79
sg76
(lp2552
g69
(g90
g71
NtRp2553
(dp2554
g74
(dp2555
g94
g95
ssg83
g2549
sg76
(lp2556
S'utcnow'
p2557
asbag69
(g90
g71
NtRp2558
(dp2559
g74
(dp2560
g101
g102
ssg83
g2549
sg76
(lp2561
S':'
asbag69
(g90
g71
NtRp2562
(dp2563
g74
(dp2564
sg83
g2549
sg76
(lp2565
g69
(g70
g71
NtRp2566
(dp2567
g74
(dp2568
g82
I5
ssg83
g2562
sg76
(lp2569
S'datetime.datetime(2013, 4, 3, 17, 55, 14, 485619)'
p2570
asbasbasbag69
(g85
g71
NtRp2571
(dp2572
g74
(dp2573
sg83
g79
sg76
(lp2574
g69
(g90
g71
NtRp2575
(dp2576
g74
(dp2577
g94
g95
ssg83
g2571
sg76
(lp2578
S'uuid'
p2579
asbag69
(g90
g71
NtRp2580
(dp2581
g74
(dp2582
g101
g102
ssg83
g2571
sg76
(lp2583
S':'
asbag69
(g90
g71
NtRp2584
(dp2585
g74
(dp2586
sg83
g2571
sg76
(lp2587
g69
(g70
g71
NtRp2588
(dp2589
g74
(dp2590
g82
I5
ssg83
g2584
sg76
(lp2591
S'projeto/127.0.0.1.2013-04-03.14-55-14.af55b420-037a-4554-be05-d64d8aa3dc7e'
p2592
asbasbasbag69
(g85
g71
NtRp2593
(dp2594
g74
(dp2595
sg83
g79
sg76
(lp2596
g69
(g90
g71
NtRp2597
(dp2598
g74
(dp2599
g94
g95
ssg83
g2593
sg76
(lp2600
S'vars'
p2601
asbag69
(g90
g71
NtRp2602
(dp2603
g74
(dp2604
g101
g102
ssg83
g2593
sg76
(lp2605
S':'
asbag69
(g90
g71
NtRp2606
(dp2607
g74
(dp2608
sg83
g2593
sg76
(lp2609
g69
(g70
g71
NtRp2610
(dp2611
g74
(dp2612
g82
I5
ssg83
g2606
sg76
(lp2613
g69
(g78
g71
NtRp2614
(dp2615
g74
(dp2616
g82
I4
ssg83
Nsg76
(lp2617
g69
(g85
g71
NtRp2618
(dp2619
g74
(dp2620
sg83
g2614
sg76
(lp2621
g69
(g90
g71
NtRp2622
(dp2623
g74
(dp2624
g94
g95
ssg83
g2618
sg76
(lp2625
g2450
asbag69
(g90
g71
NtRp2626
(dp2627
g74
(dp2628
g101
g102
ssg83
g2618
sg76
(lp2629
S':'
asbag69
(g90
g71
NtRp2630
(dp2631
g74
(dp2632
sg83
g2618
sg76
(lp2633
g69
(g70
g71
NtRp2634
(dp2635
g74
(dp2636
g82
I4
ssg83
g2630
sg76
(lp2637
S'2'
asbasbasbag69
(g85
g71
NtRp2638
(dp2639
g74
(dp2640
sg83
g2614
sg76
(lp2641
g69
(g90
g71
NtRp2642
(dp2643
g74
(dp2644
g94
g95
ssg83
g2638
sg76
(lp2645
g2471
asbag69
(g90
g71
NtRp2646
(dp2647
g74
(dp2648
g101
g102
ssg83
g2638
sg76
(lp2649
S':'
asbag69
(g90
g71
NtRp2650
(dp2651
g74
(dp2652
sg83
g2638
sg76
(lp2653
g69
(g70
g71
NtRp2654
(dp2655
g74
(dp2656
g82
I4
ssg83
g2650
sg76
(lp2657
g2484
asbasbasbag69
(g85
g71
NtRp2658
(dp2659
g74
(dp2660
sg83
g2614
sg76
(lp2661
g69
(g90
g71
NtRp2662
(dp2663
g74
(dp2664
g94
g95
ssg83
g2658
sg76
(lp2665
S'f'
asbag69
(g90
g71
NtRp2666
(dp2667
g74
(dp2668
g101
g102
ssg83
g2658
sg76
(lp2669
S':'
asbag69
(g90
g71
NtRp2670
(dp2671
g74
(dp2672
sg83
g2658
sg76
(lp2673
g69
(g70
g71
NtRp2674
(dp2675
g74
(dp2676
g82
I4
ssg83
g2670
sg76
(lp2677
S'1013'
p2678
asbasbasbag69
(g85
g71
NtRp2679
(dp2680
g74
(dp2681
sg83
g2614
sg76
(lp2682
g69
(g90
g71
NtRp2683
(dp2684
g74
(dp2685
g94
g95
ssg83
g2679
sg76
(lp2686
g2493
asbag69
(g90
g71
NtRp2687
(dp2688
g74
(dp2689
g101
g102
ssg83
g2679
sg76
(lp2690
S':'
asbag69
(g90
g71
NtRp2691
(dp2692
g74
(dp2693
sg83
g2679
sg76
(lp2694
g69
(g70
g71
NtRp2695
(dp2696
g74
(dp2697
g82
I4
ssg83
g2691
sg76
(lp2698
S'4'
asbasbasbag69
(g85
g71
NtRp2699
(dp2700
g74
(dp2701
sg83
g2614
sg76
(lp2702
g69
(g90
g71
NtRp2703
(dp2704
g74
(dp2705
g94
g95
ssg83
g2699
sg76
(lp2706
g2514
asbag69
(g90
g71
NtRp2707
(dp2708
g74
(dp2709
g101
g102
ssg83
g2699
sg76
(lp2710
S':'
asbag69
(g90
g71
NtRp2711
(dp2712
g74
(dp2713
sg83
g2699
sg76
(lp2714
g69
(g70
g71
NtRp2715
(dp2716
g74
(dp2717
g82
I4
ssg83
g2711
sg76
(lp2718
g2527
asbasbasbasbasbasbasbag69
(g85
g71
NtRp2719
(dp2720
g74
(dp2721
sg83
g79
sg76
(lp2722
g69
(g90
g71
NtRp2723
(dp2724
g74
(dp2725
g94
g95
ssg83
g2719
sg76
(lp2726
S'wsgi'
p2727
asbag69
(g90
g71
NtRp2728
(dp2729
g74
(dp2730
g101
g102
ssg83
g2719
sg76
(lp2731
S':'
asbag69
(g90
g71
NtRp2732
(dp2733
g74
(dp2734
sg83
g2719
sg76
(lp2735
g69
(g70
g71
NtRp2736
(dp2737
g74
(dp2738
g82
I5
ssg83
g2732
sg76
(lp2739
g69
(g78
g71
NtRp2740
(dp2741
g74
(dp2742
g82
I4
ssg83
Nsg76
(lp2743
g69
(g85
g71
NtRp2744
(dp2745
g74
(dp2746
sg83
g2740
sg76
(lp2747
g69
(g90
g71
NtRp2748
(dp2749
g74
(dp2750
g94
g95
ssg83
g2744
sg76
(lp2751
S'environ'
p2752
asbag69
(g90
g71
NtRp2753
(dp2754
g74
(dp2755
g101
g102
ssg83
g2744
sg76
(lp2756
S':'
asbag69
(g90
g71
NtRp2757
(dp2758
g74
(dp2759
sg83
g2744
sg76
(lp2760
g69
(g70
g71
NtRp2761
(dp2762
g74
(dp2763
g82
I4
ssg83
g2757
sg76
(lp2764
g69
(g78
g71
NtRp2765
(dp2766
g74
(dp2767
g82
I3
ssg83
Nsg76
(lp2768
g69
(g85
g71
NtRp2769
(dp2770
g74
(dp2771
sg83
g2765
sg76
(lp2772
g69
(g90
g71
NtRp2773
(dp2774
g74
(dp2775
g94
g95
ssg83
g2769
sg76
(lp2776
S'CONTENT_LENGTH'
p2777
asbag69
(g90
g71
NtRp2778
(dp2779
g74
(dp2780
g101
g102
ssg83
g2769
sg76
(lp2781
S':'
asbag69
(g90
g71
NtRp2782
(dp2783
g74
(dp2784
sg83
g2769
sg76
(lp2785
g69
(g70
g71
NtRp2786
(dp2787
g74
(dp2788
g82
I3
ssg83
g2782
sg76
(lp2789
g789
asbasbasbag69
(g85
g71
NtRp2790
(dp2791
g74
(dp2792
sg83
g2765
sg76
(lp2793
g69
(g90
g71
NtRp2794
(dp2795
g74
(dp2796
g94
g95
ssg83
g2790
sg76
(lp2797
S'CONTENT_TYPE'
p2798
asbag69
(g90
g71
NtRp2799
(dp2800
g74
(dp2801
g101
g102
ssg83
g2790
sg76
(lp2802
S':'
asbag69
(g90
g71
NtRp2803
(dp2804
g74
(dp2805
sg83
g2790
sg76
(lp2806
g69
(g70
g71
NtRp2807
(dp2808
g74
(dp2809
g82
I3
ssg83
g2803
sg76
(lp2810
g811
asbasbasbag69
(g85
g71
NtRp2811
(dp2812
g74
(dp2813
sg83
g2765
sg76
(lp2814
g69
(g90
g71
NtRp2815
(dp2816
g74
(dp2817
g94
g95
ssg83
g2811
sg76
(lp2818
S'HTTP_ACCEPT'
p2819
asbag69
(g90
g71
NtRp2820
(dp2821
g74
(dp2822
g101
g102
ssg83
g2811
sg76
(lp2823
S':'
asbag69
(g90
g71
NtRp2824
(dp2825
g74
(dp2826
sg83
g2811
sg76
(lp2827
g69
(g70
g71
NtRp2828
(dp2829
g74
(dp2830
g82
I3
ssg83
g2824
sg76
(lp2831
g898
asbasbasbag69
(g85
g71
NtRp2832
(dp2833
g74
(dp2834
sg83
g2765
sg76
(lp2835
g69
(g90
g71
NtRp2836
(dp2837
g74
(dp2838
g94
g95
ssg83
g2832
sg76
(lp2839
S'HTTP_ACCEPT_CHARSET'
p2840
asbag69
(g90
g71
NtRp2841
(dp2842
g74
(dp2843
g101
g102
ssg83
g2832
sg76
(lp2844
S':'
asbag69
(g90
g71
NtRp2845
(dp2846
g74
(dp2847
sg83
g2832
sg76
(lp2848
g69
(g70
g71
NtRp2849
(dp2850
g74
(dp2851
g82
I3
ssg83
g2845
sg76
(lp2852
g920
asbasbasbag69
(g85
g71
NtRp2853
(dp2854
g74
(dp2855
sg83
g2765
sg76
(lp2856
g69
(g90
g71
NtRp2857
(dp2858
g74
(dp2859
g94
g95
ssg83
g2853
sg76
(lp2860
S'HTTP_ACCEPT_ENCODING'
p2861
asbag69
(g90
g71
NtRp2862
(dp2863
g74
(dp2864
g101
g102
ssg83
g2853
sg76
(lp2865
S':'
asbag69
(g90
g71
NtRp2866
(dp2867
g74
(dp2868
sg83
g2853
sg76
(lp2869
g69
(g70
g71
NtRp2870
(dp2871
g74
(dp2872
g82
I3
ssg83
g2866
sg76
(lp2873
g942
asbasbasbag69
(g85
g71
NtRp2874
(dp2875
g74
(dp2876
sg83
g2765
sg76
(lp2877
g69
(g90
g71
NtRp2878
(dp2879
g74
(dp2880
g94
g95
ssg83
g2874
sg76
(lp2881
S'HTTP_ACCEPT_LANGUAGE'
p2882
asbag69
(g90
g71
NtRp2883
(dp2884
g74
(dp2885
g101
g102
ssg83
g2874
sg76
(lp2886
S':'
asbag69
(g90
g71
NtRp2887
(dp2888
g74
(dp2889
sg83
g2874
sg76
(lp2890
g69
(g70
g71
NtRp2891
(dp2892
g74
(dp2893
g82
I3
ssg83
g2887
sg76
(lp2894
g964
asbasbasbag69
(g85
g71
NtRp2895
(dp2896
g74
(dp2897
sg83
g2765
sg76
(lp2898
g69
(g90
g71
NtRp2899
(dp2900
g74
(dp2901
g94
g95
ssg83
g2895
sg76
(lp2902
S'HTTP_CACHE_CONTROL'
p2903
asbag69
(g90
g71
NtRp2904
(dp2905
g74
(dp2906
g101
g102
ssg83
g2895
sg76
(lp2907
S':'
asbag69
(g90
g71
NtRp2908
(dp2909
g74
(dp2910
sg83
g2895
sg76
(lp2911
g69
(g70
g71
NtRp2912
(dp2913
g74
(dp2914
g82
I3
ssg83
g2908
sg76
(lp2915
g986
asbasbasbag69
(g85
g71
NtRp2916
(dp2917
g74
(dp2918
sg83
g2765
sg76
(lp2919
g69
(g90
g71
NtRp2920
(dp2921
g74
(dp2922
g94
g95
ssg83
g2916
sg76
(lp2923
S'HTTP_CONNECTION'
p2924
asbag69
(g90
g71
NtRp2925
(dp2926
g74
(dp2927
g101
g102
ssg83
g2916
sg76
(lp2928
S':'
asbag69
(g90
g71
NtRp2929
(dp2930
g74
(dp2931
sg83
g2916
sg76
(lp2932
g69
(g70
g71
NtRp2933
(dp2934
g74
(dp2935
g82
I3
ssg83
g2929
sg76
(lp2936
g1008
asbasbasbag69
(g85
g71
NtRp2937
(dp2938
g74
(dp2939
sg83
g2765
sg76
(lp2940
g69
(g90
g71
NtRp2941
(dp2942
g74
(dp2943
g94
g95
ssg83
g2937
sg76
(lp2944
S'HTTP_CONTENT_LENGTH'
p2945
asbag69
(g90
g71
NtRp2946
(dp2947
g74
(dp2948
g101
g102
ssg83
g2937
sg76
(lp2949
S':'
asbag69
(g90
g71
NtRp2950
(dp2951
g74
(dp2952
sg83
g2937
sg76
(lp2953
g69
(g70
g71
NtRp2954
(dp2955
g74
(dp2956
g82
I3
ssg83
g2950
sg76
(lp2957
g789
asbasbasbag69
(g85
g71
NtRp2958
(dp2959
g74
(dp2960
sg83
g2765
sg76
(lp2961
g69
(g90
g71
NtRp2962
(dp2963
g74
(dp2964
g94
g95
ssg83
g2958
sg76
(lp2965
S'HTTP_CONTENT_TYPE'
p2966
asbag69
(g90
g71
NtRp2967
(dp2968
g74
(dp2969
g101
g102
ssg83
g2958
sg76
(lp2970
S':'
asbag69
(g90
g71
NtRp2971
(dp2972
g74
(dp2973
sg83
g2958
sg76
(lp2974
g69
(g70
g71
NtRp2975
(dp2976
g74
(dp2977
g82
I3
ssg83
g2971
sg76
(lp2978
g811
asbasbasbag69
(g85
g71
NtRp2979
(dp2980
g74
(dp2981
sg83
g2765
sg76
(lp2982
g69
(g90
g71
NtRp2983
(dp2984
g74
(dp2985
g94
g95
ssg83
g2979
sg76
(lp2986
S'HTTP_COOKIE'
p2987
asbag69
(g90
g71
NtRp2988
(dp2989
g74
(dp2990
g101
g102
ssg83
g2979
sg76
(lp2991
S':'
asbag69
(g90
g71
NtRp2992
(dp2993
g74
(dp2994
sg83
g2979
sg76
(lp2995
g69
(g70
g71
NtRp2996
(dp2997
g74
(dp2998
g82
I3
ssg83
g2992
sg76
(lp2999
g1072
asbasbasbag69
(g85
g71
NtRp3000
(dp3001
g74
(dp3002
sg83
g2765
sg76
(lp3003
g69
(g90
g71
NtRp3004
(dp3005
g74
(dp3006
g94
g95
ssg83
g3000
sg76
(lp3007
S'HTTP_HOST'
p3008
asbag69
(g90
g71
NtRp3009
(dp3010
g74
(dp3011
g101
g102
ssg83
g3000
sg76
(lp3012
S':'
asbag69
(g90
g71
NtRp3013
(dp3014
g74
(dp3015
sg83
g3000
sg76
(lp3016
g69
(g70
g71
NtRp3017
(dp3018
g74
(dp3019
g82
I3
ssg83
g3013
sg76
(lp3020
g1094
asbasbasbag69
(g85
g71
NtRp3021
(dp3022
g74
(dp3023
sg83
g2765
sg76
(lp3024
g69
(g90
g71
NtRp3025
(dp3026
g74
(dp3027
g94
g95
ssg83
g3021
sg76
(lp3028
S'HTTP_ORIGIN'
p3029
asbag69
(g90
g71
NtRp3030
(dp3031
g74
(dp3032
g101
g102
ssg83
g3021
sg76
(lp3033
S':'
asbag69
(g90
g71
NtRp3034
(dp3035
g74
(dp3036
sg83
g3021
sg76
(lp3037
g69
(g70
g71
NtRp3038
(dp3039
g74
(dp3040
g82
I3
ssg83
g3034
sg76
(lp3041
g1116
asbasbasbag69
(g85
g71
NtRp3042
(dp3043
g74
(dp3044
sg83
g2765
sg76
(lp3045
g69
(g90
g71
NtRp3046
(dp3047
g74
(dp3048
g94
g95
ssg83
g3042
sg76
(lp3049
S'HTTP_REFERER'
p3050
asbag69
(g90
g71
NtRp3051
(dp3052
g74
(dp3053
g101
g102
ssg83
g3042
sg76
(lp3054
S':'
asbag69
(g90
g71
NtRp3055
(dp3056
g74
(dp3057
sg83
g3042
sg76
(lp3058
g69
(g70
g71
NtRp3059
(dp3060
g74
(dp3061
g82
I3
ssg83
g3055
sg76
(lp3062
g1138
asbasbasbag69
(g85
g71
NtRp3063
(dp3064
g74
(dp3065
sg83
g2765
sg76
(lp3066
g69
(g90
g71
NtRp3067
(dp3068
g74
(dp3069
g94
g95
ssg83
g3063
sg76
(lp3070
S'HTTP_USER_AGENT'
p3071
asbag69
(g90
g71
NtRp3072
(dp3073
g74
(dp3074
g101
g102
ssg83
g3063
sg76
(lp3075
S':'
asbag69
(g90
g71
NtRp3076
(dp3077
g74
(dp3078
sg83
g3063
sg76
(lp3079
g69
(g70
g71
NtRp3080
(dp3081
g74
(dp3082
g82
I3
ssg83
g3076
sg76
(lp3083
g1160
asbasbasbag69
(g85
g71
NtRp3084
(dp3085
g74
(dp3086
sg83
g2765
sg76
(lp3087
g69
(g90
g71
NtRp3088
(dp3089
g74
(dp3090
g94
g95
ssg83
g3084
sg76
(lp3091
S'PATH_INFO'
p3092
asbag69
(g90
g71
NtRp3093
(dp3094
g74
(dp3095
g101
g102
ssg83
g3084
sg76
(lp3096
S':'
asbag69
(g90
g71
NtRp3097
(dp3098
g74
(dp3099
sg83
g3084
sg76
(lp3100
g69
(g70
g71
NtRp3101
(dp3102
g74
(dp3103
g82
I3
ssg83
g3097
sg76
(lp3104
g1301
asbasbasbag69
(g85
g71
NtRp3105
(dp3106
g74
(dp3107
sg83
g2765
sg76
(lp3108
g69
(g90
g71
NtRp3109
(dp3110
g74
(dp3111
g94
g95
ssg83
g3105
sg76
(lp3112
S'QUERY_STRING'
p3113
asbag69
(g90
g71
NtRp3114
(dp3115
g74
(dp3116
g101
g102
ssg83
g3105
sg76
(lp3117
S':'
asbag69
(g90
g71
NtRp3118
(dp3119
g74
(dp3120
sg83
g3105
sg76
(lp3121
g69
(g70
g71
NtRp3122
(dp3123
g74
(dp3124
g82
I3
ssg83
g3118
sg76
(lp3125
g1323
asbasbasbag69
(g85
g71
NtRp3126
(dp3127
g74
(dp3128
sg83
g2765
sg76
(lp3129
g69
(g90
g71
NtRp3130
(dp3131
g74
(dp3132
g94
g95
ssg83
g3126
sg76
(lp3133
S'REMOTE_ADDR'
p3134
asbag69
(g90
g71
NtRp3135
(dp3136
g74
(dp3137
g101
g102
ssg83
g3126
sg76
(lp3138
S':'
asbag69
(g90
g71
NtRp3139
(dp3140
g74
(dp3141
sg83
g3126
sg76
(lp3142
g69
(g70
g71
NtRp3143
(dp3144
g74
(dp3145
g82
I3
ssg83
g3139
sg76
(lp3146
g224
asbasbasbag69
(g85
g71
NtRp3147
(dp3148
g74
(dp3149
sg83
g2765
sg76
(lp3150
g69
(g90
g71
NtRp3151
(dp3152
g74
(dp3153
g94
g95
ssg83
g3147
sg76
(lp3154
S'REMOTE_PORT'
p3155
asbag69
(g90
g71
NtRp3156
(dp3157
g74
(dp3158
g101
g102
ssg83
g3147
sg76
(lp3159
S':'
asbag69
(g90
g71
NtRp3160
(dp3161
g74
(dp3162
sg83
g3147
sg76
(lp3163
g69
(g70
g71
NtRp3164
(dp3165
g74
(dp3166
g82
I3
ssg83
g3160
sg76
(lp3167
g1366
asbasbasbag69
(g85
g71
NtRp3168
(dp3169
g74
(dp3170
sg83
g2765
sg76
(lp3171
g69
(g90
g71
NtRp3172
(dp3173
g74
(dp3174
g94
g95
ssg83
g3168
sg76
(lp3175
S'REQUEST_METHOD'
p3176
asbag69
(g90
g71
NtRp3177
(dp3178
g74
(dp3179
g101
g102
ssg83
g3168
sg76
(lp3180
S':'
asbag69
(g90
g71
NtRp3181
(dp3182
g74
(dp3183
sg83
g3168
sg76
(lp3184
g69
(g70
g71
NtRp3185
(dp3186
g74
(dp3187
g82
I3
ssg83
g3181
sg76
(lp3188
g1388
asbasbasbag69
(g85
g71
NtRp3189
(dp3190
g74
(dp3191
sg83
g2765
sg76
(lp3192
g69
(g90
g71
NtRp3193
(dp3194
g74
(dp3195
g94
g95
ssg83
g3189
sg76
(lp3196
S'REQUEST_URI'
p3197
asbag69
(g90
g71
NtRp3198
(dp3199
g74
(dp3200
g101
g102
ssg83
g3189
sg76
(lp3201
S':'
asbag69
(g90
g71
NtRp3202
(dp3203
g74
(dp3204
sg83
g3189
sg76
(lp3205
g69
(g70
g71
NtRp3206
(dp3207
g74
(dp3208
g82
I3
ssg83
g3202
sg76
(lp3209
g1410
asbasbasbag69
(g85
g71
NtRp3210
(dp3211
g74
(dp3212
sg83
g2765
sg76
(lp3213
g69
(g90
g71
NtRp3214
(dp3215
g74
(dp3216
g94
g95
ssg83
g3210
sg76
(lp3217
S'SCRIPT_NAME'
p3218
asbag69
(g90
g71
NtRp3219
(dp3220
g74
(dp3221
g101
g102
ssg83
g3210
sg76
(lp3222
S':'
asbag69
(g90
g71
NtRp3223
(dp3224
g74
(dp3225
sg83
g3210
sg76
(lp3226
g69
(g70
g71
NtRp3227
(dp3228
g74
(dp3229
g82
I3
ssg83
g3223
sg76
(lp3230
S''
asbasbasbag69
(g85
g71
NtRp3231
(dp3232
g74
(dp3233
sg83
g2765
sg76
(lp3234
g69
(g90
g71
NtRp3235
(dp3236
g74
(dp3237
g94
g95
ssg83
g3231
sg76
(lp3238
S'SERVER_NAME'
p3239
asbag69
(g90
g71
NtRp3240
(dp3241
g74
(dp3242
g101
g102
ssg83
g3231
sg76
(lp3243
S':'
asbag69
(g90
g71
NtRp3244
(dp3245
g74
(dp3246
sg83
g3231
sg76
(lp3247
g69
(g70
g71
NtRp3248
(dp3249
g74
(dp3250
g82
I3
ssg83
g3244
sg76
(lp3251
g1453
asbasbasbag69
(g85
g71
NtRp3252
(dp3253
g74
(dp3254
sg83
g2765
sg76
(lp3255
g69
(g90
g71
NtRp3256
(dp3257
g74
(dp3258
g94
g95
ssg83
g3252
sg76
(lp3259
S'SERVER_PORT'
p3260
asbag69
(g90
g71
NtRp3261
(dp3262
g74
(dp3263
g101
g102
ssg83
g3252
sg76
(lp3264
S':'
asbag69
(g90
g71
NtRp3265
(dp3266
g74
(dp3267
sg83
g3252
sg76
(lp3268
g69
(g70
g71
NtRp3269
(dp3270
g74
(dp3271
g82
I3
ssg83
g3265
sg76
(lp3272
g1475
asbasbasbag69
(g85
g71
NtRp3273
(dp3274
g74
(dp3275
sg83
g2765
sg76
(lp3276
g69
(g90
g71
NtRp3277
(dp3278
g74
(dp3279
g94
g95
ssg83
g3273
sg76
(lp3280
S'SERVER_PROTOCOL'
p3281
asbag69
(g90
g71
NtRp3282
(dp3283
g74
(dp3284
g101
g102
ssg83
g3273
sg76
(lp3285
S':'
asbag69
(g90
g71
NtRp3286
(dp3287
g74
(dp3288
sg83
g3273
sg76
(lp3289
g69
(g70
g71
NtRp3290
(dp3291
g74
(dp3292
g82
I3
ssg83
g3286
sg76
(lp3293
g1497
asbasbasbag69
(g85
g71
NtRp3294
(dp3295
g74
(dp3296
sg83
g2765
sg76
(lp3297
g69
(g90
g71
NtRp3298
(dp3299
g74
(dp3300
g94
g95
ssg83
g3294
sg76
(lp3301
S'SERVER_SOFTWARE'
p3302
asbag69
(g90
g71
NtRp3303
(dp3304
g74
(dp3305
g101
g102
ssg83
g3294
sg76
(lp3306
S':'
asbag69
(g90
g71
NtRp3307
(dp3308
g74
(dp3309
sg83
g3294
sg76
(lp3310
g69
(g70
g71
NtRp3311
(dp3312
g74
(dp3313
g82
I3
ssg83
g3307
sg76
(lp3314
g1519
asbasbasbag69
(g85
g71
NtRp3315
(dp3316
g74
(dp3317
sg83
g2765
sg76
(lp3318
g69
(g90
g71
NtRp3319
(dp3320
g74
(dp3321
g94
g95
ssg83
g3315
sg76
(lp3322
S'WEB2PY_ORIGINAL_URI'
p3323
asbag69
(g90
g71
NtRp3324
(dp3325
g74
(dp3326
g101
g102
ssg83
g3315
sg76
(lp3327
S':'
asbag69
(g90
g71
NtRp3328
(dp3329
g74
(dp3330
sg83
g3315
sg76
(lp3331
g69
(g70
g71
NtRp3332
(dp3333
g74
(dp3334
g82
I3
ssg83
g3328
sg76
(lp3335
g1541
asbasbasbag69
(g85
g71
NtRp3336
(dp3337
g74
(dp3338
sg83
g2765
sg76
(lp3339
g69
(g90
g71
NtRp3340
(dp3341
g74
(dp3342
g94
g95
ssg83
g3336
sg76
(lp3343
S'wsgi.errors'
p3344
asbag69
(g90
g71
NtRp3345
(dp3346
g74
(dp3347
g101
g102
ssg83
g3336
sg76
(lp3348
S':'
asbag69
(g90
g71
NtRp3349
(dp3350
g74
(dp3351
sg83
g3336
sg76
(lp3352
g69
(g70
g71
NtRp3353
(dp3354
g74
(dp3355
g82
I3
ssg83
g3349
sg76
(lp3356
S"<open file '<stderr>', mode 'w' at 0x7f635a603270>"
p3357
asbasbasbag69
(g85
g71
NtRp3358
(dp3359
g74
(dp3360
sg83
g2765
sg76
(lp3361
g69
(g90
g71
NtRp3362
(dp3363
g74
(dp3364
g94
g95
ssg83
g3358
sg76
(lp3365
S'wsgi.file_wrapper'
p3366
asbag69
(g90
g71
NtRp3367
(dp3368
g74
(dp3369
g101
g102
ssg83
g3358
sg76
(lp3370
S':'
asbag69
(g90
g71
NtRp3371
(dp3372
g74
(dp3373
sg83
g3358
sg76
(lp3374
g69
(g70
g71
NtRp3375
(dp3376
g74
(dp3377
g82
I3
ssg83
g3371
sg76
(lp3378
S'<class wsgiref.util.FileWrapper at 0x2bb2598>'
p3379
asbasbasbag69
(g85
g71
NtRp3380
(dp3381
g74
(dp3382
sg83
g2765
sg76
(lp3383
g69
(g90
g71
NtRp3384
(dp3385
g74
(dp3386
g94
g95
ssg83
g3380
sg76
(lp3387
S'wsgi.input'
p3388
asbag69
(g90
g71
NtRp3389
(dp3390
g74
(dp3391
g101
g102
ssg83
g3380
sg76
(lp3392
S':'
asbag69
(g90
g71
NtRp3393
(dp3394
g74
(dp3395
sg83
g3380
sg76
(lp3396
g69
(g70
g71
NtRp3397
(dp3398
g74
(dp3399
g82
I3
ssg83
g3393
sg76
(lp3400
S"<open file '<fdopen>', mode 'w+b' at 0x7f634c86e030>"
p3401
asbasbasbag69
(g85
g71
NtRp3402
(dp3403
g74
(dp3404
sg83
g2765
sg76
(lp3405
g69
(g90
g71
NtRp3406
(dp3407
g74
(dp3408
g94
g95
ssg83
g3402
sg76
(lp3409
S'wsgi.multiprocess'
p3410
asbag69
(g90
g71
NtRp3411
(dp3412
g74
(dp3413
g101
g102
ssg83
g3402
sg76
(lp3414
S':'
asbag69
(g90
g71
NtRp3415
(dp3416
g74
(dp3417
sg83
g3402
sg76
(lp3418
g69
(g70
g71
NtRp3419
(dp3420
g74
(dp3421
g82
I3
ssg83
g3415
sg76
(lp3422
g112
asbasbasbag69
(g85
g71
NtRp3423
(dp3424
g74
(dp3425
sg83
g2765
sg76
(lp3426
g69
(g90
g71
NtRp3427
(dp3428
g74
(dp3429
g94
g95
ssg83
g3423
sg76
(lp3430
S'wsgi.multithread'
p3431
asbag69
(g90
g71
NtRp3432
(dp3433
g74
(dp3434
g101
g102
ssg83
g3423
sg76
(lp3435
S':'
asbag69
(g90
g71
NtRp3436
(dp3437
g74
(dp3438
sg83
g3423
sg76
(lp3439
g69
(g70
g71
NtRp3440
(dp3441
g74
(dp3442
g82
I3
ssg83
g3436
sg76
(lp3443
g1758
asbasbasbag69
(g85
g71
NtRp3444
(dp3445
g74
(dp3446
sg83
g2765
sg76
(lp3447
g69
(g90
g71
NtRp3448
(dp3449
g74
(dp3450
g94
g95
ssg83
g3444
sg76
(lp3451
S'wsgi.run_once'
p3452
asbag69
(g90
g71
NtRp3453
(dp3454
g74
(dp3455
g101
g102
ssg83
g3444
sg76
(lp3456
S':'
asbag69
(g90
g71
NtRp3457
(dp3458
g74
(dp3459
sg83
g3444
sg76
(lp3460
g69
(g70
g71
NtRp3461
(dp3462
g74
(dp3463
g82
I3
ssg83
g3457
sg76
(lp3464
g112
asbasbasbag69
(g85
g71
NtRp3465
(dp3466
g74
(dp3467
sg83
g2765
sg76
(lp3468
g69
(g90
g71
NtRp3469
(dp3470
g74
(dp3471
g94
g95
ssg83
g3465
sg76
(lp3472
S'wsgi.url_scheme'
p3473
asbag69
(g90
g71
NtRp3474
(dp3475
g74
(dp3476
g101
g102
ssg83
g3465
sg76
(lp3477
S':'
asbag69
(g90
g71
NtRp3478
(dp3479
g74
(dp3480
sg83
g3465
sg76
(lp3481
g69
(g70
g71
NtRp3482
(dp3483
g74
(dp3484
g82
I3
ssg83
g3478
sg76
(lp3485
g1801
asbasbasbag69
(g85
g71
NtRp3486
(dp3487
g74
(dp3488
sg83
g2765
sg76
(lp3489
g69
(g90
g71
NtRp3490
(dp3491
g74
(dp3492
g94
g95
ssg83
g3486
sg76
(lp3493
S'wsgi.version'
p3494
asbag69
(g90
g71
NtRp3495
(dp3496
g74
(dp3497
g101
g102
ssg83
g3486
sg76
(lp3498
S':'
asbag69
(g90
g71
NtRp3499
(dp3500
g74
(dp3501
sg83
g3486
sg76
(lp3502
g69
(g70
g71
NtRp3503
(dp3504
g74
(dp3505
g82
I3
ssg83
g3499
sg76
(lp3506
S'1'
asbasbasbasbasbasbasbasbasbasbasbasbasbsS'frames'
p3507
(lp3508
(dp3509
S'file'
p3510
S'/var/www/conferencia/gluon/restricted.py'
p3511
sS'dump'
p3512
(dp3513
S'environment'
p3514
S"{'A': <class 'gluon.html.A'>, 'Auth': <class 'gluon.tools.Auth'>, 'B': <class 'gluon.html.B'>, 'BEAUTIFY': <class 'gluon.html.BEAUTIFY'>, 'BODY': <class 'gluon.html.BODY'>, 'BR': <class 'gluon.html.BR'>, 'BUTTON': <class 'gluon.html.BUTTON'>, 'CAT': <class 'gluon.html.CAT'>, 'CENTER': <class 'gluon.html.CENTER'>, 'CLEANUP': <class 'gluon.validators.CLEANUP'>, ...}"
p3515
sS'ccode'
p3516
S'<code object <module> at 0x7f6340995230, file "/...ications/projeto/controllers/initial.py", line 3>'
p3517
ssS'lnum'
p3518
I212
sS'lines'
p3519
(dp3520
I207
S'    try:'
p3521
sI208
S'        if isinstance(code, types.CodeType):'
p3522
sI209
S'            ccode = code'
p3523
sI210
S'        else:'
p3524
sI211
S'            ccode = compile2(code, layer)'
p3525
sI212
S'        exec ccode in environment'
p3526
sI213
S'    except HTTP:'
p3527
sI214
S'        raise'
p3528
sI215
S'    except RestrictedError:'
p3529
sI216
S'        # do not encapsulate (obfuscate) the original RestrictedError'
p3530
ssS'call'
p3531
S"(code='# coding: utf-8\\n\\ndef show_cliente():\\n\\tresponse.t...\\t\\t\\t)\\n\\nresponse._vars=response._caller(edit_host)\\n', environment={'A': <class 'gluon.html.A'>, 'Auth': <class 'gluon.tools.Auth'>, 'B': <class 'gluon.html.B'>, 'BEAUTIFY': <class 'gluon.html.BEAUTIFY'>, 'BODY': <class 'gluon.html.BODY'>, 'BR': <class 'gluon.html.BR'>, 'BUTTON': <class 'gluon.html.BUTTON'>, 'CAT': <class 'gluon.html.CAT'>, 'CENTER': <class 'gluon.html.CENTER'>, 'CLEANUP': <class 'gluon.validators.CLEANUP'>, ...}, layer='/var/www/conferencia/applications/projeto/controllers/initial.py')"
p3532
sS'func'
p3533
S'restricted'
p3534
sa(dp3535
g3510
S'/var/www/conferencia/applications/projeto/controllers/initial.py'
p3536
sg3512
(dp3537
sg3518
I324
sg3519
(dp3538
I320
S'\t\t\tsubject="host adicionado",'
p3539
sI321
S'\t\t\tmessage="<html>Um novo host foi adicionado pelo usu\xc3\xa1rio %s <br>nome: %s <br>vpn: %s<br><br>\xc3\x89 preciso fazer a instala\xc3\xa7\xc3\xa3o do client zabbix e bacula</html>" % (auth.user.first_name, host.nome, host.ip_chegada,)'
p3540
sI322
S'\t\t\t)'
p3541
sI313
S'\t\t\tto="fndiaz02@gmail.com",'
p3542
sI314
S'\t\t\tsubject="host adicionado",'
p3543
sI315
S'\t\t\tmessage="<html>Um novo host foi adicionado pelo usu\xc3\xa1rio %s <br>nome: %s <br>vpn: %s<br><br>\xc3\x89 preciso fazer a instala\xc3\xa7\xc3\xa3o do client zabbix e bacula</html>" % (auth.user.first_name, host.nome, host.ip_chegada,)'
p3544
sI316
S'\t\t\t)'
p3545
sI317
S"\telif auth.has_membership('internet'):"
p3546
sI318
S'\t\tmail.send('
p3547
sI319
S'\t\t\tto="fernando@ad2.com.br",'
p3548
ssg3531
S'()'
p3549
sg3533
S'<module>'
p3550
sa(dp3551
g3510
S'/var/www/conferencia/gluon/globals.py'
p3552
sg3512
(dp3553
S'self'
p3554
S'undefined'
p3555
sS'f'
S'<function edit_host>'
p3556
ssg3518
I193
sg3519
(dp3557
I192
S'        self._vars = None'
p3558
sI193
S'        self._caller = lambda f: f()'
p3559
sI194
S'        self._view_environment = None'
p3560
sI195
S'        self._custom_commit = None'
p3561
sI196
S'        self._custom_rollback = None'
p3562
sI197
S''
sI188
S'        self.menu = []             # used by the default view layout'
p3563
sI189
S'        self.files = []            # used by web2py_ajax.html'
p3564
sI190
S'        self.generic_patterns = []  # patterns to allow generic views'
p3565
sI191
S"        self.delimiters = ('{{', '}}')"
p3566
ssg3531
S'(f=<function edit_host>)'
p3567
sg3533
S'<lambda>'
p3568
sa(dp3569
g3510
S'/var/www/conferencia/applications/projeto/controllers/initial.py'
p3570
sg3512
(dp3571
S'form.process'
p3572
S'<bound method SQLFORM.process of <gluon.sqlhtml.SQLFORM object>>'
p3573
sS').accepted'
p3574
g3555
sS'form'
p3575
S'<gluon.sqlhtml.SQLFORM object>'
p3576
ssg3518
I219
sg3519
(dp3577
I214
S''
sI215
S''
sI216
S'def edit_host():'
p3578
sI217
S"    form = SQLFORM(db.meetme, request.vars['f'], submit_button='Editar')"
p3579
sI218
S''
sI219
S'    if form.process().accepted:'
p3580
sI220
S"       response.flash = 'Editado com sucesso'"
p3581
sI221
S'    elif form.errors:'
p3582
sI222
S"       response.flash = 'Ops, algo n\xc3\xa3o est\xc3\xa1 correto'"
p3583
sI223
S'    else:'
p3584
ssg3531
S'()'
p3585
sg3533
S'edit_host'
p3586
sa(dp3587
g3510
S'/var/www/conferencia/gluon/html.py'
p3588
sg3512
(dp3589
S'self'
p3590
S'<gluon.sqlhtml.SQLFORM object>'
p3591
sS'self.validate'
p3592
S'<bound method SQLFORM.validate of <gluon.sqlhtml.SQLFORM object>>'
p3593
sS'kwargs'
p3594
S"{'dbio': True}"
p3595
ssg3518
I2179
sg3519
(dp3596
I2176
S'        """'
p3597
sI2177
S"        kwargs['dbio'] = kwargs.get('dbio', True)"
p3598
sI2178
S'                                    # necessary for SQLHTML forms'
p3599
sI2179
S'        self.validate(**kwargs)'
p3600
sI2180
S'        return self'
p3601
sI2181
S''
sI2182
S'    REDIRECT_JS = "window.location=\'%s\';return false"'
p3602
sI2183
S''
sI2174
S'        def action():'
p3603
sI2175
S'            return dict(form=SQLFORM(db.table).process(onsuccess=my_callback)'
p3604
ssg3531
S"(self=<gluon.sqlhtml.SQLFORM object>, **kwargs={'dbio': True})"
p3605
sg3533
S'process'
p3606
sa(dp3607
g3510
S'/var/www/conferencia/gluon/html.py'
p3608
sg3512
(dp3609
S'self'
p3610
S'<gluon.sqlhtml.SQLFORM object>'
p3611
sS'self.accepts'
p3612
S'<bound method SQLFORM.accepts of <gluon.sqlhtml.SQLFORM object>>'
p3613
sS'kwargs'
p3614
S"{'dbio': True, 'request_vars': <Storage {'admin_user': '2', 'starttime': '2013-...013-04-11 12:26:40', '_formname': 'meetme/1013'}>, 'session': <Storage {'_formkey[web2py_grid]': '4cee548e-106... {'version': '22.0.1229.94', 'name': 'Chrome'}}}>}"
p3615
ssg3518
I2118
sg3519
(dp3616
I2113
S"        for key in ('message_onsuccess', 'message_onfailure', 'onsuccess',"
p3617
sI2114
S"                    'onfailure', 'next', 'message_onchange', 'onchange'):"
p3618
sI2115
S'            if key in kwargs:'
p3619
sI2116
S'                del kwargs[key]'
p3620
sI2117
S''
sI2118
S'        if self.accepts(**kwargs):'
p3621
sI2119
S"            if onsuccess == 'flash':"
p3622
sI2120
S'                if next:'
p3623
sI2121
S'                    current.session.flash = message_onsuccess'
p3624
sI2122
S'                else:'
p3625
ssg3531
S"(self=<gluon.sqlhtml.SQLFORM object>, **kwargs={'dbio': True, 'request_vars': <Storage {'admin_user': '2', 'starttime': '2013-...013-04-11 12:26:40', '_formname': 'meetme/1013'}>, 'session': <Storage {'_formkey[web2py_grid]': '4cee548e-106... {'version': '22.0.1229.94', 'name': 'Chrome'}}}>})"
p3626
sg3533
S'validate'
p3627
sa(dp3628
g3510
S'/var/www/conferencia/gluon/sqlhtml.py'
p3629
sg3512
(dp3630
S'record_id'
p3631
S"{'confno': None}"
p3632
sS'self'
p3633
S'<gluon.sqlhtml.SQLFORM object>'
p3634
sS'self.record_id'
p3635
S"'1013'"
p3636
ssg3518
I1343
sg3519
(dp3637
I1344
S''
sI1345
S'        if record_id and dbio and not keyed:'
p3638
sI1346
S'            self.vars.id = self.record[self.id_field_name]'
p3639
sI1347
S''
sI1338
S'            self.accepted = ret'
p3640
sI1339
S'            return ret'
p3641
sI1340
S''
sI1341
S'        if record_id and str(record_id) != str(self.record_id):'
p3642
sI1342
S"            raise SyntaxError('user is tampering with form\\'s record_id: '"
p3643
sI1343
S"                              '%s != %s' % (record_id, self.record_id))"
p3644
ssg3531
S"(self=<gluon.sqlhtml.SQLFORM object>, request_vars=<Storage {'admin_user': '2', 'starttime': '2013-...013-04-11 12:26:40', '_formname': 'meetme/1013'}>, session=<Storage {'_formkey[web2py_grid]': '4cee548e-106... {'version': '22.0.1229.94', 'name': 'Chrome'}}}>, formname='meetme/1013', keepvalues=True, onvalidation=None, dbio=True, hideerror=False, detect_record_change=False, **kwargs={})"
p3645
sg3533
S'accepts'
p3646
sasS'pyver'
p3647
S'Python 2.7.3: /usr/bin/python'
p3648
sS'session'
p3649
g69
(g70
g71
NtRp3650
(dp3651
g74
(dp3652
sg76
(lp3653
g69
(g78
g71
NtRp3654
(dp3655
g74
(dp3656
g82
I5
ssg83
Nsg76
(lp3657
sbasbsS'etype'
p3658
S"<type 'exceptions.SyntaxError'>"
p3659
sS'date'
p3660
S'Wed Apr  3 14:55:14 2013'
p3661
sS'response'
p3662
g69
(g70
g71
NtRp3663
(dp3664
g74
(dp3665
sg76
(lp3666
g69
(g78
g71
NtRp3667
(dp3668
g74
(dp3669
g82
I5
ssg83
Nsg76
(lp3670
g69
(g85
g71
NtRp3671
(dp3672
g74
(dp3673
sg83
g3667
sg76
(lp3674
g69
(g90
g71
NtRp3675
(dp3676
g74
(dp3677
g94
g95
ssg83
g3671
sg76
(lp3678
g167
asbag69
(g90
g71
NtRp3679
(dp3680
g74
(dp3681
g101
g102
ssg83
g3671
sg76
(lp3682
S':'
asbag69
(g90
g71
NtRp3683
(dp3684
g74
(dp3685
sg83
g3671
sg76
(lp3686
g69
(g70
g71
NtRp3687
(dp3688
g74
(dp3689
g82
I5
ssg83
g3683
sg76
(lp3690
S'<cStringIO.StringO object at 0x7f6340cb2d50>'
p3691
asbasbasbag69
(g85
g71
NtRp3692
(dp3693
g74
(dp3694
sg83
g3667
sg76
(lp3695
g69
(g90
g71
NtRp3696
(dp3697
g74
(dp3698
g94
g95
ssg83
g3692
sg76
(lp3699
g255
asbag69
(g90
g71
NtRp3700
(dp3701
g74
(dp3702
g101
g102
ssg83
g3692
sg76
(lp3703
S':'
asbag69
(g90
g71
NtRp3704
(dp3705
g74
(dp3706
sg83
g3692
sg76
(lp3707
g69
(g70
g71
NtRp3708
(dp3709
g74
(dp3710
g82
I5
ssg83
g3704
sg76
(lp3711
g69
(g78
g71
NtRp3712
(dp3713
g74
(dp3714
g82
I4
ssg83
Nsg76
(lp3715
g69
(g85
g71
NtRp3716
(dp3717
g74
(dp3718
sg83
g3712
sg76
(lp3719
g69
(g90
g71
NtRp3720
(dp3721
g74
(dp3722
g94
g95
ssg83
g3716
sg76
(lp3723
S'session_id_projeto'
p3724
asbag69
(g90
g71
NtRp3725
(dp3726
g74
(dp3727
g101
g102
ssg83
g3716
sg76
(lp3728
S':'
asbag69
(g90
g71
NtRp3729
(dp3730
g74
(dp3731
sg83
g3716
sg76
(lp3732
g69
(g70
g71
NtRp3733
(dp3734
g74
(dp3735
g82
I4
ssg83
g3729
sg76
(lp3736
g487
ag69
(g78
g71
NtRp3737
(dp3738
g74
(dp3739
g82
I3
ssg83
Nsg76
(lp3740
g69
(g85
g71
NtRp3741
(dp3742
g74
(dp3743
sg83
g3737
sg76
(lp3744
g69
(g90
g71
NtRp3745
(dp3746
g74
(dp3747
g94
g95
ssg83
g3741
sg76
(lp3748
g306
asbag69
(g90
g71
NtRp3749
(dp3750
g74
(dp3751
g101
g102
ssg83
g3741
sg76
(lp3752
S':'
asbag69
(g90
g71
NtRp3753
(dp3754
g74
(dp3755
sg83
g3741
sg76
(lp3756
g69
(g70
g71
NtRp3757
(dp3758
g74
(dp3759
g82
I3
ssg83
g3753
sg76
(lp3760
S''
asbasbasbag69
(g85
g71
NtRp3761
(dp3762
g74
(dp3763
sg83
g3737
sg76
(lp3764
g69
(g90
g71
NtRp3765
(dp3766
g74
(dp3767
g94
g95
ssg83
g3761
sg76
(lp3768
g327
asbag69
(g90
g71
NtRp3769
(dp3770
g74
(dp3771
g101
g102
ssg83
g3761
sg76
(lp3772
S':'
asbag69
(g90
g71
NtRp3773
(dp3774
g74
(dp3775
sg83
g3761
sg76
(lp3776
g69
(g70
g71
NtRp3777
(dp3778
g74
(dp3779
g82
I3
ssg83
g3773
sg76
(lp3780
S''
asbasbasbag69
(g85
g71
NtRp3781
(dp3782
g74
(dp3783
sg83
g3737
sg76
(lp3784
g69
(g90
g71
NtRp3785
(dp3786
g74
(dp3787
g94
g95
ssg83
g3781
sg76
(lp3788
g348
asbag69
(g90
g71
NtRp3789
(dp3790
g74
(dp3791
g101
g102
ssg83
g3781
sg76
(lp3792
S':'
asbag69
(g90
g71
NtRp3793
(dp3794
g74
(dp3795
sg83
g3781
sg76
(lp3796
g69
(g70
g71
NtRp3797
(dp3798
g74
(dp3799
g82
I3
ssg83
g3793
sg76
(lp3800
S''
asbasbasbag69
(g85
g71
NtRp3801
(dp3802
g74
(dp3803
sg83
g3737
sg76
(lp3804
g69
(g90
g71
NtRp3805
(dp3806
g74
(dp3807
g94
g95
ssg83
g3801
sg76
(lp3808
g369
asbag69
(g90
g71
NtRp3809
(dp3810
g74
(dp3811
g101
g102
ssg83
g3801
sg76
(lp3812
S':'
asbag69
(g90
g71
NtRp3813
(dp3814
g74
(dp3815
sg83
g3801
sg76
(lp3816
g69
(g70
g71
NtRp3817
(dp3818
g74
(dp3819
g82
I3
ssg83
g3813
sg76
(lp3820
S''
asbasbasbag69
(g85
g71
NtRp3821
(dp3822
g74
(dp3823
sg83
g3737
sg76
(lp3824
g69
(g90
g71
NtRp3825
(dp3826
g74
(dp3827
g94
g95
ssg83
g3821
sg76
(lp3828
g390
asbag69
(g90
g71
NtRp3829
(dp3830
g74
(dp3831
g101
g102
ssg83
g3821
sg76
(lp3832
S':'
asbag69
(g90
g71
NtRp3833
(dp3834
g74
(dp3835
sg83
g3821
sg76
(lp3836
g69
(g70
g71
NtRp3837
(dp3838
g74
(dp3839
g82
I3
ssg83
g3833
sg76
(lp3840
S''
asbasbasbag69
(g85
g71
NtRp3841
(dp3842
g74
(dp3843
sg83
g3737
sg76
(lp3844
g69
(g90
g71
NtRp3845
(dp3846
g74
(dp3847
g94
g95
ssg83
g3841
sg76
(lp3848
g411
asbag69
(g90
g71
NtRp3849
(dp3850
g74
(dp3851
g101
g102
ssg83
g3841
sg76
(lp3852
S':'
asbag69
(g90
g71
NtRp3853
(dp3854
g74
(dp3855
sg83
g3841
sg76
(lp3856
g69
(g70
g71
NtRp3857
(dp3858
g74
(dp3859
g82
I3
ssg83
g3853
sg76
(lp3860
S'/'
asbasbasbag69
(g85
g71
NtRp3861
(dp3862
g74
(dp3863
sg83
g3737
sg76
(lp3864
g69
(g90
g71
NtRp3865
(dp3866
g74
(dp3867
g94
g95
ssg83
g3861
sg76
(lp3868
g432
asbag69
(g90
g71
NtRp3869
(dp3870
g74
(dp3871
g101
g102
ssg83
g3861
sg76
(lp3872
S':'
asbag69
(g90
g71
NtRp3873
(dp3874
g74
(dp3875
sg83
g3861
sg76
(lp3876
g69
(g70
g71
NtRp3877
(dp3878
g74
(dp3879
g82
I3
ssg83
g3873
sg76
(lp3880
S''
asbasbasbag69
(g85
g71
NtRp3881
(dp3882
g74
(dp3883
sg83
g3737
sg76
(lp3884
g69
(g90
g71
NtRp3885
(dp3886
g74
(dp3887
g94
g95
ssg83
g3881
sg76
(lp3888
g453
asbag69
(g90
g71
NtRp3889
(dp3890
g74
(dp3891
g101
g102
ssg83
g3881
sg76
(lp3892
S':'
asbag69
(g90
g71
NtRp3893
(dp3894
g74
(dp3895
sg83
g3881
sg76
(lp3896
g69
(g70
g71
NtRp3897
(dp3898
g74
(dp3899
g82
I3
ssg83
g3893
sg76
(lp3900
S''
asbasbasbasbasbasbasbasbasbasbasbag69
(g85
g71
NtRp3901
(dp3902
g74
(dp3903
sg83
g3667
sg76
(lp3904
g69
(g90
g71
NtRp3905
(dp3906
g74
(dp3907
g94
g95
ssg83
g3901
sg76
(lp3908
S'delimiters'
p3909
asbag69
(g90
g71
NtRp3910
(dp3911
g74
(dp3912
g101
g102
ssg83
g3901
sg76
(lp3913
S':'
asbag69
(g90
g71
NtRp3914
(dp3915
g74
(dp3916
sg83
g3901
sg76
(lp3917
g69
(g70
g71
NtRp3918
(dp3919
g74
(dp3920
g82
I5
ssg83
g3914
sg76
(lp3921
g69
(g78
g71
NtRp3922
(dp3923
g74
(dp3924
g82
I4
ssg83
Nsg76
(lp3925
g69
(g85
g71
NtRp3926
(dp3927
g74
(dp3928
sg83
g3922
sg76
(lp3929
g69
(g90
g71
NtRp3930
(dp3931
g74
(dp3932
sg83
g3926
sg76
(lp3933
g69
(g70
g71
NtRp3934
(dp3935
g74
(dp3936
g82
I4
ssg83
g3930
sg76
(lp3937
S'{{'
p3938
asbasbasbag69
(g85
g71
NtRp3939
(dp3940
g74
(dp3941
sg83
g3922
sg76
(lp3942
g69
(g90
g71
NtRp3943
(dp3944
g74
(dp3945
sg83
g3939
sg76
(lp3946
g69
(g70
g71
NtRp3947
(dp3948
g74
(dp3949
g82
I4
ssg83
g3943
sg76
(lp3950
S'}}'
p3951
asbasbasbasbasbasbasbag69
(g85
g71
NtRp3952
(dp3953
g74
(dp3954
sg83
g3667
sg76
(lp3955
g69
(g90
g71
NtRp3956
(dp3957
g74
(dp3958
g94
g95
ssg83
g3952
sg76
(lp3959
S'files'
p3960
asbag69
(g90
g71
NtRp3961
(dp3962
g74
(dp3963
g101
g102
ssg83
g3952
sg76
(lp3964
S':'
asbag69
(g90
g71
NtRp3965
(dp3966
g74
(dp3967
sg83
g3952
sg76
(lp3968
g69
(g70
g71
NtRp3969
(dp3970
g74
(dp3971
g82
I5
ssg83
g3965
sg76
(lp3972
g69
(g78
g71
NtRp3973
(dp3974
g74
(dp3975
g82
I4
ssg83
Nsg76
(lp3976
sbasbasbasbag69
(g85
g71
NtRp3977
(dp3978
g74
(dp3979
sg83
g3667
sg76
(lp3980
g69
(g90
g71
NtRp3981
(dp3982
g74
(dp3983
g94
g95
ssg83
g3977
sg76
(lp3984
S'flash'
p3985
asbag69
(g90
g71
NtRp3986
(dp3987
g74
(dp3988
g101
g102
ssg83
g3977
sg76
(lp3989
S':'
asbag69
(g90
g71
NtRp3990
(dp3991
g74
(dp3992
sg83
g3977
sg76
(lp3993
g69
(g70
g71
NtRp3994
(dp3995
g74
(dp3996
g82
I5
ssg83
g3990
sg76
(lp3997
S''
asbasbasbag69
(g85
g71
NtRp3998
(dp3999
g74
(dp4000
sg83
g3667
sg76
(lp4001
g69
(g90
g71
NtRp4002
(dp4003
g74
(dp4004
g94
g95
ssg83
g3998
sg76
(lp4005
S'generic_patterns'
p4006
asbag69
(g90
g71
NtRp4007
(dp4008
g74
(dp4009
g101
g102
ssg83
g3998
sg76
(lp4010
S':'
asbag69
(g90
g71
NtRp4011
(dp4012
g74
(dp4013
sg83
g3998
sg76
(lp4014
g69
(g70
g71
NtRp4015
(dp4016
g74
(dp4017
g82
I5
ssg83
g4011
sg76
(lp4018
g69
(g78
g71
NtRp4019
(dp4020
g74
(dp4021
g82
I4
ssg83
Nsg76
(lp4022
g69
(g85
g71
NtRp4023
(dp4024
g74
(dp4025
sg83
g4019
sg76
(lp4026
g69
(g90
g71
NtRp4027
(dp4028
g74
(dp4029
sg83
g4023
sg76
(lp4030
g69
(g70
g71
NtRp4031
(dp4032
g74
(dp4033
g82
I4
ssg83
g4027
sg76
(lp4034
S'*'
asbasbasbasbasbasbasbag69
(g85
g71
NtRp4035
(dp4036
g74
(dp4037
sg83
g3667
sg76
(lp4038
g69
(g90
g71
NtRp4039
(dp4040
g74
(dp4041
g94
g95
ssg83
g4035
sg76
(lp4042
S'google_analytics_id'
p4043
asbag69
(g90
g71
NtRp4044
(dp4045
g74
(dp4046
g101
g102
ssg83
g4035
sg76
(lp4047
S':'
asbag69
(g90
g71
NtRp4048
(dp4049
g74
(dp4050
sg83
g4035
sg76
(lp4051
g69
(g70
g71
NtRp4052
(dp4053
g74
(dp4054
g82
I5
ssg83
g4048
sg76
(lp4055
S'None'
p4056
asbasbasbag69
(g85
g71
NtRp4057
(dp4058
g74
(dp4059
sg83
g3667
sg76
(lp4060
g69
(g90
g71
NtRp4061
(dp4062
g74
(dp4063
g94
g95
ssg83
g4057
sg76
(lp4064
S'headers'
p4065
asbag69
(g90
g71
NtRp4066
(dp4067
g74
(dp4068
g101
g102
ssg83
g4057
sg76
(lp4069
S':'
asbag69
(g90
g71
NtRp4070
(dp4071
g74
(dp4072
sg83
g4057
sg76
(lp4073
g69
(g70
g71
NtRp4074
(dp4075
g74
(dp4076
g82
I5
ssg83
g4070
sg76
(lp4077
g69
(g78
g71
NtRp4078
(dp4079
g74
(dp4080
g82
I4
ssg83
Nsg76
(lp4081
g69
(g85
g71
NtRp4082
(dp4083
g74
(dp4084
sg83
g4078
sg76
(lp4085
g69
(g90
g71
NtRp4086
(dp4087
g74
(dp4088
g94
g95
ssg83
g4082
sg76
(lp4089
S'X-Powered-By'
p4090
asbag69
(g90
g71
NtRp4091
(dp4092
g74
(dp4093
g101
g102
ssg83
g4082
sg76
(lp4094
S':'
asbag69
(g90
g71
NtRp4095
(dp4096
g74
(dp4097
sg83
g4082
sg76
(lp4098
g69
(g70
g71
NtRp4099
(dp4100
g74
(dp4101
g82
I4
ssg83
g4095
sg76
(lp4102
S'web2py'
p4103
asbasbasbasbasbasbasbag69
(g85
g71
NtRp4104
(dp4105
g74
(dp4106
sg83
g3667
sg76
(lp4107
g69
(g90
g71
NtRp4108
(dp4109
g74
(dp4110
g94
g95
ssg83
g4104
sg76
(lp4111
S'logo'
p4112
asbag69
(g90
g71
NtRp4113
(dp4114
g74
(dp4115
g101
g102
ssg83
g4104
sg76
(lp4116
S':'
asbag69
(g90
g71
NtRp4117
(dp4118
g74
(dp4119
sg83
g4104
sg76
(lp4120
g69
(g70
g71
NtRp4121
(dp4122
g74
(dp4123
g82
I5
ssg83
g4117
sg76
(lp4124
g69
(cgluon.html
A
p4125
g71
NtRp4126
(dp4127
g74
(dp4128
S'_class'
p4129
S'brand'
p4130
sS'_href'
p4131
S'principal'
p4132
ssg83
Nsg76
(lp4133
g69
(cgluon.html
B
p4134
g71
NtRp4135
(dp4136
g74
(dp4137
sg83
g4126
sg76
(lp4138
S'hosts'
p4139
ag69
(cgluon.html
SPAN
p4140
g71
NtRp4141
(dp4142
g74
(dp4143
sg83
g4135
sg76
(lp4144
S'3'
asbaS''
asbacgluon.html
XML_unpickle
p4145
(S's\r\x00\x00\x00&trade;&nbsp;'
tRp4146
asbasbasbasbag69
(g85
g71
NtRp4147
(dp4148
g74
(dp4149
sg83
g3667
sg76
(lp4150
g69
(g90
g71
NtRp4151
(dp4152
g74
(dp4153
g94
g95
ssg83
g4147
sg76
(lp4154
S'menu'
p4155
asbag69
(g90
g71
NtRp4156
(dp4157
g74
(dp4158
g101
g102
ssg83
g4147
sg76
(lp4159
S':'
asbag69
(g90
g71
NtRp4160
(dp4161
g74
(dp4162
sg83
g4147
sg76
(lp4163
g69
(g70
g71
NtRp4164
(dp4165
g74
(dp4166
g82
I5
ssg83
g4160
sg76
(lp4167
g69
(g78
g71
NtRp4168
(dp4169
g74
(dp4170
g82
I4
ssg83
Nsg76
(lp4171
g69
(g85
g71
NtRp4172
(dp4173
g74
(dp4174
sg83
g4168
sg76
(lp4175
g69
(g90
g71
NtRp4176
(dp4177
g74
(dp4178
sg83
g4172
sg76
(lp4179
g69
(g70
g71
NtRp4180
(dp4181
g74
(dp4182
g82
I4
ssg83
g4176
sg76
(lp4183
g69
(g78
g71
NtRp4184
(dp4185
g74
(dp4186
g82
I3
ssg83
Nsg76
(lp4187
g69
(g85
g71
NtRp4188
(dp4189
g74
(dp4190
sg83
g4184
sg76
(lp4191
g69
(g90
g71
NtRp4192
(dp4193
g74
(dp4194
sg83
g4188
sg76
(lp4195
g69
(g70
g71
NtRp4196
(dp4197
g74
(dp4198
g82
I3
ssg83
g4192
sg76
(lp4199
cgluon.languages
lazyT_unpickle
p4200
(S't\x08\x00\x00\x00Clientes'
tRp4201
asbasbasbag69
(g85
g71
NtRp4202
(dp4203
g74
(dp4204
sg83
g4184
sg76
(lp4205
g69
(g90
g71
NtRp4206
(dp4207
g74
(dp4208
sg83
g4202
sg76
(lp4209
g69
(g70
g71
NtRp4210
(dp4211
g74
(dp4212
g82
I3
ssg83
g4206
sg76
(lp4213
g112
asbasbasbag69
(g85
g71
NtRp4214
(dp4215
g74
(dp4216
sg83
g4184
sg76
(lp4217
g69
(g90
g71
NtRp4218
(dp4219
g74
(dp4220
sg83
g4214
sg76
(lp4221
g69
(g70
g71
NtRp4222
(dp4223
g74
(dp4224
g82
I3
ssg83
g4218
sg76
(lp4225
S'/show_cliente'
p4226
asbasbasbag69
(g85
g71
NtRp4227
(dp4228
g74
(dp4229
sg83
g4184
sg76
(lp4230
g69
(g90
g71
NtRp4231
(dp4232
g74
(dp4233
sg83
g4227
sg76
(lp4234
g69
(g70
g71
NtRp4235
(dp4236
g74
(dp4237
g82
I3
ssg83
g4231
sg76
(lp4238
g69
(g78
g71
NtRp4239
(dp4240
g74
(dp4241
g82
I2
ssg83
Nsg76
(lp4242
sbasbasbasbasbasbasbasbag69
(g85
g71
NtRp4243
(dp4244
g74
(dp4245
sg83
g4168
sg76
(lp4246
g69
(g90
g71
NtRp4247
(dp4248
g74
(dp4249
sg83
g4243
sg76
(lp4250
g69
(g70
g71
NtRp4251
(dp4252
g74
(dp4253
g82
I4
ssg83
g4247
sg76
(lp4254
g69
(g78
g71
NtRp4255
(dp4256
g74
(dp4257
g82
I3
ssg83
Nsg76
(lp4258
g69
(g85
g71
NtRp4259
(dp4260
g74
(dp4261
sg83
g4255
sg76
(lp4262
g69
(g90
g71
NtRp4263
(dp4264
g74
(dp4265
sg83
g4259
sg76
(lp4266
g69
(g70
g71
NtRp4267
(dp4268
g74
(dp4269
g82
I3
ssg83
g4263
sg76
(lp4270
g4200
(S't\n\x00\x00\x00Servidores'
tRp4271
asbasbasbag69
(g85
g71
NtRp4272
(dp4273
g74
(dp4274
sg83
g4255
sg76
(lp4275
g69
(g90
g71
NtRp4276
(dp4277
g74
(dp4278
sg83
g4272
sg76
(lp4279
g69
(g70
g71
NtRp4280
(dp4281
g74
(dp4282
g82
I3
ssg83
g4276
sg76
(lp4283
g112
asbasbasbag69
(g85
g71
NtRp4284
(dp4285
g74
(dp4286
sg83
g4255
sg76
(lp4287
g69
(g90
g71
NtRp4288
(dp4289
g74
(dp4290
sg83
g4284
sg76
(lp4291
g69
(g70
g71
NtRp4292
(dp4293
g74
(dp4294
g82
I3
ssg83
g4288
sg76
(lp4295
S'/show_servidor'
p4296
asbasbasbag69
(g85
g71
NtRp4297
(dp4298
g74
(dp4299
sg83
g4255
sg76
(lp4300
g69
(g90
g71
NtRp4301
(dp4302
g74
(dp4303
sg83
g4297
sg76
(lp4304
g69
(g70
g71
NtRp4305
(dp4306
g74
(dp4307
g82
I3
ssg83
g4301
sg76
(lp4308
g69
(g78
g71
NtRp4309
(dp4310
g74
(dp4311
g82
I2
ssg83
Nsg76
(lp4312
sbasbasbasbasbasbasbasbag69
(g85
g71
NtRp4313
(dp4314
g74
(dp4315
sg83
g4168
sg76
(lp4316
g69
(g90
g71
NtRp4317
(dp4318
g74
(dp4319
sg83
g4313
sg76
(lp4320
g69
(g70
g71
NtRp4321
(dp4322
g74
(dp4323
g82
I4
ssg83
g4317
sg76
(lp4324
g69
(g78
g71
NtRp4325
(dp4326
g74
(dp4327
g82
I3
ssg83
Nsg76
(lp4328
g69
(g85
g71
NtRp4329
(dp4330
g74
(dp4331
sg83
g4325
sg76
(lp4332
g69
(g90
g71
NtRp4333
(dp4334
g74
(dp4335
sg83
g4329
sg76
(lp4336
g69
(g70
g71
NtRp4337
(dp4338
g74
(dp4339
g82
I3
ssg83
g4333
sg76
(lp4340
g4200
(S't\x07\x00\x00\x00Distros'
tRp4341
asbasbasbag69
(g85
g71
NtRp4342
(dp4343
g74
(dp4344
sg83
g4325
sg76
(lp4345
g69
(g90
g71
NtRp4346
(dp4347
g74
(dp4348
sg83
g4342
sg76
(lp4349
g69
(g70
g71
NtRp4350
(dp4351
g74
(dp4352
g82
I3
ssg83
g4346
sg76
(lp4353
g112
asbasbasbag69
(g85
g71
NtRp4354
(dp4355
g74
(dp4356
sg83
g4325
sg76
(lp4357
g69
(g90
g71
NtRp4358
(dp4359
g74
(dp4360
sg83
g4354
sg76
(lp4361
g69
(g70
g71
NtRp4362
(dp4363
g74
(dp4364
g82
I3
ssg83
g4358
sg76
(lp4365
S'/show_distro'
p4366
asbasbasbag69
(g85
g71
NtRp4367
(dp4368
g74
(dp4369
sg83
g4325
sg76
(lp4370
g69
(g90
g71
NtRp4371
(dp4372
g74
(dp4373
sg83
g4367
sg76
(lp4374
g69
(g70
g71
NtRp4375
(dp4376
g74
(dp4377
g82
I3
ssg83
g4371
sg76
(lp4378
g69
(g78
g71
NtRp4379
(dp4380
g74
(dp4381
g82
I2
ssg83
Nsg76
(lp4382
sbasbasbasbasbasbasbasbag69
(g85
g71
NtRp4383
(dp4384
g74
(dp4385
sg83
g4168
sg76
(lp4386
g69
(g90
g71
NtRp4387
(dp4388
g74
(dp4389
sg83
g4383
sg76
(lp4390
g69
(g70
g71
NtRp4391
(dp4392
g74
(dp4393
g82
I4
ssg83
g4387
sg76
(lp4394
g69
(g78
g71
NtRp4395
(dp4396
g74
(dp4397
g82
I3
ssg83
Nsg76
(lp4398
g69
(g85
g71
NtRp4399
(dp4400
g74
(dp4401
sg83
g4395
sg76
(lp4402
g69
(g90
g71
NtRp4403
(dp4404
g74
(dp4405
sg83
g4399
sg76
(lp4406
g69
(g70
g71
NtRp4407
(dp4408
g74
(dp4409
g82
I3
ssg83
g4403
sg76
(lp4410
g4200
(S's\x05\x00\x00\x00+host'
tRp4411
asbasbasbag69
(g85
g71
NtRp4412
(dp4413
g74
(dp4414
sg83
g4395
sg76
(lp4415
g69
(g90
g71
NtRp4416
(dp4417
g74
(dp4418
sg83
g4412
sg76
(lp4419
g69
(g70
g71
NtRp4420
(dp4421
g74
(dp4422
g82
I3
ssg83
g4416
sg76
(lp4423
g112
asbasbasbag69
(g85
g71
NtRp4424
(dp4425
g74
(dp4426
sg83
g4395
sg76
(lp4427
g69
(g90
g71
NtRp4428
(dp4429
g74
(dp4430
sg83
g4424
sg76
(lp4431
g69
(g70
g71
NtRp4432
(dp4433
g74
(dp4434
g82
I3
ssg83
g4428
sg76
(lp4435
S'/interface'
p4436
asbasbasbag69
(g85
g71
NtRp4437
(dp4438
g74
(dp4439
sg83
g4395
sg76
(lp4440
g69
(g90
g71
NtRp4441
(dp4442
g74
(dp4443
sg83
g4437
sg76
(lp4444
g69
(g70
g71
NtRp4445
(dp4446
g74
(dp4447
g82
I3
ssg83
g4441
sg76
(lp4448
g69
(g78
g71
NtRp4449
(dp4450
g74
(dp4451
g82
I2
ssg83
Nsg76
(lp4452
sbasbasbasbasbasbasbasbasbasbasbasbag69
(g85
g71
NtRp4453
(dp4454
g74
(dp4455
sg83
g3667
sg76
(lp4456
g69
(g90
g71
NtRp4457
(dp4458
g74
(dp4459
g94
g95
ssg83
g4453
sg76
(lp4460
S'menu2'
p4461
asbag69
(g90
g71
NtRp4462
(dp4463
g74
(dp4464
g101
g102
ssg83
g4453
sg76
(lp4465
S':'
asbag69
(g90
g71
NtRp4466
(dp4467
g74
(dp4468
sg83
g4453
sg76
(lp4469
g69
(g70
g71
NtRp4470
(dp4471
g74
(dp4472
g82
I5
ssg83
g4466
sg76
(lp4473
g69
(g78
g71
NtRp4474
(dp4475
g74
(dp4476
g82
I4
ssg83
Nsg76
(lp4477
g69
(g85
g71
NtRp4478
(dp4479
g74
(dp4480
sg83
g4474
sg76
(lp4481
g69
(g90
g71
NtRp4482
(dp4483
g74
(dp4484
sg83
g4478
sg76
(lp4485
g69
(g70
g71
NtRp4486
(dp4487
g74
(dp4488
g82
I4
ssg83
g4482
sg76
(lp4489
g69
(g78
g71
NtRp4490
(dp4491
g74
(dp4492
g82
I3
ssg83
Nsg76
(lp4493
g69
(g85
g71
NtRp4494
(dp4495
g74
(dp4496
sg83
g4490
sg76
(lp4497
g69
(g90
g71
NtRp4498
(dp4499
g74
(dp4500
sg83
g4494
sg76
(lp4501
g69
(g70
g71
NtRp4502
(dp4503
g74
(dp4504
g82
I3
ssg83
g4498
sg76
(lp4505
g69
(g4140
g71
NtRp4506
(dp4507
g74
(dp4508
g4129
S'dropdown-toggle'
p4509
ssg83
Nsg76
(lp4510
S'Admin'
p4511
asbasbasbasbag69
(g85
g71
NtRp4512
(dp4513
g74
(dp4514
sg83
g4490
sg76
(lp4515
g69
(g90
g71
NtRp4516
(dp4517
g74
(dp4518
sg83
g4512
sg76
(lp4519
g69
(g70
g71
NtRp4520
(dp4521
g74
(dp4522
g82
I3
ssg83
g4516
sg76
(lp4523
g112
asbasbasbag69
(g85
g71
NtRp4524
(dp4525
g74
(dp4526
sg83
g4490
sg76
(lp4527
g69
(g90
g71
NtRp4528
(dp4529
g74
(dp4530
sg83
g4524
sg76
(lp4531
g69
(g70
g71
NtRp4532
(dp4533
g74
(dp4534
g82
I3
ssg83
g4528
sg76
(lp4535
S'#'
asbasbasbag69
(g85
g71
NtRp4536
(dp4537
g74
(dp4538
sg83
g4490
sg76
(lp4539
g69
(g90
g71
NtRp4540
(dp4541
g74
(dp4542
sg83
g4536
sg76
(lp4543
g69
(g70
g71
NtRp4544
(dp4545
g74
(dp4546
g82
I3
ssg83
g4540
sg76
(lp4547
g69
(g78
g71
NtRp4548
(dp4549
g74
(dp4550
g82
I2
ssg83
Nsg76
(lp4551
g69
(g85
g71
NtRp4552
(dp4553
g74
(dp4554
sg83
g4548
sg76
(lp4555
g69
(g90
g71
NtRp4556
(dp4557
g74
(dp4558
sg83
g4552
sg76
(lp4559
g69
(g70
g71
NtRp4560
(dp4561
g74
(dp4562
g82
I2
ssg83
g4556
sg76
(lp4563
g69
(g78
g71
NtRp4564
(dp4565
g74
(dp4566
g82
I1
ssg83
Nsg76
(lp4567
g69
(g85
g71
NtRp4568
(dp4569
g74
(dp4570
sg83
g4564
sg76
(lp4571
g69
(g90
g71
NtRp4572
(dp4573
g74
(dp4574
sg83
g4568
sg76
(lp4575
g69
(g70
g71
NtRp4576
(dp4577
g74
(dp4578
g82
I1
ssg83
g4572
sg76
(lp4579
g4200
(S's\t\x00\x00\x00Usu\xc3\xa1rios'
tRp4580
asbasbasbag69
(g85
g71
NtRp4581
(dp4582
g74
(dp4583
sg83
g4564
sg76
(lp4584
g69
(g90
g71
NtRp4585
(dp4586
g74
(dp4587
sg83
g4581
sg76
(lp4588
g69
(g70
g71
NtRp4589
(dp4590
g74
(dp4591
g82
I1
ssg83
g4585
sg76
(lp4592
I00
asbasbasbag69
(g85
g71
NtRp4593
(dp4594
g74
(dp4595
sg83
g4564
sg76
(lp4596
g69
(g90
g71
NtRp4597
(dp4598
g74
(dp4599
sg83
g4593
sg76
(lp4600
g69
(g70
g71
NtRp4601
(dp4602
g74
(dp4603
g82
I1
ssg83
g4597
sg76
(lp4604
S'/manager/users'
p4605
asbasbasbasbasbasbasbag69
(g85
g71
NtRp4606
(dp4607
g74
(dp4608
sg83
g4548
sg76
(lp4609
g69
(g90
g71
NtRp4610
(dp4611
g74
(dp4612
sg83
g4606
sg76
(lp4613
g69
(g70
g71
NtRp4614
(dp4615
g74
(dp4616
g82
I2
ssg83
g4610
sg76
(lp4617
g69
(g78
g71
NtRp4618
(dp4619
g74
(dp4620
g82
I1
ssg83
Nsg76
(lp4621
g69
(g85
g71
NtRp4622
(dp4623
g74
(dp4624
sg83
g4618
sg76
(lp4625
g69
(g90
g71
NtRp4626
(dp4627
g74
(dp4628
sg83
g4622
sg76
(lp4629
g69
(g70
g71
NtRp4630
(dp4631
g74
(dp4632
g82
I1
ssg83
g4626
sg76
(lp4633
g4200
(S't\x06\x00\x00\x00Grupos'
tRp4634
asbasbasbag69
(g85
g71
NtRp4635
(dp4636
g74
(dp4637
sg83
g4618
sg76
(lp4638
g69
(g90
g71
NtRp4639
(dp4640
g74
(dp4641
sg83
g4635
sg76
(lp4642
g69
(g70
g71
NtRp4643
(dp4644
g74
(dp4645
g82
I1
ssg83
g4639
sg76
(lp4646
I00
asbasbasbag69
(g85
g71
NtRp4647
(dp4648
g74
(dp4649
sg83
g4618
sg76
(lp4650
g69
(g90
g71
NtRp4651
(dp4652
g74
(dp4653
sg83
g4647
sg76
(lp4654
g69
(g70
g71
NtRp4655
(dp4656
g74
(dp4657
g82
I1
ssg83
g4651
sg76
(lp4658
S'/manager/groups'
p4659
asbasbasbasbasbasbasbag69
(g85
g71
NtRp4660
(dp4661
g74
(dp4662
sg83
g4548
sg76
(lp4663
g69
(g90
g71
NtRp4664
(dp4665
g74
(dp4666
sg83
g4660
sg76
(lp4667
g69
(g70
g71
NtRp4668
(dp4669
g74
(dp4670
g82
I2
ssg83
g4664
sg76
(lp4671
g69
(g78
g71
NtRp4672
(dp4673
g74
(dp4674
g82
I1
ssg83
Nsg76
(lp4675
g69
(g85
g71
NtRp4676
(dp4677
g74
(dp4678
sg83
g4672
sg76
(lp4679
g69
(g90
g71
NtRp4680
(dp4681
g74
(dp4682
sg83
g4676
sg76
(lp4683
g69
(g70
g71
NtRp4684
(dp4685
g74
(dp4686
g82
I1
ssg83
g4680
sg76
(lp4687
g4200
(S't\x07\x00\x00\x00Membros'
tRp4688
asbasbasbag69
(g85
g71
NtRp4689
(dp4690
g74
(dp4691
sg83
g4672
sg76
(lp4692
g69
(g90
g71
NtRp4693
(dp4694
g74
(dp4695
sg83
g4689
sg76
(lp4696
g69
(g70
g71
NtRp4697
(dp4698
g74
(dp4699
g82
I1
ssg83
g4693
sg76
(lp4700
I00
asbasbasbag69
(g85
g71
NtRp4701
(dp4702
g74
(dp4703
sg83
g4672
sg76
(lp4704
g69
(g90
g71
NtRp4705
(dp4706
g74
(dp4707
sg83
g4701
sg76
(lp4708
g69
(g70
g71
NtRp4709
(dp4710
g74
(dp4711
g82
I1
ssg83
g4705
sg76
(lp4712
S'/manager/membership'
p4713
asbasbasbasbasbasbasbasbasbasbasbasbasbasbasbag69
(g85
g71
NtRp4714
(dp4715
g74
(dp4716
sg83
g4474
sg76
(lp4717
g69
(g90
g71
NtRp4718
(dp4719
g74
(dp4720
sg83
g4714
sg76
(lp4721
g69
(g70
g71
NtRp4722
(dp4723
g74
(dp4724
g82
I4
ssg83
g4718
sg76
(lp4725
g69
(g78
g71
NtRp4726
(dp4727
g74
(dp4728
g82
I3
ssg83
Nsg76
(lp4729
g69
(g85
g71
NtRp4730
(dp4731
g74
(dp4732
sg83
g4726
sg76
(lp4733
g69
(g90
g71
NtRp4734
(dp4735
g74
(dp4736
sg83
g4730
sg76
(lp4737
g69
(g70
g71
NtRp4738
(dp4739
g74
(dp4740
g82
I3
ssg83
g4734
sg76
(lp4741
g69
(g4140
g71
NtRp4742
(dp4743
g74
(dp4744
g4129
g4509
ssg83
Nsg76
(lp4745
S'Login'
p4746
asbasbasbasbag69
(g85
g71
NtRp4747
(dp4748
g74
(dp4749
sg83
g4726
sg76
(lp4750
g69
(g90
g71
NtRp4751
(dp4752
g74
(dp4753
sg83
g4747
sg76
(lp4754
g69
(g70
g71
NtRp4755
(dp4756
g74
(dp4757
g82
I3
ssg83
g4751
sg76
(lp4758
g112
asbasbasbag69
(g85
g71
NtRp4759
(dp4760
g74
(dp4761
sg83
g4726
sg76
(lp4762
g69
(g90
g71
NtRp4763
(dp4764
g74
(dp4765
sg83
g4759
sg76
(lp4766
g69
(g70
g71
NtRp4767
(dp4768
g74
(dp4769
g82
I3
ssg83
g4763
sg76
(lp4770
S'#'
asbasbasbag69
(g85
g71
NtRp4771
(dp4772
g74
(dp4773
sg83
g4726
sg76
(lp4774
g69
(g90
g71
NtRp4775
(dp4776
g74
(dp4777
sg83
g4771
sg76
(lp4778
g69
(g70
g71
NtRp4779
(dp4780
g74
(dp4781
g82
I3
ssg83
g4775
sg76
(lp4782
g69
(g78
g71
NtRp4783
(dp4784
g74
(dp4785
g82
I2
ssg83
Nsg76
(lp4786
g69
(g85
g71
NtRp4787
(dp4788
g74
(dp4789
sg83
g4783
sg76
(lp4790
g69
(g90
g71
NtRp4791
(dp4792
g74
(dp4793
sg83
g4787
sg76
(lp4794
g69
(g70
g71
NtRp4795
(dp4796
g74
(dp4797
g82
I2
ssg83
g4791
sg76
(lp4798
g69
(g78
g71
NtRp4799
(dp4800
g74
(dp4801
g82
I1
ssg83
Nsg76
(lp4802
g69
(g85
g71
NtRp4803
(dp4804
g74
(dp4805
sg83
g4799
sg76
(lp4806
g69
(g90
g71
NtRp4807
(dp4808
g74
(dp4809
sg83
g4803
sg76
(lp4810
g69
(g70
g71
NtRp4811
(dp4812
g74
(dp4813
g82
I1
ssg83
g4807
sg76
(lp4814
g4200
(S't\x06\x00\x00\x00Logout'
tRp4815
asbasbasbag69
(g85
g71
NtRp4816
(dp4817
g74
(dp4818
sg83
g4799
sg76
(lp4819
g69
(g90
g71
NtRp4820
(dp4821
g74
(dp4822
sg83
g4816
sg76
(lp4823
g69
(g70
g71
NtRp4824
(dp4825
g74
(dp4826
g82
I1
ssg83
g4820
sg76
(lp4827
I00
asbasbasbag69
(g85
g71
NtRp4828
(dp4829
g74
(dp4830
sg83
g4799
sg76
(lp4831
g69
(g90
g71
NtRp4832
(dp4833
g74
(dp4834
sg83
g4828
sg76
(lp4835
g69
(g70
g71
NtRp4836
(dp4837
g74
(dp4838
g82
I1
ssg83
g4832
sg76
(lp4839
S'/initial/user/logout'
p4840
asbasbasbasbasbasbasbasbasbasbasbasbasbasbasbasbasbasbasbag69
(g85
g71
NtRp4841
(dp4842
g74
(dp4843
sg83
g3667
sg76
(lp4844
g69
(g90
g71
NtRp4845
(dp4846
g74
(dp4847
g94
g95
ssg83
g4841
sg76
(lp4848
S'meta'
p4849
asbag69
(g90
g71
NtRp4850
(dp4851
g74
(dp4852
g101
g102
ssg83
g4841
sg76
(lp4853
S':'
asbag69
(g90
g71
NtRp4854
(dp4855
g74
(dp4856
sg83
g4841
sg76
(lp4857
g69
(g70
g71
NtRp4858
(dp4859
g74
(dp4860
g82
I5
ssg83
g4854
sg76
(lp4861
g69
(g78
g71
NtRp4862
(dp4863
g74
(dp4864
g82
I4
ssg83
Nsg76
(lp4865
g69
(g85
g71
NtRp4866
(dp4867
g74
(dp4868
sg83
g4862
sg76
(lp4869
g69
(g90
g71
NtRp4870
(dp4871
g74
(dp4872
g94
g95
ssg83
g4866
sg76
(lp4873
S'author'
p4874
asbag69
(g90
g71
NtRp4875
(dp4876
g74
(dp4877
g101
g102
ssg83
g4866
sg76
(lp4878
S':'
asbag69
(g90
g71
NtRp4879
(dp4880
g74
(dp4881
sg83
g4866
sg76
(lp4882
g69
(g70
g71
NtRp4883
(dp4884
g74
(dp4885
g82
I4
ssg83
g4879
sg76
(lp4886
S'Your Name <you@example.com>'
p4887
asbasbasbag69
(g85
g71
NtRp4888
(dp4889
g74
(dp4890
sg83
g4862
sg76
(lp4891
g69
(g90
g71
NtRp4892
(dp4893
g74
(dp4894
g94
g95
ssg83
g4888
sg76
(lp4895
S'description'
p4896
asbag69
(g90
g71
NtRp4897
(dp4898
g74
(dp4899
g101
g102
ssg83
g4888
sg76
(lp4900
S':'
asbag69
(g90
g71
NtRp4901
(dp4902
g74
(dp4903
sg83
g4888
sg76
(lp4904
g69
(g70
g71
NtRp4905
(dp4906
g74
(dp4907
g82
I4
ssg83
g4901
sg76
(lp4908
S'a cool new app'
p4909
asbasbasbag69
(g85
g71
NtRp4910
(dp4911
g74
(dp4912
sg83
g4862
sg76
(lp4913
g69
(g90
g71
NtRp4914
(dp4915
g74
(dp4916
g94
g95
ssg83
g4910
sg76
(lp4917
S'generator'
p4918
asbag69
(g90
g71
NtRp4919
(dp4920
g74
(dp4921
g101
g102
ssg83
g4910
sg76
(lp4922
S':'
asbag69
(g90
g71
NtRp4923
(dp4924
g74
(dp4925
sg83
g4910
sg76
(lp4926
g69
(g70
g71
NtRp4927
(dp4928
g74
(dp4929
g82
I4
ssg83
g4923
sg76
(lp4930
S'Web2py Web Framework'
p4931
asbasbasbag69
(g85
g71
NtRp4932
(dp4933
g74
(dp4934
sg83
g4862
sg76
(lp4935
g69
(g90
g71
NtRp4936
(dp4937
g74
(dp4938
g94
g95
ssg83
g4932
sg76
(lp4939
S'keywords'
p4940
asbag69
(g90
g71
NtRp4941
(dp4942
g74
(dp4943
g101
g102
ssg83
g4932
sg76
(lp4944
S':'
asbag69
(g90
g71
NtRp4945
(dp4946
g74
(dp4947
sg83
g4932
sg76
(lp4948
g69
(g70
g71
NtRp4949
(dp4950
g74
(dp4951
g82
I4
ssg83
g4945
sg76
(lp4952
S'web2py, python, framework'
p4953
asbasbasbasbasbasbasbag69
(g85
g71
NtRp4954
(dp4955
g74
(dp4956
sg83
g3667
sg76
(lp4957
g69
(g90
g71
NtRp4958
(dp4959
g74
(dp4960
g94
g95
ssg83
g4954
sg76
(lp4961
S'models_to_run'
p4962
asbag69
(g90
g71
NtRp4963
(dp4964
g74
(dp4965
g101
g102
ssg83
g4954
sg76
(lp4966
S':'
asbag69
(g90
g71
NtRp4967
(dp4968
g74
(dp4969
sg83
g4954
sg76
(lp4970
g69
(g70
g71
NtRp4971
(dp4972
g74
(dp4973
g82
I5
ssg83
g4967
sg76
(lp4974
g69
(g78
g71
NtRp4975
(dp4976
g74
(dp4977
g82
I4
ssg83
Nsg76
(lp4978
g69
(g85
g71
NtRp4979
(dp4980
g74
(dp4981
sg83
g4975
sg76
(lp4982
g69
(g90
g71
NtRp4983
(dp4984
g74
(dp4985
sg83
g4979
sg76
(lp4986
g69
(g70
g71
NtRp4987
(dp4988
g74
(dp4989
g82
I4
ssg83
g4983
sg76
(lp4990
S'^\\w+\\.py$'
p4991
asbasbasbag69
(g85
g71
NtRp4992
(dp4993
g74
(dp4994
sg83
g4975
sg76
(lp4995
g69
(g90
g71
NtRp4996
(dp4997
g74
(dp4998
sg83
g4992
sg76
(lp4999
g69
(g70
g71
NtRp5000
(dp5001
g74
(dp5002
g82
I4
ssg83
g4996
sg76
(lp5003
S'^initial/\\w+\\.py$'
p5004
asbasbasbag69
(g85
g71
NtRp5005
(dp5006
g74
(dp5007
sg83
g4975
sg76
(lp5008
g69
(g90
g71
NtRp5009
(dp5010
g74
(dp5011
sg83
g5005
sg76
(lp5012
g69
(g70
g71
NtRp5013
(dp5014
g74
(dp5015
g82
I4
ssg83
g5009
sg76
(lp5016
S'^initial/edit_host/\\w+\\.py$'
p5017
asbasbasbasbasbasbasbag69
(g85
g71
NtRp5018
(dp5019
g74
(dp5020
sg83
g3667
sg76
(lp5021
g69
(g90
g71
NtRp5022
(dp5023
g74
(dp5024
g94
g95
ssg83
g5018
sg76
(lp5025
S'postprocessing'
p5026
asbag69
(g90
g71
NtRp5027
(dp5028
g74
(dp5029
g101
g102
ssg83
g5018
sg76
(lp5030
S':'
asbag69
(g90
g71
NtRp5031
(dp5032
g74
(dp5033
sg83
g5018
sg76
(lp5034
g69
(g70
g71
NtRp5035
(dp5036
g74
(dp5037
g82
I5
ssg83
g5031
sg76
(lp5038
g69
(g78
g71
NtRp5039
(dp5040
g74
(dp5041
g82
I4
ssg83
Nsg76
(lp5042
sbasbasbasbag69
(g85
g71
NtRp5043
(dp5044
g74
(dp5045
sg83
g3667
sg76
(lp5046
g69
(g90
g71
NtRp5047
(dp5048
g74
(dp5049
g94
g95
ssg83
g5043
sg76
(lp5050
S'session_cookie_expires'
p5051
asbag69
(g90
g71
NtRp5052
(dp5053
g74
(dp5054
g101
g102
ssg83
g5043
sg76
(lp5055
S':'
asbag69
(g90
g71
NtRp5056
(dp5057
g74
(dp5058
sg83
g5043
sg76
(lp5059
g69
(g70
g71
NtRp5060
(dp5061
g74
(dp5062
g82
I5
ssg83
g5056
sg76
(lp5063
S'None'
p5064
asbasbasbag69
(g85
g71
NtRp5065
(dp5066
g74
(dp5067
sg83
g3667
sg76
(lp5068
g69
(g90
g71
NtRp5069
(dp5070
g74
(dp5071
g94
g95
ssg83
g5065
sg76
(lp5072
S'session_data_name'
p5073
asbag69
(g90
g71
NtRp5074
(dp5075
g74
(dp5076
g101
g102
ssg83
g5065
sg76
(lp5077
S':'
asbag69
(g90
g71
NtRp5078
(dp5079
g74
(dp5080
sg83
g5065
sg76
(lp5081
g69
(g70
g71
NtRp5082
(dp5083
g74
(dp5084
g82
I5
ssg83
g5078
sg76
(lp5085
S'session_data_projeto'
p5086
asbasbasbag69
(g85
g71
NtRp5087
(dp5088
g74
(dp5089
sg83
g3667
sg76
(lp5090
g69
(g90
g71
NtRp5091
(dp5092
g74
(dp5093
g94
g95
ssg83
g5087
sg76
(lp5094
S'session_file'
p5095
asbag69
(g90
g71
NtRp5096
(dp5097
g74
(dp5098
g101
g102
ssg83
g5087
sg76
(lp5099
S':'
asbag69
(g90
g71
NtRp5100
(dp5101
g74
(dp5102
sg83
g5087
sg76
(lp5103
g69
(g70
g71
NtRp5104
(dp5105
g74
(dp5106
g82
I5
ssg83
g5100
sg76
(lp5107
S"<open file '/var/www/conferencia/applications/projeto/sessions/127.0.0.1-001edd4c-cc9d-40b6-92aa-d3bbbc6019b5', mode 'rb+' at 0x7f6334546300>"
p5108
asbasbasbag69
(g85
g71
NtRp5109
(dp5110
g74
(dp5111
sg83
g3667
sg76
(lp5112
g69
(g90
g71
NtRp5113
(dp5114
g74
(dp5115
g94
g95
ssg83
g5109
sg76
(lp5116
S'session_filename'
p5117
asbag69
(g90
g71
NtRp5118
(dp5119
g74
(dp5120
g101
g102
ssg83
g5109
sg76
(lp5121
S':'
asbag69
(g90
g71
NtRp5122
(dp5123
g74
(dp5124
sg83
g5109
sg76
(lp5125
g69
(g70
g71
NtRp5126
(dp5127
g74
(dp5128
g82
I5
ssg83
g5122
sg76
(lp5129
S'/var/www/conferencia/applications/projeto/sessions/127.0.0.1-001edd4c-cc9d-40b6-92aa-d3bbbc6019b5'
p5130
asbasbasbag69
(g85
g71
NtRp5131
(dp5132
g74
(dp5133
sg83
g3667
sg76
(lp5134
g69
(g90
g71
NtRp5135
(dp5136
g74
(dp5137
g94
g95
ssg83
g5131
sg76
(lp5138
S'session_id'
p5139
asbag69
(g90
g71
NtRp5140
(dp5141
g74
(dp5142
g101
g102
ssg83
g5131
sg76
(lp5143
S':'
asbag69
(g90
g71
NtRp5144
(dp5145
g74
(dp5146
sg83
g5131
sg76
(lp5147
g69
(g70
g71
NtRp5148
(dp5149
g74
(dp5150
g82
I5
ssg83
g5144
sg76
(lp5151
g487
asbasbasbag69
(g85
g71
NtRp5152
(dp5153
g74
(dp5154
sg83
g3667
sg76
(lp5155
g69
(g90
g71
NtRp5156
(dp5157
g74
(dp5158
g94
g95
ssg83
g5152
sg76
(lp5159
S'session_id_name'
p5160
asbag69
(g90
g71
NtRp5161
(dp5162
g74
(dp5163
g101
g102
ssg83
g5152
sg76
(lp5164
S':'
asbag69
(g90
g71
NtRp5165
(dp5166
g74
(dp5167
sg83
g5152
sg76
(lp5168
g69
(g70
g71
NtRp5169
(dp5170
g74
(dp5171
g82
I5
ssg83
g5165
sg76
(lp5172
g3724
asbasbasbag69
(g85
g71
NtRp5173
(dp5174
g74
(dp5175
sg83
g3667
sg76
(lp5176
g69
(g90
g71
NtRp5177
(dp5178
g74
(dp5179
g94
g95
ssg83
g5173
sg76
(lp5180
S'session_locked'
p5181
asbag69
(g90
g71
NtRp5182
(dp5183
g74
(dp5184
g101
g102
ssg83
g5173
sg76
(lp5185
S':'
asbag69
(g90
g71
NtRp5186
(dp5187
g74
(dp5188
sg83
g5173
sg76
(lp5189
g69
(g70
g71
NtRp5190
(dp5191
g74
(dp5192
g82
I5
ssg83
g5186
sg76
(lp5193
g1758
asbasbasbag69
(g85
g71
NtRp5194
(dp5195
g74
(dp5196
sg83
g3667
sg76
(lp5197
g69
(g90
g71
NtRp5198
(dp5199
g74
(dp5200
g94
g95
ssg83
g5194
sg76
(lp5201
S'session_new'
p5202
asbag69
(g90
g71
NtRp5203
(dp5204
g74
(dp5205
g101
g102
ssg83
g5194
sg76
(lp5206
S':'
asbag69
(g90
g71
NtRp5207
(dp5208
g74
(dp5209
sg83
g5194
sg76
(lp5210
g69
(g70
g71
NtRp5211
(dp5212
g74
(dp5213
g82
I5
ssg83
g5207
sg76
(lp5214
g112
asbasbasbag69
(g85
g71
NtRp5215
(dp5216
g74
(dp5217
sg83
g3667
sg76
(lp5218
g69
(g90
g71
NtRp5219
(dp5220
g74
(dp5221
g94
g95
ssg83
g5215
sg76
(lp5222
S'session_storage_type'
p5223
asbag69
(g90
g71
NtRp5224
(dp5225
g74
(dp5226
g101
g102
ssg83
g5215
sg76
(lp5227
S':'
asbag69
(g90
g71
NtRp5228
(dp5229
g74
(dp5230
sg83
g5215
sg76
(lp5231
g69
(g70
g71
NtRp5232
(dp5233
g74
(dp5234
g82
I5
ssg83
g5228
sg76
(lp5235
g3510
asbasbasbag69
(g85
g71
NtRp5236
(dp5237
g74
(dp5238
sg83
g3667
sg76
(lp5239
g69
(g90
g71
NtRp5240
(dp5241
g74
(dp5242
g94
g95
ssg83
g5236
sg76
(lp5243
S'status'
p5244
asbag69
(g90
g71
NtRp5245
(dp5246
g74
(dp5247
g101
g102
ssg83
g5236
sg76
(lp5248
S':'
asbag69
(g90
g71
NtRp5249
(dp5250
g74
(dp5251
sg83
g5236
sg76
(lp5252
g69
(g70
g71
NtRp5253
(dp5254
g74
(dp5255
g82
I5
ssg83
g5249
sg76
(lp5256
S'200'
p5257
asbasbasbag69
(g85
g71
NtRp5258
(dp5259
g74
(dp5260
sg83
g3667
sg76
(lp5261
g69
(g90
g71
NtRp5262
(dp5263
g74
(dp5264
g94
g95
ssg83
g5258
sg76
(lp5265
S'subtitle'
p5266
asbag69
(g90
g71
NtRp5267
(dp5268
g74
(dp5269
g101
g102
ssg83
g5258
sg76
(lp5270
S':'
asbag69
(g90
g71
NtRp5271
(dp5272
g74
(dp5273
sg83
g5258
sg76
(lp5274
g69
(g70
g71
NtRp5275
(dp5276
g74
(dp5277
g82
I5
ssg83
g5271
sg76
(lp5278
g4200
(S's\r\x00\x00\x00customize me!'
tRp5279
asbasbasbag69
(g85
g71
NtRp5280
(dp5281
g74
(dp5282
sg83
g3667
sg76
(lp5283
g69
(g90
g71
NtRp5284
(dp5285
g74
(dp5286
g94
g95
ssg83
g5280
sg76
(lp5287
S'title'
p5288
asbag69
(g90
g71
NtRp5289
(dp5290
g74
(dp5291
g101
g102
ssg83
g5280
sg76
(lp5292
S':'
asbag69
(g90
g71
NtRp5293
(dp5294
g74
(dp5295
sg83
g5280
sg76
(lp5296
g69
(g70
g71
NtRp5297
(dp5298
g74
(dp5299
g82
I5
ssg83
g5293
sg76
(lp5300
S'Projeto'
p5301
asbasbasbag69
(g85
g71
NtRp5302
(dp5303
g74
(dp5304
sg83
g3667
sg76
(lp5305
g69
(g90
g71
NtRp5306
(dp5307
g74
(dp5308
g94
g95
ssg83
g5302
sg76
(lp5309
S'view'
p5310
asbag69
(g90
g71
NtRp5311
(dp5312
g74
(dp5313
g101
g102
ssg83
g5302
sg76
(lp5314
S':'
asbag69
(g90
g71
NtRp5315
(dp5316
g74
(dp5317
sg83
g5302
sg76
(lp5318
g69
(g70
g71
NtRp5319
(dp5320
g74
(dp5321
g82
I5
ssg83
g5315
sg76
(lp5322
S'initial/edit_host.html'
p5323
asbasbasbasbasbsS'locals'
p5324
(dp5325
S'dbio'
p5326
g1758
sS'keyed'
p5327
g1758
sS'field'
p5328
S'<gluon.dal.Field object>'
p5329
sS'request_vars'
p5330
S"<Storage {'admin_user': '2', 'starttime': '2013-...013-04-11 12:26:40', '_formname': 'meetme/1013'}>"
p5331
sS'fields'
p5332
g21
sS'detect_record_change'
p5333
g112
sS'kwargs'
p5334
g21
sS'ret'
p5335
g1758
sS'auch'
p5336
S'<Storage {}>'
p5337
sS'item'
p5338
S'<gluon.validators.IS_IN_DB object>'
p5339
sg3649
S"<Storage {'_formkey[web2py_grid]': '4cee548e-106... {'version': '22.0.1229.94', 'name': 'Chrome'}}}>"
p5340
sS'fieldname'
p5341
S"'gravacao'"
p5342
sS'onvalidation'
p5343
S'None'
p5344
sS'keepvalues'
p5345
g1758
sS'record_id'
p5346
S"{'confno': None}"
p5347
sS'formname_id'
p5348
S"'1013'"
p5349
sS'hideerror'
p5350
g112
sS'requires'
p5351
S'[]'
p5352
sS'self'
p5353
S'<gluon.sqlhtml.SQLFORM object>'
p5354
sS'formname'
p5355
S"'meetme/1013'"
p5356
sssS'traceback'
p5357
S'Traceback (most recent call last):\n  File "/var/www/conferencia/gluon/restricted.py", line 212, in restricted\n    exec ccode in environment\n  File "/var/www/conferencia/applications/projeto/controllers/initial.py", line 324, in <module>\n  File "/var/www/conferencia/gluon/globals.py", line 193, in <lambda>\n    self._caller = lambda f: f()\n  File "/var/www/conferencia/applications/projeto/controllers/initial.py", line 219, in edit_host\n    if form.process().accepted:\n  File "/var/www/conferencia/gluon/html.py", line 2179, in process\n    self.validate(**kwargs)\n  File "/var/www/conferencia/gluon/html.py", line 2118, in validate\n    if self.accepts(**kwargs):\n  File "/var/www/conferencia/gluon/sqlhtml.py", line 1343, in accepts\n    \'%s != %s\' % (record_id, self.record_id))\nSyntaxError: user is tampering with form\'s record_id: {\'confno\': None} != 1013\n'
p5358
s.