(dp1
S'output'
p2
S'<class \'gluon.contrib.pg8000.errors.ProgrammingError\'> (\'ERROR\', \'23502\', \'column "confno__tmp" contains null values\')'
p3
sS'layer'
p4
S'/var/www/conferencia/applications/projeto/models/models.py'
p5
sS'code'
p6
S'usuario = db.define_table("usuario",\n      Field("nome", notnull=True, unique=True),\n      Field("pin"),\n      Field("email"),\n      #auth.signature\n      format="%(nome)s")\n\n\nmeetme = db.define_table("meetme",\n      Field("confno", \'integer\'), \n      Field("starttime", "datetime"),\n      Field("endtime", "datetime"),\n      Field("membros_user", \'list:reference usuario\'),\n      Field("admin_user", \'list:reference usuario\'),\n      Field(\'gravacao\', "boolean"),\n      primarykey=[\'confno\']\n      )\n\nmeetme.confno.label = \'Sala\'\nmeetme.starttime.label = \'In\xc3\xadcio\'\nmeetme.endtime.label = "Fim"\nmeetme.membros_user.label = "Membros"\nmeetme.admin_user.label = "Admins"\n\n\n'
p7
sS'snapshot'
p8
(dp9
S'exception'
p10
(dp11
S'__module__'
p12
S"'gluon.contrib.pg8000.errors'"
p13
sS'__getslice__'
p14
S"<method-wrapper '__getslice__' of ProgrammingError object>"
p15
sS'__str__'
p16
S"<method-wrapper '__str__' of ProgrammingError object>"
p17
sS'__reduce__'
p18
S'<built-in method __reduce__ of ProgrammingError object>'
p19
sS'__dict__'
p20
S'{}'
p21
sS'__sizeof__'
p22
S'<built-in method __sizeof__ of ProgrammingError object>'
p23
sS'__weakref__'
p24
S'None'
p25
sS'__init__'
p26
S"<method-wrapper '__init__' of ProgrammingError object>"
p27
sS'__setattr__'
p28
S"<method-wrapper '__setattr__' of ProgrammingError object>"
p29
sS'__reduce_ex__'
p30
S'<built-in method __reduce_ex__ of ProgrammingError object>'
p31
sS'__new__'
p32
S'<built-in method __new__ of type object>'
p33
sS'__format__'
p34
S'<built-in method __format__ of ProgrammingError object>'
p35
sS'__class__'
p36
S"<class 'gluon.contrib.pg8000.errors.ProgrammingError'>"
p37
sS'__doc__'
p38
S'None'
p39
sS'__getitem__'
p40
S"<method-wrapper '__getitem__' of ProgrammingError object>"
p41
sS'__setstate__'
p42
S'<built-in method __setstate__ of ProgrammingError object>'
p43
sS'__getattribute__'
p44
S"<method-wrapper '__getattribute__' of ProgrammingError object>"
p45
sS'args'
p46
S'(\'ERROR\', \'23502\', \'column "confno__tmp" contains null values\')'
p47
sS'__subclasshook__'
p48
S'<built-in method __subclasshook__ of type object>'
p49
sS'__unicode__'
p50
S'<built-in method __unicode__ of ProgrammingError object>'
p51
sS'__delattr__'
p52
S"<method-wrapper '__delattr__' of ProgrammingError object>"
p53
sS'__repr__'
p54
S"<method-wrapper '__repr__' of ProgrammingError object>"
p55
sS'__hash__'
p56
S"<method-wrapper '__hash__' of ProgrammingError object>"
p57
ssS'evalue'
p58
S'(\'ERROR\', \'23502\', \'column "confno__tmp" contains null values\')'
p59
sS'request'
p60
ccopy_reg
_reconstructor
p61
(cgluon.html
BEAUTIFY
p62
c__builtin__
object
p63
NtRp64
(dp65
S'attributes'
p66
(dp67
sS'components'
p68
(lp69
g61
(cgluon.html
TABLE
p70
g63
NtRp71
(dp72
g66
(dp73
S'level'
p74
I5
ssS'parent'
p75
Nsg68
(lp76
g61
(cgluon.html
TR
p77
g63
NtRp78
(dp79
g66
(dp80
sg75
g71
sg68
(lp81
g61
(cgluon.html
TD
p82
g63
NtRp83
(dp84
g66
(dp85
S'_style'
p86
S'font-weight:bold;vertical-align:top'
p87
ssg75
g78
sg68
(lp88
S'ajax'
p89
asbag61
(g82
g63
NtRp90
(dp91
g66
(dp92
S'_valign'
p93
S'top'
p94
ssg75
g78
sg68
(lp95
S':'
asbag61
(g82
g63
NtRp96
(dp97
g66
(dp98
sg75
g78
sg68
(lp99
g61
(g62
g63
NtRp100
(dp101
g66
(dp102
g74
I5
ssg75
g96
sg68
(lp103
S'False'
p104
asbasbasbag61
(g77
g63
NtRp105
(dp106
g66
(dp107
sg75
g71
sg68
(lp108
g61
(g82
g63
NtRp109
(dp110
g66
(dp111
g86
g87
ssg75
g105
sg68
(lp112
S'application'
p113
asbag61
(g82
g63
NtRp114
(dp115
g66
(dp116
g93
g94
ssg75
g105
sg68
(lp117
S':'
asbag61
(g82
g63
NtRp118
(dp119
g66
(dp120
sg75
g105
sg68
(lp121
g61
(g62
g63
NtRp122
(dp123
g66
(dp124
g74
I5
ssg75
g118
sg68
(lp125
S'projeto'
p126
asbasbasbag61
(g77
g63
NtRp127
(dp128
g66
(dp129
sg75
g71
sg68
(lp130
g61
(g82
g63
NtRp131
(dp132
g66
(dp133
g86
g87
ssg75
g127
sg68
(lp134
g46
asbag61
(g82
g63
NtRp135
(dp136
g66
(dp137
g93
g94
ssg75
g127
sg68
(lp138
S':'
asbag61
(g82
g63
NtRp139
(dp140
g66
(dp141
sg75
g127
sg68
(lp142
g61
(g62
g63
NtRp143
(dp144
g66
(dp145
g74
I5
ssg75
g139
sg68
(lp146
g61
(g70
g63
NtRp147
(dp148
g66
(dp149
g74
I4
ssg75
Nsg68
(lp150
sbasbasbasbag61
(g77
g63
NtRp151
(dp152
g66
(dp153
sg75
g71
sg68
(lp154
g61
(g82
g63
NtRp155
(dp156
g66
(dp157
g86
g87
ssg75
g151
sg68
(lp158
S'body'
p159
asbag61
(g82
g63
NtRp160
(dp161
g66
(dp162
g93
g94
ssg75
g151
sg68
(lp163
S':'
asbag61
(g82
g63
NtRp164
(dp165
g66
(dp166
sg75
g151
sg68
(lp167
g61
(g62
g63
NtRp168
(dp169
g66
(dp170
g74
I5
ssg75
g164
sg68
(lp171
S'<cStringIO.StringO object at 0x7fe7f87c3650>'
p172
asbasbasbag61
(g77
g63
NtRp173
(dp174
g66
(dp175
sg75
g71
sg68
(lp176
g61
(g82
g63
NtRp177
(dp178
g66
(dp179
g86
g87
ssg75
g173
sg68
(lp180
S'cid'
p181
asbag61
(g82
g63
NtRp182
(dp183
g66
(dp184
g93
g94
ssg75
g173
sg68
(lp185
S':'
asbag61
(g82
g63
NtRp186
(dp187
g66
(dp188
sg75
g173
sg68
(lp189
g61
(g62
g63
NtRp190
(dp191
g66
(dp192
g74
I5
ssg75
g186
sg68
(lp193
S'None'
p194
asbasbasbag61
(g77
g63
NtRp195
(dp196
g66
(dp197
sg75
g71
sg68
(lp198
g61
(g82
g63
NtRp199
(dp200
g66
(dp201
g86
g87
ssg75
g195
sg68
(lp202
S'client'
p203
asbag61
(g82
g63
NtRp204
(dp205
g66
(dp206
g93
g94
ssg75
g195
sg68
(lp207
S':'
asbag61
(g82
g63
NtRp208
(dp209
g66
(dp210
sg75
g195
sg68
(lp211
g61
(g62
g63
NtRp212
(dp213
g66
(dp214
g74
I5
ssg75
g208
sg68
(lp215
S'127.0.0.1'
p216
asbasbasbag61
(g77
g63
NtRp217
(dp218
g66
(dp219
sg75
g71
sg68
(lp220
g61
(g82
g63
NtRp221
(dp222
g66
(dp223
g86
g87
ssg75
g217
sg68
(lp224
S'controller'
p225
asbag61
(g82
g63
NtRp226
(dp227
g66
(dp228
g93
g94
ssg75
g217
sg68
(lp229
S':'
asbag61
(g82
g63
NtRp230
(dp231
g66
(dp232
sg75
g217
sg68
(lp233
g61
(g62
g63
NtRp234
(dp235
g66
(dp236
g74
I5
ssg75
g230
sg68
(lp237
S'initial'
p238
asbasbasbag61
(g77
g63
NtRp239
(dp240
g66
(dp241
sg75
g71
sg68
(lp242
g61
(g82
g63
NtRp243
(dp244
g66
(dp245
g86
g87
ssg75
g239
sg68
(lp246
S'cookies'
p247
asbag61
(g82
g63
NtRp248
(dp249
g66
(dp250
g93
g94
ssg75
g239
sg68
(lp251
S':'
asbag61
(g82
g63
NtRp252
(dp253
g66
(dp254
sg75
g239
sg68
(lp255
g61
(g62
g63
NtRp256
(dp257
g66
(dp258
g74
I5
ssg75
g252
sg68
(lp259
g61
(g70
g63
NtRp260
(dp261
g66
(dp262
g74
I4
ssg75
Nsg68
(lp263
g61
(g77
g63
NtRp264
(dp265
g66
(dp266
sg75
g260
sg68
(lp267
g61
(g82
g63
NtRp268
(dp269
g66
(dp270
g86
g87
ssg75
g264
sg68
(lp271
S'session_id_admin'
p272
asbag61
(g82
g63
NtRp273
(dp274
g66
(dp275
g93
g94
ssg75
g264
sg68
(lp276
S':'
asbag61
(g82
g63
NtRp277
(dp278
g66
(dp279
sg75
g264
sg68
(lp280
g61
(g62
g63
NtRp281
(dp282
g66
(dp283
g74
I4
ssg75
g277
sg68
(lp284
S'127.0.0.1-9ca8fc56-3213-4881-b103-95238a337326'
p285
ag61
(g70
g63
NtRp286
(dp287
g66
(dp288
g74
I3
ssg75
Nsg68
(lp289
g61
(g77
g63
NtRp290
(dp291
g66
(dp292
sg75
g286
sg68
(lp293
g61
(g82
g63
NtRp294
(dp295
g66
(dp296
g86
g87
ssg75
g290
sg68
(lp297
S'comment'
p298
asbag61
(g82
g63
NtRp299
(dp300
g66
(dp301
g93
g94
ssg75
g290
sg68
(lp302
S':'
asbag61
(g82
g63
NtRp303
(dp304
g66
(dp305
sg75
g290
sg68
(lp306
g61
(g62
g63
NtRp307
(dp308
g66
(dp309
g74
I3
ssg75
g303
sg68
(lp310
S''
asbasbasbag61
(g77
g63
NtRp311
(dp312
g66
(dp313
sg75
g286
sg68
(lp314
g61
(g82
g63
NtRp315
(dp316
g66
(dp317
g86
g87
ssg75
g311
sg68
(lp318
S'domain'
p319
asbag61
(g82
g63
NtRp320
(dp321
g66
(dp322
g93
g94
ssg75
g311
sg68
(lp323
S':'
asbag61
(g82
g63
NtRp324
(dp325
g66
(dp326
sg75
g311
sg68
(lp327
g61
(g62
g63
NtRp328
(dp329
g66
(dp330
g74
I3
ssg75
g324
sg68
(lp331
S''
asbasbasbag61
(g77
g63
NtRp332
(dp333
g66
(dp334
sg75
g286
sg68
(lp335
g61
(g82
g63
NtRp336
(dp337
g66
(dp338
g86
g87
ssg75
g332
sg68
(lp339
S'expires'
p340
asbag61
(g82
g63
NtRp341
(dp342
g66
(dp343
g93
g94
ssg75
g332
sg68
(lp344
S':'
asbag61
(g82
g63
NtRp345
(dp346
g66
(dp347
sg75
g332
sg68
(lp348
g61
(g62
g63
NtRp349
(dp350
g66
(dp351
g74
I3
ssg75
g345
sg68
(lp352
S''
asbasbasbag61
(g77
g63
NtRp353
(dp354
g66
(dp355
sg75
g286
sg68
(lp356
g61
(g82
g63
NtRp357
(dp358
g66
(dp359
g86
g87
ssg75
g353
sg68
(lp360
S'httponly'
p361
asbag61
(g82
g63
NtRp362
(dp363
g66
(dp364
g93
g94
ssg75
g353
sg68
(lp365
S':'
asbag61
(g82
g63
NtRp366
(dp367
g66
(dp368
sg75
g353
sg68
(lp369
g61
(g62
g63
NtRp370
(dp371
g66
(dp372
g74
I3
ssg75
g366
sg68
(lp373
S''
asbasbasbag61
(g77
g63
NtRp374
(dp375
g66
(dp376
sg75
g286
sg68
(lp377
g61
(g82
g63
NtRp378
(dp379
g66
(dp380
g86
g87
ssg75
g374
sg68
(lp381
S'max-age'
p382
asbag61
(g82
g63
NtRp383
(dp384
g66
(dp385
g93
g94
ssg75
g374
sg68
(lp386
S':'
asbag61
(g82
g63
NtRp387
(dp388
g66
(dp389
sg75
g374
sg68
(lp390
g61
(g62
g63
NtRp391
(dp392
g66
(dp393
g74
I3
ssg75
g387
sg68
(lp394
S''
asbasbasbag61
(g77
g63
NtRp395
(dp396
g66
(dp397
sg75
g286
sg68
(lp398
g61
(g82
g63
NtRp399
(dp400
g66
(dp401
g86
g87
ssg75
g395
sg68
(lp402
S'path'
p403
asbag61
(g82
g63
NtRp404
(dp405
g66
(dp406
g93
g94
ssg75
g395
sg68
(lp407
S':'
asbag61
(g82
g63
NtRp408
(dp409
g66
(dp410
sg75
g395
sg68
(lp411
g61
(g62
g63
NtRp412
(dp413
g66
(dp414
g74
I3
ssg75
g408
sg68
(lp415
S''
asbasbasbag61
(g77
g63
NtRp416
(dp417
g66
(dp418
sg75
g286
sg68
(lp419
g61
(g82
g63
NtRp420
(dp421
g66
(dp422
g86
g87
ssg75
g416
sg68
(lp423
S'secure'
p424
asbag61
(g82
g63
NtRp425
(dp426
g66
(dp427
g93
g94
ssg75
g416
sg68
(lp428
S':'
asbag61
(g82
g63
NtRp429
(dp430
g66
(dp431
sg75
g416
sg68
(lp432
g61
(g62
g63
NtRp433
(dp434
g66
(dp435
g74
I3
ssg75
g429
sg68
(lp436
S''
asbasbasbag61
(g77
g63
NtRp437
(dp438
g66
(dp439
sg75
g286
sg68
(lp440
g61
(g82
g63
NtRp441
(dp442
g66
(dp443
g86
g87
ssg75
g437
sg68
(lp444
S'version'
p445
asbag61
(g82
g63
NtRp446
(dp447
g66
(dp448
g93
g94
ssg75
g437
sg68
(lp449
S':'
asbag61
(g82
g63
NtRp450
(dp451
g66
(dp452
sg75
g437
sg68
(lp453
g61
(g62
g63
NtRp454
(dp455
g66
(dp456
g74
I3
ssg75
g450
sg68
(lp457
S''
asbasbasbasbasbasbasbag61
(g77
g63
NtRp458
(dp459
g66
(dp460
sg75
g260
sg68
(lp461
g61
(g82
g63
NtRp462
(dp463
g66
(dp464
g86
g87
ssg75
g458
sg68
(lp465
S'session_id_projeto'
p466
asbag61
(g82
g63
NtRp467
(dp468
g66
(dp469
g93
g94
ssg75
g458
sg68
(lp470
S':'
asbag61
(g82
g63
NtRp471
(dp472
g66
(dp473
sg75
g458
sg68
(lp474
g61
(g62
g63
NtRp475
(dp476
g66
(dp477
g74
I4
ssg75
g471
sg68
(lp478
S'127.0.0.1-001edd4c-cc9d-40b6-92aa-d3bbbc6019b5'
p479
ag61
(g70
g63
NtRp480
(dp481
g66
(dp482
g74
I3
ssg75
Nsg68
(lp483
g61
(g77
g63
NtRp484
(dp485
g66
(dp486
sg75
g480
sg68
(lp487
g61
(g82
g63
NtRp488
(dp489
g66
(dp490
g86
g87
ssg75
g484
sg68
(lp491
g298
asbag61
(g82
g63
NtRp492
(dp493
g66
(dp494
g93
g94
ssg75
g484
sg68
(lp495
S':'
asbag61
(g82
g63
NtRp496
(dp497
g66
(dp498
sg75
g484
sg68
(lp499
g61
(g62
g63
NtRp500
(dp501
g66
(dp502
g74
I3
ssg75
g496
sg68
(lp503
S''
asbasbasbag61
(g77
g63
NtRp504
(dp505
g66
(dp506
sg75
g480
sg68
(lp507
g61
(g82
g63
NtRp508
(dp509
g66
(dp510
g86
g87
ssg75
g504
sg68
(lp511
g319
asbag61
(g82
g63
NtRp512
(dp513
g66
(dp514
g93
g94
ssg75
g504
sg68
(lp515
S':'
asbag61
(g82
g63
NtRp516
(dp517
g66
(dp518
sg75
g504
sg68
(lp519
g61
(g62
g63
NtRp520
(dp521
g66
(dp522
g74
I3
ssg75
g516
sg68
(lp523
S''
asbasbasbag61
(g77
g63
NtRp524
(dp525
g66
(dp526
sg75
g480
sg68
(lp527
g61
(g82
g63
NtRp528
(dp529
g66
(dp530
g86
g87
ssg75
g524
sg68
(lp531
g340
asbag61
(g82
g63
NtRp532
(dp533
g66
(dp534
g93
g94
ssg75
g524
sg68
(lp535
S':'
asbag61
(g82
g63
NtRp536
(dp537
g66
(dp538
sg75
g524
sg68
(lp539
g61
(g62
g63
NtRp540
(dp541
g66
(dp542
g74
I3
ssg75
g536
sg68
(lp543
S''
asbasbasbag61
(g77
g63
NtRp544
(dp545
g66
(dp546
sg75
g480
sg68
(lp547
g61
(g82
g63
NtRp548
(dp549
g66
(dp550
g86
g87
ssg75
g544
sg68
(lp551
g361
asbag61
(g82
g63
NtRp552
(dp553
g66
(dp554
g93
g94
ssg75
g544
sg68
(lp555
S':'
asbag61
(g82
g63
NtRp556
(dp557
g66
(dp558
sg75
g544
sg68
(lp559
g61
(g62
g63
NtRp560
(dp561
g66
(dp562
g74
I3
ssg75
g556
sg68
(lp563
S''
asbasbasbag61
(g77
g63
NtRp564
(dp565
g66
(dp566
sg75
g480
sg68
(lp567
g61
(g82
g63
NtRp568
(dp569
g66
(dp570
g86
g87
ssg75
g564
sg68
(lp571
g382
asbag61
(g82
g63
NtRp572
(dp573
g66
(dp574
g93
g94
ssg75
g564
sg68
(lp575
S':'
asbag61
(g82
g63
NtRp576
(dp577
g66
(dp578
sg75
g564
sg68
(lp579
g61
(g62
g63
NtRp580
(dp581
g66
(dp582
g74
I3
ssg75
g576
sg68
(lp583
S''
asbasbasbag61
(g77
g63
NtRp584
(dp585
g66
(dp586
sg75
g480
sg68
(lp587
g61
(g82
g63
NtRp588
(dp589
g66
(dp590
g86
g87
ssg75
g584
sg68
(lp591
g403
asbag61
(g82
g63
NtRp592
(dp593
g66
(dp594
g93
g94
ssg75
g584
sg68
(lp595
S':'
asbag61
(g82
g63
NtRp596
(dp597
g66
(dp598
sg75
g584
sg68
(lp599
g61
(g62
g63
NtRp600
(dp601
g66
(dp602
g74
I3
ssg75
g596
sg68
(lp603
S''
asbasbasbag61
(g77
g63
NtRp604
(dp605
g66
(dp606
sg75
g480
sg68
(lp607
g61
(g82
g63
NtRp608
(dp609
g66
(dp610
g86
g87
ssg75
g604
sg68
(lp611
g424
asbag61
(g82
g63
NtRp612
(dp613
g66
(dp614
g93
g94
ssg75
g604
sg68
(lp615
S':'
asbag61
(g82
g63
NtRp616
(dp617
g66
(dp618
sg75
g604
sg68
(lp619
g61
(g62
g63
NtRp620
(dp621
g66
(dp622
g74
I3
ssg75
g616
sg68
(lp623
S''
asbasbasbag61
(g77
g63
NtRp624
(dp625
g66
(dp626
sg75
g480
sg68
(lp627
g61
(g82
g63
NtRp628
(dp629
g66
(dp630
g86
g87
ssg75
g624
sg68
(lp631
g445
asbag61
(g82
g63
NtRp632
(dp633
g66
(dp634
g93
g94
ssg75
g624
sg68
(lp635
S':'
asbag61
(g82
g63
NtRp636
(dp637
g66
(dp638
sg75
g624
sg68
(lp639
g61
(g62
g63
NtRp640
(dp641
g66
(dp642
g74
I3
ssg75
g636
sg68
(lp643
S''
asbasbasbasbasbasbasbasbasbasbasbag61
(g77
g63
NtRp644
(dp645
g66
(dp646
sg75
g71
sg68
(lp647
g61
(g82
g63
NtRp648
(dp649
g66
(dp650
g86
g87
ssg75
g644
sg68
(lp651
S'env'
p652
asbag61
(g82
g63
NtRp653
(dp654
g66
(dp655
g93
g94
ssg75
g644
sg68
(lp656
S':'
asbag61
(g82
g63
NtRp657
(dp658
g66
(dp659
sg75
g644
sg68
(lp660
g61
(g62
g63
NtRp661
(dp662
g66
(dp663
g74
I5
ssg75
g657
sg68
(lp664
g61
(g70
g63
NtRp665
(dp666
g66
(dp667
g74
I4
ssg75
Nsg68
(lp668
g61
(g77
g63
NtRp669
(dp670
g66
(dp671
sg75
g665
sg68
(lp672
g61
(g82
g63
NtRp673
(dp674
g66
(dp675
g86
g87
ssg75
g669
sg68
(lp676
S'app_folders'
p677
asbag61
(g82
g63
NtRp678
(dp679
g66
(dp680
g93
g94
ssg75
g669
sg68
(lp681
S':'
asbag61
(g82
g63
NtRp682
(dp683
g66
(dp684
sg75
g669
sg68
(lp685
g61
(g62
g63
NtRp686
(dp687
g66
(dp688
g74
I4
ssg75
g682
sg68
(lp689
S"set(['/var/www/conferencia/applications/admin/', '/var/www/conferencia/applications/projeto/'])"
p690
asbasbasbag61
(g77
g63
NtRp691
(dp692
g66
(dp693
sg75
g665
sg68
(lp694
g61
(g82
g63
NtRp695
(dp696
g66
(dp697
g86
g87
ssg75
g691
sg68
(lp698
S'applications_parent'
p699
asbag61
(g82
g63
NtRp700
(dp701
g66
(dp702
g93
g94
ssg75
g691
sg68
(lp703
S':'
asbag61
(g82
g63
NtRp704
(dp705
g66
(dp706
sg75
g691
sg68
(lp707
g61
(g62
g63
NtRp708
(dp709
g66
(dp710
g74
I4
ssg75
g704
sg68
(lp711
S'/var/www/conferencia'
p712
asbasbasbag61
(g77
g63
NtRp713
(dp714
g66
(dp715
sg75
g665
sg68
(lp716
g61
(g82
g63
NtRp717
(dp718
g66
(dp719
g86
g87
ssg75
g713
sg68
(lp720
S'cmd_args'
p721
asbag61
(g82
g63
NtRp722
(dp723
g66
(dp724
g93
g94
ssg75
g713
sg68
(lp725
S':'
asbag61
(g82
g63
NtRp726
(dp727
g66
(dp728
sg75
g713
sg68
(lp729
g61
(g62
g63
NtRp730
(dp731
g66
(dp732
g74
I4
ssg75
g726
sg68
(lp733
g61
(g70
g63
NtRp734
(dp735
g66
(dp736
g74
I3
ssg75
Nsg68
(lp737
sbasbasbasbag61
(g77
g63
NtRp738
(dp739
g66
(dp740
sg75
g665
sg68
(lp741
g61
(g82
g63
NtRp742
(dp743
g66
(dp744
g86
g87
ssg75
g738
sg68
(lp745
S'cmd_options'
p746
asbag61
(g82
g63
NtRp747
(dp748
g66
(dp749
g93
g94
ssg75
g738
sg68
(lp750
S':'
asbag61
(g82
g63
NtRp751
(dp752
g66
(dp753
sg75
g738
sg68
(lp754
g61
(g62
g63
NtRp755
(dp756
g66
(dp757
g74
I4
ssg75
g751
sg68
(lp758
S"<Values at 0x1ed4248: {'verbose': False, 'ip': '127.0.0.1', 'with_scheduler': False, 'ips': [], 'shutdown_timeout': 5, 'taskbar': False, 'port': 8000, 'maxthreads': None, 'softcron': False, 'server_name': 'fernando-workstation', 'bpython': False, 'nogui': False, 'pid_filename': 'httpserver.pid', 'extcron': False, 'runcron': False, 'run_system_tests': False, 'test': None, 'folder': '/var/www/conferencia', 'config': '', 'minthreads': None, 'winservice': '', 'shell': None, 'run': '', 'log_filename': 'httpserver.log', 'debuglevel': 30, 'args': [''], 'socket_timeout': 5, 'ssl_ca_certificate': None, 'scheduler': None, 'profiler_filename': None, 'ssl_private_key': '', 'scheduler_groups': None, 'password': '123456', 'request_queue_size': 5, 'ssl_certificate': '', 'cronjob': False, 'numthreads': None, 'quiet': False, 'interfaces': None, 'import_models': False, 'timeout': 10, 'plain': False, 'nobanner': False}>"
p759
asbasbasbag61
(g77
g63
NtRp760
(dp761
g66
(dp762
sg75
g665
sg68
(lp763
g61
(g82
g63
NtRp764
(dp765
g66
(dp766
g86
g87
ssg75
g760
sg68
(lp767
S'db_sessions'
p768
asbag61
(g82
g63
NtRp769
(dp770
g66
(dp771
g93
g94
ssg75
g760
sg68
(lp772
S':'
asbag61
(g82
g63
NtRp773
(dp774
g66
(dp775
sg75
g760
sg68
(lp776
g61
(g62
g63
NtRp777
(dp778
g66
(dp779
g74
I4
ssg75
g773
sg68
(lp780
S'set([])'
p781
asbasbasbag61
(g77
g63
NtRp782
(dp783
g66
(dp784
sg75
g665
sg68
(lp785
g61
(g82
g63
NtRp786
(dp787
g66
(dp788
g86
g87
ssg75
g782
sg68
(lp789
S'debugging'
p790
asbag61
(g82
g63
NtRp791
(dp792
g66
(dp793
g93
g94
ssg75
g782
sg68
(lp794
S':'
asbag61
(g82
g63
NtRp795
(dp796
g66
(dp797
sg75
g782
sg68
(lp798
g61
(g62
g63
NtRp799
(dp800
g66
(dp801
g74
I4
ssg75
g795
sg68
(lp802
g104
asbasbasbag61
(g77
g63
NtRp803
(dp804
g66
(dp805
sg75
g665
sg68
(lp806
g61
(g82
g63
NtRp807
(dp808
g66
(dp809
g86
g87
ssg75
g803
sg68
(lp810
S'gluon_parent'
p811
asbag61
(g82
g63
NtRp812
(dp813
g66
(dp814
g93
g94
ssg75
g803
sg68
(lp815
S':'
asbag61
(g82
g63
NtRp816
(dp817
g66
(dp818
sg75
g803
sg68
(lp819
g61
(g62
g63
NtRp820
(dp821
g66
(dp822
g74
I4
ssg75
g816
sg68
(lp823
S'/var/www/conferencia'
p824
asbasbasbag61
(g77
g63
NtRp825
(dp826
g66
(dp827
sg75
g665
sg68
(lp828
g61
(g82
g63
NtRp829
(dp830
g66
(dp831
g86
g87
ssg75
g825
sg68
(lp832
S'http_accept'
p833
asbag61
(g82
g63
NtRp834
(dp835
g66
(dp836
g93
g94
ssg75
g825
sg68
(lp837
S':'
asbag61
(g82
g63
NtRp838
(dp839
g66
(dp840
sg75
g825
sg68
(lp841
g61
(g62
g63
NtRp842
(dp843
g66
(dp844
g74
I4
ssg75
g838
sg68
(lp845
S'text/html,application/xhtml+xml,application/xml;q=0.9,*/*;q=0.8'
p846
asbasbasbag61
(g77
g63
NtRp847
(dp848
g66
(dp849
sg75
g665
sg68
(lp850
g61
(g82
g63
NtRp851
(dp852
g66
(dp853
g86
g87
ssg75
g847
sg68
(lp854
S'http_accept_charset'
p855
asbag61
(g82
g63
NtRp856
(dp857
g66
(dp858
g93
g94
ssg75
g847
sg68
(lp859
S':'
asbag61
(g82
g63
NtRp860
(dp861
g66
(dp862
sg75
g847
sg68
(lp863
g61
(g62
g63
NtRp864
(dp865
g66
(dp866
g74
I4
ssg75
g860
sg68
(lp867
S'ISO-8859-1,utf-8;q=0.7,*;q=0.3'
p868
asbasbasbag61
(g77
g63
NtRp869
(dp870
g66
(dp871
sg75
g665
sg68
(lp872
g61
(g82
g63
NtRp873
(dp874
g66
(dp875
g86
g87
ssg75
g869
sg68
(lp876
S'http_accept_encoding'
p877
asbag61
(g82
g63
NtRp878
(dp879
g66
(dp880
g93
g94
ssg75
g869
sg68
(lp881
S':'
asbag61
(g82
g63
NtRp882
(dp883
g66
(dp884
sg75
g869
sg68
(lp885
g61
(g62
g63
NtRp886
(dp887
g66
(dp888
g74
I4
ssg75
g882
sg68
(lp889
S'gzip,deflate,sdch'
p890
asbasbasbag61
(g77
g63
NtRp891
(dp892
g66
(dp893
sg75
g665
sg68
(lp894
g61
(g82
g63
NtRp895
(dp896
g66
(dp897
g86
g87
ssg75
g891
sg68
(lp898
S'http_accept_language'
p899
asbag61
(g82
g63
NtRp900
(dp901
g66
(dp902
g93
g94
ssg75
g891
sg68
(lp903
S':'
asbag61
(g82
g63
NtRp904
(dp905
g66
(dp906
sg75
g891
sg68
(lp907
g61
(g62
g63
NtRp908
(dp909
g66
(dp910
g74
I4
ssg75
g904
sg68
(lp911
S'pt-BR,pt;q=0.8,en-US;q=0.6,en;q=0.4'
p912
asbasbasbag61
(g77
g63
NtRp913
(dp914
g66
(dp915
sg75
g665
sg68
(lp916
g61
(g82
g63
NtRp917
(dp918
g66
(dp919
g86
g87
ssg75
g913
sg68
(lp920
S'http_connection'
p921
asbag61
(g82
g63
NtRp922
(dp923
g66
(dp924
g93
g94
ssg75
g913
sg68
(lp925
S':'
asbag61
(g82
g63
NtRp926
(dp927
g66
(dp928
sg75
g913
sg68
(lp929
g61
(g62
g63
NtRp930
(dp931
g66
(dp932
g74
I4
ssg75
g926
sg68
(lp933
S'keep-alive'
p934
asbasbasbag61
(g77
g63
NtRp935
(dp936
g66
(dp937
sg75
g665
sg68
(lp938
g61
(g82
g63
NtRp939
(dp940
g66
(dp941
g86
g87
ssg75
g935
sg68
(lp942
S'http_cookie'
p943
asbag61
(g82
g63
NtRp944
(dp945
g66
(dp946
g93
g94
ssg75
g935
sg68
(lp947
S':'
asbag61
(g82
g63
NtRp948
(dp949
g66
(dp950
sg75
g935
sg68
(lp951
g61
(g62
g63
NtRp952
(dp953
g66
(dp954
g74
I4
ssg75
g948
sg68
(lp955
S'session_id_admin=127.0.0.1-9ca8fc56-3213-4881-b103-95238a337326; session_id_projeto=127.0.0.1-001edd4c-cc9d-40b6-92aa-d3bbbc6019b5'
p956
asbasbasbag61
(g77
g63
NtRp957
(dp958
g66
(dp959
sg75
g665
sg68
(lp960
g61
(g82
g63
NtRp961
(dp962
g66
(dp963
g86
g87
ssg75
g957
sg68
(lp964
S'http_host'
p965
asbag61
(g82
g63
NtRp966
(dp967
g66
(dp968
g93
g94
ssg75
g957
sg68
(lp969
S':'
asbag61
(g82
g63
NtRp970
(dp971
g66
(dp972
sg75
g957
sg68
(lp973
g61
(g62
g63
NtRp974
(dp975
g66
(dp976
g74
I4
ssg75
g970
sg68
(lp977
S'127.0.0.1:8000'
p978
asbasbasbag61
(g77
g63
NtRp979
(dp980
g66
(dp981
sg75
g665
sg68
(lp982
g61
(g82
g63
NtRp983
(dp984
g66
(dp985
g86
g87
ssg75
g979
sg68
(lp986
S'http_referer'
p987
asbag61
(g82
g63
NtRp988
(dp989
g66
(dp990
g93
g94
ssg75
g979
sg68
(lp991
S':'
asbag61
(g82
g63
NtRp992
(dp993
g66
(dp994
sg75
g979
sg68
(lp995
g61
(g62
g63
NtRp996
(dp997
g66
(dp998
g74
I4
ssg75
g992
sg68
(lp999
S'http://127.0.0.1:8000/show_cliente'
p1000
asbasbasbag61
(g77
g63
NtRp1001
(dp1002
g66
(dp1003
sg75
g665
sg68
(lp1004
g61
(g82
g63
NtRp1005
(dp1006
g66
(dp1007
g86
g87
ssg75
g1001
sg68
(lp1008
S'http_user_agent'
p1009
asbag61
(g82
g63
NtRp1010
(dp1011
g66
(dp1012
g93
g94
ssg75
g1001
sg68
(lp1013
S':'
asbag61
(g82
g63
NtRp1014
(dp1015
g66
(dp1016
sg75
g1001
sg68
(lp1017
g61
(g62
g63
NtRp1018
(dp1019
g66
(dp1020
g74
I4
ssg75
g1014
sg68
(lp1021
S'Mozilla/5.0 (X11; Linux x86_64) AppleWebKit/537.4 (KHTML, like Gecko) Ubuntu/12.10 Chromium/22.0.1229.94 Chrome/22.0.1229.94 Safari/537.4'
p1022
asbasbasbag61
(g77
g63
NtRp1023
(dp1024
g66
(dp1025
sg75
g665
sg68
(lp1026
g61
(g82
g63
NtRp1027
(dp1028
g66
(dp1029
g86
g87
ssg75
g1023
sg68
(lp1030
S'is_jython'
p1031
asbag61
(g82
g63
NtRp1032
(dp1033
g66
(dp1034
g93
g94
ssg75
g1023
sg68
(lp1035
S':'
asbag61
(g82
g63
NtRp1036
(dp1037
g66
(dp1038
sg75
g1023
sg68
(lp1039
g61
(g62
g63
NtRp1040
(dp1041
g66
(dp1042
g74
I4
ssg75
g1036
sg68
(lp1043
g104
asbasbasbag61
(g77
g63
NtRp1044
(dp1045
g66
(dp1046
sg75
g665
sg68
(lp1047
g61
(g82
g63
NtRp1048
(dp1049
g66
(dp1050
g86
g87
ssg75
g1044
sg68
(lp1051
S'is_pypy'
p1052
asbag61
(g82
g63
NtRp1053
(dp1054
g66
(dp1055
g93
g94
ssg75
g1044
sg68
(lp1056
S':'
asbag61
(g82
g63
NtRp1057
(dp1058
g66
(dp1059
sg75
g1044
sg68
(lp1060
g61
(g62
g63
NtRp1061
(dp1062
g66
(dp1063
g74
I4
ssg75
g1057
sg68
(lp1064
g104
asbasbasbag61
(g77
g63
NtRp1065
(dp1066
g66
(dp1067
sg75
g665
sg68
(lp1068
g61
(g82
g63
NtRp1069
(dp1070
g66
(dp1071
g86
g87
ssg75
g1065
sg68
(lp1072
S'local_hosts'
p1073
asbag61
(g82
g63
NtRp1074
(dp1075
g66
(dp1076
g93
g94
ssg75
g1065
sg68
(lp1077
S':'
asbag61
(g82
g63
NtRp1078
(dp1079
g66
(dp1080
sg75
g1065
sg68
(lp1081
g61
(g62
g63
NtRp1082
(dp1083
g66
(dp1084
g74
I4
ssg75
g1078
sg68
(lp1085
g61
(g70
g63
NtRp1086
(dp1087
g66
(dp1088
g74
I3
ssg75
Nsg68
(lp1089
g61
(g77
g63
NtRp1090
(dp1091
g66
(dp1092
sg75
g1086
sg68
(lp1093
g61
(g82
g63
NtRp1094
(dp1095
g66
(dp1096
sg75
g1090
sg68
(lp1097
g61
(g62
g63
NtRp1098
(dp1099
g66
(dp1100
g74
I3
ssg75
g1094
sg68
(lp1101
S'::1'
p1102
asbasbasbag61
(g77
g63
NtRp1103
(dp1104
g66
(dp1105
sg75
g1086
sg68
(lp1106
g61
(g82
g63
NtRp1107
(dp1108
g66
(dp1109
sg75
g1103
sg68
(lp1110
g61
(g62
g63
NtRp1111
(dp1112
g66
(dp1113
g74
I3
ssg75
g1107
sg68
(lp1114
S'::ffff:127.0.0.1'
p1115
asbasbasbag61
(g77
g63
NtRp1116
(dp1117
g66
(dp1118
sg75
g1086
sg68
(lp1119
g61
(g82
g63
NtRp1120
(dp1121
g66
(dp1122
sg75
g1116
sg68
(lp1123
g61
(g62
g63
NtRp1124
(dp1125
g66
(dp1126
g74
I3
ssg75
g1120
sg68
(lp1127
S'127.0.0.1'
p1128
asbasbasbag61
(g77
g63
NtRp1129
(dp1130
g66
(dp1131
sg75
g1086
sg68
(lp1132
g61
(g82
g63
NtRp1133
(dp1134
g66
(dp1135
sg75
g1129
sg68
(lp1136
g61
(g62
g63
NtRp1137
(dp1138
g66
(dp1139
g74
I3
ssg75
g1133
sg68
(lp1140
S'fernando-workstation'
p1141
asbasbasbasbasbasbasbag61
(g77
g63
NtRp1142
(dp1143
g66
(dp1144
sg75
g665
sg68
(lp1145
g61
(g82
g63
NtRp1146
(dp1147
g66
(dp1148
g86
g87
ssg75
g1142
sg68
(lp1149
S'path_info'
p1150
asbag61
(g82
g63
NtRp1151
(dp1152
g66
(dp1153
g93
g94
ssg75
g1142
sg68
(lp1154
S':'
asbag61
(g82
g63
NtRp1155
(dp1156
g66
(dp1157
sg75
g1142
sg68
(lp1158
g61
(g62
g63
NtRp1159
(dp1160
g66
(dp1161
g74
I4
ssg75
g1155
sg68
(lp1162
S'/show_cliente'
p1163
asbasbasbag61
(g77
g63
NtRp1164
(dp1165
g66
(dp1166
sg75
g665
sg68
(lp1167
g61
(g82
g63
NtRp1168
(dp1169
g66
(dp1170
g86
g87
ssg75
g1164
sg68
(lp1171
S'query_string'
p1172
asbag61
(g82
g63
NtRp1173
(dp1174
g66
(dp1175
g93
g94
ssg75
g1164
sg68
(lp1176
S':'
asbag61
(g82
g63
NtRp1177
(dp1178
g66
(dp1179
sg75
g1164
sg68
(lp1180
g61
(g62
g63
NtRp1181
(dp1182
g66
(dp1183
g74
I4
ssg75
g1177
sg68
(lp1184
S''
asbasbasbag61
(g77
g63
NtRp1185
(dp1186
g66
(dp1187
sg75
g665
sg68
(lp1188
g61
(g82
g63
NtRp1189
(dp1190
g66
(dp1191
g86
g87
ssg75
g1185
sg68
(lp1192
S'remote_addr'
p1193
asbag61
(g82
g63
NtRp1194
(dp1195
g66
(dp1196
g93
g94
ssg75
g1185
sg68
(lp1197
S':'
asbag61
(g82
g63
NtRp1198
(dp1199
g66
(dp1200
sg75
g1185
sg68
(lp1201
g61
(g62
g63
NtRp1202
(dp1203
g66
(dp1204
g74
I4
ssg75
g1198
sg68
(lp1205
g216
asbasbasbag61
(g77
g63
NtRp1206
(dp1207
g66
(dp1208
sg75
g665
sg68
(lp1209
g61
(g82
g63
NtRp1210
(dp1211
g66
(dp1212
g86
g87
ssg75
g1206
sg68
(lp1213
S'remote_port'
p1214
asbag61
(g82
g63
NtRp1215
(dp1216
g66
(dp1217
g93
g94
ssg75
g1206
sg68
(lp1218
S':'
asbag61
(g82
g63
NtRp1219
(dp1220
g66
(dp1221
sg75
g1206
sg68
(lp1222
g61
(g62
g63
NtRp1223
(dp1224
g66
(dp1225
g74
I4
ssg75
g1219
sg68
(lp1226
S'38110'
p1227
asbasbasbag61
(g77
g63
NtRp1228
(dp1229
g66
(dp1230
sg75
g665
sg68
(lp1231
g61
(g82
g63
NtRp1232
(dp1233
g66
(dp1234
g86
g87
ssg75
g1228
sg68
(lp1235
S'request_method'
p1236
asbag61
(g82
g63
NtRp1237
(dp1238
g66
(dp1239
g93
g94
ssg75
g1228
sg68
(lp1240
S':'
asbag61
(g82
g63
NtRp1241
(dp1242
g66
(dp1243
sg75
g1228
sg68
(lp1244
g61
(g62
g63
NtRp1245
(dp1246
g66
(dp1247
g74
I4
ssg75
g1241
sg68
(lp1248
S'GET'
p1249
asbasbasbag61
(g77
g63
NtRp1250
(dp1251
g66
(dp1252
sg75
g665
sg68
(lp1253
g61
(g82
g63
NtRp1254
(dp1255
g66
(dp1256
g86
g87
ssg75
g1250
sg68
(lp1257
S'request_uri'
p1258
asbag61
(g82
g63
NtRp1259
(dp1260
g66
(dp1261
g93
g94
ssg75
g1250
sg68
(lp1262
S':'
asbag61
(g82
g63
NtRp1263
(dp1264
g66
(dp1265
sg75
g1250
sg68
(lp1266
g61
(g62
g63
NtRp1267
(dp1268
g66
(dp1269
g74
I4
ssg75
g1263
sg68
(lp1270
S'/projeto/initial/show_cliente'
p1271
asbasbasbag61
(g77
g63
NtRp1272
(dp1273
g66
(dp1274
sg75
g665
sg68
(lp1275
g61
(g82
g63
NtRp1276
(dp1277
g66
(dp1278
g86
g87
ssg75
g1272
sg68
(lp1279
S'script_name'
p1280
asbag61
(g82
g63
NtRp1281
(dp1282
g66
(dp1283
g93
g94
ssg75
g1272
sg68
(lp1284
S':'
asbag61
(g82
g63
NtRp1285
(dp1286
g66
(dp1287
sg75
g1272
sg68
(lp1288
g61
(g62
g63
NtRp1289
(dp1290
g66
(dp1291
g74
I4
ssg75
g1285
sg68
(lp1292
S''
asbasbasbag61
(g77
g63
NtRp1293
(dp1294
g66
(dp1295
sg75
g665
sg68
(lp1296
g61
(g82
g63
NtRp1297
(dp1298
g66
(dp1299
g86
g87
ssg75
g1293
sg68
(lp1300
S'server_name'
p1301
asbag61
(g82
g63
NtRp1302
(dp1303
g66
(dp1304
g93
g94
ssg75
g1293
sg68
(lp1305
S':'
asbag61
(g82
g63
NtRp1306
(dp1307
g66
(dp1308
sg75
g1293
sg68
(lp1309
g61
(g62
g63
NtRp1310
(dp1311
g66
(dp1312
g74
I4
ssg75
g1306
sg68
(lp1313
S'fernando-workstation'
p1314
asbasbasbag61
(g77
g63
NtRp1315
(dp1316
g66
(dp1317
sg75
g665
sg68
(lp1318
g61
(g82
g63
NtRp1319
(dp1320
g66
(dp1321
g86
g87
ssg75
g1315
sg68
(lp1322
S'server_port'
p1323
asbag61
(g82
g63
NtRp1324
(dp1325
g66
(dp1326
g93
g94
ssg75
g1315
sg68
(lp1327
S':'
asbag61
(g82
g63
NtRp1328
(dp1329
g66
(dp1330
sg75
g1315
sg68
(lp1331
g61
(g62
g63
NtRp1332
(dp1333
g66
(dp1334
g74
I4
ssg75
g1328
sg68
(lp1335
S'8000'
p1336
asbasbasbag61
(g77
g63
NtRp1337
(dp1338
g66
(dp1339
sg75
g665
sg68
(lp1340
g61
(g82
g63
NtRp1341
(dp1342
g66
(dp1343
g86
g87
ssg75
g1337
sg68
(lp1344
S'server_protocol'
p1345
asbag61
(g82
g63
NtRp1346
(dp1347
g66
(dp1348
g93
g94
ssg75
g1337
sg68
(lp1349
S':'
asbag61
(g82
g63
NtRp1350
(dp1351
g66
(dp1352
sg75
g1337
sg68
(lp1353
g61
(g62
g63
NtRp1354
(dp1355
g66
(dp1356
g74
I4
ssg75
g1350
sg68
(lp1357
S'HTTP/1.1'
p1358
asbasbasbag61
(g77
g63
NtRp1359
(dp1360
g66
(dp1361
sg75
g665
sg68
(lp1362
g61
(g82
g63
NtRp1363
(dp1364
g66
(dp1365
g86
g87
ssg75
g1359
sg68
(lp1366
S'server_software'
p1367
asbag61
(g82
g63
NtRp1368
(dp1369
g66
(dp1370
g93
g94
ssg75
g1359
sg68
(lp1371
S':'
asbag61
(g82
g63
NtRp1372
(dp1373
g66
(dp1374
sg75
g1359
sg68
(lp1375
g61
(g62
g63
NtRp1376
(dp1377
g66
(dp1378
g74
I4
ssg75
g1372
sg68
(lp1379
S'Rocket 1.2.6'
p1380
asbasbasbag61
(g77
g63
NtRp1381
(dp1382
g66
(dp1383
sg75
g665
sg68
(lp1384
g61
(g82
g63
NtRp1385
(dp1386
g66
(dp1387
g86
g87
ssg75
g1381
sg68
(lp1388
S'web2py_original_uri'
p1389
asbag61
(g82
g63
NtRp1390
(dp1391
g66
(dp1392
g93
g94
ssg75
g1381
sg68
(lp1393
S':'
asbag61
(g82
g63
NtRp1394
(dp1395
g66
(dp1396
sg75
g1381
sg68
(lp1397
g61
(g62
g63
NtRp1398
(dp1399
g66
(dp1400
g74
I4
ssg75
g1394
sg68
(lp1401
g1163
asbasbasbag61
(g77
g63
NtRp1402
(dp1403
g66
(dp1404
sg75
g665
sg68
(lp1405
g61
(g82
g63
NtRp1406
(dp1407
g66
(dp1408
g86
g87
ssg75
g1402
sg68
(lp1409
S'web2py_path'
p1410
asbag61
(g82
g63
NtRp1411
(dp1412
g66
(dp1413
g93
g94
ssg75
g1402
sg68
(lp1414
S':'
asbag61
(g82
g63
NtRp1415
(dp1416
g66
(dp1417
sg75
g1402
sg68
(lp1418
g61
(g62
g63
NtRp1419
(dp1420
g66
(dp1421
g74
I4
ssg75
g1415
sg68
(lp1422
g712
asbasbasbag61
(g77
g63
NtRp1423
(dp1424
g66
(dp1425
sg75
g665
sg68
(lp1426
g61
(g82
g63
NtRp1427
(dp1428
g66
(dp1429
g86
g87
ssg75
g1423
sg68
(lp1430
S'web2py_version'
p1431
asbag61
(g82
g63
NtRp1432
(dp1433
g66
(dp1434
g93
g94
ssg75
g1423
sg68
(lp1435
S':'
asbag61
(g82
g63
NtRp1436
(dp1437
g66
(dp1438
sg75
g1423
sg68
(lp1439
g61
(g62
g63
NtRp1440
(dp1441
g66
(dp1442
g74
I4
ssg75
g1436
sg68
(lp1443
g61
(g70
g63
NtRp1444
(dp1445
g66
(dp1446
g74
I3
ssg75
Nsg68
(lp1447
g61
(g77
g63
NtRp1448
(dp1449
g66
(dp1450
sg75
g1444
sg68
(lp1451
g61
(g82
g63
NtRp1452
(dp1453
g66
(dp1454
sg75
g1448
sg68
(lp1455
g61
(g62
g63
NtRp1456
(dp1457
g66
(dp1458
g74
I3
ssg75
g1452
sg68
(lp1459
S'2'
asbasbasbag61
(g77
g63
NtRp1460
(dp1461
g66
(dp1462
sg75
g1444
sg68
(lp1463
g61
(g82
g63
NtRp1464
(dp1465
g66
(dp1466
sg75
g1460
sg68
(lp1467
g61
(g62
g63
NtRp1468
(dp1469
g66
(dp1470
g74
I3
ssg75
g1464
sg68
(lp1471
S'3'
asbasbasbag61
(g77
g63
NtRp1472
(dp1473
g66
(dp1474
sg75
g1444
sg68
(lp1475
g61
(g82
g63
NtRp1476
(dp1477
g66
(dp1478
sg75
g1472
sg68
(lp1479
g61
(g62
g63
NtRp1480
(dp1481
g66
(dp1482
g74
I3
ssg75
g1476
sg68
(lp1483
S'2'
asbasbasbag61
(g77
g63
NtRp1484
(dp1485
g66
(dp1486
sg75
g1444
sg68
(lp1487
g61
(g82
g63
NtRp1488
(dp1489
g66
(dp1490
sg75
g1484
sg68
(lp1491
g61
(g62
g63
NtRp1492
(dp1493
g66
(dp1494
g74
I3
ssg75
g1488
sg68
(lp1495
S'datetime.datetime(2012, 12, 17, 15, 3, 30)'
p1496
asbasbasbag61
(g77
g63
NtRp1497
(dp1498
g66
(dp1499
sg75
g1444
sg68
(lp1500
g61
(g82
g63
NtRp1501
(dp1502
g66
(dp1503
sg75
g1497
sg68
(lp1504
g61
(g62
g63
NtRp1505
(dp1506
g66
(dp1507
g74
I3
ssg75
g1501
sg68
(lp1508
S'stable'
p1509
asbasbasbasbasbasbasbag61
(g77
g63
NtRp1510
(dp1511
g66
(dp1512
sg75
g665
sg68
(lp1513
g61
(g82
g63
NtRp1514
(dp1515
g66
(dp1516
g86
g87
ssg75
g1510
sg68
(lp1517
S'wsgi_errors'
p1518
asbag61
(g82
g63
NtRp1519
(dp1520
g66
(dp1521
g93
g94
ssg75
g1510
sg68
(lp1522
S':'
asbag61
(g82
g63
NtRp1523
(dp1524
g66
(dp1525
sg75
g1510
sg68
(lp1526
g61
(g62
g63
NtRp1527
(dp1528
g66
(dp1529
g74
I4
ssg75
g1523
sg68
(lp1530
S"<open file '<stderr>', mode 'w' at 0x7fe816965270>"
p1531
asbasbasbag61
(g77
g63
NtRp1532
(dp1533
g66
(dp1534
sg75
g665
sg68
(lp1535
g61
(g82
g63
NtRp1536
(dp1537
g66
(dp1538
g86
g87
ssg75
g1532
sg68
(lp1539
S'wsgi_file_wrapper'
p1540
asbag61
(g82
g63
NtRp1541
(dp1542
g66
(dp1543
g93
g94
ssg75
g1532
sg68
(lp1544
S':'
asbag61
(g82
g63
NtRp1545
(dp1546
g66
(dp1547
sg75
g1532
sg68
(lp1548
g61
(g62
g63
NtRp1549
(dp1550
g66
(dp1551
g74
I4
ssg75
g1545
sg68
(lp1552
S'<class wsgiref.util.FileWrapper at 0x1e4b598>'
p1553
asbasbasbag61
(g77
g63
NtRp1554
(dp1555
g66
(dp1556
sg75
g665
sg68
(lp1557
g61
(g82
g63
NtRp1558
(dp1559
g66
(dp1560
g86
g87
ssg75
g1554
sg68
(lp1561
S'wsgi_input'
p1562
asbag61
(g82
g63
NtRp1563
(dp1564
g66
(dp1565
g93
g94
ssg75
g1554
sg68
(lp1566
S':'
asbag61
(g82
g63
NtRp1567
(dp1568
g66
(dp1569
sg75
g1554
sg68
(lp1570
g61
(g62
g63
NtRp1571
(dp1572
g66
(dp1573
g74
I4
ssg75
g1567
sg68
(lp1574
S'<socket._fileobject object at 0x1f9e5d0>'
p1575
asbasbasbag61
(g77
g63
NtRp1576
(dp1577
g66
(dp1578
sg75
g665
sg68
(lp1579
g61
(g82
g63
NtRp1580
(dp1581
g66
(dp1582
g86
g87
ssg75
g1576
sg68
(lp1583
S'wsgi_multiprocess'
p1584
asbag61
(g82
g63
NtRp1585
(dp1586
g66
(dp1587
g93
g94
ssg75
g1576
sg68
(lp1588
S':'
asbag61
(g82
g63
NtRp1589
(dp1590
g66
(dp1591
sg75
g1576
sg68
(lp1592
g61
(g62
g63
NtRp1593
(dp1594
g66
(dp1595
g74
I4
ssg75
g1589
sg68
(lp1596
g104
asbasbasbag61
(g77
g63
NtRp1597
(dp1598
g66
(dp1599
sg75
g665
sg68
(lp1600
g61
(g82
g63
NtRp1601
(dp1602
g66
(dp1603
g86
g87
ssg75
g1597
sg68
(lp1604
S'wsgi_multithread'
p1605
asbag61
(g82
g63
NtRp1606
(dp1607
g66
(dp1608
g93
g94
ssg75
g1597
sg68
(lp1609
S':'
asbag61
(g82
g63
NtRp1610
(dp1611
g66
(dp1612
sg75
g1597
sg68
(lp1613
g61
(g62
g63
NtRp1614
(dp1615
g66
(dp1616
g74
I4
ssg75
g1610
sg68
(lp1617
S'True'
p1618
asbasbasbag61
(g77
g63
NtRp1619
(dp1620
g66
(dp1621
sg75
g665
sg68
(lp1622
g61
(g82
g63
NtRp1623
(dp1624
g66
(dp1625
g86
g87
ssg75
g1619
sg68
(lp1626
S'wsgi_run_once'
p1627
asbag61
(g82
g63
NtRp1628
(dp1629
g66
(dp1630
g93
g94
ssg75
g1619
sg68
(lp1631
S':'
asbag61
(g82
g63
NtRp1632
(dp1633
g66
(dp1634
sg75
g1619
sg68
(lp1635
g61
(g62
g63
NtRp1636
(dp1637
g66
(dp1638
g74
I4
ssg75
g1632
sg68
(lp1639
g104
asbasbasbag61
(g77
g63
NtRp1640
(dp1641
g66
(dp1642
sg75
g665
sg68
(lp1643
g61
(g82
g63
NtRp1644
(dp1645
g66
(dp1646
g86
g87
ssg75
g1640
sg68
(lp1647
S'wsgi_url_scheme'
p1648
asbag61
(g82
g63
NtRp1649
(dp1650
g66
(dp1651
g93
g94
ssg75
g1640
sg68
(lp1652
S':'
asbag61
(g82
g63
NtRp1653
(dp1654
g66
(dp1655
sg75
g1640
sg68
(lp1656
g61
(g62
g63
NtRp1657
(dp1658
g66
(dp1659
g74
I4
ssg75
g1653
sg68
(lp1660
S'http'
p1661
asbasbasbag61
(g77
g63
NtRp1662
(dp1663
g66
(dp1664
sg75
g665
sg68
(lp1665
g61
(g82
g63
NtRp1666
(dp1667
g66
(dp1668
g86
g87
ssg75
g1662
sg68
(lp1669
S'wsgi_version'
p1670
asbag61
(g82
g63
NtRp1671
(dp1672
g66
(dp1673
g93
g94
ssg75
g1662
sg68
(lp1674
S':'
asbag61
(g82
g63
NtRp1675
(dp1676
g66
(dp1677
sg75
g1662
sg68
(lp1678
g61
(g62
g63
NtRp1679
(dp1680
g66
(dp1681
g74
I4
ssg75
g1675
sg68
(lp1682
g61
(g70
g63
NtRp1683
(dp1684
g66
(dp1685
g74
I3
ssg75
Nsg68
(lp1686
g61
(g77
g63
NtRp1687
(dp1688
g66
(dp1689
sg75
g1683
sg68
(lp1690
g61
(g82
g63
NtRp1691
(dp1692
g66
(dp1693
sg75
g1687
sg68
(lp1694
g61
(g62
g63
NtRp1695
(dp1696
g66
(dp1697
g74
I3
ssg75
g1691
sg68
(lp1698
S'1'
asbasbasbag61
(g77
g63
NtRp1699
(dp1700
g66
(dp1701
sg75
g1683
sg68
(lp1702
g61
(g82
g63
NtRp1703
(dp1704
g66
(dp1705
sg75
g1699
sg68
(lp1706
g61
(g62
g63
NtRp1707
(dp1708
g66
(dp1709
g74
I3
ssg75
g1703
sg68
(lp1710
S'0'
asbasbasbasbasbasbasbasbasbasbasbag61
(g77
g63
NtRp1711
(dp1712
g66
(dp1713
sg75
g71
sg68
(lp1714
g61
(g82
g63
NtRp1715
(dp1716
g66
(dp1717
g86
g87
ssg75
g1711
sg68
(lp1718
S'extension'
p1719
asbag61
(g82
g63
NtRp1720
(dp1721
g66
(dp1722
g93
g94
ssg75
g1711
sg68
(lp1723
S':'
asbag61
(g82
g63
NtRp1724
(dp1725
g66
(dp1726
sg75
g1711
sg68
(lp1727
g61
(g62
g63
NtRp1728
(dp1729
g66
(dp1730
g74
I5
ssg75
g1724
sg68
(lp1731
S'html'
p1732
asbasbasbag61
(g77
g63
NtRp1733
(dp1734
g66
(dp1735
sg75
g71
sg68
(lp1736
g61
(g82
g63
NtRp1737
(dp1738
g66
(dp1739
g86
g87
ssg75
g1733
sg68
(lp1740
S'folder'
p1741
asbag61
(g82
g63
NtRp1742
(dp1743
g66
(dp1744
g93
g94
ssg75
g1733
sg68
(lp1745
S':'
asbag61
(g82
g63
NtRp1746
(dp1747
g66
(dp1748
sg75
g1733
sg68
(lp1749
g61
(g62
g63
NtRp1750
(dp1751
g66
(dp1752
g74
I5
ssg75
g1746
sg68
(lp1753
S'/var/www/conferencia/applications/projeto/'
p1754
asbasbasbag61
(g77
g63
NtRp1755
(dp1756
g66
(dp1757
sg75
g71
sg68
(lp1758
g61
(g82
g63
NtRp1759
(dp1760
g66
(dp1761
g86
g87
ssg75
g1755
sg68
(lp1762
S'function'
p1763
asbag61
(g82
g63
NtRp1764
(dp1765
g66
(dp1766
g93
g94
ssg75
g1755
sg68
(lp1767
S':'
asbag61
(g82
g63
NtRp1768
(dp1769
g66
(dp1770
sg75
g1755
sg68
(lp1771
g61
(g62
g63
NtRp1772
(dp1773
g66
(dp1774
g74
I5
ssg75
g1768
sg68
(lp1775
S'show_cliente'
p1776
asbasbasbag61
(g77
g63
NtRp1777
(dp1778
g66
(dp1779
sg75
g71
sg68
(lp1780
g61
(g82
g63
NtRp1781
(dp1782
g66
(dp1783
g86
g87
ssg75
g1777
sg68
(lp1784
S'get_vars'
p1785
asbag61
(g82
g63
NtRp1786
(dp1787
g66
(dp1788
g93
g94
ssg75
g1777
sg68
(lp1789
S':'
asbag61
(g82
g63
NtRp1790
(dp1791
g66
(dp1792
sg75
g1777
sg68
(lp1793
g61
(g62
g63
NtRp1794
(dp1795
g66
(dp1796
g74
I5
ssg75
g1790
sg68
(lp1797
g61
(g70
g63
NtRp1798
(dp1799
g66
(dp1800
g74
I4
ssg75
Nsg68
(lp1801
sbasbasbasbag61
(g77
g63
NtRp1802
(dp1803
g66
(dp1804
sg75
g71
sg68
(lp1805
g61
(g82
g63
NtRp1806
(dp1807
g66
(dp1808
g86
g87
ssg75
g1802
sg68
(lp1809
S'global_settings'
p1810
asbag61
(g82
g63
NtRp1811
(dp1812
g66
(dp1813
g93
g94
ssg75
g1802
sg68
(lp1814
S':'
asbag61
(g82
g63
NtRp1815
(dp1816
g66
(dp1817
sg75
g1802
sg68
(lp1818
g61
(g62
g63
NtRp1819
(dp1820
g66
(dp1821
g74
I5
ssg75
g1815
sg68
(lp1822
g61
(g70
g63
NtRp1823
(dp1824
g66
(dp1825
g74
I4
ssg75
Nsg68
(lp1826
g61
(g77
g63
NtRp1827
(dp1828
g66
(dp1829
sg75
g1823
sg68
(lp1830
g61
(g82
g63
NtRp1831
(dp1832
g66
(dp1833
g86
g87
ssg75
g1827
sg68
(lp1834
g677
asbag61
(g82
g63
NtRp1835
(dp1836
g66
(dp1837
g93
g94
ssg75
g1827
sg68
(lp1838
S':'
asbag61
(g82
g63
NtRp1839
(dp1840
g66
(dp1841
sg75
g1827
sg68
(lp1842
g61
(g62
g63
NtRp1843
(dp1844
g66
(dp1845
g74
I4
ssg75
g1839
sg68
(lp1846
S"set(['/var/www/conferencia/applications/admin/', '/var/www/conferencia/applications/projeto/'])"
p1847
asbasbasbag61
(g77
g63
NtRp1848
(dp1849
g66
(dp1850
sg75
g1823
sg68
(lp1851
g61
(g82
g63
NtRp1852
(dp1853
g66
(dp1854
g86
g87
ssg75
g1848
sg68
(lp1855
g699
asbag61
(g82
g63
NtRp1856
(dp1857
g66
(dp1858
g93
g94
ssg75
g1848
sg68
(lp1859
S':'
asbag61
(g82
g63
NtRp1860
(dp1861
g66
(dp1862
sg75
g1848
sg68
(lp1863
g61
(g62
g63
NtRp1864
(dp1865
g66
(dp1866
g74
I4
ssg75
g1860
sg68
(lp1867
g712
asbasbasbag61
(g77
g63
NtRp1868
(dp1869
g66
(dp1870
sg75
g1823
sg68
(lp1871
g61
(g82
g63
NtRp1872
(dp1873
g66
(dp1874
g86
g87
ssg75
g1868
sg68
(lp1875
g721
asbag61
(g82
g63
NtRp1876
(dp1877
g66
(dp1878
g93
g94
ssg75
g1868
sg68
(lp1879
S':'
asbag61
(g82
g63
NtRp1880
(dp1881
g66
(dp1882
sg75
g1868
sg68
(lp1883
g61
(g62
g63
NtRp1884
(dp1885
g66
(dp1886
g74
I4
ssg75
g1880
sg68
(lp1887
g61
(g70
g63
NtRp1888
(dp1889
g66
(dp1890
g74
I3
ssg75
Nsg68
(lp1891
sbasbasbasbag61
(g77
g63
NtRp1892
(dp1893
g66
(dp1894
sg75
g1823
sg68
(lp1895
g61
(g82
g63
NtRp1896
(dp1897
g66
(dp1898
g86
g87
ssg75
g1892
sg68
(lp1899
g746
asbag61
(g82
g63
NtRp1900
(dp1901
g66
(dp1902
g93
g94
ssg75
g1892
sg68
(lp1903
S':'
asbag61
(g82
g63
NtRp1904
(dp1905
g66
(dp1906
sg75
g1892
sg68
(lp1907
g61
(g62
g63
NtRp1908
(dp1909
g66
(dp1910
g74
I4
ssg75
g1904
sg68
(lp1911
S"<Values at 0x1ed4248: {'verbose': False, 'ip': '127.0.0.1', 'with_scheduler': False, 'ips': [], 'shutdown_timeout': 5, 'taskbar': False, 'port': 8000, 'maxthreads': None, 'softcron': False, 'server_name': 'fernando-workstation', 'bpython': False, 'nogui': False, 'pid_filename': 'httpserver.pid', 'extcron': False, 'runcron': False, 'run_system_tests': False, 'test': None, 'folder': '/var/www/conferencia', 'config': '', 'minthreads': None, 'winservice': '', 'shell': None, 'run': '', 'log_filename': 'httpserver.log', 'debuglevel': 30, 'args': [''], 'socket_timeout': 5, 'ssl_ca_certificate': None, 'scheduler': None, 'profiler_filename': None, 'ssl_private_key': '', 'scheduler_groups': None, 'password': '123456', 'request_queue_size': 5, 'ssl_certificate': '', 'cronjob': False, 'numthreads': None, 'quiet': False, 'interfaces': None, 'import_models': False, 'timeout': 10, 'plain': False, 'nobanner': False}>"
p1912
asbasbasbag61
(g77
g63
NtRp1913
(dp1914
g66
(dp1915
sg75
g1823
sg68
(lp1916
g61
(g82
g63
NtRp1917
(dp1918
g66
(dp1919
g86
g87
ssg75
g1913
sg68
(lp1920
g768
asbag61
(g82
g63
NtRp1921
(dp1922
g66
(dp1923
g93
g94
ssg75
g1913
sg68
(lp1924
S':'
asbag61
(g82
g63
NtRp1925
(dp1926
g66
(dp1927
sg75
g1913
sg68
(lp1928
g61
(g62
g63
NtRp1929
(dp1930
g66
(dp1931
g74
I4
ssg75
g1925
sg68
(lp1932
S'set([])'
p1933
asbasbasbag61
(g77
g63
NtRp1934
(dp1935
g66
(dp1936
sg75
g1823
sg68
(lp1937
g61
(g82
g63
NtRp1938
(dp1939
g66
(dp1940
g86
g87
ssg75
g1934
sg68
(lp1941
g790
asbag61
(g82
g63
NtRp1942
(dp1943
g66
(dp1944
g93
g94
ssg75
g1934
sg68
(lp1945
S':'
asbag61
(g82
g63
NtRp1946
(dp1947
g66
(dp1948
sg75
g1934
sg68
(lp1949
g61
(g62
g63
NtRp1950
(dp1951
g66
(dp1952
g74
I4
ssg75
g1946
sg68
(lp1953
g104
asbasbasbag61
(g77
g63
NtRp1954
(dp1955
g66
(dp1956
sg75
g1823
sg68
(lp1957
g61
(g82
g63
NtRp1958
(dp1959
g66
(dp1960
g86
g87
ssg75
g1954
sg68
(lp1961
g811
asbag61
(g82
g63
NtRp1962
(dp1963
g66
(dp1964
g93
g94
ssg75
g1954
sg68
(lp1965
S':'
asbag61
(g82
g63
NtRp1966
(dp1967
g66
(dp1968
sg75
g1954
sg68
(lp1969
g61
(g62
g63
NtRp1970
(dp1971
g66
(dp1972
g74
I4
ssg75
g1966
sg68
(lp1973
g824
asbasbasbag61
(g77
g63
NtRp1974
(dp1975
g66
(dp1976
sg75
g1823
sg68
(lp1977
g61
(g82
g63
NtRp1978
(dp1979
g66
(dp1980
g86
g87
ssg75
g1974
sg68
(lp1981
g1031
asbag61
(g82
g63
NtRp1982
(dp1983
g66
(dp1984
g93
g94
ssg75
g1974
sg68
(lp1985
S':'
asbag61
(g82
g63
NtRp1986
(dp1987
g66
(dp1988
sg75
g1974
sg68
(lp1989
g61
(g62
g63
NtRp1990
(dp1991
g66
(dp1992
g74
I4
ssg75
g1986
sg68
(lp1993
g104
asbasbasbag61
(g77
g63
NtRp1994
(dp1995
g66
(dp1996
sg75
g1823
sg68
(lp1997
g61
(g82
g63
NtRp1998
(dp1999
g66
(dp2000
g86
g87
ssg75
g1994
sg68
(lp2001
g1052
asbag61
(g82
g63
NtRp2002
(dp2003
g66
(dp2004
g93
g94
ssg75
g1994
sg68
(lp2005
S':'
asbag61
(g82
g63
NtRp2006
(dp2007
g66
(dp2008
sg75
g1994
sg68
(lp2009
g61
(g62
g63
NtRp2010
(dp2011
g66
(dp2012
g74
I4
ssg75
g2006
sg68
(lp2013
g104
asbasbasbag61
(g77
g63
NtRp2014
(dp2015
g66
(dp2016
sg75
g1823
sg68
(lp2017
g61
(g82
g63
NtRp2018
(dp2019
g66
(dp2020
g86
g87
ssg75
g2014
sg68
(lp2021
g1073
asbag61
(g82
g63
NtRp2022
(dp2023
g66
(dp2024
g93
g94
ssg75
g2014
sg68
(lp2025
S':'
asbag61
(g82
g63
NtRp2026
(dp2027
g66
(dp2028
sg75
g2014
sg68
(lp2029
g61
(g62
g63
NtRp2030
(dp2031
g66
(dp2032
g74
I4
ssg75
g2026
sg68
(lp2033
g61
(g70
g63
NtRp2034
(dp2035
g66
(dp2036
g74
I3
ssg75
Nsg68
(lp2037
g61
(g77
g63
NtRp2038
(dp2039
g66
(dp2040
sg75
g2034
sg68
(lp2041
g61
(g82
g63
NtRp2042
(dp2043
g66
(dp2044
sg75
g2038
sg68
(lp2045
g61
(g62
g63
NtRp2046
(dp2047
g66
(dp2048
g74
I3
ssg75
g2042
sg68
(lp2049
g1102
asbasbasbag61
(g77
g63
NtRp2050
(dp2051
g66
(dp2052
sg75
g2034
sg68
(lp2053
g61
(g82
g63
NtRp2054
(dp2055
g66
(dp2056
sg75
g2050
sg68
(lp2057
g61
(g62
g63
NtRp2058
(dp2059
g66
(dp2060
g74
I3
ssg75
g2054
sg68
(lp2061
g1115
asbasbasbag61
(g77
g63
NtRp2062
(dp2063
g66
(dp2064
sg75
g2034
sg68
(lp2065
g61
(g82
g63
NtRp2066
(dp2067
g66
(dp2068
sg75
g2062
sg68
(lp2069
g61
(g62
g63
NtRp2070
(dp2071
g66
(dp2072
g74
I3
ssg75
g2066
sg68
(lp2073
g1128
asbasbasbag61
(g77
g63
NtRp2074
(dp2075
g66
(dp2076
sg75
g2034
sg68
(lp2077
g61
(g82
g63
NtRp2078
(dp2079
g66
(dp2080
sg75
g2074
sg68
(lp2081
g61
(g62
g63
NtRp2082
(dp2083
g66
(dp2084
g74
I3
ssg75
g2078
sg68
(lp2085
g1141
asbasbasbasbasbasbasbag61
(g77
g63
NtRp2086
(dp2087
g66
(dp2088
sg75
g1823
sg68
(lp2089
g61
(g82
g63
NtRp2090
(dp2091
g66
(dp2092
g86
g87
ssg75
g2086
sg68
(lp2093
g1431
asbag61
(g82
g63
NtRp2094
(dp2095
g66
(dp2096
g93
g94
ssg75
g2086
sg68
(lp2097
S':'
asbag61
(g82
g63
NtRp2098
(dp2099
g66
(dp2100
sg75
g2086
sg68
(lp2101
g61
(g62
g63
NtRp2102
(dp2103
g66
(dp2104
g74
I4
ssg75
g2098
sg68
(lp2105
g61
(g70
g63
NtRp2106
(dp2107
g66
(dp2108
g74
I3
ssg75
Nsg68
(lp2109
g61
(g77
g63
NtRp2110
(dp2111
g66
(dp2112
sg75
g2106
sg68
(lp2113
g61
(g82
g63
NtRp2114
(dp2115
g66
(dp2116
sg75
g2110
sg68
(lp2117
g61
(g62
g63
NtRp2118
(dp2119
g66
(dp2120
g74
I3
ssg75
g2114
sg68
(lp2121
S'2'
asbasbasbag61
(g77
g63
NtRp2122
(dp2123
g66
(dp2124
sg75
g2106
sg68
(lp2125
g61
(g82
g63
NtRp2126
(dp2127
g66
(dp2128
sg75
g2122
sg68
(lp2129
g61
(g62
g63
NtRp2130
(dp2131
g66
(dp2132
g74
I3
ssg75
g2126
sg68
(lp2133
S'3'
asbasbasbag61
(g77
g63
NtRp2134
(dp2135
g66
(dp2136
sg75
g2106
sg68
(lp2137
g61
(g82
g63
NtRp2138
(dp2139
g66
(dp2140
sg75
g2134
sg68
(lp2141
g61
(g62
g63
NtRp2142
(dp2143
g66
(dp2144
g74
I3
ssg75
g2138
sg68
(lp2145
S'2'
asbasbasbag61
(g77
g63
NtRp2146
(dp2147
g66
(dp2148
sg75
g2106
sg68
(lp2149
g61
(g82
g63
NtRp2150
(dp2151
g66
(dp2152
sg75
g2146
sg68
(lp2153
g61
(g62
g63
NtRp2154
(dp2155
g66
(dp2156
g74
I3
ssg75
g2150
sg68
(lp2157
S'datetime.datetime(2012, 12, 17, 15, 3, 30)'
p2158
asbasbasbag61
(g77
g63
NtRp2159
(dp2160
g66
(dp2161
sg75
g2106
sg68
(lp2162
g61
(g82
g63
NtRp2163
(dp2164
g66
(dp2165
sg75
g2159
sg68
(lp2166
g61
(g62
g63
NtRp2167
(dp2168
g66
(dp2169
g74
I3
ssg75
g2163
sg68
(lp2170
g1509
asbasbasbasbasbasbasbasbasbasbasbag61
(g77
g63
NtRp2171
(dp2172
g66
(dp2173
sg75
g71
sg68
(lp2174
g61
(g82
g63
NtRp2175
(dp2176
g66
(dp2177
g86
g87
ssg75
g2171
sg68
(lp2178
S'is_https'
p2179
asbag61
(g82
g63
NtRp2180
(dp2181
g66
(dp2182
g93
g94
ssg75
g2171
sg68
(lp2183
S':'
asbag61
(g82
g63
NtRp2184
(dp2185
g66
(dp2186
sg75
g2171
sg68
(lp2187
g61
(g62
g63
NtRp2188
(dp2189
g66
(dp2190
g74
I5
ssg75
g2184
sg68
(lp2191
g104
asbasbasbag61
(g77
g63
NtRp2192
(dp2193
g66
(dp2194
sg75
g71
sg68
(lp2195
g61
(g82
g63
NtRp2196
(dp2197
g66
(dp2198
g86
g87
ssg75
g2192
sg68
(lp2199
S'is_local'
p2200
asbag61
(g82
g63
NtRp2201
(dp2202
g66
(dp2203
g93
g94
ssg75
g2192
sg68
(lp2204
S':'
asbag61
(g82
g63
NtRp2205
(dp2206
g66
(dp2207
sg75
g2192
sg68
(lp2208
g61
(g62
g63
NtRp2209
(dp2210
g66
(dp2211
g74
I5
ssg75
g2205
sg68
(lp2212
g1618
asbasbasbag61
(g77
g63
NtRp2213
(dp2214
g66
(dp2215
sg75
g71
sg68
(lp2216
g61
(g82
g63
NtRp2217
(dp2218
g66
(dp2219
g86
g87
ssg75
g2213
sg68
(lp2220
S'is_restful'
p2221
asbag61
(g82
g63
NtRp2222
(dp2223
g66
(dp2224
g93
g94
ssg75
g2213
sg68
(lp2225
S':'
asbag61
(g82
g63
NtRp2226
(dp2227
g66
(dp2228
sg75
g2213
sg68
(lp2229
g61
(g62
g63
NtRp2230
(dp2231
g66
(dp2232
g74
I5
ssg75
g2226
sg68
(lp2233
g104
asbasbasbag61
(g77
g63
NtRp2234
(dp2235
g66
(dp2236
sg75
g71
sg68
(lp2237
g61
(g82
g63
NtRp2238
(dp2239
g66
(dp2240
g86
g87
ssg75
g2234
sg68
(lp2241
S'now'
p2242
asbag61
(g82
g63
NtRp2243
(dp2244
g66
(dp2245
g93
g94
ssg75
g2234
sg68
(lp2246
S':'
asbag61
(g82
g63
NtRp2247
(dp2248
g66
(dp2249
sg75
g2234
sg68
(lp2250
g61
(g62
g63
NtRp2251
(dp2252
g66
(dp2253
g74
I5
ssg75
g2247
sg68
(lp2254
S'datetime.datetime(2013, 4, 3, 12, 22, 49, 819429)'
p2255
asbasbasbag61
(g77
g63
NtRp2256
(dp2257
g66
(dp2258
sg75
g71
sg68
(lp2259
g61
(g82
g63
NtRp2260
(dp2261
g66
(dp2262
g86
g87
ssg75
g2256
sg68
(lp2263
S'post_vars'
p2264
asbag61
(g82
g63
NtRp2265
(dp2266
g66
(dp2267
g93
g94
ssg75
g2256
sg68
(lp2268
S':'
asbag61
(g82
g63
NtRp2269
(dp2270
g66
(dp2271
sg75
g2256
sg68
(lp2272
g61
(g62
g63
NtRp2273
(dp2274
g66
(dp2275
g74
I5
ssg75
g2269
sg68
(lp2276
g61
(g70
g63
NtRp2277
(dp2278
g66
(dp2279
g74
I4
ssg75
Nsg68
(lp2280
sbasbasbasbag61
(g77
g63
NtRp2281
(dp2282
g66
(dp2283
sg75
g71
sg68
(lp2284
g61
(g82
g63
NtRp2285
(dp2286
g66
(dp2287
g86
g87
ssg75
g2281
sg68
(lp2288
S'url'
p2289
asbag61
(g82
g63
NtRp2290
(dp2291
g66
(dp2292
g93
g94
ssg75
g2281
sg68
(lp2293
S':'
asbag61
(g82
g63
NtRp2294
(dp2295
g66
(dp2296
sg75
g2281
sg68
(lp2297
g61
(g62
g63
NtRp2298
(dp2299
g66
(dp2300
g74
I5
ssg75
g2294
sg68
(lp2301
g1163
asbasbasbag61
(g77
g63
NtRp2302
(dp2303
g66
(dp2304
sg75
g71
sg68
(lp2305
g61
(g82
g63
NtRp2306
(dp2307
g66
(dp2308
g86
g87
ssg75
g2302
sg68
(lp2309
S'utcnow'
p2310
asbag61
(g82
g63
NtRp2311
(dp2312
g66
(dp2313
g93
g94
ssg75
g2302
sg68
(lp2314
S':'
asbag61
(g82
g63
NtRp2315
(dp2316
g66
(dp2317
sg75
g2302
sg68
(lp2318
g61
(g62
g63
NtRp2319
(dp2320
g66
(dp2321
g74
I5
ssg75
g2315
sg68
(lp2322
S'datetime.datetime(2013, 4, 3, 15, 22, 49, 819488)'
p2323
asbasbasbag61
(g77
g63
NtRp2324
(dp2325
g66
(dp2326
sg75
g71
sg68
(lp2327
g61
(g82
g63
NtRp2328
(dp2329
g66
(dp2330
g86
g87
ssg75
g2324
sg68
(lp2331
S'uuid'
p2332
asbag61
(g82
g63
NtRp2333
(dp2334
g66
(dp2335
g93
g94
ssg75
g2324
sg68
(lp2336
S':'
asbag61
(g82
g63
NtRp2337
(dp2338
g66
(dp2339
sg75
g2324
sg68
(lp2340
g61
(g62
g63
NtRp2341
(dp2342
g66
(dp2343
g74
I5
ssg75
g2337
sg68
(lp2344
S'projeto/127.0.0.1.2013-04-03.12-22-49.4e684f82-70b4-4edd-a6ad-e5fe75b34f6a'
p2345
asbasbasbag61
(g77
g63
NtRp2346
(dp2347
g66
(dp2348
sg75
g71
sg68
(lp2349
g61
(g82
g63
NtRp2350
(dp2351
g66
(dp2352
g86
g87
ssg75
g2346
sg68
(lp2353
S'vars'
p2354
asbag61
(g82
g63
NtRp2355
(dp2356
g66
(dp2357
g93
g94
ssg75
g2346
sg68
(lp2358
S':'
asbag61
(g82
g63
NtRp2359
(dp2360
g66
(dp2361
sg75
g2346
sg68
(lp2362
g61
(g62
g63
NtRp2363
(dp2364
g66
(dp2365
g74
I5
ssg75
g2359
sg68
(lp2366
g61
(g70
g63
NtRp2367
(dp2368
g66
(dp2369
g74
I4
ssg75
Nsg68
(lp2370
sbasbasbasbag61
(g77
g63
NtRp2371
(dp2372
g66
(dp2373
sg75
g71
sg68
(lp2374
g61
(g82
g63
NtRp2375
(dp2376
g66
(dp2377
g86
g87
ssg75
g2371
sg68
(lp2378
S'wsgi'
p2379
asbag61
(g82
g63
NtRp2380
(dp2381
g66
(dp2382
g93
g94
ssg75
g2371
sg68
(lp2383
S':'
asbag61
(g82
g63
NtRp2384
(dp2385
g66
(dp2386
sg75
g2371
sg68
(lp2387
g61
(g62
g63
NtRp2388
(dp2389
g66
(dp2390
g74
I5
ssg75
g2384
sg68
(lp2391
g61
(g70
g63
NtRp2392
(dp2393
g66
(dp2394
g74
I4
ssg75
Nsg68
(lp2395
g61
(g77
g63
NtRp2396
(dp2397
g66
(dp2398
sg75
g2392
sg68
(lp2399
g61
(g82
g63
NtRp2400
(dp2401
g66
(dp2402
g86
g87
ssg75
g2396
sg68
(lp2403
S'environ'
p2404
asbag61
(g82
g63
NtRp2405
(dp2406
g66
(dp2407
g93
g94
ssg75
g2396
sg68
(lp2408
S':'
asbag61
(g82
g63
NtRp2409
(dp2410
g66
(dp2411
sg75
g2396
sg68
(lp2412
g61
(g62
g63
NtRp2413
(dp2414
g66
(dp2415
g74
I4
ssg75
g2409
sg68
(lp2416
g61
(g70
g63
NtRp2417
(dp2418
g66
(dp2419
g74
I3
ssg75
Nsg68
(lp2420
g61
(g77
g63
NtRp2421
(dp2422
g66
(dp2423
sg75
g2417
sg68
(lp2424
g61
(g82
g63
NtRp2425
(dp2426
g66
(dp2427
g86
g87
ssg75
g2421
sg68
(lp2428
S'HTTP_ACCEPT'
p2429
asbag61
(g82
g63
NtRp2430
(dp2431
g66
(dp2432
g93
g94
ssg75
g2421
sg68
(lp2433
S':'
asbag61
(g82
g63
NtRp2434
(dp2435
g66
(dp2436
sg75
g2421
sg68
(lp2437
g61
(g62
g63
NtRp2438
(dp2439
g66
(dp2440
g74
I3
ssg75
g2434
sg68
(lp2441
g846
asbasbasbag61
(g77
g63
NtRp2442
(dp2443
g66
(dp2444
sg75
g2417
sg68
(lp2445
g61
(g82
g63
NtRp2446
(dp2447
g66
(dp2448
g86
g87
ssg75
g2442
sg68
(lp2449
S'HTTP_ACCEPT_CHARSET'
p2450
asbag61
(g82
g63
NtRp2451
(dp2452
g66
(dp2453
g93
g94
ssg75
g2442
sg68
(lp2454
S':'
asbag61
(g82
g63
NtRp2455
(dp2456
g66
(dp2457
sg75
g2442
sg68
(lp2458
g61
(g62
g63
NtRp2459
(dp2460
g66
(dp2461
g74
I3
ssg75
g2455
sg68
(lp2462
g868
asbasbasbag61
(g77
g63
NtRp2463
(dp2464
g66
(dp2465
sg75
g2417
sg68
(lp2466
g61
(g82
g63
NtRp2467
(dp2468
g66
(dp2469
g86
g87
ssg75
g2463
sg68
(lp2470
S'HTTP_ACCEPT_ENCODING'
p2471
asbag61
(g82
g63
NtRp2472
(dp2473
g66
(dp2474
g93
g94
ssg75
g2463
sg68
(lp2475
S':'
asbag61
(g82
g63
NtRp2476
(dp2477
g66
(dp2478
sg75
g2463
sg68
(lp2479
g61
(g62
g63
NtRp2480
(dp2481
g66
(dp2482
g74
I3
ssg75
g2476
sg68
(lp2483
g890
asbasbasbag61
(g77
g63
NtRp2484
(dp2485
g66
(dp2486
sg75
g2417
sg68
(lp2487
g61
(g82
g63
NtRp2488
(dp2489
g66
(dp2490
g86
g87
ssg75
g2484
sg68
(lp2491
S'HTTP_ACCEPT_LANGUAGE'
p2492
asbag61
(g82
g63
NtRp2493
(dp2494
g66
(dp2495
g93
g94
ssg75
g2484
sg68
(lp2496
S':'
asbag61
(g82
g63
NtRp2497
(dp2498
g66
(dp2499
sg75
g2484
sg68
(lp2500
g61
(g62
g63
NtRp2501
(dp2502
g66
(dp2503
g74
I3
ssg75
g2497
sg68
(lp2504
g912
asbasbasbag61
(g77
g63
NtRp2505
(dp2506
g66
(dp2507
sg75
g2417
sg68
(lp2508
g61
(g82
g63
NtRp2509
(dp2510
g66
(dp2511
g86
g87
ssg75
g2505
sg68
(lp2512
S'HTTP_CONNECTION'
p2513
asbag61
(g82
g63
NtRp2514
(dp2515
g66
(dp2516
g93
g94
ssg75
g2505
sg68
(lp2517
S':'
asbag61
(g82
g63
NtRp2518
(dp2519
g66
(dp2520
sg75
g2505
sg68
(lp2521
g61
(g62
g63
NtRp2522
(dp2523
g66
(dp2524
g74
I3
ssg75
g2518
sg68
(lp2525
g934
asbasbasbag61
(g77
g63
NtRp2526
(dp2527
g66
(dp2528
sg75
g2417
sg68
(lp2529
g61
(g82
g63
NtRp2530
(dp2531
g66
(dp2532
g86
g87
ssg75
g2526
sg68
(lp2533
S'HTTP_COOKIE'
p2534
asbag61
(g82
g63
NtRp2535
(dp2536
g66
(dp2537
g93
g94
ssg75
g2526
sg68
(lp2538
S':'
asbag61
(g82
g63
NtRp2539
(dp2540
g66
(dp2541
sg75
g2526
sg68
(lp2542
g61
(g62
g63
NtRp2543
(dp2544
g66
(dp2545
g74
I3
ssg75
g2539
sg68
(lp2546
g956
asbasbasbag61
(g77
g63
NtRp2547
(dp2548
g66
(dp2549
sg75
g2417
sg68
(lp2550
g61
(g82
g63
NtRp2551
(dp2552
g66
(dp2553
g86
g87
ssg75
g2547
sg68
(lp2554
S'HTTP_HOST'
p2555
asbag61
(g82
g63
NtRp2556
(dp2557
g66
(dp2558
g93
g94
ssg75
g2547
sg68
(lp2559
S':'
asbag61
(g82
g63
NtRp2560
(dp2561
g66
(dp2562
sg75
g2547
sg68
(lp2563
g61
(g62
g63
NtRp2564
(dp2565
g66
(dp2566
g74
I3
ssg75
g2560
sg68
(lp2567
g978
asbasbasbag61
(g77
g63
NtRp2568
(dp2569
g66
(dp2570
sg75
g2417
sg68
(lp2571
g61
(g82
g63
NtRp2572
(dp2573
g66
(dp2574
g86
g87
ssg75
g2568
sg68
(lp2575
S'HTTP_REFERER'
p2576
asbag61
(g82
g63
NtRp2577
(dp2578
g66
(dp2579
g93
g94
ssg75
g2568
sg68
(lp2580
S':'
asbag61
(g82
g63
NtRp2581
(dp2582
g66
(dp2583
sg75
g2568
sg68
(lp2584
g61
(g62
g63
NtRp2585
(dp2586
g66
(dp2587
g74
I3
ssg75
g2581
sg68
(lp2588
g1000
asbasbasbag61
(g77
g63
NtRp2589
(dp2590
g66
(dp2591
sg75
g2417
sg68
(lp2592
g61
(g82
g63
NtRp2593
(dp2594
g66
(dp2595
g86
g87
ssg75
g2589
sg68
(lp2596
S'HTTP_USER_AGENT'
p2597
asbag61
(g82
g63
NtRp2598
(dp2599
g66
(dp2600
g93
g94
ssg75
g2589
sg68
(lp2601
S':'
asbag61
(g82
g63
NtRp2602
(dp2603
g66
(dp2604
sg75
g2589
sg68
(lp2605
g61
(g62
g63
NtRp2606
(dp2607
g66
(dp2608
g74
I3
ssg75
g2602
sg68
(lp2609
g1022
asbasbasbag61
(g77
g63
NtRp2610
(dp2611
g66
(dp2612
sg75
g2417
sg68
(lp2613
g61
(g82
g63
NtRp2614
(dp2615
g66
(dp2616
g86
g87
ssg75
g2610
sg68
(lp2617
S'PATH_INFO'
p2618
asbag61
(g82
g63
NtRp2619
(dp2620
g66
(dp2621
g93
g94
ssg75
g2610
sg68
(lp2622
S':'
asbag61
(g82
g63
NtRp2623
(dp2624
g66
(dp2625
sg75
g2610
sg68
(lp2626
g61
(g62
g63
NtRp2627
(dp2628
g66
(dp2629
g74
I3
ssg75
g2623
sg68
(lp2630
g1163
asbasbasbag61
(g77
g63
NtRp2631
(dp2632
g66
(dp2633
sg75
g2417
sg68
(lp2634
g61
(g82
g63
NtRp2635
(dp2636
g66
(dp2637
g86
g87
ssg75
g2631
sg68
(lp2638
S'QUERY_STRING'
p2639
asbag61
(g82
g63
NtRp2640
(dp2641
g66
(dp2642
g93
g94
ssg75
g2631
sg68
(lp2643
S':'
asbag61
(g82
g63
NtRp2644
(dp2645
g66
(dp2646
sg75
g2631
sg68
(lp2647
g61
(g62
g63
NtRp2648
(dp2649
g66
(dp2650
g74
I3
ssg75
g2644
sg68
(lp2651
S''
asbasbasbag61
(g77
g63
NtRp2652
(dp2653
g66
(dp2654
sg75
g2417
sg68
(lp2655
g61
(g82
g63
NtRp2656
(dp2657
g66
(dp2658
g86
g87
ssg75
g2652
sg68
(lp2659
S'REMOTE_ADDR'
p2660
asbag61
(g82
g63
NtRp2661
(dp2662
g66
(dp2663
g93
g94
ssg75
g2652
sg68
(lp2664
S':'
asbag61
(g82
g63
NtRp2665
(dp2666
g66
(dp2667
sg75
g2652
sg68
(lp2668
g61
(g62
g63
NtRp2669
(dp2670
g66
(dp2671
g74
I3
ssg75
g2665
sg68
(lp2672
g216
asbasbasbag61
(g77
g63
NtRp2673
(dp2674
g66
(dp2675
sg75
g2417
sg68
(lp2676
g61
(g82
g63
NtRp2677
(dp2678
g66
(dp2679
g86
g87
ssg75
g2673
sg68
(lp2680
S'REMOTE_PORT'
p2681
asbag61
(g82
g63
NtRp2682
(dp2683
g66
(dp2684
g93
g94
ssg75
g2673
sg68
(lp2685
S':'
asbag61
(g82
g63
NtRp2686
(dp2687
g66
(dp2688
sg75
g2673
sg68
(lp2689
g61
(g62
g63
NtRp2690
(dp2691
g66
(dp2692
g74
I3
ssg75
g2686
sg68
(lp2693
g1227
asbasbasbag61
(g77
g63
NtRp2694
(dp2695
g66
(dp2696
sg75
g2417
sg68
(lp2697
g61
(g82
g63
NtRp2698
(dp2699
g66
(dp2700
g86
g87
ssg75
g2694
sg68
(lp2701
S'REQUEST_METHOD'
p2702
asbag61
(g82
g63
NtRp2703
(dp2704
g66
(dp2705
g93
g94
ssg75
g2694
sg68
(lp2706
S':'
asbag61
(g82
g63
NtRp2707
(dp2708
g66
(dp2709
sg75
g2694
sg68
(lp2710
g61
(g62
g63
NtRp2711
(dp2712
g66
(dp2713
g74
I3
ssg75
g2707
sg68
(lp2714
g1249
asbasbasbag61
(g77
g63
NtRp2715
(dp2716
g66
(dp2717
sg75
g2417
sg68
(lp2718
g61
(g82
g63
NtRp2719
(dp2720
g66
(dp2721
g86
g87
ssg75
g2715
sg68
(lp2722
S'REQUEST_URI'
p2723
asbag61
(g82
g63
NtRp2724
(dp2725
g66
(dp2726
g93
g94
ssg75
g2715
sg68
(lp2727
S':'
asbag61
(g82
g63
NtRp2728
(dp2729
g66
(dp2730
sg75
g2715
sg68
(lp2731
g61
(g62
g63
NtRp2732
(dp2733
g66
(dp2734
g74
I3
ssg75
g2728
sg68
(lp2735
g1271
asbasbasbag61
(g77
g63
NtRp2736
(dp2737
g66
(dp2738
sg75
g2417
sg68
(lp2739
g61
(g82
g63
NtRp2740
(dp2741
g66
(dp2742
g86
g87
ssg75
g2736
sg68
(lp2743
S'SCRIPT_NAME'
p2744
asbag61
(g82
g63
NtRp2745
(dp2746
g66
(dp2747
g93
g94
ssg75
g2736
sg68
(lp2748
S':'
asbag61
(g82
g63
NtRp2749
(dp2750
g66
(dp2751
sg75
g2736
sg68
(lp2752
g61
(g62
g63
NtRp2753
(dp2754
g66
(dp2755
g74
I3
ssg75
g2749
sg68
(lp2756
S''
asbasbasbag61
(g77
g63
NtRp2757
(dp2758
g66
(dp2759
sg75
g2417
sg68
(lp2760
g61
(g82
g63
NtRp2761
(dp2762
g66
(dp2763
g86
g87
ssg75
g2757
sg68
(lp2764
S'SERVER_NAME'
p2765
asbag61
(g82
g63
NtRp2766
(dp2767
g66
(dp2768
g93
g94
ssg75
g2757
sg68
(lp2769
S':'
asbag61
(g82
g63
NtRp2770
(dp2771
g66
(dp2772
sg75
g2757
sg68
(lp2773
g61
(g62
g63
NtRp2774
(dp2775
g66
(dp2776
g74
I3
ssg75
g2770
sg68
(lp2777
g1314
asbasbasbag61
(g77
g63
NtRp2778
(dp2779
g66
(dp2780
sg75
g2417
sg68
(lp2781
g61
(g82
g63
NtRp2782
(dp2783
g66
(dp2784
g86
g87
ssg75
g2778
sg68
(lp2785
S'SERVER_PORT'
p2786
asbag61
(g82
g63
NtRp2787
(dp2788
g66
(dp2789
g93
g94
ssg75
g2778
sg68
(lp2790
S':'
asbag61
(g82
g63
NtRp2791
(dp2792
g66
(dp2793
sg75
g2778
sg68
(lp2794
g61
(g62
g63
NtRp2795
(dp2796
g66
(dp2797
g74
I3
ssg75
g2791
sg68
(lp2798
g1336
asbasbasbag61
(g77
g63
NtRp2799
(dp2800
g66
(dp2801
sg75
g2417
sg68
(lp2802
g61
(g82
g63
NtRp2803
(dp2804
g66
(dp2805
g86
g87
ssg75
g2799
sg68
(lp2806
S'SERVER_PROTOCOL'
p2807
asbag61
(g82
g63
NtRp2808
(dp2809
g66
(dp2810
g93
g94
ssg75
g2799
sg68
(lp2811
S':'
asbag61
(g82
g63
NtRp2812
(dp2813
g66
(dp2814
sg75
g2799
sg68
(lp2815
g61
(g62
g63
NtRp2816
(dp2817
g66
(dp2818
g74
I3
ssg75
g2812
sg68
(lp2819
g1358
asbasbasbag61
(g77
g63
NtRp2820
(dp2821
g66
(dp2822
sg75
g2417
sg68
(lp2823
g61
(g82
g63
NtRp2824
(dp2825
g66
(dp2826
g86
g87
ssg75
g2820
sg68
(lp2827
S'SERVER_SOFTWARE'
p2828
asbag61
(g82
g63
NtRp2829
(dp2830
g66
(dp2831
g93
g94
ssg75
g2820
sg68
(lp2832
S':'
asbag61
(g82
g63
NtRp2833
(dp2834
g66
(dp2835
sg75
g2820
sg68
(lp2836
g61
(g62
g63
NtRp2837
(dp2838
g66
(dp2839
g74
I3
ssg75
g2833
sg68
(lp2840
g1380
asbasbasbag61
(g77
g63
NtRp2841
(dp2842
g66
(dp2843
sg75
g2417
sg68
(lp2844
g61
(g82
g63
NtRp2845
(dp2846
g66
(dp2847
g86
g87
ssg75
g2841
sg68
(lp2848
S'WEB2PY_ORIGINAL_URI'
p2849
asbag61
(g82
g63
NtRp2850
(dp2851
g66
(dp2852
g93
g94
ssg75
g2841
sg68
(lp2853
S':'
asbag61
(g82
g63
NtRp2854
(dp2855
g66
(dp2856
sg75
g2841
sg68
(lp2857
g61
(g62
g63
NtRp2858
(dp2859
g66
(dp2860
g74
I3
ssg75
g2854
sg68
(lp2861
g1163
asbasbasbag61
(g77
g63
NtRp2862
(dp2863
g66
(dp2864
sg75
g2417
sg68
(lp2865
g61
(g82
g63
NtRp2866
(dp2867
g66
(dp2868
g86
g87
ssg75
g2862
sg68
(lp2869
S'wsgi.errors'
p2870
asbag61
(g82
g63
NtRp2871
(dp2872
g66
(dp2873
g93
g94
ssg75
g2862
sg68
(lp2874
S':'
asbag61
(g82
g63
NtRp2875
(dp2876
g66
(dp2877
sg75
g2862
sg68
(lp2878
g61
(g62
g63
NtRp2879
(dp2880
g66
(dp2881
g74
I3
ssg75
g2875
sg68
(lp2882
S"<open file '<stderr>', mode 'w' at 0x7fe816965270>"
p2883
asbasbasbag61
(g77
g63
NtRp2884
(dp2885
g66
(dp2886
sg75
g2417
sg68
(lp2887
g61
(g82
g63
NtRp2888
(dp2889
g66
(dp2890
g86
g87
ssg75
g2884
sg68
(lp2891
S'wsgi.file_wrapper'
p2892
asbag61
(g82
g63
NtRp2893
(dp2894
g66
(dp2895
g93
g94
ssg75
g2884
sg68
(lp2896
S':'
asbag61
(g82
g63
NtRp2897
(dp2898
g66
(dp2899
sg75
g2884
sg68
(lp2900
g61
(g62
g63
NtRp2901
(dp2902
g66
(dp2903
g74
I3
ssg75
g2897
sg68
(lp2904
S'<class wsgiref.util.FileWrapper at 0x1e4b598>'
p2905
asbasbasbag61
(g77
g63
NtRp2906
(dp2907
g66
(dp2908
sg75
g2417
sg68
(lp2909
g61
(g82
g63
NtRp2910
(dp2911
g66
(dp2912
g86
g87
ssg75
g2906
sg68
(lp2913
S'wsgi.input'
p2914
asbag61
(g82
g63
NtRp2915
(dp2916
g66
(dp2917
g93
g94
ssg75
g2906
sg68
(lp2918
S':'
asbag61
(g82
g63
NtRp2919
(dp2920
g66
(dp2921
sg75
g2906
sg68
(lp2922
g61
(g62
g63
NtRp2923
(dp2924
g66
(dp2925
g74
I3
ssg75
g2919
sg68
(lp2926
S'<cStringIO.StringO object at 0x7fe7f87c3650>'
p2927
asbasbasbag61
(g77
g63
NtRp2928
(dp2929
g66
(dp2930
sg75
g2417
sg68
(lp2931
g61
(g82
g63
NtRp2932
(dp2933
g66
(dp2934
g86
g87
ssg75
g2928
sg68
(lp2935
S'wsgi.multiprocess'
p2936
asbag61
(g82
g63
NtRp2937
(dp2938
g66
(dp2939
g93
g94
ssg75
g2928
sg68
(lp2940
S':'
asbag61
(g82
g63
NtRp2941
(dp2942
g66
(dp2943
sg75
g2928
sg68
(lp2944
g61
(g62
g63
NtRp2945
(dp2946
g66
(dp2947
g74
I3
ssg75
g2941
sg68
(lp2948
g104
asbasbasbag61
(g77
g63
NtRp2949
(dp2950
g66
(dp2951
sg75
g2417
sg68
(lp2952
g61
(g82
g63
NtRp2953
(dp2954
g66
(dp2955
g86
g87
ssg75
g2949
sg68
(lp2956
S'wsgi.multithread'
p2957
asbag61
(g82
g63
NtRp2958
(dp2959
g66
(dp2960
g93
g94
ssg75
g2949
sg68
(lp2961
S':'
asbag61
(g82
g63
NtRp2962
(dp2963
g66
(dp2964
sg75
g2949
sg68
(lp2965
g61
(g62
g63
NtRp2966
(dp2967
g66
(dp2968
g74
I3
ssg75
g2962
sg68
(lp2969
g1618
asbasbasbag61
(g77
g63
NtRp2970
(dp2971
g66
(dp2972
sg75
g2417
sg68
(lp2973
g61
(g82
g63
NtRp2974
(dp2975
g66
(dp2976
g86
g87
ssg75
g2970
sg68
(lp2977
S'wsgi.run_once'
p2978
asbag61
(g82
g63
NtRp2979
(dp2980
g66
(dp2981
g93
g94
ssg75
g2970
sg68
(lp2982
S':'
asbag61
(g82
g63
NtRp2983
(dp2984
g66
(dp2985
sg75
g2970
sg68
(lp2986
g61
(g62
g63
NtRp2987
(dp2988
g66
(dp2989
g74
I3
ssg75
g2983
sg68
(lp2990
g104
asbasbasbag61
(g77
g63
NtRp2991
(dp2992
g66
(dp2993
sg75
g2417
sg68
(lp2994
g61
(g82
g63
NtRp2995
(dp2996
g66
(dp2997
g86
g87
ssg75
g2991
sg68
(lp2998
S'wsgi.url_scheme'
p2999
asbag61
(g82
g63
NtRp3000
(dp3001
g66
(dp3002
g93
g94
ssg75
g2991
sg68
(lp3003
S':'
asbag61
(g82
g63
NtRp3004
(dp3005
g66
(dp3006
sg75
g2991
sg68
(lp3007
g61
(g62
g63
NtRp3008
(dp3009
g66
(dp3010
g74
I3
ssg75
g3004
sg68
(lp3011
g1661
asbasbasbag61
(g77
g63
NtRp3012
(dp3013
g66
(dp3014
sg75
g2417
sg68
(lp3015
g61
(g82
g63
NtRp3016
(dp3017
g66
(dp3018
g86
g87
ssg75
g3012
sg68
(lp3019
S'wsgi.version'
p3020
asbag61
(g82
g63
NtRp3021
(dp3022
g66
(dp3023
g93
g94
ssg75
g3012
sg68
(lp3024
S':'
asbag61
(g82
g63
NtRp3025
(dp3026
g66
(dp3027
sg75
g3012
sg68
(lp3028
g61
(g62
g63
NtRp3029
(dp3030
g66
(dp3031
g74
I3
ssg75
g3025
sg68
(lp3032
S'1'
asbasbasbasbasbasbasbasbasbasbasbasbasbsS'frames'
p3033
(lp3034
(dp3035
S'file'
p3036
S'/var/www/conferencia/gluon/restricted.py'
p3037
sS'dump'
p3038
(dp3039
S'environment'
p3040
S"{'A': <class 'gluon.html.A'>, 'Auth': <class 'gluon.tools.Auth'>, 'B': <class 'gluon.html.B'>, 'BEAUTIFY': <class 'gluon.html.BEAUTIFY'>, 'BODY': <class 'gluon.html.BODY'>, 'BR': <class 'gluon.html.BR'>, 'BUTTON': <class 'gluon.html.BUTTON'>, 'CAT': <class 'gluon.html.CAT'>, 'CENTER': <class 'gluon.html.CENTER'>, 'CLEANUP': <class 'gluon.validators.CLEANUP'>, ...}"
p3041
sS'ccode'
p3042
S'<code object <module> at 0x7fe7f8792a30, file "/...a/applications/projeto/models/models.py", line 1>'
p3043
ssS'lnum'
p3044
I212
sS'lines'
p3045
(dp3046
I207
S'    try:'
p3047
sI208
S'        if isinstance(code, types.CodeType):'
p3048
sI209
S'            ccode = code'
p3049
sI210
S'        else:'
p3050
sI211
S'            ccode = compile2(code, layer)'
p3051
sI212
S'        exec ccode in environment'
p3052
sI213
S'    except HTTP:'
p3053
sI214
S'        raise'
p3054
sI215
S'    except RestrictedError:'
p3055
sI216
S'        # do not encapsulate (obfuscate) the original RestrictedError'
p3056
ssS'call'
p3057
S'(code=\'usuario = db.define_table("usuario",\\n      Field...= "Membros"\\nmeetme.admin_user.label = "Admins"\\n\\n\\n\', environment={\'A\': <class \'gluon.html.A\'>, \'Auth\': <class \'gluon.tools.Auth\'>, \'B\': <class \'gluon.html.B\'>, \'BEAUTIFY\': <class \'gluon.html.BEAUTIFY\'>, \'BODY\': <class \'gluon.html.BODY\'>, \'BR\': <class \'gluon.html.BR\'>, \'BUTTON\': <class \'gluon.html.BUTTON\'>, \'CAT\': <class \'gluon.html.CAT\'>, \'CENTER\': <class \'gluon.html.CENTER\'>, \'CLEANUP\': <class \'gluon.validators.CLEANUP\'>, ...}, layer=\'/var/www/conferencia/applications/projeto/models/models.py\')'
p3058
sS'func'
p3059
S'restricted'
p3060
sa(dp3061
g3036
S'/var/www/conferencia/applications/projeto/models/models.py'
p3062
sg3038
(dp3063
S'primarykey'
p3064
S'undefined'
p3065
ssg3044
I16
sg3045
(dp3066
I11
S'      Field("starttime", "datetime"),'
p3067
sI12
S'      Field("endtime", "datetime"),'
p3068
sI13
S'      Field("membros_user", \'list:reference usuario\'),'
p3069
sI14
S'      Field("admin_user", \'list:reference usuario\'),'
p3070
sI15
S'      Field(\'gravacao\', "boolean"),'
p3071
sI16
S"      primarykey=['confno']"
p3072
sI17
S'      )'
p3073
sI18
S''
sI19
S"meetme.confno.label = 'Sala'"
p3074
sI20
S"meetme.starttime.label = 'In\xc3\xadcio'"
p3075
ssg3057
S'()'
p3076
sg3059
S'<module>'
p3077
sa(dp3078
g3036
S'/var/www/conferencia/gluon/dal.py'
p3079
sg3038
(dp3080
S'fields'
p3081
S'(<gluon.dal.Field object>, <gluon.dal.Field object>, <gluon.dal.Field object>, <gluon.dal.Field object>, <gluon.dal.Field object>, <gluon.dal.Field object>)'
p3082
sS'self'
p3083
S'<DAL uri="postgres:pg8000://******:123456@127.0.0.1/conferencia">'
p3084
sS'args'
p3085
S"{'primarykey': ['confno']}"
p3086
sS'tablename'
p3087
S"'meetme'"
p3088
sS'table'
p3089
g3065
sS'self.lazy_define_table'
p3090
S'<bound method DAL.lazy_define_table of <DAL uri=...s:pg8000://******:123456@127.0.0.1/conferencia">>'
p3091
ssg3044
I7186
sg3045
(dp3092
I7181
S'                    % (tablename,invalid_args))'
p3093
sI7182
S'        if self._lazy_tables and not tablename in self._LAZY_TABLES:'
p3094
sI7183
S'            self._LAZY_TABLES[tablename] = (tablename,fields,args)'
p3095
sI7184
S'            table = None'
p3096
sI7185
S'        else:'
p3097
sI7186
S'            table = self.lazy_define_table(tablename,*fields,**args)'
p3098
sI7187
S'        if not tablename in self.tables:'
p3099
sI7188
S'            self.tables.append(tablename)'
p3100
sI7189
S'        return table'
p3101
sI7190
S''
ssg3057
S'(self=<DAL uri="postgres:pg8000://******:123456@127.0.0.1/conferencia">, tablename=\'meetme\', *fields=(<gluon.dal.Field object>, <gluon.dal.Field object>, <gluon.dal.Field object>, <gluon.dal.Field object>, <gluon.dal.Field object>, <gluon.dal.Field object>), **args={\'primarykey\': [\'confno\']})'
p3102
sg3059
S'define_table'
p3103
sa(dp3104
g3036
S'/var/www/conferencia/gluon/dal.py'
p3105
sg3038
(dp3106
S'polymodel'
p3107
S'None'
p3108
ssg3044
I7222
sg3045
(dp3109
I7217
S"            polymodel = args_get('polymodel',None)"
p3110
sI7218
S'            try:'
p3111
sI7219
S'                GLOBAL_LOCKER.acquire()'
p3112
sI7220
S'                self._adapter.create_table(table,migrate=migrate,'
p3113
sI7221
S'                                           fake_migrate=fake_migrate,'
p3114
sI7222
S'                                           polymodel=polymodel)'
p3115
sI7223
S'            finally:'
p3116
sI7224
S'                GLOBAL_LOCKER.release()'
p3117
sI7225
S'        else:'
p3118
sI7226
S'            table._dbt = None'
p3119
ssg3057
S'(self=<DAL uri="postgres:pg8000://******:123456@127.0.0.1/conferencia">, tablename=\'meetme\', *fields=(<gluon.dal.Field object>, <gluon.dal.Field object>, <gluon.dal.Field object>, <gluon.dal.Field object>, <gluon.dal.Field object>, <gluon.dal.Field object>), **args={\'primarykey\': [\'confno\']})'
p3120
sg3059
S'lazy_define_table'
p3121
sa(dp3122
g3036
S'/var/www/conferencia/gluon/dal.py'
p3123
sg3038
(dp3124
S'fake_migrate'
p3125
g104
ssg3044
I963
sg3045
(dp3126
I960
S'                self.migrate_table(table,'
p3127
sI961
S'                                   sql_fields, sql_fields_old,'
p3128
sI962
S'                                   sql_fields_aux, logfile,'
p3129
sI963
S'                                   fake_migrate=fake_migrate)'
p3130
sI964
S'        self.file_close(logfile)'
p3131
sI965
S'        return query'
p3132
sI966
S''
sI967
S'    def migrate_table('
p3133
sI958
S'            self.file_close(tfile)'
p3134
sI959
S'            if sql_fields != sql_fields_old:'
p3135
ssg3057
S'(self=<gluon.dal.PostgreSQLAdapter object>, table=<Table meetme (confno,starttime,endtime,membros_user,admin_user,gravacao)>, migrate=True, fake_migrate=False, polymodel=None)'
p3136
sg3059
S'create_table'
p3137
sa(dp3138
g3036
S'/var/www/conferencia/gluon/dal.py'
p3139
sg3038
(dp3140
S'self'
p3141
S'<gluon.dal.PostgreSQLAdapter object>'
p3142
sS'self.execute'
p3143
S'<bound method PostgreSQLAdapter.execute of <gluon.dal.PostgreSQLAdapter object>>'
p3144
sS'sub_query'
p3145
S"'ALTER TABLE meetme ADD confno__tmp INTEGER NOT NULL;'"
p3146
ssg3044
I1069
sg3045
(dp3147
I1064
S'                              % datetime.datetime.today().isoformat())'
p3148
sI1065
S"                db['_lastsql'] = '\\n'.join(query)"
p3149
sI1066
S'                for sub_query in query:'
p3150
sI1067
S"                    logfile.write(sub_query + '\\n')"
p3151
sI1068
S'                    if not fake_migrate:'
p3152
sI1069
S'                        self.execute(sub_query)'
p3153
sI1070
S'                        # Caveat: mysql, oracle and firebird do not allow multiple alter table'
p3154
sI1071
S'                        # in one transaction so we must commit partial transactions and'
p3155
sI1072
S'                        # update table._dbt after alter table.'
p3156
sI1073
S'                        if db._adapter.commit_on_alter_table:'
p3157
ssg3057
S"(self=<gluon.dal.PostgreSQLAdapter object>, table=<Table meetme (confno,starttime,endtime,membros_user,admin_user,gravacao)>, sql_fields={'admin_user': {'length': 512, 'notnull': False, 'sortable': 5, 'sql': 'TEXT', 'type': 'list:reference usuario', 'unique': False}, 'confno': {'length': 512, 'notnull': True, 'sortable': 1, 'sql': 'INTEGER NOT NULL', 'type': 'integer', 'unique': False}, 'endtime': {'length': 512, 'notnull': False, 'sortable': 3, 'sql': 'TIMESTAMP', 'type': 'datetime', 'unique': False}, 'gravacao': {'length': 512, 'notnull': False, 'sortable': 6, 'sql': 'CHAR(1)', 'type': 'boolean', 'unique': False}, 'membros_user': {'length': 512, 'notnull': False, 'sortable': 4, 'sql': 'TEXT', 'type': 'list:reference usuario', 'unique': False}, 'starttime': {'length': 512, 'notnull': False, 'sortable': 2, 'sql': 'TIMESTAMP', 'type': 'datetime', 'unique': False}}, sql_fields_old={'admin_user': {'length': 512, 'notnull': False, 'sortable': 5, 'sql': 'TEXT', 'type': 'list:reference usuario', 'unique': False}, 'confno': {'length': 512, 'notnull': True, 'sortable': 1, 'sql': 'SERIAL PRIMARY KEY', 'type': 'id', 'unique': False}, 'endtime': {'length': 512, 'notnull': False, 'sortable': 3, 'sql': 'TIMESTAMP', 'type': 'datetime', 'unique': False}, 'gravacao': {'length': 512, 'notnull': False, 'sortable': 5, 'sql': 'CHAR(1)', 'type': 'boolean', 'unique': False}, 'membros_user': {'length': 512, 'notnull': False, 'sortable': 4, 'sql': 'TEXT', 'type': 'list:reference usuario', 'unique': False}, 'starttime': {'length': 512, 'notnull': False, 'sortable': 2, 'sql': 'TIMESTAMP', 'type': 'datetime', 'unique': False}}, sql_fields_aux={'admin_user': {'sql': 'TEXT'}, 'confno': {'sql': 'INTEGER NOT NULL'}, 'endtime': {'sql': 'TIMESTAMP'}, 'gravacao': {'sql': 'CHAR(1)'}, 'membros_user': {'sql': 'TEXT'}, 'starttime': {'sql': 'TIMESTAMP'}}, logfile=<gluon.portalocker.LockedFile object>, fake_migrate=False)"
p3158
sg3059
S'migrate_table'
p3159
sa(dp3160
g3036
S'/var/www/conferencia/gluon/dal.py'
p3161
sg3038
(dp3162
S'a'
S"('ALTER TABLE meetme ADD confno__tmp INTEGER NOT NULL;',)"
p3163
sS'self'
p3164
S'<gluon.dal.PostgreSQLAdapter object>'
p3165
sS'b'
g21
sS'self.log_execute'
p3166
S'<bound method PostgreSQLAdapter.log_execute of <gluon.dal.PostgreSQLAdapter object>>'
p3167
ssg3044
I1709
sg3045
(dp3168
I1704
S'        self.db._timings.append((command,time.time()-t0))'
p3169
sI1705
S'        del self.db._timings[:-TIMINGSSIZE]'
p3170
sI1706
S'        return ret'
p3171
sI1707
S''
sI1708
S'    def execute(self, *a, **b):'
p3172
sI1709
S'        return self.log_execute(*a, **b)'
p3173
sI1710
S''
sI1711
S'    def represent(self, obj, fieldtype):'
p3174
sI1712
S'        field_is_type = fieldtype.startswith'
p3175
sI1713
S'        if isinstance(obj, CALLABLETYPES):'
p3176
ssg3057
S"(self=<gluon.dal.PostgreSQLAdapter object>, *a=('ALTER TABLE meetme ADD confno__tmp INTEGER NOT NULL;',), **b={})"
p3177
sg3059
S'execute'
p3178
sa(dp3179
g3036
S'/var/www/conferencia/gluon/dal.py'
p3180
sg3038
(dp3181
S'a'
S"('ALTER TABLE meetme ADD confno__tmp INTEGER NOT NULL;',)"
p3182
sS'b'
g21
sS'self'
p3183
S'<gluon.dal.PostgreSQLAdapter object>'
p3184
sS'ret'
p3185
g3065
sS'self.cursor'
p3186
S'<gluon.contrib.pg8000.dbapi.CursorWrapper object>'
p3187
sS'self.cursor.execute'
p3188
S'<bound method CursorWrapper._fn of <gluon.contrib.pg8000.dbapi.CursorWrapper object>>'
p3189
ssg3044
I1703
sg3045
(dp3190
I1698
S'        command = a[0]'
p3191
sI1699
S'        if self.db._debug:'
p3192
sI1700
S"            LOGGER.debug('SQL: %s' % command)"
p3193
sI1701
S'        self.db._lastsql = command'
p3194
sI1702
S'        t0 = time.time()'
p3195
sI1703
S'        ret = self.cursor.execute(*a, **b)'
p3196
sI1704
S'        self.db._timings.append((command,time.time()-t0))'
p3197
sI1705
S'        del self.db._timings[:-TIMINGSSIZE]'
p3198
sI1706
S'        return ret'
p3199
sI1707
S''
ssg3057
S"(self=<gluon.dal.PostgreSQLAdapter object>, *a=('ALTER TABLE meetme ADD confno__tmp INTEGER NOT NULL;',), **b={})"
p3200
sg3059
S'log_execute'
p3201
sa(dp3202
g3036
S'/var/www/conferencia/gluon/contrib/pg8000/dbapi.py'
p3203
sg3038
(dp3204
S'self'
p3205
S'<gluon.contrib.pg8000.dbapi.CursorWrapper object>'
p3206
sS'args'
p3207
S"('ALTER TABLE meetme ADD confno__tmp INTEGER NOT NULL;',)"
p3208
sS'fn'
p3209
S'<function execute>'
p3210
sS'kwargs'
p3211
g21
ssg3044
I246
sg3045
(dp3212
I241
S''
sI242
S'def require_open_cursor(fn):'
p3213
sI243
S'    def _fn(self, *args, **kwargs):'
p3214
sI244
S'        if self.cursor == None:'
p3215
sI245
S'            raise CursorClosedError()'
p3216
sI246
S'        return fn(self, *args, **kwargs)'
p3217
sI247
S'    return _fn'
p3218
sI248
S''
sI249
S'##'
p3219
sI250
S'# The class of object returned by the {@link #ConnectionWrapper.cursor cursor method}.'
p3220
ssg3057
S"(self=<gluon.contrib.pg8000.dbapi.CursorWrapper object>, *args=('ALTER TABLE meetme ADD confno__tmp INTEGER NOT NULL;',), **kwargs={})"
p3221
sg3059
S'_fn'
p3222
sa(dp3223
g3036
S'/var/www/conferencia/gluon/contrib/pg8000/dbapi.py'
p3224
sg3038
(dp3225
S'self._execute'
p3226
S'<bound method CursorWrapper._execute of <gluon.contrib.pg8000.dbapi.CursorWrapper object>>'
p3227
sS'self'
p3228
S'<gluon.contrib.pg8000.dbapi.CursorWrapper object>'
p3229
sS'args'
p3230
S'()'
p3231
sS'operation'
p3232
S"'ALTER TABLE meetme ADD confno__tmp INTEGER NOT NULL;'"
p3233
ssg3044
I317
sg3045
(dp3234
I320
S'        new_query, new_args = convert_paramstyle(paramstyle, operation, args)'
p3235
sI321
S'        try:'
p3236
sI312
S'    @require_open_cursor'
p3237
sI313
S'    def execute(self, operation, args=()):'
p3238
sI314
S'        if not self._connection.in_transaction:'
p3239
sI315
S'            self._connection.begin()'
p3240
sI316
S'        self._override_rowcount = None'
p3241
sI317
S'        self._execute(operation, args)'
p3242
sI318
S''
sI319
S'    def _execute(self, operation, args=()):'
p3243
ssg3057
S"(self=<gluon.contrib.pg8000.dbapi.CursorWrapper object>, operation='ALTER TABLE meetme ADD confno__tmp INTEGER NOT NULL;', args=())"
p3244
sg3059
g3178
sa(dp3245
g3036
S'/var/www/conferencia/gluon/contrib/pg8000/dbapi.py'
p3246
sg3038
(dp3247
S'new_args'
p3248
S'()'
p3249
sS'self.cursor'
p3250
S'<gluon.contrib.pg8000.interface.Cursor object>'
p3251
sS'self'
p3252
S'<gluon.contrib.pg8000.dbapi.CursorWrapper object>'
p3253
sS'new_query'
p3254
S"'ALTER TABLE meetme ADD confno__tmp INTEGER NOT NULL;'"
p3255
sS'self.cursor.execute'
p3256
S'<bound method Cursor.execute of <gluon.contrib.pg8000.interface.Cursor object>>'
p3257
ssg3044
I322
sg3045
(dp3258
I320
S'        new_query, new_args = convert_paramstyle(paramstyle, operation, args)'
p3259
sI321
S'        try:'
p3260
sI322
S'            self.cursor.execute(new_query, *new_args)'
p3261
sI323
S'        except ConnectionClosedError:'
p3262
sI324
S"            # can't rollback in this case"
p3263
sI325
S'            raise'
p3264
sI326
S'        except:'
p3265
sI317
S'        self._execute(operation, args)'
p3266
sI318
S''
sI319
S'    def _execute(self, operation, args=()):'
p3267
ssg3057
S"(self=<gluon.contrib.pg8000.dbapi.CursorWrapper object>, operation='ALTER TABLE meetme ADD confno__tmp INTEGER NOT NULL;', args=())"
p3268
sg3059
S'_execute'
p3269
sa(dp3270
g3036
S'/var/www/conferencia/gluon/contrib/pg8000/interface.py'
p3271
sg3038
(dp3272
S'self._stmt.execute'
p3273
S'<bound method PreparedStatement.execute of <gluo...ntrib.pg8000.interface.PreparedStatement object>>'
p3274
sS'kwargs'
p3275
g21
sS'self'
p3276
S'<gluon.contrib.pg8000.interface.Cursor object>'
p3277
sS'args'
p3278
S'()'
p3279
sS'self._stmt'
p3280
S'<gluon.contrib.pg8000.interface.PreparedStatement object>'
p3281
ssg3044
I399
sg3045
(dp3282
I394
S'                ## print "SimpleQuery:", query'
p3283
sI395
S'                self._stmt = SimpleStatement(self.connection, query)'
p3284
sI396
S'            else:'
p3285
sI397
S'                # use PostgreSQL Extended Query Protocol'
p3286
sI398
S'                self._stmt = PreparedStatement(self.connection, query, statement_name="", *[{"type": type(x), "value": x} for x in args])'
p3287
sI399
S'            self._stmt.execute(*args, **kwargs)'
p3288
sI400
S'        finally:'
p3289
sI401
S'            self.connection._unnamed_prepared_statement_lock.release()'
p3290
sI402
S''
sI403
S'    ##'
p3291
ssg3057
S"(self=<gluon.contrib.pg8000.interface.Cursor object>, query='ALTER TABLE meetme ADD confno__tmp INTEGER NOT NULL;', *args=(), **kwargs={})"
p3292
sg3059
g3178
sa(dp3293
g3036
S'/var/www/conferencia/gluon/contrib/pg8000/interface.py'
p3294
sg3038
(dp3295
S'kwargs.get'
p3296
S'<built-in method get of dict object>'
p3297
sS'args'
p3298
S'()'
p3299
sS'self.c'
p3300
S'<gluon.contrib.pg8000.protocol.Connection object>'
p3301
sS'self'
p3302
S'<gluon.contrib.pg8000.interface.PreparedStatement object>'
p3303
sS'cmd'
p3304
g3065
sS'self._row_desc'
p3305
S'None'
p3306
sS'self.c.bind'
p3307
S'<bound method Connection._fn of <gluon.contrib.pg8000.protocol.Connection object>>'
p3308
sS'self._statement_name'
p3309
S"''"
p3310
sS'self._parse_row_desc'
p3311
S'(None, [])'
p3312
sS'kwargs'
p3313
g21
sS'self._portal_name'
p3314
S"'pg8000_portal_1992'"
p3315
ssg3044
I169
sg3045
(dp3316
I164
S'                self._ongoing_row_count = 0'
p3317
sI165
S'            if self._portal_name != None:'
p3318
sI166
S'                self.c.close_portal(self._portal_name)'
p3319
sI167
S'            self._command_complete = False'
p3320
sI168
S'            self._portal_name = "pg8000_portal_%s" % self._statement_number'
p3321
sI169
S'            self._row_desc, cmd = self.c.bind(self._portal_name, self._statement_name, args, self._parse_row_desc, kwargs.get("stream"))'
p3322
sI170
S'            if self._row_desc:'
p3323
sI171
S'                # We execute our cursor right away to fill up our cache.  This'
p3324
sI172
S'                # prevents the cursor from being destroyed, apparently, by a rogue'
p3325
sI173
S'                # Sync between Bind and Execute.  Since it is quite likely that'
p3326
ssg3057
S'(self=<gluon.contrib.pg8000.interface.PreparedStatement object>, *args=(), **kwargs={})'
p3327
sg3059
g3178
sa(dp3328
g3036
S'/var/www/conferencia/gluon/contrib/pg8000/protocol.py'
p3329
sg3038
(dp3330
S'self'
p3331
S'<gluon.contrib.pg8000.protocol.Connection object>'
p3332
sS'args'
p3333
S"('pg8000_portal_1992', '', (), (None, []), None)"
p3334
sS'fn'
p3335
S'<function bind>'
p3336
sS'kwargs'
p3337
g21
ssg3044
I943
sg3045
(dp3338
I938
S''
sI939
S'def sync_on_error(fn):'
p3339
sI940
S'    def _fn(self, *args, **kwargs):'
p3340
sI941
S'        try:'
p3341
sI942
S'            self._sock_lock.acquire()'
p3342
sI943
S'            return fn(self, *args, **kwargs)'
p3343
sI944
S'        except:'
p3344
sI945
S'            self._sync()'
p3345
sI946
S'            raise'
p3346
sI947
S'        finally:'
p3347
ssg3057
S"(self=<gluon.contrib.pg8000.protocol.Connection object>, *args=('pg8000_portal_1992', '', (), (None, []), None), **kwargs={})"
p3348
sg3059
g3222
sa(dp3349
g3036
S'/var/www/conferencia/gluon/contrib/pg8000/protocol.py'
p3350
sg3038
(dp3351
S'reader.handle_messages'
p3352
S'<bound method MessageReader.handle_messages of <gluon.contrib.pg8000.protocol.MessageReader object>>'
p3353
sS'reader'
p3354
S'<gluon.contrib.pg8000.protocol.MessageReader object>'
p3355
ssg3044
I1142
sg3045
(dp3356
I1137
S''
sI1138
S'        # Return the new row desc, since it will have the format types we'
p3357
sI1139
S'        # asked the server for'
p3358
sI1140
S'        reader.add_message(RowDescription, lambda msg: (msg, None))'
p3359
sI1141
S''
sI1142
S'        return reader.handle_messages()'
p3360
sI1143
S''
sI1144
S'    def _copy_in_response(self, copyin, fileobj, old_reader):'
p3361
sI1145
S'        if fileobj == None:'
p3362
sI1146
S'            raise CopyQueryWithoutStreamError()'
p3363
ssg3057
S"(self=<gluon.contrib.pg8000.protocol.Connection object>, portal='pg8000_portal_1992', statement='', params=(), parse_data=(None, []), copy_stream=None)"
p3364
sg3059
S'bind'
p3365
sa(dp3366
g3036
S'/var/www/conferencia/gluon/contrib/pg8000/protocol.py'
p3367
sg3038
(dp3368
S'msg'
p3369
S'<gluon.contrib.pg8000.protocol.NoData object>'
p3370
sS'handler'
p3371
S'<bound method Connection._bind_nodata of <gluon.contrib.pg8000.protocol.Connection object>>'
p3372
sS'retval'
p3373
S'0'
sS'args'
p3374
S"('pg8000_portal_1992', <gluon.contrib.pg8000.protocol.MessageReader object>, None)"
p3375
sS'kwargs'
p3376
g21
ssg3044
I911
sg3045
(dp3377
I906
S'            msg = self._conn._read_message()'
p3378
sI907
S'            msg_handled = False'
p3379
sI908
S'            for (msg_class, handler, args, kwargs) in self._msgs:'
p3380
sI909
S'                if isinstance(msg, msg_class):'
p3381
sI910
S'                    msg_handled = True'
p3382
sI911
S'                    retval = handler(msg, *args, **kwargs)'
p3383
sI912
S'                    if retval:'
p3384
sI913
S'                        # The handler returned a true value, meaning that the'
p3385
sI914
S'                        # message loop should be aborted.'
p3386
sI915
S'                        if exc != None:'
p3387
ssg3057
S'(self=<gluon.contrib.pg8000.protocol.MessageReader object>)'
p3388
sg3059
S'handle_messages'
p3389
sa(dp3390
g3036
S'/var/www/conferencia/gluon/contrib/pg8000/protocol.py'
p3391
sg3038
(dp3392
S'reader.handle_messages'
p3393
S'<bound method MessageReader.handle_messages of <gluon.contrib.pg8000.protocol.MessageReader object>>'
p3394
sS'reader'
p3395
S'<gluon.contrib.pg8000.protocol.MessageReader object>'
p3396
ssg3044
I1181
sg3045
(dp3397
I1184
S''
sI1185
S'    @sync_on_error'
p3398
sI1176
S'        reader.add_message(CopyOutResponse, self._copy_out_response, copy_stream, reader)'
p3399
sI1177
S'        reader.add_message(CopyInResponse, self._copy_in_response, copy_stream, reader)'
p3400
sI1178
S"        reader.add_message(CommandComplete, lambda msg, out: out.setdefault('msg', msg) and False, output)"
p3401
sI1179
S'        reader.add_message(ReadyForQuery, lambda msg: 1)'
p3402
sI1180
S'        reader.delay_raising_exception = True'
p3403
sI1181
S'        reader.handle_messages()'
p3404
sI1182
S''
sI1183
S"        old_reader.return_value((None, output['msg']))"
p3405
ssg3057
S"(self=<gluon.contrib.pg8000.protocol.Connection object>, msg=<gluon.contrib.pg8000.protocol.NoData object>, portal='pg8000_portal_1992', old_reader=<gluon.contrib.pg8000.protocol.MessageReader object>, copy_stream=None)"
p3406
sg3059
S'_bind_nodata'
p3407
sa(dp3408
g3036
S'/var/www/conferencia/gluon/contrib/pg8000/protocol.py'
p3409
sg3038
(dp3410
S'exc'
p3411
S'ProgrammingError(\'ERROR\', \'23502\', \'column "confno__tmp" contains null values\')'
p3412
ssg3044
I916
sg3045
(dp3413
I911
S'                    retval = handler(msg, *args, **kwargs)'
p3414
sI912
S'                    if retval:'
p3415
sI913
S'                        # The handler returned a true value, meaning that the'
p3416
sI914
S'                        # message loop should be aborted.'
p3417
sI915
S'                        if exc != None:'
p3418
sI916
S'                            raise exc'
p3419
sI917
S'                        return retval'
p3420
sI918
S'                    elif hasattr(self, "_retval"):'
p3421
sI919
S'                        # The handler told us to return -- used for non-true'
p3422
sI920
S'                        # return values'
p3423
ssg3057
S'(self=<gluon.contrib.pg8000.protocol.MessageReader object>)'
p3424
sg3059
g3389
sasS'pyver'
p3425
S'Python 2.7.3: /usr/bin/python'
p3426
sS'session'
p3427
g61
(g62
g63
NtRp3428
(dp3429
g66
(dp3430
sg68
(lp3431
g61
(g70
g63
NtRp3432
(dp3433
g66
(dp3434
g74
I5
ssg75
Nsg68
(lp3435
sbasbsS'etype'
p3436
S"<class 'gluon.contrib.pg8000.errors.ProgrammingError'>"
p3437
sS'date'
p3438
S'Wed Apr  3 12:22:49 2013'
p3439
sS'response'
p3440
g61
(g62
g63
NtRp3441
(dp3442
g66
(dp3443
sg68
(lp3444
g61
(g70
g63
NtRp3445
(dp3446
g66
(dp3447
g74
I5
ssg75
Nsg68
(lp3448
g61
(g77
g63
NtRp3449
(dp3450
g66
(dp3451
sg75
g3445
sg68
(lp3452
g61
(g82
g63
NtRp3453
(dp3454
g66
(dp3455
g86
g87
ssg75
g3449
sg68
(lp3456
g159
asbag61
(g82
g63
NtRp3457
(dp3458
g66
(dp3459
g93
g94
ssg75
g3449
sg68
(lp3460
S':'
asbag61
(g82
g63
NtRp3461
(dp3462
g66
(dp3463
sg75
g3449
sg68
(lp3464
g61
(g62
g63
NtRp3465
(dp3466
g66
(dp3467
g74
I5
ssg75
g3461
sg68
(lp3468
S'<cStringIO.StringO object at 0x7fe7fc103570>'
p3469
asbasbasbag61
(g77
g63
NtRp3470
(dp3471
g66
(dp3472
sg75
g3445
sg68
(lp3473
g61
(g82
g63
NtRp3474
(dp3475
g66
(dp3476
g86
g87
ssg75
g3470
sg68
(lp3477
g247
asbag61
(g82
g63
NtRp3478
(dp3479
g66
(dp3480
g93
g94
ssg75
g3470
sg68
(lp3481
S':'
asbag61
(g82
g63
NtRp3482
(dp3483
g66
(dp3484
sg75
g3470
sg68
(lp3485
g61
(g62
g63
NtRp3486
(dp3487
g66
(dp3488
g74
I5
ssg75
g3482
sg68
(lp3489
g61
(g70
g63
NtRp3490
(dp3491
g66
(dp3492
g74
I4
ssg75
Nsg68
(lp3493
g61
(g77
g63
NtRp3494
(dp3495
g66
(dp3496
sg75
g3490
sg68
(lp3497
g61
(g82
g63
NtRp3498
(dp3499
g66
(dp3500
g86
g87
ssg75
g3494
sg68
(lp3501
S'session_id_projeto'
p3502
asbag61
(g82
g63
NtRp3503
(dp3504
g66
(dp3505
g93
g94
ssg75
g3494
sg68
(lp3506
S':'
asbag61
(g82
g63
NtRp3507
(dp3508
g66
(dp3509
sg75
g3494
sg68
(lp3510
g61
(g62
g63
NtRp3511
(dp3512
g66
(dp3513
g74
I4
ssg75
g3507
sg68
(lp3514
g479
ag61
(g70
g63
NtRp3515
(dp3516
g66
(dp3517
g74
I3
ssg75
Nsg68
(lp3518
g61
(g77
g63
NtRp3519
(dp3520
g66
(dp3521
sg75
g3515
sg68
(lp3522
g61
(g82
g63
NtRp3523
(dp3524
g66
(dp3525
g86
g87
ssg75
g3519
sg68
(lp3526
g298
asbag61
(g82
g63
NtRp3527
(dp3528
g66
(dp3529
g93
g94
ssg75
g3519
sg68
(lp3530
S':'
asbag61
(g82
g63
NtRp3531
(dp3532
g66
(dp3533
sg75
g3519
sg68
(lp3534
g61
(g62
g63
NtRp3535
(dp3536
g66
(dp3537
g74
I3
ssg75
g3531
sg68
(lp3538
S''
asbasbasbag61
(g77
g63
NtRp3539
(dp3540
g66
(dp3541
sg75
g3515
sg68
(lp3542
g61
(g82
g63
NtRp3543
(dp3544
g66
(dp3545
g86
g87
ssg75
g3539
sg68
(lp3546
g319
asbag61
(g82
g63
NtRp3547
(dp3548
g66
(dp3549
g93
g94
ssg75
g3539
sg68
(lp3550
S':'
asbag61
(g82
g63
NtRp3551
(dp3552
g66
(dp3553
sg75
g3539
sg68
(lp3554
g61
(g62
g63
NtRp3555
(dp3556
g66
(dp3557
g74
I3
ssg75
g3551
sg68
(lp3558
S''
asbasbasbag61
(g77
g63
NtRp3559
(dp3560
g66
(dp3561
sg75
g3515
sg68
(lp3562
g61
(g82
g63
NtRp3563
(dp3564
g66
(dp3565
g86
g87
ssg75
g3559
sg68
(lp3566
g340
asbag61
(g82
g63
NtRp3567
(dp3568
g66
(dp3569
g93
g94
ssg75
g3559
sg68
(lp3570
S':'
asbag61
(g82
g63
NtRp3571
(dp3572
g66
(dp3573
sg75
g3559
sg68
(lp3574
g61
(g62
g63
NtRp3575
(dp3576
g66
(dp3577
g74
I3
ssg75
g3571
sg68
(lp3578
S''
asbasbasbag61
(g77
g63
NtRp3579
(dp3580
g66
(dp3581
sg75
g3515
sg68
(lp3582
g61
(g82
g63
NtRp3583
(dp3584
g66
(dp3585
g86
g87
ssg75
g3579
sg68
(lp3586
g361
asbag61
(g82
g63
NtRp3587
(dp3588
g66
(dp3589
g93
g94
ssg75
g3579
sg68
(lp3590
S':'
asbag61
(g82
g63
NtRp3591
(dp3592
g66
(dp3593
sg75
g3579
sg68
(lp3594
g61
(g62
g63
NtRp3595
(dp3596
g66
(dp3597
g74
I3
ssg75
g3591
sg68
(lp3598
S''
asbasbasbag61
(g77
g63
NtRp3599
(dp3600
g66
(dp3601
sg75
g3515
sg68
(lp3602
g61
(g82
g63
NtRp3603
(dp3604
g66
(dp3605
g86
g87
ssg75
g3599
sg68
(lp3606
g382
asbag61
(g82
g63
NtRp3607
(dp3608
g66
(dp3609
g93
g94
ssg75
g3599
sg68
(lp3610
S':'
asbag61
(g82
g63
NtRp3611
(dp3612
g66
(dp3613
sg75
g3599
sg68
(lp3614
g61
(g62
g63
NtRp3615
(dp3616
g66
(dp3617
g74
I3
ssg75
g3611
sg68
(lp3618
S''
asbasbasbag61
(g77
g63
NtRp3619
(dp3620
g66
(dp3621
sg75
g3515
sg68
(lp3622
g61
(g82
g63
NtRp3623
(dp3624
g66
(dp3625
g86
g87
ssg75
g3619
sg68
(lp3626
g403
asbag61
(g82
g63
NtRp3627
(dp3628
g66
(dp3629
g93
g94
ssg75
g3619
sg68
(lp3630
S':'
asbag61
(g82
g63
NtRp3631
(dp3632
g66
(dp3633
sg75
g3619
sg68
(lp3634
g61
(g62
g63
NtRp3635
(dp3636
g66
(dp3637
g74
I3
ssg75
g3631
sg68
(lp3638
S'/'
asbasbasbag61
(g77
g63
NtRp3639
(dp3640
g66
(dp3641
sg75
g3515
sg68
(lp3642
g61
(g82
g63
NtRp3643
(dp3644
g66
(dp3645
g86
g87
ssg75
g3639
sg68
(lp3646
g424
asbag61
(g82
g63
NtRp3647
(dp3648
g66
(dp3649
g93
g94
ssg75
g3639
sg68
(lp3650
S':'
asbag61
(g82
g63
NtRp3651
(dp3652
g66
(dp3653
sg75
g3639
sg68
(lp3654
g61
(g62
g63
NtRp3655
(dp3656
g66
(dp3657
g74
I3
ssg75
g3651
sg68
(lp3658
S''
asbasbasbag61
(g77
g63
NtRp3659
(dp3660
g66
(dp3661
sg75
g3515
sg68
(lp3662
g61
(g82
g63
NtRp3663
(dp3664
g66
(dp3665
g86
g87
ssg75
g3659
sg68
(lp3666
g445
asbag61
(g82
g63
NtRp3667
(dp3668
g66
(dp3669
g93
g94
ssg75
g3659
sg68
(lp3670
S':'
asbag61
(g82
g63
NtRp3671
(dp3672
g66
(dp3673
sg75
g3659
sg68
(lp3674
g61
(g62
g63
NtRp3675
(dp3676
g66
(dp3677
g74
I3
ssg75
g3671
sg68
(lp3678
S''
asbasbasbasbasbasbasbasbasbasbasbag61
(g77
g63
NtRp3679
(dp3680
g66
(dp3681
sg75
g3445
sg68
(lp3682
g61
(g82
g63
NtRp3683
(dp3684
g66
(dp3685
g86
g87
ssg75
g3679
sg68
(lp3686
S'delimiters'
p3687
asbag61
(g82
g63
NtRp3688
(dp3689
g66
(dp3690
g93
g94
ssg75
g3679
sg68
(lp3691
S':'
asbag61
(g82
g63
NtRp3692
(dp3693
g66
(dp3694
sg75
g3679
sg68
(lp3695
g61
(g62
g63
NtRp3696
(dp3697
g66
(dp3698
g74
I5
ssg75
g3692
sg68
(lp3699
g61
(g70
g63
NtRp3700
(dp3701
g66
(dp3702
g74
I4
ssg75
Nsg68
(lp3703
g61
(g77
g63
NtRp3704
(dp3705
g66
(dp3706
sg75
g3700
sg68
(lp3707
g61
(g82
g63
NtRp3708
(dp3709
g66
(dp3710
sg75
g3704
sg68
(lp3711
g61
(g62
g63
NtRp3712
(dp3713
g66
(dp3714
g74
I4
ssg75
g3708
sg68
(lp3715
S'{{'
p3716
asbasbasbag61
(g77
g63
NtRp3717
(dp3718
g66
(dp3719
sg75
g3700
sg68
(lp3720
g61
(g82
g63
NtRp3721
(dp3722
g66
(dp3723
sg75
g3717
sg68
(lp3724
g61
(g62
g63
NtRp3725
(dp3726
g66
(dp3727
g74
I4
ssg75
g3721
sg68
(lp3728
S'}}'
p3729
asbasbasbasbasbasbasbag61
(g77
g63
NtRp3730
(dp3731
g66
(dp3732
sg75
g3445
sg68
(lp3733
g61
(g82
g63
NtRp3734
(dp3735
g66
(dp3736
g86
g87
ssg75
g3730
sg68
(lp3737
S'files'
p3738
asbag61
(g82
g63
NtRp3739
(dp3740
g66
(dp3741
g93
g94
ssg75
g3730
sg68
(lp3742
S':'
asbag61
(g82
g63
NtRp3743
(dp3744
g66
(dp3745
sg75
g3730
sg68
(lp3746
g61
(g62
g63
NtRp3747
(dp3748
g66
(dp3749
g74
I5
ssg75
g3743
sg68
(lp3750
g61
(g70
g63
NtRp3751
(dp3752
g66
(dp3753
g74
I4
ssg75
Nsg68
(lp3754
sbasbasbasbag61
(g77
g63
NtRp3755
(dp3756
g66
(dp3757
sg75
g3445
sg68
(lp3758
g61
(g82
g63
NtRp3759
(dp3760
g66
(dp3761
g86
g87
ssg75
g3755
sg68
(lp3762
S'flash'
p3763
asbag61
(g82
g63
NtRp3764
(dp3765
g66
(dp3766
g93
g94
ssg75
g3755
sg68
(lp3767
S':'
asbag61
(g82
g63
NtRp3768
(dp3769
g66
(dp3770
sg75
g3755
sg68
(lp3771
g61
(g62
g63
NtRp3772
(dp3773
g66
(dp3774
g74
I5
ssg75
g3768
sg68
(lp3775
S''
asbasbasbag61
(g77
g63
NtRp3776
(dp3777
g66
(dp3778
sg75
g3445
sg68
(lp3779
g61
(g82
g63
NtRp3780
(dp3781
g66
(dp3782
g86
g87
ssg75
g3776
sg68
(lp3783
S'generic_patterns'
p3784
asbag61
(g82
g63
NtRp3785
(dp3786
g66
(dp3787
g93
g94
ssg75
g3776
sg68
(lp3788
S':'
asbag61
(g82
g63
NtRp3789
(dp3790
g66
(dp3791
sg75
g3776
sg68
(lp3792
g61
(g62
g63
NtRp3793
(dp3794
g66
(dp3795
g74
I5
ssg75
g3789
sg68
(lp3796
g61
(g70
g63
NtRp3797
(dp3798
g66
(dp3799
g74
I4
ssg75
Nsg68
(lp3800
g61
(g77
g63
NtRp3801
(dp3802
g66
(dp3803
sg75
g3797
sg68
(lp3804
g61
(g82
g63
NtRp3805
(dp3806
g66
(dp3807
sg75
g3801
sg68
(lp3808
g61
(g62
g63
NtRp3809
(dp3810
g66
(dp3811
g74
I4
ssg75
g3805
sg68
(lp3812
S'*'
asbasbasbasbasbasbasbag61
(g77
g63
NtRp3813
(dp3814
g66
(dp3815
sg75
g3445
sg68
(lp3816
g61
(g82
g63
NtRp3817
(dp3818
g66
(dp3819
g86
g87
ssg75
g3813
sg68
(lp3820
S'google_analytics_id'
p3821
asbag61
(g82
g63
NtRp3822
(dp3823
g66
(dp3824
g93
g94
ssg75
g3813
sg68
(lp3825
S':'
asbag61
(g82
g63
NtRp3826
(dp3827
g66
(dp3828
sg75
g3813
sg68
(lp3829
g61
(g62
g63
NtRp3830
(dp3831
g66
(dp3832
g74
I5
ssg75
g3826
sg68
(lp3833
S'None'
p3834
asbasbasbag61
(g77
g63
NtRp3835
(dp3836
g66
(dp3837
sg75
g3445
sg68
(lp3838
g61
(g82
g63
NtRp3839
(dp3840
g66
(dp3841
g86
g87
ssg75
g3835
sg68
(lp3842
S'headers'
p3843
asbag61
(g82
g63
NtRp3844
(dp3845
g66
(dp3846
g93
g94
ssg75
g3835
sg68
(lp3847
S':'
asbag61
(g82
g63
NtRp3848
(dp3849
g66
(dp3850
sg75
g3835
sg68
(lp3851
g61
(g62
g63
NtRp3852
(dp3853
g66
(dp3854
g74
I5
ssg75
g3848
sg68
(lp3855
g61
(g70
g63
NtRp3856
(dp3857
g66
(dp3858
g74
I4
ssg75
Nsg68
(lp3859
g61
(g77
g63
NtRp3860
(dp3861
g66
(dp3862
sg75
g3856
sg68
(lp3863
g61
(g82
g63
NtRp3864
(dp3865
g66
(dp3866
g86
g87
ssg75
g3860
sg68
(lp3867
S'X-Powered-By'
p3868
asbag61
(g82
g63
NtRp3869
(dp3870
g66
(dp3871
g93
g94
ssg75
g3860
sg68
(lp3872
S':'
asbag61
(g82
g63
NtRp3873
(dp3874
g66
(dp3875
sg75
g3860
sg68
(lp3876
g61
(g62
g63
NtRp3877
(dp3878
g66
(dp3879
g74
I4
ssg75
g3873
sg68
(lp3880
S'web2py'
p3881
asbasbasbasbasbasbasbag61
(g77
g63
NtRp3882
(dp3883
g66
(dp3884
sg75
g3445
sg68
(lp3885
g61
(g82
g63
NtRp3886
(dp3887
g66
(dp3888
g86
g87
ssg75
g3882
sg68
(lp3889
S'logo'
p3890
asbag61
(g82
g63
NtRp3891
(dp3892
g66
(dp3893
g93
g94
ssg75
g3882
sg68
(lp3894
S':'
asbag61
(g82
g63
NtRp3895
(dp3896
g66
(dp3897
sg75
g3882
sg68
(lp3898
g61
(g62
g63
NtRp3899
(dp3900
g66
(dp3901
g74
I5
ssg75
g3895
sg68
(lp3902
g61
(cgluon.html
A
p3903
g63
NtRp3904
(dp3905
g66
(dp3906
S'_class'
p3907
S'brand'
p3908
sS'_href'
p3909
S'principal'
p3910
ssg75
Nsg68
(lp3911
g61
(cgluon.html
B
p3912
g63
NtRp3913
(dp3914
g66
(dp3915
sg75
g3904
sg68
(lp3916
S'hosts'
p3917
ag61
(cgluon.html
SPAN
p3918
g63
NtRp3919
(dp3920
g66
(dp3921
sg75
g3913
sg68
(lp3922
S'3'
asbaS''
asbacgluon.html
XML_unpickle
p3923
(S's\r\x00\x00\x00&trade;&nbsp;'
tRp3924
asbasbasbasbag61
(g77
g63
NtRp3925
(dp3926
g66
(dp3927
sg75
g3445
sg68
(lp3928
g61
(g82
g63
NtRp3929
(dp3930
g66
(dp3931
g86
g87
ssg75
g3925
sg68
(lp3932
S'menu'
p3933
asbag61
(g82
g63
NtRp3934
(dp3935
g66
(dp3936
g93
g94
ssg75
g3925
sg68
(lp3937
S':'
asbag61
(g82
g63
NtRp3938
(dp3939
g66
(dp3940
sg75
g3925
sg68
(lp3941
g61
(g62
g63
NtRp3942
(dp3943
g66
(dp3944
g74
I5
ssg75
g3938
sg68
(lp3945
g61
(g70
g63
NtRp3946
(dp3947
g66
(dp3948
g74
I4
ssg75
Nsg68
(lp3949
g61
(g77
g63
NtRp3950
(dp3951
g66
(dp3952
sg75
g3946
sg68
(lp3953
g61
(g82
g63
NtRp3954
(dp3955
g66
(dp3956
sg75
g3950
sg68
(lp3957
g61
(g62
g63
NtRp3958
(dp3959
g66
(dp3960
g74
I4
ssg75
g3954
sg68
(lp3961
g61
(g70
g63
NtRp3962
(dp3963
g66
(dp3964
g74
I3
ssg75
Nsg68
(lp3965
g61
(g77
g63
NtRp3966
(dp3967
g66
(dp3968
sg75
g3962
sg68
(lp3969
g61
(g82
g63
NtRp3970
(dp3971
g66
(dp3972
sg75
g3966
sg68
(lp3973
g61
(g62
g63
NtRp3974
(dp3975
g66
(dp3976
g74
I3
ssg75
g3970
sg68
(lp3977
cgluon.languages
lazyT_unpickle
p3978
(S't\x08\x00\x00\x00Clientes'
tRp3979
asbasbasbag61
(g77
g63
NtRp3980
(dp3981
g66
(dp3982
sg75
g3962
sg68
(lp3983
g61
(g82
g63
NtRp3984
(dp3985
g66
(dp3986
sg75
g3980
sg68
(lp3987
g61
(g62
g63
NtRp3988
(dp3989
g66
(dp3990
g74
I3
ssg75
g3984
sg68
(lp3991
g104
asbasbasbag61
(g77
g63
NtRp3992
(dp3993
g66
(dp3994
sg75
g3962
sg68
(lp3995
g61
(g82
g63
NtRp3996
(dp3997
g66
(dp3998
sg75
g3992
sg68
(lp3999
g61
(g62
g63
NtRp4000
(dp4001
g66
(dp4002
g74
I3
ssg75
g3996
sg68
(lp4003
S'/show_cliente'
p4004
asbasbasbag61
(g77
g63
NtRp4005
(dp4006
g66
(dp4007
sg75
g3962
sg68
(lp4008
g61
(g82
g63
NtRp4009
(dp4010
g66
(dp4011
sg75
g4005
sg68
(lp4012
g61
(g62
g63
NtRp4013
(dp4014
g66
(dp4015
g74
I3
ssg75
g4009
sg68
(lp4016
g61
(g70
g63
NtRp4017
(dp4018
g66
(dp4019
g74
I2
ssg75
Nsg68
(lp4020
sbasbasbasbasbasbasbasbag61
(g77
g63
NtRp4021
(dp4022
g66
(dp4023
sg75
g3946
sg68
(lp4024
g61
(g82
g63
NtRp4025
(dp4026
g66
(dp4027
sg75
g4021
sg68
(lp4028
g61
(g62
g63
NtRp4029
(dp4030
g66
(dp4031
g74
I4
ssg75
g4025
sg68
(lp4032
g61
(g70
g63
NtRp4033
(dp4034
g66
(dp4035
g74
I3
ssg75
Nsg68
(lp4036
g61
(g77
g63
NtRp4037
(dp4038
g66
(dp4039
sg75
g4033
sg68
(lp4040
g61
(g82
g63
NtRp4041
(dp4042
g66
(dp4043
sg75
g4037
sg68
(lp4044
g61
(g62
g63
NtRp4045
(dp4046
g66
(dp4047
g74
I3
ssg75
g4041
sg68
(lp4048
g3978
(S't\n\x00\x00\x00Servidores'
tRp4049
asbasbasbag61
(g77
g63
NtRp4050
(dp4051
g66
(dp4052
sg75
g4033
sg68
(lp4053
g61
(g82
g63
NtRp4054
(dp4055
g66
(dp4056
sg75
g4050
sg68
(lp4057
g61
(g62
g63
NtRp4058
(dp4059
g66
(dp4060
g74
I3
ssg75
g4054
sg68
(lp4061
g104
asbasbasbag61
(g77
g63
NtRp4062
(dp4063
g66
(dp4064
sg75
g4033
sg68
(lp4065
g61
(g82
g63
NtRp4066
(dp4067
g66
(dp4068
sg75
g4062
sg68
(lp4069
g61
(g62
g63
NtRp4070
(dp4071
g66
(dp4072
g74
I3
ssg75
g4066
sg68
(lp4073
S'/show_servidor'
p4074
asbasbasbag61
(g77
g63
NtRp4075
(dp4076
g66
(dp4077
sg75
g4033
sg68
(lp4078
g61
(g82
g63
NtRp4079
(dp4080
g66
(dp4081
sg75
g4075
sg68
(lp4082
g61
(g62
g63
NtRp4083
(dp4084
g66
(dp4085
g74
I3
ssg75
g4079
sg68
(lp4086
g61
(g70
g63
NtRp4087
(dp4088
g66
(dp4089
g74
I2
ssg75
Nsg68
(lp4090
sbasbasbasbasbasbasbasbag61
(g77
g63
NtRp4091
(dp4092
g66
(dp4093
sg75
g3946
sg68
(lp4094
g61
(g82
g63
NtRp4095
(dp4096
g66
(dp4097
sg75
g4091
sg68
(lp4098
g61
(g62
g63
NtRp4099
(dp4100
g66
(dp4101
g74
I4
ssg75
g4095
sg68
(lp4102
g61
(g70
g63
NtRp4103
(dp4104
g66
(dp4105
g74
I3
ssg75
Nsg68
(lp4106
g61
(g77
g63
NtRp4107
(dp4108
g66
(dp4109
sg75
g4103
sg68
(lp4110
g61
(g82
g63
NtRp4111
(dp4112
g66
(dp4113
sg75
g4107
sg68
(lp4114
g61
(g62
g63
NtRp4115
(dp4116
g66
(dp4117
g74
I3
ssg75
g4111
sg68
(lp4118
g3978
(S't\x07\x00\x00\x00Distros'
tRp4119
asbasbasbag61
(g77
g63
NtRp4120
(dp4121
g66
(dp4122
sg75
g4103
sg68
(lp4123
g61
(g82
g63
NtRp4124
(dp4125
g66
(dp4126
sg75
g4120
sg68
(lp4127
g61
(g62
g63
NtRp4128
(dp4129
g66
(dp4130
g74
I3
ssg75
g4124
sg68
(lp4131
g104
asbasbasbag61
(g77
g63
NtRp4132
(dp4133
g66
(dp4134
sg75
g4103
sg68
(lp4135
g61
(g82
g63
NtRp4136
(dp4137
g66
(dp4138
sg75
g4132
sg68
(lp4139
g61
(g62
g63
NtRp4140
(dp4141
g66
(dp4142
g74
I3
ssg75
g4136
sg68
(lp4143
S'/show_distro'
p4144
asbasbasbag61
(g77
g63
NtRp4145
(dp4146
g66
(dp4147
sg75
g4103
sg68
(lp4148
g61
(g82
g63
NtRp4149
(dp4150
g66
(dp4151
sg75
g4145
sg68
(lp4152
g61
(g62
g63
NtRp4153
(dp4154
g66
(dp4155
g74
I3
ssg75
g4149
sg68
(lp4156
g61
(g70
g63
NtRp4157
(dp4158
g66
(dp4159
g74
I2
ssg75
Nsg68
(lp4160
sbasbasbasbasbasbasbasbag61
(g77
g63
NtRp4161
(dp4162
g66
(dp4163
sg75
g3946
sg68
(lp4164
g61
(g82
g63
NtRp4165
(dp4166
g66
(dp4167
sg75
g4161
sg68
(lp4168
g61
(g62
g63
NtRp4169
(dp4170
g66
(dp4171
g74
I4
ssg75
g4165
sg68
(lp4172
g61
(g70
g63
NtRp4173
(dp4174
g66
(dp4175
g74
I3
ssg75
Nsg68
(lp4176
g61
(g77
g63
NtRp4177
(dp4178
g66
(dp4179
sg75
g4173
sg68
(lp4180
g61
(g82
g63
NtRp4181
(dp4182
g66
(dp4183
sg75
g4177
sg68
(lp4184
g61
(g62
g63
NtRp4185
(dp4186
g66
(dp4187
g74
I3
ssg75
g4181
sg68
(lp4188
g3978
(S's\x05\x00\x00\x00+host'
tRp4189
asbasbasbag61
(g77
g63
NtRp4190
(dp4191
g66
(dp4192
sg75
g4173
sg68
(lp4193
g61
(g82
g63
NtRp4194
(dp4195
g66
(dp4196
sg75
g4190
sg68
(lp4197
g61
(g62
g63
NtRp4198
(dp4199
g66
(dp4200
g74
I3
ssg75
g4194
sg68
(lp4201
g104
asbasbasbag61
(g77
g63
NtRp4202
(dp4203
g66
(dp4204
sg75
g4173
sg68
(lp4205
g61
(g82
g63
NtRp4206
(dp4207
g66
(dp4208
sg75
g4202
sg68
(lp4209
g61
(g62
g63
NtRp4210
(dp4211
g66
(dp4212
g74
I3
ssg75
g4206
sg68
(lp4213
S'/interface'
p4214
asbasbasbag61
(g77
g63
NtRp4215
(dp4216
g66
(dp4217
sg75
g4173
sg68
(lp4218
g61
(g82
g63
NtRp4219
(dp4220
g66
(dp4221
sg75
g4215
sg68
(lp4222
g61
(g62
g63
NtRp4223
(dp4224
g66
(dp4225
g74
I3
ssg75
g4219
sg68
(lp4226
g61
(g70
g63
NtRp4227
(dp4228
g66
(dp4229
g74
I2
ssg75
Nsg68
(lp4230
sbasbasbasbasbasbasbasbasbasbasbasbag61
(g77
g63
NtRp4231
(dp4232
g66
(dp4233
sg75
g3445
sg68
(lp4234
g61
(g82
g63
NtRp4235
(dp4236
g66
(dp4237
g86
g87
ssg75
g4231
sg68
(lp4238
S'menu2'
p4239
asbag61
(g82
g63
NtRp4240
(dp4241
g66
(dp4242
g93
g94
ssg75
g4231
sg68
(lp4243
S':'
asbag61
(g82
g63
NtRp4244
(dp4245
g66
(dp4246
sg75
g4231
sg68
(lp4247
g61
(g62
g63
NtRp4248
(dp4249
g66
(dp4250
g74
I5
ssg75
g4244
sg68
(lp4251
g61
(g70
g63
NtRp4252
(dp4253
g66
(dp4254
g74
I4
ssg75
Nsg68
(lp4255
g61
(g77
g63
NtRp4256
(dp4257
g66
(dp4258
sg75
g4252
sg68
(lp4259
g61
(g82
g63
NtRp4260
(dp4261
g66
(dp4262
sg75
g4256
sg68
(lp4263
g61
(g62
g63
NtRp4264
(dp4265
g66
(dp4266
g74
I4
ssg75
g4260
sg68
(lp4267
g61
(g70
g63
NtRp4268
(dp4269
g66
(dp4270
g74
I3
ssg75
Nsg68
(lp4271
g61
(g77
g63
NtRp4272
(dp4273
g66
(dp4274
sg75
g4268
sg68
(lp4275
g61
(g82
g63
NtRp4276
(dp4277
g66
(dp4278
sg75
g4272
sg68
(lp4279
g61
(g62
g63
NtRp4280
(dp4281
g66
(dp4282
g74
I3
ssg75
g4276
sg68
(lp4283
g61
(g3918
g63
NtRp4284
(dp4285
g66
(dp4286
g3907
S'dropdown-toggle'
p4287
ssg75
Nsg68
(lp4288
S'Admin'
p4289
asbasbasbasbag61
(g77
g63
NtRp4290
(dp4291
g66
(dp4292
sg75
g4268
sg68
(lp4293
g61
(g82
g63
NtRp4294
(dp4295
g66
(dp4296
sg75
g4290
sg68
(lp4297
g61
(g62
g63
NtRp4298
(dp4299
g66
(dp4300
g74
I3
ssg75
g4294
sg68
(lp4301
g104
asbasbasbag61
(g77
g63
NtRp4302
(dp4303
g66
(dp4304
sg75
g4268
sg68
(lp4305
g61
(g82
g63
NtRp4306
(dp4307
g66
(dp4308
sg75
g4302
sg68
(lp4309
g61
(g62
g63
NtRp4310
(dp4311
g66
(dp4312
g74
I3
ssg75
g4306
sg68
(lp4313
S'#'
asbasbasbag61
(g77
g63
NtRp4314
(dp4315
g66
(dp4316
sg75
g4268
sg68
(lp4317
g61
(g82
g63
NtRp4318
(dp4319
g66
(dp4320
sg75
g4314
sg68
(lp4321
g61
(g62
g63
NtRp4322
(dp4323
g66
(dp4324
g74
I3
ssg75
g4318
sg68
(lp4325
g61
(g70
g63
NtRp4326
(dp4327
g66
(dp4328
g74
I2
ssg75
Nsg68
(lp4329
g61
(g77
g63
NtRp4330
(dp4331
g66
(dp4332
sg75
g4326
sg68
(lp4333
g61
(g82
g63
NtRp4334
(dp4335
g66
(dp4336
sg75
g4330
sg68
(lp4337
g61
(g62
g63
NtRp4338
(dp4339
g66
(dp4340
g74
I2
ssg75
g4334
sg68
(lp4341
g61
(g70
g63
NtRp4342
(dp4343
g66
(dp4344
g74
I1
ssg75
Nsg68
(lp4345
g61
(g77
g63
NtRp4346
(dp4347
g66
(dp4348
sg75
g4342
sg68
(lp4349
g61
(g82
g63
NtRp4350
(dp4351
g66
(dp4352
sg75
g4346
sg68
(lp4353
g61
(g62
g63
NtRp4354
(dp4355
g66
(dp4356
g74
I1
ssg75
g4350
sg68
(lp4357
g3978
(S's\t\x00\x00\x00Usu\xc3\xa1rios'
tRp4358
asbasbasbag61
(g77
g63
NtRp4359
(dp4360
g66
(dp4361
sg75
g4342
sg68
(lp4362
g61
(g82
g63
NtRp4363
(dp4364
g66
(dp4365
sg75
g4359
sg68
(lp4366
g61
(g62
g63
NtRp4367
(dp4368
g66
(dp4369
g74
I1
ssg75
g4363
sg68
(lp4370
I00
asbasbasbag61
(g77
g63
NtRp4371
(dp4372
g66
(dp4373
sg75
g4342
sg68
(lp4374
g61
(g82
g63
NtRp4375
(dp4376
g66
(dp4377
sg75
g4371
sg68
(lp4378
g61
(g62
g63
NtRp4379
(dp4380
g66
(dp4381
g74
I1
ssg75
g4375
sg68
(lp4382
S'/manager/users'
p4383
asbasbasbasbasbasbasbag61
(g77
g63
NtRp4384
(dp4385
g66
(dp4386
sg75
g4326
sg68
(lp4387
g61
(g82
g63
NtRp4388
(dp4389
g66
(dp4390
sg75
g4384
sg68
(lp4391
g61
(g62
g63
NtRp4392
(dp4393
g66
(dp4394
g74
I2
ssg75
g4388
sg68
(lp4395
g61
(g70
g63
NtRp4396
(dp4397
g66
(dp4398
g74
I1
ssg75
Nsg68
(lp4399
g61
(g77
g63
NtRp4400
(dp4401
g66
(dp4402
sg75
g4396
sg68
(lp4403
g61
(g82
g63
NtRp4404
(dp4405
g66
(dp4406
sg75
g4400
sg68
(lp4407
g61
(g62
g63
NtRp4408
(dp4409
g66
(dp4410
g74
I1
ssg75
g4404
sg68
(lp4411
g3978
(S't\x06\x00\x00\x00Grupos'
tRp4412
asbasbasbag61
(g77
g63
NtRp4413
(dp4414
g66
(dp4415
sg75
g4396
sg68
(lp4416
g61
(g82
g63
NtRp4417
(dp4418
g66
(dp4419
sg75
g4413
sg68
(lp4420
g61
(g62
g63
NtRp4421
(dp4422
g66
(dp4423
g74
I1
ssg75
g4417
sg68
(lp4424
I00
asbasbasbag61
(g77
g63
NtRp4425
(dp4426
g66
(dp4427
sg75
g4396
sg68
(lp4428
g61
(g82
g63
NtRp4429
(dp4430
g66
(dp4431
sg75
g4425
sg68
(lp4432
g61
(g62
g63
NtRp4433
(dp4434
g66
(dp4435
g74
I1
ssg75
g4429
sg68
(lp4436
S'/manager/groups'
p4437
asbasbasbasbasbasbasbag61
(g77
g63
NtRp4438
(dp4439
g66
(dp4440
sg75
g4326
sg68
(lp4441
g61
(g82
g63
NtRp4442
(dp4443
g66
(dp4444
sg75
g4438
sg68
(lp4445
g61
(g62
g63
NtRp4446
(dp4447
g66
(dp4448
g74
I2
ssg75
g4442
sg68
(lp4449
g61
(g70
g63
NtRp4450
(dp4451
g66
(dp4452
g74
I1
ssg75
Nsg68
(lp4453
g61
(g77
g63
NtRp4454
(dp4455
g66
(dp4456
sg75
g4450
sg68
(lp4457
g61
(g82
g63
NtRp4458
(dp4459
g66
(dp4460
sg75
g4454
sg68
(lp4461
g61
(g62
g63
NtRp4462
(dp4463
g66
(dp4464
g74
I1
ssg75
g4458
sg68
(lp4465
g3978
(S't\x07\x00\x00\x00Membros'
tRp4466
asbasbasbag61
(g77
g63
NtRp4467
(dp4468
g66
(dp4469
sg75
g4450
sg68
(lp4470
g61
(g82
g63
NtRp4471
(dp4472
g66
(dp4473
sg75
g4467
sg68
(lp4474
g61
(g62
g63
NtRp4475
(dp4476
g66
(dp4477
g74
I1
ssg75
g4471
sg68
(lp4478
I00
asbasbasbag61
(g77
g63
NtRp4479
(dp4480
g66
(dp4481
sg75
g4450
sg68
(lp4482
g61
(g82
g63
NtRp4483
(dp4484
g66
(dp4485
sg75
g4479
sg68
(lp4486
g61
(g62
g63
NtRp4487
(dp4488
g66
(dp4489
g74
I1
ssg75
g4483
sg68
(lp4490
S'/manager/membership'
p4491
asbasbasbasbasbasbasbasbasbasbasbasbasbasbasbag61
(g77
g63
NtRp4492
(dp4493
g66
(dp4494
sg75
g4252
sg68
(lp4495
g61
(g82
g63
NtRp4496
(dp4497
g66
(dp4498
sg75
g4492
sg68
(lp4499
g61
(g62
g63
NtRp4500
(dp4501
g66
(dp4502
g74
I4
ssg75
g4496
sg68
(lp4503
g61
(g70
g63
NtRp4504
(dp4505
g66
(dp4506
g74
I3
ssg75
Nsg68
(lp4507
g61
(g77
g63
NtRp4508
(dp4509
g66
(dp4510
sg75
g4504
sg68
(lp4511
g61
(g82
g63
NtRp4512
(dp4513
g66
(dp4514
sg75
g4508
sg68
(lp4515
g61
(g62
g63
NtRp4516
(dp4517
g66
(dp4518
g74
I3
ssg75
g4512
sg68
(lp4519
g61
(g3918
g63
NtRp4520
(dp4521
g66
(dp4522
g3907
g4287
ssg75
Nsg68
(lp4523
S'Login'
p4524
asbasbasbasbag61
(g77
g63
NtRp4525
(dp4526
g66
(dp4527
sg75
g4504
sg68
(lp4528
g61
(g82
g63
NtRp4529
(dp4530
g66
(dp4531
sg75
g4525
sg68
(lp4532
g61
(g62
g63
NtRp4533
(dp4534
g66
(dp4535
g74
I3
ssg75
g4529
sg68
(lp4536
g104
asbasbasbag61
(g77
g63
NtRp4537
(dp4538
g66
(dp4539
sg75
g4504
sg68
(lp4540
g61
(g82
g63
NtRp4541
(dp4542
g66
(dp4543
sg75
g4537
sg68
(lp4544
g61
(g62
g63
NtRp4545
(dp4546
g66
(dp4547
g74
I3
ssg75
g4541
sg68
(lp4548
S'#'
asbasbasbag61
(g77
g63
NtRp4549
(dp4550
g66
(dp4551
sg75
g4504
sg68
(lp4552
g61
(g82
g63
NtRp4553
(dp4554
g66
(dp4555
sg75
g4549
sg68
(lp4556
g61
(g62
g63
NtRp4557
(dp4558
g66
(dp4559
g74
I3
ssg75
g4553
sg68
(lp4560
g61
(g70
g63
NtRp4561
(dp4562
g66
(dp4563
g74
I2
ssg75
Nsg68
(lp4564
g61
(g77
g63
NtRp4565
(dp4566
g66
(dp4567
sg75
g4561
sg68
(lp4568
g61
(g82
g63
NtRp4569
(dp4570
g66
(dp4571
sg75
g4565
sg68
(lp4572
g61
(g62
g63
NtRp4573
(dp4574
g66
(dp4575
g74
I2
ssg75
g4569
sg68
(lp4576
g61
(g70
g63
NtRp4577
(dp4578
g66
(dp4579
g74
I1
ssg75
Nsg68
(lp4580
g61
(g77
g63
NtRp4581
(dp4582
g66
(dp4583
sg75
g4577
sg68
(lp4584
g61
(g82
g63
NtRp4585
(dp4586
g66
(dp4587
sg75
g4581
sg68
(lp4588
g61
(g62
g63
NtRp4589
(dp4590
g66
(dp4591
g74
I1
ssg75
g4585
sg68
(lp4592
g3978
(S't\x06\x00\x00\x00Logout'
tRp4593
asbasbasbag61
(g77
g63
NtRp4594
(dp4595
g66
(dp4596
sg75
g4577
sg68
(lp4597
g61
(g82
g63
NtRp4598
(dp4599
g66
(dp4600
sg75
g4594
sg68
(lp4601
g61
(g62
g63
NtRp4602
(dp4603
g66
(dp4604
g74
I1
ssg75
g4598
sg68
(lp4605
I00
asbasbasbag61
(g77
g63
NtRp4606
(dp4607
g66
(dp4608
sg75
g4577
sg68
(lp4609
g61
(g82
g63
NtRp4610
(dp4611
g66
(dp4612
sg75
g4606
sg68
(lp4613
g61
(g62
g63
NtRp4614
(dp4615
g66
(dp4616
g74
I1
ssg75
g4610
sg68
(lp4617
S'/initial/user/logout'
p4618
asbasbasbasbasbasbasbasbasbasbasbasbasbasbasbasbasbasbasbag61
(g77
g63
NtRp4619
(dp4620
g66
(dp4621
sg75
g3445
sg68
(lp4622
g61
(g82
g63
NtRp4623
(dp4624
g66
(dp4625
g86
g87
ssg75
g4619
sg68
(lp4626
S'meta'
p4627
asbag61
(g82
g63
NtRp4628
(dp4629
g66
(dp4630
g93
g94
ssg75
g4619
sg68
(lp4631
S':'
asbag61
(g82
g63
NtRp4632
(dp4633
g66
(dp4634
sg75
g4619
sg68
(lp4635
g61
(g62
g63
NtRp4636
(dp4637
g66
(dp4638
g74
I5
ssg75
g4632
sg68
(lp4639
g61
(g70
g63
NtRp4640
(dp4641
g66
(dp4642
g74
I4
ssg75
Nsg68
(lp4643
g61
(g77
g63
NtRp4644
(dp4645
g66
(dp4646
sg75
g4640
sg68
(lp4647
g61
(g82
g63
NtRp4648
(dp4649
g66
(dp4650
g86
g87
ssg75
g4644
sg68
(lp4651
S'author'
p4652
asbag61
(g82
g63
NtRp4653
(dp4654
g66
(dp4655
g93
g94
ssg75
g4644
sg68
(lp4656
S':'
asbag61
(g82
g63
NtRp4657
(dp4658
g66
(dp4659
sg75
g4644
sg68
(lp4660
g61
(g62
g63
NtRp4661
(dp4662
g66
(dp4663
g74
I4
ssg75
g4657
sg68
(lp4664
S'Your Name <you@example.com>'
p4665
asbasbasbag61
(g77
g63
NtRp4666
(dp4667
g66
(dp4668
sg75
g4640
sg68
(lp4669
g61
(g82
g63
NtRp4670
(dp4671
g66
(dp4672
g86
g87
ssg75
g4666
sg68
(lp4673
S'description'
p4674
asbag61
(g82
g63
NtRp4675
(dp4676
g66
(dp4677
g93
g94
ssg75
g4666
sg68
(lp4678
S':'
asbag61
(g82
g63
NtRp4679
(dp4680
g66
(dp4681
sg75
g4666
sg68
(lp4682
g61
(g62
g63
NtRp4683
(dp4684
g66
(dp4685
g74
I4
ssg75
g4679
sg68
(lp4686
S'a cool new app'
p4687
asbasbasbag61
(g77
g63
NtRp4688
(dp4689
g66
(dp4690
sg75
g4640
sg68
(lp4691
g61
(g82
g63
NtRp4692
(dp4693
g66
(dp4694
g86
g87
ssg75
g4688
sg68
(lp4695
S'generator'
p4696
asbag61
(g82
g63
NtRp4697
(dp4698
g66
(dp4699
g93
g94
ssg75
g4688
sg68
(lp4700
S':'
asbag61
(g82
g63
NtRp4701
(dp4702
g66
(dp4703
sg75
g4688
sg68
(lp4704
g61
(g62
g63
NtRp4705
(dp4706
g66
(dp4707
g74
I4
ssg75
g4701
sg68
(lp4708
S'Web2py Web Framework'
p4709
asbasbasbag61
(g77
g63
NtRp4710
(dp4711
g66
(dp4712
sg75
g4640
sg68
(lp4713
g61
(g82
g63
NtRp4714
(dp4715
g66
(dp4716
g86
g87
ssg75
g4710
sg68
(lp4717
S'keywords'
p4718
asbag61
(g82
g63
NtRp4719
(dp4720
g66
(dp4721
g93
g94
ssg75
g4710
sg68
(lp4722
S':'
asbag61
(g82
g63
NtRp4723
(dp4724
g66
(dp4725
sg75
g4710
sg68
(lp4726
g61
(g62
g63
NtRp4727
(dp4728
g66
(dp4729
g74
I4
ssg75
g4723
sg68
(lp4730
S'web2py, python, framework'
p4731
asbasbasbasbasbasbasbag61
(g77
g63
NtRp4732
(dp4733
g66
(dp4734
sg75
g3445
sg68
(lp4735
g61
(g82
g63
NtRp4736
(dp4737
g66
(dp4738
g86
g87
ssg75
g4732
sg68
(lp4739
S'models_to_run'
p4740
asbag61
(g82
g63
NtRp4741
(dp4742
g66
(dp4743
g93
g94
ssg75
g4732
sg68
(lp4744
S':'
asbag61
(g82
g63
NtRp4745
(dp4746
g66
(dp4747
sg75
g4732
sg68
(lp4748
g61
(g62
g63
NtRp4749
(dp4750
g66
(dp4751
g74
I5
ssg75
g4745
sg68
(lp4752
g61
(g70
g63
NtRp4753
(dp4754
g66
(dp4755
g74
I4
ssg75
Nsg68
(lp4756
g61
(g77
g63
NtRp4757
(dp4758
g66
(dp4759
sg75
g4753
sg68
(lp4760
g61
(g82
g63
NtRp4761
(dp4762
g66
(dp4763
sg75
g4757
sg68
(lp4764
g61
(g62
g63
NtRp4765
(dp4766
g66
(dp4767
g74
I4
ssg75
g4761
sg68
(lp4768
S'^\\w+\\.py$'
p4769
asbasbasbag61
(g77
g63
NtRp4770
(dp4771
g66
(dp4772
sg75
g4753
sg68
(lp4773
g61
(g82
g63
NtRp4774
(dp4775
g66
(dp4776
sg75
g4770
sg68
(lp4777
g61
(g62
g63
NtRp4778
(dp4779
g66
(dp4780
g74
I4
ssg75
g4774
sg68
(lp4781
S'^initial/\\w+\\.py$'
p4782
asbasbasbag61
(g77
g63
NtRp4783
(dp4784
g66
(dp4785
sg75
g4753
sg68
(lp4786
g61
(g82
g63
NtRp4787
(dp4788
g66
(dp4789
sg75
g4783
sg68
(lp4790
g61
(g62
g63
NtRp4791
(dp4792
g66
(dp4793
g74
I4
ssg75
g4787
sg68
(lp4794
S'^initial/show_cliente/\\w+\\.py$'
p4795
asbasbasbasbasbasbasbag61
(g77
g63
NtRp4796
(dp4797
g66
(dp4798
sg75
g3445
sg68
(lp4799
g61
(g82
g63
NtRp4800
(dp4801
g66
(dp4802
g86
g87
ssg75
g4796
sg68
(lp4803
S'postprocessing'
p4804
asbag61
(g82
g63
NtRp4805
(dp4806
g66
(dp4807
g93
g94
ssg75
g4796
sg68
(lp4808
S':'
asbag61
(g82
g63
NtRp4809
(dp4810
g66
(dp4811
sg75
g4796
sg68
(lp4812
g61
(g62
g63
NtRp4813
(dp4814
g66
(dp4815
g74
I5
ssg75
g4809
sg68
(lp4816
g61
(g70
g63
NtRp4817
(dp4818
g66
(dp4819
g74
I4
ssg75
Nsg68
(lp4820
sbasbasbasbag61
(g77
g63
NtRp4821
(dp4822
g66
(dp4823
sg75
g3445
sg68
(lp4824
g61
(g82
g63
NtRp4825
(dp4826
g66
(dp4827
g86
g87
ssg75
g4821
sg68
(lp4828
S'session_cookie_expires'
p4829
asbag61
(g82
g63
NtRp4830
(dp4831
g66
(dp4832
g93
g94
ssg75
g4821
sg68
(lp4833
S':'
asbag61
(g82
g63
NtRp4834
(dp4835
g66
(dp4836
sg75
g4821
sg68
(lp4837
g61
(g62
g63
NtRp4838
(dp4839
g66
(dp4840
g74
I5
ssg75
g4834
sg68
(lp4841
S'None'
p4842
asbasbasbag61
(g77
g63
NtRp4843
(dp4844
g66
(dp4845
sg75
g3445
sg68
(lp4846
g61
(g82
g63
NtRp4847
(dp4848
g66
(dp4849
g86
g87
ssg75
g4843
sg68
(lp4850
S'session_data_name'
p4851
asbag61
(g82
g63
NtRp4852
(dp4853
g66
(dp4854
g93
g94
ssg75
g4843
sg68
(lp4855
S':'
asbag61
(g82
g63
NtRp4856
(dp4857
g66
(dp4858
sg75
g4843
sg68
(lp4859
g61
(g62
g63
NtRp4860
(dp4861
g66
(dp4862
g74
I5
ssg75
g4856
sg68
(lp4863
S'session_data_projeto'
p4864
asbasbasbag61
(g77
g63
NtRp4865
(dp4866
g66
(dp4867
sg75
g3445
sg68
(lp4868
g61
(g82
g63
NtRp4869
(dp4870
g66
(dp4871
g86
g87
ssg75
g4865
sg68
(lp4872
S'session_file'
p4873
asbag61
(g82
g63
NtRp4874
(dp4875
g66
(dp4876
g93
g94
ssg75
g4865
sg68
(lp4877
S':'
asbag61
(g82
g63
NtRp4878
(dp4879
g66
(dp4880
sg75
g4865
sg68
(lp4881
g61
(g62
g63
NtRp4882
(dp4883
g66
(dp4884
g74
I5
ssg75
g4878
sg68
(lp4885
S"<open file '/var/www/conferencia/applications/projeto/sessions/127.0.0.1-001edd4c-cc9d-40b6-92aa-d3bbbc6019b5', mode 'rb+' at 0x7fe7f8b2f150>"
p4886
asbasbasbag61
(g77
g63
NtRp4887
(dp4888
g66
(dp4889
sg75
g3445
sg68
(lp4890
g61
(g82
g63
NtRp4891
(dp4892
g66
(dp4893
g86
g87
ssg75
g4887
sg68
(lp4894
S'session_filename'
p4895
asbag61
(g82
g63
NtRp4896
(dp4897
g66
(dp4898
g93
g94
ssg75
g4887
sg68
(lp4899
S':'
asbag61
(g82
g63
NtRp4900
(dp4901
g66
(dp4902
sg75
g4887
sg68
(lp4903
g61
(g62
g63
NtRp4904
(dp4905
g66
(dp4906
g74
I5
ssg75
g4900
sg68
(lp4907
S'/var/www/conferencia/applications/projeto/sessions/127.0.0.1-001edd4c-cc9d-40b6-92aa-d3bbbc6019b5'
p4908
asbasbasbag61
(g77
g63
NtRp4909
(dp4910
g66
(dp4911
sg75
g3445
sg68
(lp4912
g61
(g82
g63
NtRp4913
(dp4914
g66
(dp4915
g86
g87
ssg75
g4909
sg68
(lp4916
S'session_id'
p4917
asbag61
(g82
g63
NtRp4918
(dp4919
g66
(dp4920
g93
g94
ssg75
g4909
sg68
(lp4921
S':'
asbag61
(g82
g63
NtRp4922
(dp4923
g66
(dp4924
sg75
g4909
sg68
(lp4925
g61
(g62
g63
NtRp4926
(dp4927
g66
(dp4928
g74
I5
ssg75
g4922
sg68
(lp4929
g479
asbasbasbag61
(g77
g63
NtRp4930
(dp4931
g66
(dp4932
sg75
g3445
sg68
(lp4933
g61
(g82
g63
NtRp4934
(dp4935
g66
(dp4936
g86
g87
ssg75
g4930
sg68
(lp4937
S'session_id_name'
p4938
asbag61
(g82
g63
NtRp4939
(dp4940
g66
(dp4941
g93
g94
ssg75
g4930
sg68
(lp4942
S':'
asbag61
(g82
g63
NtRp4943
(dp4944
g66
(dp4945
sg75
g4930
sg68
(lp4946
g61
(g62
g63
NtRp4947
(dp4948
g66
(dp4949
g74
I5
ssg75
g4943
sg68
(lp4950
g3502
asbasbasbag61
(g77
g63
NtRp4951
(dp4952
g66
(dp4953
sg75
g3445
sg68
(lp4954
g61
(g82
g63
NtRp4955
(dp4956
g66
(dp4957
g86
g87
ssg75
g4951
sg68
(lp4958
S'session_locked'
p4959
asbag61
(g82
g63
NtRp4960
(dp4961
g66
(dp4962
g93
g94
ssg75
g4951
sg68
(lp4963
S':'
asbag61
(g82
g63
NtRp4964
(dp4965
g66
(dp4966
sg75
g4951
sg68
(lp4967
g61
(g62
g63
NtRp4968
(dp4969
g66
(dp4970
g74
I5
ssg75
g4964
sg68
(lp4971
g1618
asbasbasbag61
(g77
g63
NtRp4972
(dp4973
g66
(dp4974
sg75
g3445
sg68
(lp4975
g61
(g82
g63
NtRp4976
(dp4977
g66
(dp4978
g86
g87
ssg75
g4972
sg68
(lp4979
S'session_new'
p4980
asbag61
(g82
g63
NtRp4981
(dp4982
g66
(dp4983
g93
g94
ssg75
g4972
sg68
(lp4984
S':'
asbag61
(g82
g63
NtRp4985
(dp4986
g66
(dp4987
sg75
g4972
sg68
(lp4988
g61
(g62
g63
NtRp4989
(dp4990
g66
(dp4991
g74
I5
ssg75
g4985
sg68
(lp4992
g104
asbasbasbag61
(g77
g63
NtRp4993
(dp4994
g66
(dp4995
sg75
g3445
sg68
(lp4996
g61
(g82
g63
NtRp4997
(dp4998
g66
(dp4999
g86
g87
ssg75
g4993
sg68
(lp5000
S'session_storage_type'
p5001
asbag61
(g82
g63
NtRp5002
(dp5003
g66
(dp5004
g93
g94
ssg75
g4993
sg68
(lp5005
S':'
asbag61
(g82
g63
NtRp5006
(dp5007
g66
(dp5008
sg75
g4993
sg68
(lp5009
g61
(g62
g63
NtRp5010
(dp5011
g66
(dp5012
g74
I5
ssg75
g5006
sg68
(lp5013
g3036
asbasbasbag61
(g77
g63
NtRp5014
(dp5015
g66
(dp5016
sg75
g3445
sg68
(lp5017
g61
(g82
g63
NtRp5018
(dp5019
g66
(dp5020
g86
g87
ssg75
g5014
sg68
(lp5021
S'status'
p5022
asbag61
(g82
g63
NtRp5023
(dp5024
g66
(dp5025
g93
g94
ssg75
g5014
sg68
(lp5026
S':'
asbag61
(g82
g63
NtRp5027
(dp5028
g66
(dp5029
sg75
g5014
sg68
(lp5030
g61
(g62
g63
NtRp5031
(dp5032
g66
(dp5033
g74
I5
ssg75
g5027
sg68
(lp5034
S'200'
p5035
asbasbasbag61
(g77
g63
NtRp5036
(dp5037
g66
(dp5038
sg75
g3445
sg68
(lp5039
g61
(g82
g63
NtRp5040
(dp5041
g66
(dp5042
g86
g87
ssg75
g5036
sg68
(lp5043
S'subtitle'
p5044
asbag61
(g82
g63
NtRp5045
(dp5046
g66
(dp5047
g93
g94
ssg75
g5036
sg68
(lp5048
S':'
asbag61
(g82
g63
NtRp5049
(dp5050
g66
(dp5051
sg75
g5036
sg68
(lp5052
g61
(g62
g63
NtRp5053
(dp5054
g66
(dp5055
g74
I5
ssg75
g5049
sg68
(lp5056
g3978
(S's\r\x00\x00\x00customize me!'
tRp5057
asbasbasbag61
(g77
g63
NtRp5058
(dp5059
g66
(dp5060
sg75
g3445
sg68
(lp5061
g61
(g82
g63
NtRp5062
(dp5063
g66
(dp5064
g86
g87
ssg75
g5058
sg68
(lp5065
S'title'
p5066
asbag61
(g82
g63
NtRp5067
(dp5068
g66
(dp5069
g93
g94
ssg75
g5058
sg68
(lp5070
S':'
asbag61
(g82
g63
NtRp5071
(dp5072
g66
(dp5073
sg75
g5058
sg68
(lp5074
g61
(g62
g63
NtRp5075
(dp5076
g66
(dp5077
g74
I5
ssg75
g5071
sg68
(lp5078
S'Projeto'
p5079
asbasbasbag61
(g77
g63
NtRp5080
(dp5081
g66
(dp5082
sg75
g3445
sg68
(lp5083
g61
(g82
g63
NtRp5084
(dp5085
g66
(dp5086
g86
g87
ssg75
g5080
sg68
(lp5087
S'view'
p5088
asbag61
(g82
g63
NtRp5089
(dp5090
g66
(dp5091
g93
g94
ssg75
g5080
sg68
(lp5092
S':'
asbag61
(g82
g63
NtRp5093
(dp5094
g66
(dp5095
sg75
g5080
sg68
(lp5096
g61
(g62
g63
NtRp5097
(dp5098
g66
(dp5099
g74
I5
ssg75
g5093
sg68
(lp5100
S'initial/show_cliente.html'
p5101
asbasbasbasbasbsS'locals'
p5102
(dp5103
S'exc'
p5104
S'ProgrammingError(\'ERROR\', \'23502\', \'column "confno__tmp" contains null values\')'
p5105
sS'msg_class'
p5106
S"<class 'gluon.contrib.pg8000.protocol.ReadyForQuery'>"
p5107
sS'self'
p5108
S'<gluon.contrib.pg8000.protocol.MessageReader object>'
p5109
sg46
S'()'
p5110
sS'handler'
p5111
S'<function <lambda>>'
p5112
sS'kwargs'
p5113
g21
sS'msg'
p5114
S'<ReadyForQuery Idle in Failed Transaction>'
p5115
sS'msg_handled'
p5116
g1618
sS'retval'
p5117
S'1'
sssS'traceback'
p5118
S'Traceback (most recent call last):\n  File "/var/www/conferencia/gluon/restricted.py", line 212, in restricted\n    exec ccode in environment\n  File "/var/www/conferencia/applications/projeto/models/models.py", line 16, in <module>\n    primarykey=[\'confno\']\n  File "/var/www/conferencia/gluon/dal.py", line 7186, in define_table\n    table = self.lazy_define_table(tablename,*fields,**args)\n  File "/var/www/conferencia/gluon/dal.py", line 7222, in lazy_define_table\n    polymodel=polymodel)\n  File "/var/www/conferencia/gluon/dal.py", line 963, in create_table\n    fake_migrate=fake_migrate)\n  File "/var/www/conferencia/gluon/dal.py", line 1069, in migrate_table\n    self.execute(sub_query)\n  File "/var/www/conferencia/gluon/dal.py", line 1709, in execute\n    return self.log_execute(*a, **b)\n  File "/var/www/conferencia/gluon/dal.py", line 1703, in log_execute\n    ret = self.cursor.execute(*a, **b)\n  File "/var/www/conferencia/gluon/contrib/pg8000/dbapi.py", line 246, in _fn\n    return fn(self, *args, **kwargs)\n  File "/var/www/conferencia/gluon/contrib/pg8000/dbapi.py", line 317, in execute\n    self._execute(operation, args)\n  File "/var/www/conferencia/gluon/contrib/pg8000/dbapi.py", line 322, in _execute\n    self.cursor.execute(new_query, *new_args)\n  File "/var/www/conferencia/gluon/contrib/pg8000/interface.py", line 399, in execute\n    self._stmt.execute(*args, **kwargs)\n  File "/var/www/conferencia/gluon/contrib/pg8000/interface.py", line 169, in execute\n    self._row_desc, cmd = self.c.bind(self._portal_name, self._statement_name, args, self._parse_row_desc, kwargs.get("stream"))\n  File "/var/www/conferencia/gluon/contrib/pg8000/protocol.py", line 943, in _fn\n    return fn(self, *args, **kwargs)\n  File "/var/www/conferencia/gluon/contrib/pg8000/protocol.py", line 1142, in bind\n    return reader.handle_messages()\n  File "/var/www/conferencia/gluon/contrib/pg8000/protocol.py", line 911, in handle_messages\n    retval = handler(msg, *args, **kwargs)\n  File "/var/www/conferencia/gluon/contrib/pg8000/protocol.py", line 1181, in _bind_nodata\n    reader.handle_messages()\n  File "/var/www/conferencia/gluon/contrib/pg8000/protocol.py", line 916, in handle_messages\n    raise exc\nProgrammingError: (\'ERROR\', \'23502\', \'column "confno__tmp" contains null values\')\n'
p5119
s.