(dp1
S'output'
p2
S'<class \'gluon.contrib.pg8000.errors.ProgrammingError\'> (\'ERROR\', \'42P01\', \'relation "meetme_id_seq" does not exist\')'
p3
sS'layer'
p4
S'/var/www/conferencia/applications/projeto/controllers/initial.py'
p5
sS'code'
p6
S'# coding: utf-8\n\ndef show_cliente():\n\tresponse.title="Eventos"\n\tprint request.now\n\n\n\n\n\tgrid = SQLFORM.grid(db.meetme, orderby=db.meetme.endtime,\n\t\tuser_signature=False, searchable=True, csv=False, \n\t\tpaginate=50, details=False,  \n\t\tignore_rw = True, maxtextlength=36,\n\t\tlinks=[lambda row: A(\'Editar\', \n    \t\t      _class=\'btn\', \n    \t\t      _title=\'Editar\', \n    \t\t      _href=URL("initial", "/edit_host", \n    \t\t      vars=dict(f=row.confno)))] \n    \t)\n\treturn response.render("initial/show_grid.html", grid=grid)\n\ndef show_servidor():\n\tresponse.title="Eventos"\n\tdata = request.now\n\n\tquery=(db.meetme.endtime > \'2013-04-03 09:38:17.902532\') \n\tquery2=(\'SELECT * from meetme order by id desc LIMIT 4;\')\n\tprint query\n\n\tgrid = SQLFORM.grid(query=query, orderby=db.meetme.endtime,\n\t\tuser_signature=False, searchable=True, csv=False, \n\t\tpaginate=50, details=False,  \n\t\tignore_rw = True, maxtextlength=36, \n    \t)\n\treturn response.render("initial/show_grid.html", grid=grid)\n\n\n@auth.requires_login()\ndef show_distro():\n\tresponse.title="Distribui\xc3\xa7\xc3\xb5es"\n\n\tdb.args=Distro.id.readable=False\n\tdb.args=Distro.img.readable=False\n\tgrid = SQLFORM.grid(Distro,\n\t\tuser_signature=True, searchable=True, csv=False,\n\t\tpaginate=50, details=False, ignore_rw = True, \n\t\tmaxtextlength=26, links_placement=\'left\',\n\t\tcreate=auth.has_membership("admin"),\n\t\teditable=auth.has_membership("admin"),\n\t\tdeletable=auth.has_membership("admin"),  \n    \tlinks = [lambda row: A(\'hosts\', \n    \t\t_class=\'btn\', \n    \t\t_title=\'ver servidores\', \n    \t\t_href=URL("initial", "/distro_host", \n    \t\tvars=dict(f=row.id, n1=\'Distros\', p1=\'show_distro\'))), \n    \tdict(header=\'\',body=lambda row: A( IMG(_src=URL("static", "images", args=(row.img) ))))]\n\t\t)\n\treturn response.render("initial/show_grid.html", grid=grid)\n\n\n@auth.requires_login()\ndef cliente_host():\n\tfiltro = request.vars[\'f\']\n\tqueryset = db(db.cliente.id == filtro)\n\trows = queryset.select()\n\tcliente = rows[0]\n\tresponse.title = cliente.nome\n\tprint cliente\n\n\tnome_ant1 = request.vars[\'n1\']\n\tfuncao_ant1 = request.vars[\'p1\']\n\tnome_atual = cliente.nome\n\n\tquery = ((db.hosts.id_cliente == filtro) & (db.distro.id == db.hosts.id_distro))\n\tlinks = [dict(header=\'\',body=lambda row: A( IMG(_src=URL("static", "images", args=(row.distro.img)) ))), \n\t lambda row: A(\'Detalhes\', \n    \t\t      _class=\'btn\', \n    \t\t      _title=\'Detalhes\', \n    \t\t      _href=URL("initial", "/detalhes_nav", \n    \t\t      vars=dict(f=row.hosts.id, c=filtro, n=cliente.nome, \n    \t\t      \t\t\tn1=\'Clientes\', p1=\'show_cliente\', p=\'cliente_host\'))),\n\t lambda row: A(\'Editar\', \n    \t\t      _class=\'btn\', \n    \t\t      _title=\'Editar\', \n    \t\t      _href=URL("initial", "/edit_host", \n    \t\t      vars=dict(f=row.hosts.id, c=filtro, n=cliente.nome, \n    \t\t      \t\tn1=\'Clientes\', p1=\'show_cliente\', p=\'cliente_host\')))]\n\tdb.hosts.id.readable=False\n\tdb.distro.img.readable=False\n\t\n\tfields = (db.hosts.id, db.hosts.id_servidor, db.hosts.id_distro, db.distro.img, \n\t\t\t  db.hosts.ip_chegada, db.hosts.porta_ssh, db.hosts.gateway)\n\theaders = {\'hosts.id\':   \'ID\',\n\t\t\t   \'hosts.id_cliente\': \'Cliente\',\n               \'hosts.id_servidor\': \'Servidor\',\n               \'hosts.id_distro\': \'Distro\',\n               \'hosts.nome\': \'Nome\',\n\t           \'hosts.servicos\': \'Servicos\'}\n\tgrid = SQLFORM.grid(query=query, fields=fields, headers=headers, csv=False,\n\t\t\t\t\t\tdetails=False, searchable=False, maxtextlength=23, links=links, \n\t\t\t\t\t\tlinks_placement=\'left\', editable=False, create=False)\n\n\treturn response.render("initial/show_grid2.html", grid=grid, nome_ant1=nome_ant1, \n\t\t\t\t\t\tfuncao_ant1=funcao_ant1, nome_atual=nome_atual)\n\n@auth.requires_login()\ndef servidor_host():\n\tfiltro = request.vars[\'f\']\n\tqueryset = db(db.servidor.id == filtro)\n\trows = queryset.select()\n\tservidor = rows[0]\n\tresponse.title = servidor.nome\n\n\tnome_ant1 = request.vars[\'n1\']\n\tfuncao_ant1 = request.vars[\'p1\']\n\tnome_atual = servidor.nome\t\n\n\tdb.distro.img.readable=False\n\tdb.hosts.id.readable=False\n\tquery = ((db.hosts.id_servidor == filtro) & (db.distro.id == db.hosts.id_distro))\n\n\tlinks = [dict(header=\'\',body=lambda row: A( IMG(_src=URL("static", "images", args=(row.distro.img)) ))), \n\t lambda row: A(\'Detalhes\', \n    \t\t      _class=\'btn\', \n    \t\t      _title=\'Detalhes\', \n    \t\t      _href=URL("initial", "/detalhes_nav", \n    \t\t      vars=dict(f=row.hosts.id, c=filtro, n=servidor.nome, \n    \t\t      \t\tn1=\'Servidores\', p1=\'show_servidor\', p=\'servidor_host\'))),\n\t lambda row: A(\'Editar\', \n    \t\t      _class=\'btn\', \n    \t\t      _title=\'Editar\', \n    \t\t      _href=URL("initial", "/edit_host", \n    \t\t      vars=dict(f=row.hosts.id, c=filtro, n=servidor.nome, \n    \t\t      \t\tn1=\'Servidores\', p1=\'show_servidor\', p=\'servidor_host\')))]\n\n\tfields = (db.hosts.id, db.hosts.id_cliente, db.hosts.id_distro, db.distro.img, \n\t\t\t\tdb.hosts.ip_chegada, db.hosts.porta_ssh, db.hosts.gateway)\n\theaders = {\'hosts.id\':   \'ID\',\n\t\t\t   \'hosts.id_cliente\': \'Cliente\',\n               \'hosts.id_servidor\': \'Servidor\',\n               \'hosts.id_distro\': \'Distro\',\n               \'hosts.nome\': \'Nome\',\n\t           \'hosts.servicos\': \'Servicos\'}\n\tgrid = SQLFORM.grid(query=query, fields=fields, headers=headers, csv=False,\n\t\t\t\t\t\tdetails=False, searchable=False, maxtextlength=23, links=links, \n\t\t\t\t\t\tlinks_placement=\'left\', editable=False, create=False)\n\n\treturn response.render("initial/show_grid2.html", grid=grid, nome_ant1=nome_ant1, \n\t\t\t\t\t\tfuncao_ant1=funcao_ant1, nome_atual=nome_atual)\n\n@auth.requires_login()\ndef distro_host():\n\tfiltro = request.vars[\'f\']\n\tqueryset = db(db.distro.id == filtro)\n\trows = queryset.select()\n\tdistro = rows[0]\n\tresponse.title = distro.nome\n\n\tnome_ant1 = request.vars[\'n1\']\n\tfuncao_ant1 = request.vars[\'p1\']\n\tnome_atual = distro.nome\t\n\t\n\tdb.hosts.id.readable=False\n\tdb.distro.img.readable=False\n\tquery = ((db.hosts.id_distro == filtro) & (db.distro.id == db.hosts.id_distro))\n\tlinks = [dict(header=\'\',body=lambda row: A( IMG(_src=URL("static", "images", args=(row.distro.img)) ))), \n\t lambda row: A(\'Detalhes\', \n    \t\t      _class=\'btn\', \n    \t\t      _title=\'Detalhes\', \n    \t\t      _href=URL("initial", "/detalhes_nav", \n    \t\t      vars=dict(f=row.hosts.id, c=filtro, n=distro.nome, \n    \t\t      \t\tn1=\'Distros\', p1=\'show_distro\', p=\'distro_host\'))),\n\t lambda row: A(\'Editar\', \n    \t\t      _class=\'btn\', \n    \t\t      _title=\'Editar\', \n    \t\t      _href=URL("initial", "/edit_host", \n    \t\t      vars=dict(f=row.hosts.id, c=filtro, n=distro.nome, \n    \t\t      \t\tn1=\'Distros\', p1=\'show_distro\', p=\'distro_host\')))]\n\n\tfields = (db.hosts.id, db.hosts.id_cliente, db.hosts.id_servidor, db.distro.img, \n\t\t\t  db.hosts.ip_chegada, db.hosts.porta_ssh, db.hosts.gateway)\n\theaders = {\'hosts.id\':   \'ID\',\n\t\t\t\t\'hosts.id_cliente\': \'Cliente\',\n               \'hosts.id_servidor\': \'Servidor\',\n               \'hosts.id_distro\': \'Distro\',\n               \'hosts.nome\': \'Nome\',\n\t           \'hosts.servicos\': \'Servicos\'}\n\tgrid = SQLFORM.grid(query=query, fields=fields, headers=headers, csv=False,\n\t\t\t\t\t\tdetails=False, searchable=False, maxtextlength=23, links=links, \n\t\t\t\t\t\tlinks_placement=\'left\', editable=False, create=False)\n\n\treturn response.render("initial/show_grid2.html", grid=grid, nome_ant1=nome_ant1, \n\t\t\t\t\t\tfuncao_ant1=funcao_ant1, nome_atual=nome_atual)\n\ndef detalhes_nav():\n\t#detalhes\n\tfiltro = request.vars[\'f\'] #id_host\n\tid_cliente = request.vars[\'c\'] #id_cliente\n\tnome_ant = request.vars[\'n\'] #nome (asterisk ou agronelli ou debian)\n\tnome_ant1 = request.vars[\'n1\'] #nome (servidores ou clientes ou distros)\n\tfuncao_ant = request.vars[\'p\'] #funcao(host_servidores)\n\tfuncao_ant1 = request.vars[\'p1\'] #funcao(show_servidores)\n\t\n\n\tquery = ((db.hosts.id == filtro) & (db.hosts.id_cliente == db.cliente.id)\n\t \t    & (db.hosts.id_servidor == db.servidor.id) \n\t \t    & (db.hosts.id_distro == db.distro.id)) \n\tdetalhes = db.hosts(query)\n\t\n\t\n\treturn response.render("initial/detalhes_host.html", detalhes=detalhes, \n\t\t\t\tid_cliente=id_cliente, funcao_ant=funcao_ant, funcao_ant1=funcao_ant1, \n\t\t\t\tnome_ant=nome_ant, nome_ant1=nome_ant1, filtro=filtro)\n\n\ndef edit_host():\n    form = SQLFORM(db.meetme, request.vars[\'f\'], submit_button=\'Editar\')\n\n    if form.process().accepted:\n       response.flash = \'Editado com sucesso\'\n    elif form.errors:\n       response.flash = \'Ops, algo n\xc3\xa3o est\xc3\xa1 correto\'\n    else:\n       response.flash = \'Edite os dados do host\'\n\n    return response.render("initial/show_form2.html", form=form)\n\n\n@auth.requires_login()\ndef interface():\n\t#adicionar\n    form = SQLFORM(db.hosts, submit_button=\'Adicionar\', \n    \t\t\tfields = [\'id_cliente\', \'id_servidor\', \'id_distro\', \'servicos\',\n\t\t\t\t\'if1\', \'ip1\', \'masc1\', \'obs1\', \'if2\', \'ip2\', \'masc2\', \'obs2\',\n\t\t\t\t\'if3\', \'ip3\', \'masc3\', \'obs3\', \'if4\', \'ip4\', \'masc4\', \'obs4\',\n\t\t\t\t\'nome\', \'ip_chegada\', \'porta_ssh\', \'gateway\', \'rotas\', \'obs_gerais\'], \n\t\t\t\tlabels = {\'id_cliente\':\'Cliente\', \'id_servidor\':\'Servidor\', \'id_distro\':\'Distro\',\n\t\t\t\t\'if1\':\'Interface 1\', \'ip1\':\'IP\', \'masc1\':\'M\xc3\xa1scara\', \'obs1\':\'Obs\',\n\t\t\t\t\'if2\':\'Interface 2\', \'ip2\':\'IP\', \'masc2\':\'M\xc3\xa1scara\', \'obs2\':\'Obs\',\n\t\t\t\t\'if3\':\'Interface 3\', \'ip3\':\'IP\', \'masc3\':\'M\xc3\xa1scara\', \'obs3\':\'Obs\',\n\t\t\t\t\'if4\':\'Interface 4\', \'ip4\':\'IP\', \'masc4\':\'M\xc3\xa1scara\', \'obs4\':\'Obs\'})\n   \n    if form.process().accepted:\n    \thost = request.vars\n    \temail(host)\n    \tresponse.flash = \'Inserido com sucesso\'\t\t\n    elif form.errors:\n       response.flash = \'Ops, algo n\xc3\xa3o est\xc3\xa1 correto\'\n    else:\n       response.flash = \'Insira os dados do novo host\'\n    return response.render("initial/show_form2.html", form=form)\n\ndef about():\n\tfiltro = request.vars[\'f\']\n\tquery = ((db.hosts.id_servidor == filtro) & (db.distro.id == db.hosts.id_distro))\n\tfields = (db.hosts.id, db.hosts.id_cliente, db.hosts.id_distro, db.distro.img, \n\t\t\t\tdb.hosts.ip_chegada, db.hosts.porta_ssh, db.hosts.gateway)\n\theaders = {\'host.id\':   \'ID\',\n               \'host.id_servidor\': \'Servidor\',\n               \'host.id_distro\': \'Distro\',\n               \'host.nome\': \'Nome\',\n\t           \'host.servicos\': \'Servicos\'}\n\tgrid = SQLFORM.grid(query=query, fields=fields, headers=headers, csv=False,\n\t\t\t\t\t\tdetails=False, maxtextlength=23, searchable=True, editable=False, create=False)\n\n\treturn response.render("initial/teste.html", grid=grid,)\n\ndef user():\n\t#if request.args(0) == \'register\':\n    #    \tdb.auth_user.bio.writable = db.auth_user.bio.readable = False\n\treturn response.render("initial/user.html", user=auth())\n\ndef register():\n\treturn auth.register()\n\ndef login():\n        return auth.login()\n\ndef account():\n    return dict(register=auth.register(),\n                login=auth.login())\n\t\ndef download():\n\treturn response.download(request, db)\n\n\ndef principal():\n\tresponse.title="Usu\xc3\xa1rios"\n\n\tgrid = SQLFORM.grid(db.usuario,\n\t\tuser_signature=False, searchable=True, csv=False, \n\t\tpaginate=50, details=False,  \n\t\tignore_rw = True, maxtextlength=36, \n    \t)\n\treturn response.render("initial/show_grid.html", grid=grid)\n\n\t\ndef detalhes_clean():\n\tfiltro = request.vars[\'f\'] #id_host\n\t\t\n\n\tquery = ((db.hosts.id == filtro) & (db.hosts.id_cliente == db.cliente.id)\n\t \t    & (db.hosts.id_servidor == db.servidor.id) \n\t \t    & (db.hosts.id_distro == db.distro.id)) \n\tdetalhes = db.hosts(query)\n\n\t\n\treturn response.render("initial/detalhes_host_clean.html", detalhes=detalhes)\n\ndef email(host):\n\tif auth.has_membership(\'voip\'):\n\t\tmail.send(\n\t\t\tto="fndiaz02@gmail.com",\n\t\t\tsubject="host adicionado",\n\t\t\tmessage="<html>Um novo host foi adicionado pelo usu\xc3\xa1rio %s <br>nome: %s <br>vpn: %s<br><br>\xc3\x89 preciso fazer a instala\xc3\xa7\xc3\xa3o do client zabbix e bacula</html>" % (auth.user.first_name, host.nome, host.ip_chegada,)\n\t\t\t)\n\telif auth.has_membership(\'internet\'):\n\t\tmail.send(\n\t\t\tto="fernando@ad2.com.br",\n\t\t\tsubject="host adicionado",\n\t\t\tmessage="<html>Um novo host foi adicionado pelo usu\xc3\xa1rio %s <br>nome: %s <br>vpn: %s<br><br>\xc3\x89 preciso fazer a instala\xc3\xa7\xc3\xa3o do client zabbix e bacula</html>" % (auth.user.first_name, host.nome, host.ip_chegada,)\n\t\t\t)\n\nresponse._vars=response._caller(show_cliente)\n'
p7
sS'snapshot'
p8
(dp9
S'exception'
p10
(dp11
S'__module__'
p12
S"'gluon.contrib.pg8000.errors'"
p13
sS'__getslice__'
p14
S"<method-wrapper '__getslice__' of ProgrammingError object>"
p15
sS'__str__'
p16
S"<method-wrapper '__str__' of ProgrammingError object>"
p17
sS'__reduce__'
p18
S'<built-in method __reduce__ of ProgrammingError object>'
p19
sS'__dict__'
p20
S'{}'
p21
sS'__sizeof__'
p22
S'<built-in method __sizeof__ of ProgrammingError object>'
p23
sS'__weakref__'
p24
S'None'
p25
sS'__init__'
p26
S"<method-wrapper '__init__' of ProgrammingError object>"
p27
sS'__setattr__'
p28
S"<method-wrapper '__setattr__' of ProgrammingError object>"
p29
sS'__reduce_ex__'
p30
S'<built-in method __reduce_ex__ of ProgrammingError object>'
p31
sS'__new__'
p32
S'<built-in method __new__ of type object>'
p33
sS'__format__'
p34
S'<built-in method __format__ of ProgrammingError object>'
p35
sS'__class__'
p36
S"<class 'gluon.contrib.pg8000.errors.ProgrammingError'>"
p37
sS'__doc__'
p38
S'None'
p39
sS'__getitem__'
p40
S"<method-wrapper '__getitem__' of ProgrammingError object>"
p41
sS'__setstate__'
p42
S'<built-in method __setstate__ of ProgrammingError object>'
p43
sS'__getattribute__'
p44
S"<method-wrapper '__getattribute__' of ProgrammingError object>"
p45
sS'args'
p46
S'(\'ERROR\', \'42P01\', \'relation "meetme_id_seq" does not exist\')'
p47
sS'__subclasshook__'
p48
S'<built-in method __subclasshook__ of type object>'
p49
sS'__unicode__'
p50
S'<built-in method __unicode__ of ProgrammingError object>'
p51
sS'__delattr__'
p52
S"<method-wrapper '__delattr__' of ProgrammingError object>"
p53
sS'__repr__'
p54
S"<method-wrapper '__repr__' of ProgrammingError object>"
p55
sS'__hash__'
p56
S"<method-wrapper '__hash__' of ProgrammingError object>"
p57
ssS'evalue'
p58
S'(\'ERROR\', \'42P01\', \'relation "meetme_id_seq" does not exist\')'
p59
sS'request'
p60
ccopy_reg
_reconstructor
p61
(cgluon.html
BEAUTIFY
p62
c__builtin__
object
p63
NtRp64
(dp65
S'attributes'
p66
(dp67
sS'components'
p68
(lp69
g61
(cgluon.html
TABLE
p70
g63
NtRp71
(dp72
g66
(dp73
S'level'
p74
I5
ssS'parent'
p75
Nsg68
(lp76
g61
(cgluon.html
TR
p77
g63
NtRp78
(dp79
g66
(dp80
sg75
g71
sg68
(lp81
g61
(cgluon.html
TD
p82
g63
NtRp83
(dp84
g66
(dp85
S'_style'
p86
S'font-weight:bold;vertical-align:top'
p87
ssg75
g78
sg68
(lp88
S'ajax'
p89
asbag61
(g82
g63
NtRp90
(dp91
g66
(dp92
S'_valign'
p93
S'top'
p94
ssg75
g78
sg68
(lp95
S':'
asbag61
(g82
g63
NtRp96
(dp97
g66
(dp98
sg75
g78
sg68
(lp99
g61
(g62
g63
NtRp100
(dp101
g66
(dp102
g74
I5
ssg75
g96
sg68
(lp103
S'False'
p104
asbasbasbag61
(g77
g63
NtRp105
(dp106
g66
(dp107
sg75
g71
sg68
(lp108
g61
(g82
g63
NtRp109
(dp110
g66
(dp111
g86
g87
ssg75
g105
sg68
(lp112
S'application'
p113
asbag61
(g82
g63
NtRp114
(dp115
g66
(dp116
g93
g94
ssg75
g105
sg68
(lp117
S':'
asbag61
(g82
g63
NtRp118
(dp119
g66
(dp120
sg75
g105
sg68
(lp121
g61
(g62
g63
NtRp122
(dp123
g66
(dp124
g74
I5
ssg75
g118
sg68
(lp125
S'projeto'
p126
asbasbasbag61
(g77
g63
NtRp127
(dp128
g66
(dp129
sg75
g71
sg68
(lp130
g61
(g82
g63
NtRp131
(dp132
g66
(dp133
g86
g87
ssg75
g127
sg68
(lp134
g46
asbag61
(g82
g63
NtRp135
(dp136
g66
(dp137
g93
g94
ssg75
g127
sg68
(lp138
S':'
asbag61
(g82
g63
NtRp139
(dp140
g66
(dp141
sg75
g127
sg68
(lp142
g61
(g62
g63
NtRp143
(dp144
g66
(dp145
g74
I5
ssg75
g139
sg68
(lp146
g61
(g70
g63
NtRp147
(dp148
g66
(dp149
g74
I4
ssg75
Nsg68
(lp150
g61
(g77
g63
NtRp151
(dp152
g66
(dp153
sg75
g147
sg68
(lp154
g61
(g82
g63
NtRp155
(dp156
g66
(dp157
sg75
g151
sg68
(lp158
g61
(g62
g63
NtRp159
(dp160
g66
(dp161
g74
I4
ssg75
g155
sg68
(lp162
S'new'
p163
asbasbasbag61
(g77
g63
NtRp164
(dp165
g66
(dp166
sg75
g147
sg68
(lp167
g61
(g82
g63
NtRp168
(dp169
g66
(dp170
sg75
g164
sg68
(lp171
g61
(g62
g63
NtRp172
(dp173
g66
(dp174
g74
I4
ssg75
g168
sg68
(lp175
S'meetme'
p176
asbasbasbasbasbasbasbag61
(g77
g63
NtRp177
(dp178
g66
(dp179
sg75
g71
sg68
(lp180
g61
(g82
g63
NtRp181
(dp182
g66
(dp183
g86
g87
ssg75
g177
sg68
(lp184
S'body'
p185
asbag61
(g82
g63
NtRp186
(dp187
g66
(dp188
g93
g94
ssg75
g177
sg68
(lp189
S':'
asbag61
(g82
g63
NtRp190
(dp191
g66
(dp192
sg75
g177
sg68
(lp193
g61
(g62
g63
NtRp194
(dp195
g66
(dp196
g74
I5
ssg75
g190
sg68
(lp197
S"<open file '<fdopen>', mode 'w+b' at 0x7fe2b8125810>"
p198
asbasbasbag61
(g77
g63
NtRp199
(dp200
g66
(dp201
sg75
g71
sg68
(lp202
g61
(g82
g63
NtRp203
(dp204
g66
(dp205
g86
g87
ssg75
g199
sg68
(lp206
S'cid'
p207
asbag61
(g82
g63
NtRp208
(dp209
g66
(dp210
g93
g94
ssg75
g199
sg68
(lp211
S':'
asbag61
(g82
g63
NtRp212
(dp213
g66
(dp214
sg75
g199
sg68
(lp215
g61
(g62
g63
NtRp216
(dp217
g66
(dp218
g74
I5
ssg75
g212
sg68
(lp219
S'None'
p220
asbasbasbag61
(g77
g63
NtRp221
(dp222
g66
(dp223
sg75
g71
sg68
(lp224
g61
(g82
g63
NtRp225
(dp226
g66
(dp227
g86
g87
ssg75
g221
sg68
(lp228
S'client'
p229
asbag61
(g82
g63
NtRp230
(dp231
g66
(dp232
g93
g94
ssg75
g221
sg68
(lp233
S':'
asbag61
(g82
g63
NtRp234
(dp235
g66
(dp236
sg75
g221
sg68
(lp237
g61
(g62
g63
NtRp238
(dp239
g66
(dp240
g74
I5
ssg75
g234
sg68
(lp241
S'127.0.0.1'
p242
asbasbasbag61
(g77
g63
NtRp243
(dp244
g66
(dp245
sg75
g71
sg68
(lp246
g61
(g82
g63
NtRp247
(dp248
g66
(dp249
g86
g87
ssg75
g243
sg68
(lp250
S'controller'
p251
asbag61
(g82
g63
NtRp252
(dp253
g66
(dp254
g93
g94
ssg75
g243
sg68
(lp255
S':'
asbag61
(g82
g63
NtRp256
(dp257
g66
(dp258
sg75
g243
sg68
(lp259
g61
(g62
g63
NtRp260
(dp261
g66
(dp262
g74
I5
ssg75
g256
sg68
(lp263
S'initial'
p264
asbasbasbag61
(g77
g63
NtRp265
(dp266
g66
(dp267
sg75
g71
sg68
(lp268
g61
(g82
g63
NtRp269
(dp270
g66
(dp271
g86
g87
ssg75
g265
sg68
(lp272
S'cookies'
p273
asbag61
(g82
g63
NtRp274
(dp275
g66
(dp276
g93
g94
ssg75
g265
sg68
(lp277
S':'
asbag61
(g82
g63
NtRp278
(dp279
g66
(dp280
sg75
g265
sg68
(lp281
g61
(g62
g63
NtRp282
(dp283
g66
(dp284
g74
I5
ssg75
g278
sg68
(lp285
g61
(g70
g63
NtRp286
(dp287
g66
(dp288
g74
I4
ssg75
Nsg68
(lp289
g61
(g77
g63
NtRp290
(dp291
g66
(dp292
sg75
g286
sg68
(lp293
g61
(g82
g63
NtRp294
(dp295
g66
(dp296
g86
g87
ssg75
g290
sg68
(lp297
S'session_id_admin'
p298
asbag61
(g82
g63
NtRp299
(dp300
g66
(dp301
g93
g94
ssg75
g290
sg68
(lp302
S':'
asbag61
(g82
g63
NtRp303
(dp304
g66
(dp305
sg75
g290
sg68
(lp306
g61
(g62
g63
NtRp307
(dp308
g66
(dp309
g74
I4
ssg75
g303
sg68
(lp310
S'127.0.0.1-9ca8fc56-3213-4881-b103-95238a337326'
p311
ag61
(g70
g63
NtRp312
(dp313
g66
(dp314
g74
I3
ssg75
Nsg68
(lp315
g61
(g77
g63
NtRp316
(dp317
g66
(dp318
sg75
g312
sg68
(lp319
g61
(g82
g63
NtRp320
(dp321
g66
(dp322
g86
g87
ssg75
g316
sg68
(lp323
S'comment'
p324
asbag61
(g82
g63
NtRp325
(dp326
g66
(dp327
g93
g94
ssg75
g316
sg68
(lp328
S':'
asbag61
(g82
g63
NtRp329
(dp330
g66
(dp331
sg75
g316
sg68
(lp332
g61
(g62
g63
NtRp333
(dp334
g66
(dp335
g74
I3
ssg75
g329
sg68
(lp336
S''
asbasbasbag61
(g77
g63
NtRp337
(dp338
g66
(dp339
sg75
g312
sg68
(lp340
g61
(g82
g63
NtRp341
(dp342
g66
(dp343
g86
g87
ssg75
g337
sg68
(lp344
S'domain'
p345
asbag61
(g82
g63
NtRp346
(dp347
g66
(dp348
g93
g94
ssg75
g337
sg68
(lp349
S':'
asbag61
(g82
g63
NtRp350
(dp351
g66
(dp352
sg75
g337
sg68
(lp353
g61
(g62
g63
NtRp354
(dp355
g66
(dp356
g74
I3
ssg75
g350
sg68
(lp357
S''
asbasbasbag61
(g77
g63
NtRp358
(dp359
g66
(dp360
sg75
g312
sg68
(lp361
g61
(g82
g63
NtRp362
(dp363
g66
(dp364
g86
g87
ssg75
g358
sg68
(lp365
S'expires'
p366
asbag61
(g82
g63
NtRp367
(dp368
g66
(dp369
g93
g94
ssg75
g358
sg68
(lp370
S':'
asbag61
(g82
g63
NtRp371
(dp372
g66
(dp373
sg75
g358
sg68
(lp374
g61
(g62
g63
NtRp375
(dp376
g66
(dp377
g74
I3
ssg75
g371
sg68
(lp378
S''
asbasbasbag61
(g77
g63
NtRp379
(dp380
g66
(dp381
sg75
g312
sg68
(lp382
g61
(g82
g63
NtRp383
(dp384
g66
(dp385
g86
g87
ssg75
g379
sg68
(lp386
S'httponly'
p387
asbag61
(g82
g63
NtRp388
(dp389
g66
(dp390
g93
g94
ssg75
g379
sg68
(lp391
S':'
asbag61
(g82
g63
NtRp392
(dp393
g66
(dp394
sg75
g379
sg68
(lp395
g61
(g62
g63
NtRp396
(dp397
g66
(dp398
g74
I3
ssg75
g392
sg68
(lp399
S''
asbasbasbag61
(g77
g63
NtRp400
(dp401
g66
(dp402
sg75
g312
sg68
(lp403
g61
(g82
g63
NtRp404
(dp405
g66
(dp406
g86
g87
ssg75
g400
sg68
(lp407
S'max-age'
p408
asbag61
(g82
g63
NtRp409
(dp410
g66
(dp411
g93
g94
ssg75
g400
sg68
(lp412
S':'
asbag61
(g82
g63
NtRp413
(dp414
g66
(dp415
sg75
g400
sg68
(lp416
g61
(g62
g63
NtRp417
(dp418
g66
(dp419
g74
I3
ssg75
g413
sg68
(lp420
S''
asbasbasbag61
(g77
g63
NtRp421
(dp422
g66
(dp423
sg75
g312
sg68
(lp424
g61
(g82
g63
NtRp425
(dp426
g66
(dp427
g86
g87
ssg75
g421
sg68
(lp428
S'path'
p429
asbag61
(g82
g63
NtRp430
(dp431
g66
(dp432
g93
g94
ssg75
g421
sg68
(lp433
S':'
asbag61
(g82
g63
NtRp434
(dp435
g66
(dp436
sg75
g421
sg68
(lp437
g61
(g62
g63
NtRp438
(dp439
g66
(dp440
g74
I3
ssg75
g434
sg68
(lp441
S''
asbasbasbag61
(g77
g63
NtRp442
(dp443
g66
(dp444
sg75
g312
sg68
(lp445
g61
(g82
g63
NtRp446
(dp447
g66
(dp448
g86
g87
ssg75
g442
sg68
(lp449
S'secure'
p450
asbag61
(g82
g63
NtRp451
(dp452
g66
(dp453
g93
g94
ssg75
g442
sg68
(lp454
S':'
asbag61
(g82
g63
NtRp455
(dp456
g66
(dp457
sg75
g442
sg68
(lp458
g61
(g62
g63
NtRp459
(dp460
g66
(dp461
g74
I3
ssg75
g455
sg68
(lp462
S''
asbasbasbag61
(g77
g63
NtRp463
(dp464
g66
(dp465
sg75
g312
sg68
(lp466
g61
(g82
g63
NtRp467
(dp468
g66
(dp469
g86
g87
ssg75
g463
sg68
(lp470
S'version'
p471
asbag61
(g82
g63
NtRp472
(dp473
g66
(dp474
g93
g94
ssg75
g463
sg68
(lp475
S':'
asbag61
(g82
g63
NtRp476
(dp477
g66
(dp478
sg75
g463
sg68
(lp479
g61
(g62
g63
NtRp480
(dp481
g66
(dp482
g74
I3
ssg75
g476
sg68
(lp483
S''
asbasbasbasbasbasbasbag61
(g77
g63
NtRp484
(dp485
g66
(dp486
sg75
g286
sg68
(lp487
g61
(g82
g63
NtRp488
(dp489
g66
(dp490
g86
g87
ssg75
g484
sg68
(lp491
S'session_id_projeto'
p492
asbag61
(g82
g63
NtRp493
(dp494
g66
(dp495
g93
g94
ssg75
g484
sg68
(lp496
S':'
asbag61
(g82
g63
NtRp497
(dp498
g66
(dp499
sg75
g484
sg68
(lp500
g61
(g62
g63
NtRp501
(dp502
g66
(dp503
g74
I4
ssg75
g497
sg68
(lp504
S'127.0.0.1-001edd4c-cc9d-40b6-92aa-d3bbbc6019b5'
p505
ag61
(g70
g63
NtRp506
(dp507
g66
(dp508
g74
I3
ssg75
Nsg68
(lp509
g61
(g77
g63
NtRp510
(dp511
g66
(dp512
sg75
g506
sg68
(lp513
g61
(g82
g63
NtRp514
(dp515
g66
(dp516
g86
g87
ssg75
g510
sg68
(lp517
g324
asbag61
(g82
g63
NtRp518
(dp519
g66
(dp520
g93
g94
ssg75
g510
sg68
(lp521
S':'
asbag61
(g82
g63
NtRp522
(dp523
g66
(dp524
sg75
g510
sg68
(lp525
g61
(g62
g63
NtRp526
(dp527
g66
(dp528
g74
I3
ssg75
g522
sg68
(lp529
S''
asbasbasbag61
(g77
g63
NtRp530
(dp531
g66
(dp532
sg75
g506
sg68
(lp533
g61
(g82
g63
NtRp534
(dp535
g66
(dp536
g86
g87
ssg75
g530
sg68
(lp537
g345
asbag61
(g82
g63
NtRp538
(dp539
g66
(dp540
g93
g94
ssg75
g530
sg68
(lp541
S':'
asbag61
(g82
g63
NtRp542
(dp543
g66
(dp544
sg75
g530
sg68
(lp545
g61
(g62
g63
NtRp546
(dp547
g66
(dp548
g74
I3
ssg75
g542
sg68
(lp549
S''
asbasbasbag61
(g77
g63
NtRp550
(dp551
g66
(dp552
sg75
g506
sg68
(lp553
g61
(g82
g63
NtRp554
(dp555
g66
(dp556
g86
g87
ssg75
g550
sg68
(lp557
g366
asbag61
(g82
g63
NtRp558
(dp559
g66
(dp560
g93
g94
ssg75
g550
sg68
(lp561
S':'
asbag61
(g82
g63
NtRp562
(dp563
g66
(dp564
sg75
g550
sg68
(lp565
g61
(g62
g63
NtRp566
(dp567
g66
(dp568
g74
I3
ssg75
g562
sg68
(lp569
S''
asbasbasbag61
(g77
g63
NtRp570
(dp571
g66
(dp572
sg75
g506
sg68
(lp573
g61
(g82
g63
NtRp574
(dp575
g66
(dp576
g86
g87
ssg75
g570
sg68
(lp577
g387
asbag61
(g82
g63
NtRp578
(dp579
g66
(dp580
g93
g94
ssg75
g570
sg68
(lp581
S':'
asbag61
(g82
g63
NtRp582
(dp583
g66
(dp584
sg75
g570
sg68
(lp585
g61
(g62
g63
NtRp586
(dp587
g66
(dp588
g74
I3
ssg75
g582
sg68
(lp589
S''
asbasbasbag61
(g77
g63
NtRp590
(dp591
g66
(dp592
sg75
g506
sg68
(lp593
g61
(g82
g63
NtRp594
(dp595
g66
(dp596
g86
g87
ssg75
g590
sg68
(lp597
g408
asbag61
(g82
g63
NtRp598
(dp599
g66
(dp600
g93
g94
ssg75
g590
sg68
(lp601
S':'
asbag61
(g82
g63
NtRp602
(dp603
g66
(dp604
sg75
g590
sg68
(lp605
g61
(g62
g63
NtRp606
(dp607
g66
(dp608
g74
I3
ssg75
g602
sg68
(lp609
S''
asbasbasbag61
(g77
g63
NtRp610
(dp611
g66
(dp612
sg75
g506
sg68
(lp613
g61
(g82
g63
NtRp614
(dp615
g66
(dp616
g86
g87
ssg75
g610
sg68
(lp617
g429
asbag61
(g82
g63
NtRp618
(dp619
g66
(dp620
g93
g94
ssg75
g610
sg68
(lp621
S':'
asbag61
(g82
g63
NtRp622
(dp623
g66
(dp624
sg75
g610
sg68
(lp625
g61
(g62
g63
NtRp626
(dp627
g66
(dp628
g74
I3
ssg75
g622
sg68
(lp629
S''
asbasbasbag61
(g77
g63
NtRp630
(dp631
g66
(dp632
sg75
g506
sg68
(lp633
g61
(g82
g63
NtRp634
(dp635
g66
(dp636
g86
g87
ssg75
g630
sg68
(lp637
g450
asbag61
(g82
g63
NtRp638
(dp639
g66
(dp640
g93
g94
ssg75
g630
sg68
(lp641
S':'
asbag61
(g82
g63
NtRp642
(dp643
g66
(dp644
sg75
g630
sg68
(lp645
g61
(g62
g63
NtRp646
(dp647
g66
(dp648
g74
I3
ssg75
g642
sg68
(lp649
S''
asbasbasbag61
(g77
g63
NtRp650
(dp651
g66
(dp652
sg75
g506
sg68
(lp653
g61
(g82
g63
NtRp654
(dp655
g66
(dp656
g86
g87
ssg75
g650
sg68
(lp657
g471
asbag61
(g82
g63
NtRp658
(dp659
g66
(dp660
g93
g94
ssg75
g650
sg68
(lp661
S':'
asbag61
(g82
g63
NtRp662
(dp663
g66
(dp664
sg75
g650
sg68
(lp665
g61
(g62
g63
NtRp666
(dp667
g66
(dp668
g74
I3
ssg75
g662
sg68
(lp669
S''
asbasbasbasbasbasbasbasbasbasbasbag61
(g77
g63
NtRp670
(dp671
g66
(dp672
sg75
g71
sg68
(lp673
g61
(g82
g63
NtRp674
(dp675
g66
(dp676
g86
g87
ssg75
g670
sg68
(lp677
S'env'
p678
asbag61
(g82
g63
NtRp679
(dp680
g66
(dp681
g93
g94
ssg75
g670
sg68
(lp682
S':'
asbag61
(g82
g63
NtRp683
(dp684
g66
(dp685
sg75
g670
sg68
(lp686
g61
(g62
g63
NtRp687
(dp688
g66
(dp689
g74
I5
ssg75
g683
sg68
(lp690
g61
(g70
g63
NtRp691
(dp692
g66
(dp693
g74
I4
ssg75
Nsg68
(lp694
g61
(g77
g63
NtRp695
(dp696
g66
(dp697
sg75
g691
sg68
(lp698
g61
(g82
g63
NtRp699
(dp700
g66
(dp701
g86
g87
ssg75
g695
sg68
(lp702
S'app_folders'
p703
asbag61
(g82
g63
NtRp704
(dp705
g66
(dp706
g93
g94
ssg75
g695
sg68
(lp707
S':'
asbag61
(g82
g63
NtRp708
(dp709
g66
(dp710
sg75
g695
sg68
(lp711
g61
(g62
g63
NtRp712
(dp713
g66
(dp714
g74
I4
ssg75
g708
sg68
(lp715
S"set(['/var/www/conferencia/applications/projeto/'])"
p716
asbasbasbag61
(g77
g63
NtRp717
(dp718
g66
(dp719
sg75
g691
sg68
(lp720
g61
(g82
g63
NtRp721
(dp722
g66
(dp723
g86
g87
ssg75
g717
sg68
(lp724
S'applications_parent'
p725
asbag61
(g82
g63
NtRp726
(dp727
g66
(dp728
g93
g94
ssg75
g717
sg68
(lp729
S':'
asbag61
(g82
g63
NtRp730
(dp731
g66
(dp732
sg75
g717
sg68
(lp733
g61
(g62
g63
NtRp734
(dp735
g66
(dp736
g74
I4
ssg75
g730
sg68
(lp737
S'/var/www/conferencia'
p738
asbasbasbag61
(g77
g63
NtRp739
(dp740
g66
(dp741
sg75
g691
sg68
(lp742
g61
(g82
g63
NtRp743
(dp744
g66
(dp745
g86
g87
ssg75
g739
sg68
(lp746
S'cmd_args'
p747
asbag61
(g82
g63
NtRp748
(dp749
g66
(dp750
g93
g94
ssg75
g739
sg68
(lp751
S':'
asbag61
(g82
g63
NtRp752
(dp753
g66
(dp754
sg75
g739
sg68
(lp755
g61
(g62
g63
NtRp756
(dp757
g66
(dp758
g74
I4
ssg75
g752
sg68
(lp759
g61
(g70
g63
NtRp760
(dp761
g66
(dp762
g74
I3
ssg75
Nsg68
(lp763
sbasbasbasbag61
(g77
g63
NtRp764
(dp765
g66
(dp766
sg75
g691
sg68
(lp767
g61
(g82
g63
NtRp768
(dp769
g66
(dp770
g86
g87
ssg75
g764
sg68
(lp771
S'cmd_options'
p772
asbag61
(g82
g63
NtRp773
(dp774
g66
(dp775
g93
g94
ssg75
g764
sg68
(lp776
S':'
asbag61
(g82
g63
NtRp777
(dp778
g66
(dp779
sg75
g764
sg68
(lp780
g61
(g62
g63
NtRp781
(dp782
g66
(dp783
g74
I4
ssg75
g777
sg68
(lp784
S"<Values at 0x1a25248: {'verbose': False, 'ip': '127.0.0.1', 'with_scheduler': False, 'ips': [], 'shutdown_timeout': 5, 'taskbar': False, 'port': 8000, 'maxthreads': None, 'softcron': False, 'server_name': 'fernando-workstation', 'bpython': False, 'nogui': False, 'pid_filename': 'httpserver.pid', 'extcron': False, 'runcron': False, 'run_system_tests': False, 'test': None, 'folder': '/var/www/conferencia', 'config': '', 'minthreads': None, 'winservice': '', 'shell': None, 'run': '', 'log_filename': 'httpserver.log', 'debuglevel': 30, 'args': [''], 'socket_timeout': 5, 'ssl_ca_certificate': None, 'scheduler': None, 'profiler_filename': None, 'ssl_private_key': '', 'scheduler_groups': None, 'password': '123456', 'request_queue_size': 5, 'ssl_certificate': '', 'cronjob': False, 'numthreads': None, 'quiet': False, 'interfaces': None, 'import_models': False, 'timeout': 10, 'plain': False, 'nobanner': False}>"
p785
asbasbasbag61
(g77
g63
NtRp786
(dp787
g66
(dp788
sg75
g691
sg68
(lp789
g61
(g82
g63
NtRp790
(dp791
g66
(dp792
g86
g87
ssg75
g786
sg68
(lp793
S'content_length'
p794
asbag61
(g82
g63
NtRp795
(dp796
g66
(dp797
g93
g94
ssg75
g786
sg68
(lp798
S':'
asbag61
(g82
g63
NtRp799
(dp800
g66
(dp801
sg75
g786
sg68
(lp802
g61
(g62
g63
NtRp803
(dp804
g66
(dp805
g74
I4
ssg75
g799
sg68
(lp806
S'905'
p807
asbasbasbag61
(g77
g63
NtRp808
(dp809
g66
(dp810
sg75
g691
sg68
(lp811
g61
(g82
g63
NtRp812
(dp813
g66
(dp814
g86
g87
ssg75
g808
sg68
(lp815
S'content_type'
p816
asbag61
(g82
g63
NtRp817
(dp818
g66
(dp819
g93
g94
ssg75
g808
sg68
(lp820
S':'
asbag61
(g82
g63
NtRp821
(dp822
g66
(dp823
sg75
g808
sg68
(lp824
g61
(g62
g63
NtRp825
(dp826
g66
(dp827
g74
I4
ssg75
g821
sg68
(lp828
S'multipart/form-data; boundary=----WebKitFormBoundarymiiiyrJEm3SVCoqF'
p829
asbasbasbag61
(g77
g63
NtRp830
(dp831
g66
(dp832
sg75
g691
sg68
(lp833
g61
(g82
g63
NtRp834
(dp835
g66
(dp836
g86
g87
ssg75
g830
sg68
(lp837
S'db_sessions'
p838
asbag61
(g82
g63
NtRp839
(dp840
g66
(dp841
g93
g94
ssg75
g830
sg68
(lp842
S':'
asbag61
(g82
g63
NtRp843
(dp844
g66
(dp845
sg75
g830
sg68
(lp846
g61
(g62
g63
NtRp847
(dp848
g66
(dp849
g74
I4
ssg75
g843
sg68
(lp850
S'set([])'
p851
asbasbasbag61
(g77
g63
NtRp852
(dp853
g66
(dp854
sg75
g691
sg68
(lp855
g61
(g82
g63
NtRp856
(dp857
g66
(dp858
g86
g87
ssg75
g852
sg68
(lp859
S'debugging'
p860
asbag61
(g82
g63
NtRp861
(dp862
g66
(dp863
g93
g94
ssg75
g852
sg68
(lp864
S':'
asbag61
(g82
g63
NtRp865
(dp866
g66
(dp867
sg75
g852
sg68
(lp868
g61
(g62
g63
NtRp869
(dp870
g66
(dp871
g74
I4
ssg75
g865
sg68
(lp872
g104
asbasbasbag61
(g77
g63
NtRp873
(dp874
g66
(dp875
sg75
g691
sg68
(lp876
g61
(g82
g63
NtRp877
(dp878
g66
(dp879
g86
g87
ssg75
g873
sg68
(lp880
S'gluon_parent'
p881
asbag61
(g82
g63
NtRp882
(dp883
g66
(dp884
g93
g94
ssg75
g873
sg68
(lp885
S':'
asbag61
(g82
g63
NtRp886
(dp887
g66
(dp888
sg75
g873
sg68
(lp889
g61
(g62
g63
NtRp890
(dp891
g66
(dp892
g74
I4
ssg75
g886
sg68
(lp893
S'/var/www/conferencia'
p894
asbasbasbag61
(g77
g63
NtRp895
(dp896
g66
(dp897
sg75
g691
sg68
(lp898
g61
(g82
g63
NtRp899
(dp900
g66
(dp901
g86
g87
ssg75
g895
sg68
(lp902
S'http_accept'
p903
asbag61
(g82
g63
NtRp904
(dp905
g66
(dp906
g93
g94
ssg75
g895
sg68
(lp907
S':'
asbag61
(g82
g63
NtRp908
(dp909
g66
(dp910
sg75
g895
sg68
(lp911
g61
(g62
g63
NtRp912
(dp913
g66
(dp914
g74
I4
ssg75
g908
sg68
(lp915
S'text/html,application/xhtml+xml,application/xml;q=0.9,*/*;q=0.8'
p916
asbasbasbag61
(g77
g63
NtRp917
(dp918
g66
(dp919
sg75
g691
sg68
(lp920
g61
(g82
g63
NtRp921
(dp922
g66
(dp923
g86
g87
ssg75
g917
sg68
(lp924
S'http_accept_charset'
p925
asbag61
(g82
g63
NtRp926
(dp927
g66
(dp928
g93
g94
ssg75
g917
sg68
(lp929
S':'
asbag61
(g82
g63
NtRp930
(dp931
g66
(dp932
sg75
g917
sg68
(lp933
g61
(g62
g63
NtRp934
(dp935
g66
(dp936
g74
I4
ssg75
g930
sg68
(lp937
S'ISO-8859-1,utf-8;q=0.7,*;q=0.3'
p938
asbasbasbag61
(g77
g63
NtRp939
(dp940
g66
(dp941
sg75
g691
sg68
(lp942
g61
(g82
g63
NtRp943
(dp944
g66
(dp945
g86
g87
ssg75
g939
sg68
(lp946
S'http_accept_encoding'
p947
asbag61
(g82
g63
NtRp948
(dp949
g66
(dp950
g93
g94
ssg75
g939
sg68
(lp951
S':'
asbag61
(g82
g63
NtRp952
(dp953
g66
(dp954
sg75
g939
sg68
(lp955
g61
(g62
g63
NtRp956
(dp957
g66
(dp958
g74
I4
ssg75
g952
sg68
(lp959
S'gzip,deflate,sdch'
p960
asbasbasbag61
(g77
g63
NtRp961
(dp962
g66
(dp963
sg75
g691
sg68
(lp964
g61
(g82
g63
NtRp965
(dp966
g66
(dp967
g86
g87
ssg75
g961
sg68
(lp968
S'http_accept_language'
p969
asbag61
(g82
g63
NtRp970
(dp971
g66
(dp972
g93
g94
ssg75
g961
sg68
(lp973
S':'
asbag61
(g82
g63
NtRp974
(dp975
g66
(dp976
sg75
g961
sg68
(lp977
g61
(g62
g63
NtRp978
(dp979
g66
(dp980
g74
I4
ssg75
g974
sg68
(lp981
S'pt-BR,pt;q=0.8,en-US;q=0.6,en;q=0.4'
p982
asbasbasbag61
(g77
g63
NtRp983
(dp984
g66
(dp985
sg75
g691
sg68
(lp986
g61
(g82
g63
NtRp987
(dp988
g66
(dp989
g86
g87
ssg75
g983
sg68
(lp990
S'http_cache_control'
p991
asbag61
(g82
g63
NtRp992
(dp993
g66
(dp994
g93
g94
ssg75
g983
sg68
(lp995
S':'
asbag61
(g82
g63
NtRp996
(dp997
g66
(dp998
sg75
g983
sg68
(lp999
g61
(g62
g63
NtRp1000
(dp1001
g66
(dp1002
g74
I4
ssg75
g996
sg68
(lp1003
S'max-age=0'
p1004
asbasbasbag61
(g77
g63
NtRp1005
(dp1006
g66
(dp1007
sg75
g691
sg68
(lp1008
g61
(g82
g63
NtRp1009
(dp1010
g66
(dp1011
g86
g87
ssg75
g1005
sg68
(lp1012
S'http_connection'
p1013
asbag61
(g82
g63
NtRp1014
(dp1015
g66
(dp1016
g93
g94
ssg75
g1005
sg68
(lp1017
S':'
asbag61
(g82
g63
NtRp1018
(dp1019
g66
(dp1020
sg75
g1005
sg68
(lp1021
g61
(g62
g63
NtRp1022
(dp1023
g66
(dp1024
g74
I4
ssg75
g1018
sg68
(lp1025
S'keep-alive'
p1026
asbasbasbag61
(g77
g63
NtRp1027
(dp1028
g66
(dp1029
sg75
g691
sg68
(lp1030
g61
(g82
g63
NtRp1031
(dp1032
g66
(dp1033
g86
g87
ssg75
g1027
sg68
(lp1034
S'http_content_length'
p1035
asbag61
(g82
g63
NtRp1036
(dp1037
g66
(dp1038
g93
g94
ssg75
g1027
sg68
(lp1039
S':'
asbag61
(g82
g63
NtRp1040
(dp1041
g66
(dp1042
sg75
g1027
sg68
(lp1043
g61
(g62
g63
NtRp1044
(dp1045
g66
(dp1046
g74
I4
ssg75
g1040
sg68
(lp1047
g807
asbasbasbag61
(g77
g63
NtRp1048
(dp1049
g66
(dp1050
sg75
g691
sg68
(lp1051
g61
(g82
g63
NtRp1052
(dp1053
g66
(dp1054
g86
g87
ssg75
g1048
sg68
(lp1055
S'http_content_type'
p1056
asbag61
(g82
g63
NtRp1057
(dp1058
g66
(dp1059
g93
g94
ssg75
g1048
sg68
(lp1060
S':'
asbag61
(g82
g63
NtRp1061
(dp1062
g66
(dp1063
sg75
g1048
sg68
(lp1064
g61
(g62
g63
NtRp1065
(dp1066
g66
(dp1067
g74
I4
ssg75
g1061
sg68
(lp1068
g829
asbasbasbag61
(g77
g63
NtRp1069
(dp1070
g66
(dp1071
sg75
g691
sg68
(lp1072
g61
(g82
g63
NtRp1073
(dp1074
g66
(dp1075
g86
g87
ssg75
g1069
sg68
(lp1076
S'http_cookie'
p1077
asbag61
(g82
g63
NtRp1078
(dp1079
g66
(dp1080
g93
g94
ssg75
g1069
sg68
(lp1081
S':'
asbag61
(g82
g63
NtRp1082
(dp1083
g66
(dp1084
sg75
g1069
sg68
(lp1085
g61
(g62
g63
NtRp1086
(dp1087
g66
(dp1088
g74
I4
ssg75
g1082
sg68
(lp1089
S'session_id_admin=127.0.0.1-9ca8fc56-3213-4881-b103-95238a337326; session_id_projeto=127.0.0.1-001edd4c-cc9d-40b6-92aa-d3bbbc6019b5'
p1090
asbasbasbag61
(g77
g63
NtRp1091
(dp1092
g66
(dp1093
sg75
g691
sg68
(lp1094
g61
(g82
g63
NtRp1095
(dp1096
g66
(dp1097
g86
g87
ssg75
g1091
sg68
(lp1098
S'http_host'
p1099
asbag61
(g82
g63
NtRp1100
(dp1101
g66
(dp1102
g93
g94
ssg75
g1091
sg68
(lp1103
S':'
asbag61
(g82
g63
NtRp1104
(dp1105
g66
(dp1106
sg75
g1091
sg68
(lp1107
g61
(g62
g63
NtRp1108
(dp1109
g66
(dp1110
g74
I4
ssg75
g1104
sg68
(lp1111
S'127.0.0.1:8000'
p1112
asbasbasbag61
(g77
g63
NtRp1113
(dp1114
g66
(dp1115
sg75
g691
sg68
(lp1116
g61
(g82
g63
NtRp1117
(dp1118
g66
(dp1119
g86
g87
ssg75
g1113
sg68
(lp1120
S'http_origin'
p1121
asbag61
(g82
g63
NtRp1122
(dp1123
g66
(dp1124
g93
g94
ssg75
g1113
sg68
(lp1125
S':'
asbag61
(g82
g63
NtRp1126
(dp1127
g66
(dp1128
sg75
g1113
sg68
(lp1129
g61
(g62
g63
NtRp1130
(dp1131
g66
(dp1132
g74
I4
ssg75
g1126
sg68
(lp1133
S'http://127.0.0.1:8000'
p1134
asbasbasbag61
(g77
g63
NtRp1135
(dp1136
g66
(dp1137
sg75
g691
sg68
(lp1138
g61
(g82
g63
NtRp1139
(dp1140
g66
(dp1141
g86
g87
ssg75
g1135
sg68
(lp1142
S'http_referer'
p1143
asbag61
(g82
g63
NtRp1144
(dp1145
g66
(dp1146
g93
g94
ssg75
g1135
sg68
(lp1147
S':'
asbag61
(g82
g63
NtRp1148
(dp1149
g66
(dp1150
sg75
g1135
sg68
(lp1151
g61
(g62
g63
NtRp1152
(dp1153
g66
(dp1154
g74
I4
ssg75
g1148
sg68
(lp1155
S'http://127.0.0.1:8000/show_cliente/new/meetme'
p1156
asbasbasbag61
(g77
g63
NtRp1157
(dp1158
g66
(dp1159
sg75
g691
sg68
(lp1160
g61
(g82
g63
NtRp1161
(dp1162
g66
(dp1163
g86
g87
ssg75
g1157
sg68
(lp1164
S'http_user_agent'
p1165
asbag61
(g82
g63
NtRp1166
(dp1167
g66
(dp1168
g93
g94
ssg75
g1157
sg68
(lp1169
S':'
asbag61
(g82
g63
NtRp1170
(dp1171
g66
(dp1172
sg75
g1157
sg68
(lp1173
g61
(g62
g63
NtRp1174
(dp1175
g66
(dp1176
g74
I4
ssg75
g1170
sg68
(lp1177
S'Mozilla/5.0 (X11; Linux x86_64) AppleWebKit/537.4 (KHTML, like Gecko) Ubuntu/12.10 Chromium/22.0.1229.94 Chrome/22.0.1229.94 Safari/537.4'
p1178
asbasbasbag61
(g77
g63
NtRp1179
(dp1180
g66
(dp1181
sg75
g691
sg68
(lp1182
g61
(g82
g63
NtRp1183
(dp1184
g66
(dp1185
g86
g87
ssg75
g1179
sg68
(lp1186
S'is_jython'
p1187
asbag61
(g82
g63
NtRp1188
(dp1189
g66
(dp1190
g93
g94
ssg75
g1179
sg68
(lp1191
S':'
asbag61
(g82
g63
NtRp1192
(dp1193
g66
(dp1194
sg75
g1179
sg68
(lp1195
g61
(g62
g63
NtRp1196
(dp1197
g66
(dp1198
g74
I4
ssg75
g1192
sg68
(lp1199
g104
asbasbasbag61
(g77
g63
NtRp1200
(dp1201
g66
(dp1202
sg75
g691
sg68
(lp1203
g61
(g82
g63
NtRp1204
(dp1205
g66
(dp1206
g86
g87
ssg75
g1200
sg68
(lp1207
S'is_pypy'
p1208
asbag61
(g82
g63
NtRp1209
(dp1210
g66
(dp1211
g93
g94
ssg75
g1200
sg68
(lp1212
S':'
asbag61
(g82
g63
NtRp1213
(dp1214
g66
(dp1215
sg75
g1200
sg68
(lp1216
g61
(g62
g63
NtRp1217
(dp1218
g66
(dp1219
g74
I4
ssg75
g1213
sg68
(lp1220
g104
asbasbasbag61
(g77
g63
NtRp1221
(dp1222
g66
(dp1223
sg75
g691
sg68
(lp1224
g61
(g82
g63
NtRp1225
(dp1226
g66
(dp1227
g86
g87
ssg75
g1221
sg68
(lp1228
S'local_hosts'
p1229
asbag61
(g82
g63
NtRp1230
(dp1231
g66
(dp1232
g93
g94
ssg75
g1221
sg68
(lp1233
S':'
asbag61
(g82
g63
NtRp1234
(dp1235
g66
(dp1236
sg75
g1221
sg68
(lp1237
g61
(g62
g63
NtRp1238
(dp1239
g66
(dp1240
g74
I4
ssg75
g1234
sg68
(lp1241
g61
(g70
g63
NtRp1242
(dp1243
g66
(dp1244
g74
I3
ssg75
Nsg68
(lp1245
g61
(g77
g63
NtRp1246
(dp1247
g66
(dp1248
sg75
g1242
sg68
(lp1249
g61
(g82
g63
NtRp1250
(dp1251
g66
(dp1252
sg75
g1246
sg68
(lp1253
g61
(g62
g63
NtRp1254
(dp1255
g66
(dp1256
g74
I3
ssg75
g1250
sg68
(lp1257
S'::1'
p1258
asbasbasbag61
(g77
g63
NtRp1259
(dp1260
g66
(dp1261
sg75
g1242
sg68
(lp1262
g61
(g82
g63
NtRp1263
(dp1264
g66
(dp1265
sg75
g1259
sg68
(lp1266
g61
(g62
g63
NtRp1267
(dp1268
g66
(dp1269
g74
I3
ssg75
g1263
sg68
(lp1270
S'::ffff:127.0.0.1'
p1271
asbasbasbag61
(g77
g63
NtRp1272
(dp1273
g66
(dp1274
sg75
g1242
sg68
(lp1275
g61
(g82
g63
NtRp1276
(dp1277
g66
(dp1278
sg75
g1272
sg68
(lp1279
g61
(g62
g63
NtRp1280
(dp1281
g66
(dp1282
g74
I3
ssg75
g1276
sg68
(lp1283
S'127.0.0.1'
p1284
asbasbasbag61
(g77
g63
NtRp1285
(dp1286
g66
(dp1287
sg75
g1242
sg68
(lp1288
g61
(g82
g63
NtRp1289
(dp1290
g66
(dp1291
sg75
g1285
sg68
(lp1292
g61
(g62
g63
NtRp1293
(dp1294
g66
(dp1295
g74
I3
ssg75
g1289
sg68
(lp1296
S'fernando-workstation'
p1297
asbasbasbasbasbasbasbag61
(g77
g63
NtRp1298
(dp1299
g66
(dp1300
sg75
g691
sg68
(lp1301
g61
(g82
g63
NtRp1302
(dp1303
g66
(dp1304
g86
g87
ssg75
g1298
sg68
(lp1305
S'path_info'
p1306
asbag61
(g82
g63
NtRp1307
(dp1308
g66
(dp1309
g93
g94
ssg75
g1298
sg68
(lp1310
S':'
asbag61
(g82
g63
NtRp1311
(dp1312
g66
(dp1313
sg75
g1298
sg68
(lp1314
g61
(g62
g63
NtRp1315
(dp1316
g66
(dp1317
g74
I4
ssg75
g1311
sg68
(lp1318
S'/show_cliente/new/meetme'
p1319
asbasbasbag61
(g77
g63
NtRp1320
(dp1321
g66
(dp1322
sg75
g691
sg68
(lp1323
g61
(g82
g63
NtRp1324
(dp1325
g66
(dp1326
g86
g87
ssg75
g1320
sg68
(lp1327
S'query_string'
p1328
asbag61
(g82
g63
NtRp1329
(dp1330
g66
(dp1331
g93
g94
ssg75
g1320
sg68
(lp1332
S':'
asbag61
(g82
g63
NtRp1333
(dp1334
g66
(dp1335
sg75
g1320
sg68
(lp1336
g61
(g62
g63
NtRp1337
(dp1338
g66
(dp1339
g74
I4
ssg75
g1333
sg68
(lp1340
S''
asbasbasbag61
(g77
g63
NtRp1341
(dp1342
g66
(dp1343
sg75
g691
sg68
(lp1344
g61
(g82
g63
NtRp1345
(dp1346
g66
(dp1347
g86
g87
ssg75
g1341
sg68
(lp1348
S'remote_addr'
p1349
asbag61
(g82
g63
NtRp1350
(dp1351
g66
(dp1352
g93
g94
ssg75
g1341
sg68
(lp1353
S':'
asbag61
(g82
g63
NtRp1354
(dp1355
g66
(dp1356
sg75
g1341
sg68
(lp1357
g61
(g62
g63
NtRp1358
(dp1359
g66
(dp1360
g74
I4
ssg75
g1354
sg68
(lp1361
g242
asbasbasbag61
(g77
g63
NtRp1362
(dp1363
g66
(dp1364
sg75
g691
sg68
(lp1365
g61
(g82
g63
NtRp1366
(dp1367
g66
(dp1368
g86
g87
ssg75
g1362
sg68
(lp1369
S'remote_port'
p1370
asbag61
(g82
g63
NtRp1371
(dp1372
g66
(dp1373
g93
g94
ssg75
g1362
sg68
(lp1374
S':'
asbag61
(g82
g63
NtRp1375
(dp1376
g66
(dp1377
sg75
g1362
sg68
(lp1378
g61
(g62
g63
NtRp1379
(dp1380
g66
(dp1381
g74
I4
ssg75
g1375
sg68
(lp1382
S'38840'
p1383
asbasbasbag61
(g77
g63
NtRp1384
(dp1385
g66
(dp1386
sg75
g691
sg68
(lp1387
g61
(g82
g63
NtRp1388
(dp1389
g66
(dp1390
g86
g87
ssg75
g1384
sg68
(lp1391
S'request_method'
p1392
asbag61
(g82
g63
NtRp1393
(dp1394
g66
(dp1395
g93
g94
ssg75
g1384
sg68
(lp1396
S':'
asbag61
(g82
g63
NtRp1397
(dp1398
g66
(dp1399
sg75
g1384
sg68
(lp1400
g61
(g62
g63
NtRp1401
(dp1402
g66
(dp1403
g74
I4
ssg75
g1397
sg68
(lp1404
S'POST'
p1405
asbasbasbag61
(g77
g63
NtRp1406
(dp1407
g66
(dp1408
sg75
g691
sg68
(lp1409
g61
(g82
g63
NtRp1410
(dp1411
g66
(dp1412
g86
g87
ssg75
g1406
sg68
(lp1413
S'request_uri'
p1414
asbag61
(g82
g63
NtRp1415
(dp1416
g66
(dp1417
g93
g94
ssg75
g1406
sg68
(lp1418
S':'
asbag61
(g82
g63
NtRp1419
(dp1420
g66
(dp1421
sg75
g1406
sg68
(lp1422
g61
(g62
g63
NtRp1423
(dp1424
g66
(dp1425
g74
I4
ssg75
g1419
sg68
(lp1426
S'/projeto/initial/show_cliente/new/meetme'
p1427
asbasbasbag61
(g77
g63
NtRp1428
(dp1429
g66
(dp1430
sg75
g691
sg68
(lp1431
g61
(g82
g63
NtRp1432
(dp1433
g66
(dp1434
g86
g87
ssg75
g1428
sg68
(lp1435
S'script_name'
p1436
asbag61
(g82
g63
NtRp1437
(dp1438
g66
(dp1439
g93
g94
ssg75
g1428
sg68
(lp1440
S':'
asbag61
(g82
g63
NtRp1441
(dp1442
g66
(dp1443
sg75
g1428
sg68
(lp1444
g61
(g62
g63
NtRp1445
(dp1446
g66
(dp1447
g74
I4
ssg75
g1441
sg68
(lp1448
S''
asbasbasbag61
(g77
g63
NtRp1449
(dp1450
g66
(dp1451
sg75
g691
sg68
(lp1452
g61
(g82
g63
NtRp1453
(dp1454
g66
(dp1455
g86
g87
ssg75
g1449
sg68
(lp1456
S'server_name'
p1457
asbag61
(g82
g63
NtRp1458
(dp1459
g66
(dp1460
g93
g94
ssg75
g1449
sg68
(lp1461
S':'
asbag61
(g82
g63
NtRp1462
(dp1463
g66
(dp1464
sg75
g1449
sg68
(lp1465
g61
(g62
g63
NtRp1466
(dp1467
g66
(dp1468
g74
I4
ssg75
g1462
sg68
(lp1469
S'fernando-workstation'
p1470
asbasbasbag61
(g77
g63
NtRp1471
(dp1472
g66
(dp1473
sg75
g691
sg68
(lp1474
g61
(g82
g63
NtRp1475
(dp1476
g66
(dp1477
g86
g87
ssg75
g1471
sg68
(lp1478
S'server_port'
p1479
asbag61
(g82
g63
NtRp1480
(dp1481
g66
(dp1482
g93
g94
ssg75
g1471
sg68
(lp1483
S':'
asbag61
(g82
g63
NtRp1484
(dp1485
g66
(dp1486
sg75
g1471
sg68
(lp1487
g61
(g62
g63
NtRp1488
(dp1489
g66
(dp1490
g74
I4
ssg75
g1484
sg68
(lp1491
S'8000'
p1492
asbasbasbag61
(g77
g63
NtRp1493
(dp1494
g66
(dp1495
sg75
g691
sg68
(lp1496
g61
(g82
g63
NtRp1497
(dp1498
g66
(dp1499
g86
g87
ssg75
g1493
sg68
(lp1500
S'server_protocol'
p1501
asbag61
(g82
g63
NtRp1502
(dp1503
g66
(dp1504
g93
g94
ssg75
g1493
sg68
(lp1505
S':'
asbag61
(g82
g63
NtRp1506
(dp1507
g66
(dp1508
sg75
g1493
sg68
(lp1509
g61
(g62
g63
NtRp1510
(dp1511
g66
(dp1512
g74
I4
ssg75
g1506
sg68
(lp1513
S'HTTP/1.1'
p1514
asbasbasbag61
(g77
g63
NtRp1515
(dp1516
g66
(dp1517
sg75
g691
sg68
(lp1518
g61
(g82
g63
NtRp1519
(dp1520
g66
(dp1521
g86
g87
ssg75
g1515
sg68
(lp1522
S'server_software'
p1523
asbag61
(g82
g63
NtRp1524
(dp1525
g66
(dp1526
g93
g94
ssg75
g1515
sg68
(lp1527
S':'
asbag61
(g82
g63
NtRp1528
(dp1529
g66
(dp1530
sg75
g1515
sg68
(lp1531
g61
(g62
g63
NtRp1532
(dp1533
g66
(dp1534
g74
I4
ssg75
g1528
sg68
(lp1535
S'Rocket 1.2.6'
p1536
asbasbasbag61
(g77
g63
NtRp1537
(dp1538
g66
(dp1539
sg75
g691
sg68
(lp1540
g61
(g82
g63
NtRp1541
(dp1542
g66
(dp1543
g86
g87
ssg75
g1537
sg68
(lp1544
S'web2py_original_uri'
p1545
asbag61
(g82
g63
NtRp1546
(dp1547
g66
(dp1548
g93
g94
ssg75
g1537
sg68
(lp1549
S':'
asbag61
(g82
g63
NtRp1550
(dp1551
g66
(dp1552
sg75
g1537
sg68
(lp1553
g61
(g62
g63
NtRp1554
(dp1555
g66
(dp1556
g74
I4
ssg75
g1550
sg68
(lp1557
g1319
asbasbasbag61
(g77
g63
NtRp1558
(dp1559
g66
(dp1560
sg75
g691
sg68
(lp1561
g61
(g82
g63
NtRp1562
(dp1563
g66
(dp1564
g86
g87
ssg75
g1558
sg68
(lp1565
S'web2py_path'
p1566
asbag61
(g82
g63
NtRp1567
(dp1568
g66
(dp1569
g93
g94
ssg75
g1558
sg68
(lp1570
S':'
asbag61
(g82
g63
NtRp1571
(dp1572
g66
(dp1573
sg75
g1558
sg68
(lp1574
g61
(g62
g63
NtRp1575
(dp1576
g66
(dp1577
g74
I4
ssg75
g1571
sg68
(lp1578
g738
asbasbasbag61
(g77
g63
NtRp1579
(dp1580
g66
(dp1581
sg75
g691
sg68
(lp1582
g61
(g82
g63
NtRp1583
(dp1584
g66
(dp1585
g86
g87
ssg75
g1579
sg68
(lp1586
S'web2py_version'
p1587
asbag61
(g82
g63
NtRp1588
(dp1589
g66
(dp1590
g93
g94
ssg75
g1579
sg68
(lp1591
S':'
asbag61
(g82
g63
NtRp1592
(dp1593
g66
(dp1594
sg75
g1579
sg68
(lp1595
g61
(g62
g63
NtRp1596
(dp1597
g66
(dp1598
g74
I4
ssg75
g1592
sg68
(lp1599
g61
(g70
g63
NtRp1600
(dp1601
g66
(dp1602
g74
I3
ssg75
Nsg68
(lp1603
g61
(g77
g63
NtRp1604
(dp1605
g66
(dp1606
sg75
g1600
sg68
(lp1607
g61
(g82
g63
NtRp1608
(dp1609
g66
(dp1610
sg75
g1604
sg68
(lp1611
g61
(g62
g63
NtRp1612
(dp1613
g66
(dp1614
g74
I3
ssg75
g1608
sg68
(lp1615
S'2'
asbasbasbag61
(g77
g63
NtRp1616
(dp1617
g66
(dp1618
sg75
g1600
sg68
(lp1619
g61
(g82
g63
NtRp1620
(dp1621
g66
(dp1622
sg75
g1616
sg68
(lp1623
g61
(g62
g63
NtRp1624
(dp1625
g66
(dp1626
g74
I3
ssg75
g1620
sg68
(lp1627
S'3'
asbasbasbag61
(g77
g63
NtRp1628
(dp1629
g66
(dp1630
sg75
g1600
sg68
(lp1631
g61
(g82
g63
NtRp1632
(dp1633
g66
(dp1634
sg75
g1628
sg68
(lp1635
g61
(g62
g63
NtRp1636
(dp1637
g66
(dp1638
g74
I3
ssg75
g1632
sg68
(lp1639
S'2'
asbasbasbag61
(g77
g63
NtRp1640
(dp1641
g66
(dp1642
sg75
g1600
sg68
(lp1643
g61
(g82
g63
NtRp1644
(dp1645
g66
(dp1646
sg75
g1640
sg68
(lp1647
g61
(g62
g63
NtRp1648
(dp1649
g66
(dp1650
g74
I3
ssg75
g1644
sg68
(lp1651
S'datetime.datetime(2012, 12, 17, 15, 3, 30)'
p1652
asbasbasbag61
(g77
g63
NtRp1653
(dp1654
g66
(dp1655
sg75
g1600
sg68
(lp1656
g61
(g82
g63
NtRp1657
(dp1658
g66
(dp1659
sg75
g1653
sg68
(lp1660
g61
(g62
g63
NtRp1661
(dp1662
g66
(dp1663
g74
I3
ssg75
g1657
sg68
(lp1664
S'stable'
p1665
asbasbasbasbasbasbasbag61
(g77
g63
NtRp1666
(dp1667
g66
(dp1668
sg75
g691
sg68
(lp1669
g61
(g82
g63
NtRp1670
(dp1671
g66
(dp1672
g86
g87
ssg75
g1666
sg68
(lp1673
S'wsgi_errors'
p1674
asbag61
(g82
g63
NtRp1675
(dp1676
g66
(dp1677
g93
g94
ssg75
g1666
sg68
(lp1678
S':'
asbag61
(g82
g63
NtRp1679
(dp1680
g66
(dp1681
sg75
g1666
sg68
(lp1682
g61
(g62
g63
NtRp1683
(dp1684
g66
(dp1685
g74
I4
ssg75
g1679
sg68
(lp1686
S"<open file '<stderr>', mode 'w' at 0x7fe2c5a40270>"
p1687
asbasbasbag61
(g77
g63
NtRp1688
(dp1689
g66
(dp1690
sg75
g691
sg68
(lp1691
g61
(g82
g63
NtRp1692
(dp1693
g66
(dp1694
g86
g87
ssg75
g1688
sg68
(lp1695
S'wsgi_file_wrapper'
p1696
asbag61
(g82
g63
NtRp1697
(dp1698
g66
(dp1699
g93
g94
ssg75
g1688
sg68
(lp1700
S':'
asbag61
(g82
g63
NtRp1701
(dp1702
g66
(dp1703
sg75
g1688
sg68
(lp1704
g61
(g62
g63
NtRp1705
(dp1706
g66
(dp1707
g74
I4
ssg75
g1701
sg68
(lp1708
S'<class wsgiref.util.FileWrapper at 0x199c598>'
p1709
asbasbasbag61
(g77
g63
NtRp1710
(dp1711
g66
(dp1712
sg75
g691
sg68
(lp1713
g61
(g82
g63
NtRp1714
(dp1715
g66
(dp1716
g86
g87
ssg75
g1710
sg68
(lp1717
S'wsgi_input'
p1718
asbag61
(g82
g63
NtRp1719
(dp1720
g66
(dp1721
g93
g94
ssg75
g1710
sg68
(lp1722
S':'
asbag61
(g82
g63
NtRp1723
(dp1724
g66
(dp1725
sg75
g1710
sg68
(lp1726
g61
(g62
g63
NtRp1727
(dp1728
g66
(dp1729
g74
I4
ssg75
g1723
sg68
(lp1730
S'<socket._fileobject object at 0x7fe2b81d10d0>'
p1731
asbasbasbag61
(g77
g63
NtRp1732
(dp1733
g66
(dp1734
sg75
g691
sg68
(lp1735
g61
(g82
g63
NtRp1736
(dp1737
g66
(dp1738
g86
g87
ssg75
g1732
sg68
(lp1739
S'wsgi_multiprocess'
p1740
asbag61
(g82
g63
NtRp1741
(dp1742
g66
(dp1743
g93
g94
ssg75
g1732
sg68
(lp1744
S':'
asbag61
(g82
g63
NtRp1745
(dp1746
g66
(dp1747
sg75
g1732
sg68
(lp1748
g61
(g62
g63
NtRp1749
(dp1750
g66
(dp1751
g74
I4
ssg75
g1745
sg68
(lp1752
g104
asbasbasbag61
(g77
g63
NtRp1753
(dp1754
g66
(dp1755
sg75
g691
sg68
(lp1756
g61
(g82
g63
NtRp1757
(dp1758
g66
(dp1759
g86
g87
ssg75
g1753
sg68
(lp1760
S'wsgi_multithread'
p1761
asbag61
(g82
g63
NtRp1762
(dp1763
g66
(dp1764
g93
g94
ssg75
g1753
sg68
(lp1765
S':'
asbag61
(g82
g63
NtRp1766
(dp1767
g66
(dp1768
sg75
g1753
sg68
(lp1769
g61
(g62
g63
NtRp1770
(dp1771
g66
(dp1772
g74
I4
ssg75
g1766
sg68
(lp1773
S'True'
p1774
asbasbasbag61
(g77
g63
NtRp1775
(dp1776
g66
(dp1777
sg75
g691
sg68
(lp1778
g61
(g82
g63
NtRp1779
(dp1780
g66
(dp1781
g86
g87
ssg75
g1775
sg68
(lp1782
S'wsgi_run_once'
p1783
asbag61
(g82
g63
NtRp1784
(dp1785
g66
(dp1786
g93
g94
ssg75
g1775
sg68
(lp1787
S':'
asbag61
(g82
g63
NtRp1788
(dp1789
g66
(dp1790
sg75
g1775
sg68
(lp1791
g61
(g62
g63
NtRp1792
(dp1793
g66
(dp1794
g74
I4
ssg75
g1788
sg68
(lp1795
g104
asbasbasbag61
(g77
g63
NtRp1796
(dp1797
g66
(dp1798
sg75
g691
sg68
(lp1799
g61
(g82
g63
NtRp1800
(dp1801
g66
(dp1802
g86
g87
ssg75
g1796
sg68
(lp1803
S'wsgi_url_scheme'
p1804
asbag61
(g82
g63
NtRp1805
(dp1806
g66
(dp1807
g93
g94
ssg75
g1796
sg68
(lp1808
S':'
asbag61
(g82
g63
NtRp1809
(dp1810
g66
(dp1811
sg75
g1796
sg68
(lp1812
g61
(g62
g63
NtRp1813
(dp1814
g66
(dp1815
g74
I4
ssg75
g1809
sg68
(lp1816
S'http'
p1817
asbasbasbag61
(g77
g63
NtRp1818
(dp1819
g66
(dp1820
sg75
g691
sg68
(lp1821
g61
(g82
g63
NtRp1822
(dp1823
g66
(dp1824
g86
g87
ssg75
g1818
sg68
(lp1825
S'wsgi_version'
p1826
asbag61
(g82
g63
NtRp1827
(dp1828
g66
(dp1829
g93
g94
ssg75
g1818
sg68
(lp1830
S':'
asbag61
(g82
g63
NtRp1831
(dp1832
g66
(dp1833
sg75
g1818
sg68
(lp1834
g61
(g62
g63
NtRp1835
(dp1836
g66
(dp1837
g74
I4
ssg75
g1831
sg68
(lp1838
g61
(g70
g63
NtRp1839
(dp1840
g66
(dp1841
g74
I3
ssg75
Nsg68
(lp1842
g61
(g77
g63
NtRp1843
(dp1844
g66
(dp1845
sg75
g1839
sg68
(lp1846
g61
(g82
g63
NtRp1847
(dp1848
g66
(dp1849
sg75
g1843
sg68
(lp1850
g61
(g62
g63
NtRp1851
(dp1852
g66
(dp1853
g74
I3
ssg75
g1847
sg68
(lp1854
S'1'
asbasbasbag61
(g77
g63
NtRp1855
(dp1856
g66
(dp1857
sg75
g1839
sg68
(lp1858
g61
(g82
g63
NtRp1859
(dp1860
g66
(dp1861
sg75
g1855
sg68
(lp1862
g61
(g62
g63
NtRp1863
(dp1864
g66
(dp1865
g74
I3
ssg75
g1859
sg68
(lp1866
S'0'
asbasbasbasbasbasbasbasbasbasbasbag61
(g77
g63
NtRp1867
(dp1868
g66
(dp1869
sg75
g71
sg68
(lp1870
g61
(g82
g63
NtRp1871
(dp1872
g66
(dp1873
g86
g87
ssg75
g1867
sg68
(lp1874
S'extension'
p1875
asbag61
(g82
g63
NtRp1876
(dp1877
g66
(dp1878
g93
g94
ssg75
g1867
sg68
(lp1879
S':'
asbag61
(g82
g63
NtRp1880
(dp1881
g66
(dp1882
sg75
g1867
sg68
(lp1883
g61
(g62
g63
NtRp1884
(dp1885
g66
(dp1886
g74
I5
ssg75
g1880
sg68
(lp1887
S'html'
p1888
asbasbasbag61
(g77
g63
NtRp1889
(dp1890
g66
(dp1891
sg75
g71
sg68
(lp1892
g61
(g82
g63
NtRp1893
(dp1894
g66
(dp1895
g86
g87
ssg75
g1889
sg68
(lp1896
S'folder'
p1897
asbag61
(g82
g63
NtRp1898
(dp1899
g66
(dp1900
g93
g94
ssg75
g1889
sg68
(lp1901
S':'
asbag61
(g82
g63
NtRp1902
(dp1903
g66
(dp1904
sg75
g1889
sg68
(lp1905
g61
(g62
g63
NtRp1906
(dp1907
g66
(dp1908
g74
I5
ssg75
g1902
sg68
(lp1909
S'/var/www/conferencia/applications/projeto/'
p1910
asbasbasbag61
(g77
g63
NtRp1911
(dp1912
g66
(dp1913
sg75
g71
sg68
(lp1914
g61
(g82
g63
NtRp1915
(dp1916
g66
(dp1917
g86
g87
ssg75
g1911
sg68
(lp1918
S'function'
p1919
asbag61
(g82
g63
NtRp1920
(dp1921
g66
(dp1922
g93
g94
ssg75
g1911
sg68
(lp1923
S':'
asbag61
(g82
g63
NtRp1924
(dp1925
g66
(dp1926
sg75
g1911
sg68
(lp1927
g61
(g62
g63
NtRp1928
(dp1929
g66
(dp1930
g74
I5
ssg75
g1924
sg68
(lp1931
S'show_cliente'
p1932
asbasbasbag61
(g77
g63
NtRp1933
(dp1934
g66
(dp1935
sg75
g71
sg68
(lp1936
g61
(g82
g63
NtRp1937
(dp1938
g66
(dp1939
g86
g87
ssg75
g1933
sg68
(lp1940
S'get_vars'
p1941
asbag61
(g82
g63
NtRp1942
(dp1943
g66
(dp1944
g93
g94
ssg75
g1933
sg68
(lp1945
S':'
asbag61
(g82
g63
NtRp1946
(dp1947
g66
(dp1948
sg75
g1933
sg68
(lp1949
g61
(g62
g63
NtRp1950
(dp1951
g66
(dp1952
g74
I5
ssg75
g1946
sg68
(lp1953
g61
(g70
g63
NtRp1954
(dp1955
g66
(dp1956
g74
I4
ssg75
Nsg68
(lp1957
sbasbasbasbag61
(g77
g63
NtRp1958
(dp1959
g66
(dp1960
sg75
g71
sg68
(lp1961
g61
(g82
g63
NtRp1962
(dp1963
g66
(dp1964
g86
g87
ssg75
g1958
sg68
(lp1965
S'global_settings'
p1966
asbag61
(g82
g63
NtRp1967
(dp1968
g66
(dp1969
g93
g94
ssg75
g1958
sg68
(lp1970
S':'
asbag61
(g82
g63
NtRp1971
(dp1972
g66
(dp1973
sg75
g1958
sg68
(lp1974
g61
(g62
g63
NtRp1975
(dp1976
g66
(dp1977
g74
I5
ssg75
g1971
sg68
(lp1978
g61
(g70
g63
NtRp1979
(dp1980
g66
(dp1981
g74
I4
ssg75
Nsg68
(lp1982
g61
(g77
g63
NtRp1983
(dp1984
g66
(dp1985
sg75
g1979
sg68
(lp1986
g61
(g82
g63
NtRp1987
(dp1988
g66
(dp1989
g86
g87
ssg75
g1983
sg68
(lp1990
g703
asbag61
(g82
g63
NtRp1991
(dp1992
g66
(dp1993
g93
g94
ssg75
g1983
sg68
(lp1994
S':'
asbag61
(g82
g63
NtRp1995
(dp1996
g66
(dp1997
sg75
g1983
sg68
(lp1998
g61
(g62
g63
NtRp1999
(dp2000
g66
(dp2001
g74
I4
ssg75
g1995
sg68
(lp2002
S"set(['/var/www/conferencia/applications/projeto/'])"
p2003
asbasbasbag61
(g77
g63
NtRp2004
(dp2005
g66
(dp2006
sg75
g1979
sg68
(lp2007
g61
(g82
g63
NtRp2008
(dp2009
g66
(dp2010
g86
g87
ssg75
g2004
sg68
(lp2011
g725
asbag61
(g82
g63
NtRp2012
(dp2013
g66
(dp2014
g93
g94
ssg75
g2004
sg68
(lp2015
S':'
asbag61
(g82
g63
NtRp2016
(dp2017
g66
(dp2018
sg75
g2004
sg68
(lp2019
g61
(g62
g63
NtRp2020
(dp2021
g66
(dp2022
g74
I4
ssg75
g2016
sg68
(lp2023
g738
asbasbasbag61
(g77
g63
NtRp2024
(dp2025
g66
(dp2026
sg75
g1979
sg68
(lp2027
g61
(g82
g63
NtRp2028
(dp2029
g66
(dp2030
g86
g87
ssg75
g2024
sg68
(lp2031
g747
asbag61
(g82
g63
NtRp2032
(dp2033
g66
(dp2034
g93
g94
ssg75
g2024
sg68
(lp2035
S':'
asbag61
(g82
g63
NtRp2036
(dp2037
g66
(dp2038
sg75
g2024
sg68
(lp2039
g61
(g62
g63
NtRp2040
(dp2041
g66
(dp2042
g74
I4
ssg75
g2036
sg68
(lp2043
g61
(g70
g63
NtRp2044
(dp2045
g66
(dp2046
g74
I3
ssg75
Nsg68
(lp2047
sbasbasbasbag61
(g77
g63
NtRp2048
(dp2049
g66
(dp2050
sg75
g1979
sg68
(lp2051
g61
(g82
g63
NtRp2052
(dp2053
g66
(dp2054
g86
g87
ssg75
g2048
sg68
(lp2055
g772
asbag61
(g82
g63
NtRp2056
(dp2057
g66
(dp2058
g93
g94
ssg75
g2048
sg68
(lp2059
S':'
asbag61
(g82
g63
NtRp2060
(dp2061
g66
(dp2062
sg75
g2048
sg68
(lp2063
g61
(g62
g63
NtRp2064
(dp2065
g66
(dp2066
g74
I4
ssg75
g2060
sg68
(lp2067
S"<Values at 0x1a25248: {'verbose': False, 'ip': '127.0.0.1', 'with_scheduler': False, 'ips': [], 'shutdown_timeout': 5, 'taskbar': False, 'port': 8000, 'maxthreads': None, 'softcron': False, 'server_name': 'fernando-workstation', 'bpython': False, 'nogui': False, 'pid_filename': 'httpserver.pid', 'extcron': False, 'runcron': False, 'run_system_tests': False, 'test': None, 'folder': '/var/www/conferencia', 'config': '', 'minthreads': None, 'winservice': '', 'shell': None, 'run': '', 'log_filename': 'httpserver.log', 'debuglevel': 30, 'args': [''], 'socket_timeout': 5, 'ssl_ca_certificate': None, 'scheduler': None, 'profiler_filename': None, 'ssl_private_key': '', 'scheduler_groups': None, 'password': '123456', 'request_queue_size': 5, 'ssl_certificate': '', 'cronjob': False, 'numthreads': None, 'quiet': False, 'interfaces': None, 'import_models': False, 'timeout': 10, 'plain': False, 'nobanner': False}>"
p2068
asbasbasbag61
(g77
g63
NtRp2069
(dp2070
g66
(dp2071
sg75
g1979
sg68
(lp2072
g61
(g82
g63
NtRp2073
(dp2074
g66
(dp2075
g86
g87
ssg75
g2069
sg68
(lp2076
g838
asbag61
(g82
g63
NtRp2077
(dp2078
g66
(dp2079
g93
g94
ssg75
g2069
sg68
(lp2080
S':'
asbag61
(g82
g63
NtRp2081
(dp2082
g66
(dp2083
sg75
g2069
sg68
(lp2084
g61
(g62
g63
NtRp2085
(dp2086
g66
(dp2087
g74
I4
ssg75
g2081
sg68
(lp2088
S'set([])'
p2089
asbasbasbag61
(g77
g63
NtRp2090
(dp2091
g66
(dp2092
sg75
g1979
sg68
(lp2093
g61
(g82
g63
NtRp2094
(dp2095
g66
(dp2096
g86
g87
ssg75
g2090
sg68
(lp2097
g860
asbag61
(g82
g63
NtRp2098
(dp2099
g66
(dp2100
g93
g94
ssg75
g2090
sg68
(lp2101
S':'
asbag61
(g82
g63
NtRp2102
(dp2103
g66
(dp2104
sg75
g2090
sg68
(lp2105
g61
(g62
g63
NtRp2106
(dp2107
g66
(dp2108
g74
I4
ssg75
g2102
sg68
(lp2109
g104
asbasbasbag61
(g77
g63
NtRp2110
(dp2111
g66
(dp2112
sg75
g1979
sg68
(lp2113
g61
(g82
g63
NtRp2114
(dp2115
g66
(dp2116
g86
g87
ssg75
g2110
sg68
(lp2117
g881
asbag61
(g82
g63
NtRp2118
(dp2119
g66
(dp2120
g93
g94
ssg75
g2110
sg68
(lp2121
S':'
asbag61
(g82
g63
NtRp2122
(dp2123
g66
(dp2124
sg75
g2110
sg68
(lp2125
g61
(g62
g63
NtRp2126
(dp2127
g66
(dp2128
g74
I4
ssg75
g2122
sg68
(lp2129
g894
asbasbasbag61
(g77
g63
NtRp2130
(dp2131
g66
(dp2132
sg75
g1979
sg68
(lp2133
g61
(g82
g63
NtRp2134
(dp2135
g66
(dp2136
g86
g87
ssg75
g2130
sg68
(lp2137
g1187
asbag61
(g82
g63
NtRp2138
(dp2139
g66
(dp2140
g93
g94
ssg75
g2130
sg68
(lp2141
S':'
asbag61
(g82
g63
NtRp2142
(dp2143
g66
(dp2144
sg75
g2130
sg68
(lp2145
g61
(g62
g63
NtRp2146
(dp2147
g66
(dp2148
g74
I4
ssg75
g2142
sg68
(lp2149
g104
asbasbasbag61
(g77
g63
NtRp2150
(dp2151
g66
(dp2152
sg75
g1979
sg68
(lp2153
g61
(g82
g63
NtRp2154
(dp2155
g66
(dp2156
g86
g87
ssg75
g2150
sg68
(lp2157
g1208
asbag61
(g82
g63
NtRp2158
(dp2159
g66
(dp2160
g93
g94
ssg75
g2150
sg68
(lp2161
S':'
asbag61
(g82
g63
NtRp2162
(dp2163
g66
(dp2164
sg75
g2150
sg68
(lp2165
g61
(g62
g63
NtRp2166
(dp2167
g66
(dp2168
g74
I4
ssg75
g2162
sg68
(lp2169
g104
asbasbasbag61
(g77
g63
NtRp2170
(dp2171
g66
(dp2172
sg75
g1979
sg68
(lp2173
g61
(g82
g63
NtRp2174
(dp2175
g66
(dp2176
g86
g87
ssg75
g2170
sg68
(lp2177
g1229
asbag61
(g82
g63
NtRp2178
(dp2179
g66
(dp2180
g93
g94
ssg75
g2170
sg68
(lp2181
S':'
asbag61
(g82
g63
NtRp2182
(dp2183
g66
(dp2184
sg75
g2170
sg68
(lp2185
g61
(g62
g63
NtRp2186
(dp2187
g66
(dp2188
g74
I4
ssg75
g2182
sg68
(lp2189
g61
(g70
g63
NtRp2190
(dp2191
g66
(dp2192
g74
I3
ssg75
Nsg68
(lp2193
g61
(g77
g63
NtRp2194
(dp2195
g66
(dp2196
sg75
g2190
sg68
(lp2197
g61
(g82
g63
NtRp2198
(dp2199
g66
(dp2200
sg75
g2194
sg68
(lp2201
g61
(g62
g63
NtRp2202
(dp2203
g66
(dp2204
g74
I3
ssg75
g2198
sg68
(lp2205
g1258
asbasbasbag61
(g77
g63
NtRp2206
(dp2207
g66
(dp2208
sg75
g2190
sg68
(lp2209
g61
(g82
g63
NtRp2210
(dp2211
g66
(dp2212
sg75
g2206
sg68
(lp2213
g61
(g62
g63
NtRp2214
(dp2215
g66
(dp2216
g74
I3
ssg75
g2210
sg68
(lp2217
g1271
asbasbasbag61
(g77
g63
NtRp2218
(dp2219
g66
(dp2220
sg75
g2190
sg68
(lp2221
g61
(g82
g63
NtRp2222
(dp2223
g66
(dp2224
sg75
g2218
sg68
(lp2225
g61
(g62
g63
NtRp2226
(dp2227
g66
(dp2228
g74
I3
ssg75
g2222
sg68
(lp2229
g1284
asbasbasbag61
(g77
g63
NtRp2230
(dp2231
g66
(dp2232
sg75
g2190
sg68
(lp2233
g61
(g82
g63
NtRp2234
(dp2235
g66
(dp2236
sg75
g2230
sg68
(lp2237
g61
(g62
g63
NtRp2238
(dp2239
g66
(dp2240
g74
I3
ssg75
g2234
sg68
(lp2241
g1297
asbasbasbasbasbasbasbag61
(g77
g63
NtRp2242
(dp2243
g66
(dp2244
sg75
g1979
sg68
(lp2245
g61
(g82
g63
NtRp2246
(dp2247
g66
(dp2248
g86
g87
ssg75
g2242
sg68
(lp2249
g1587
asbag61
(g82
g63
NtRp2250
(dp2251
g66
(dp2252
g93
g94
ssg75
g2242
sg68
(lp2253
S':'
asbag61
(g82
g63
NtRp2254
(dp2255
g66
(dp2256
sg75
g2242
sg68
(lp2257
g61
(g62
g63
NtRp2258
(dp2259
g66
(dp2260
g74
I4
ssg75
g2254
sg68
(lp2261
g61
(g70
g63
NtRp2262
(dp2263
g66
(dp2264
g74
I3
ssg75
Nsg68
(lp2265
g61
(g77
g63
NtRp2266
(dp2267
g66
(dp2268
sg75
g2262
sg68
(lp2269
g61
(g82
g63
NtRp2270
(dp2271
g66
(dp2272
sg75
g2266
sg68
(lp2273
g61
(g62
g63
NtRp2274
(dp2275
g66
(dp2276
g74
I3
ssg75
g2270
sg68
(lp2277
S'2'
asbasbasbag61
(g77
g63
NtRp2278
(dp2279
g66
(dp2280
sg75
g2262
sg68
(lp2281
g61
(g82
g63
NtRp2282
(dp2283
g66
(dp2284
sg75
g2278
sg68
(lp2285
g61
(g62
g63
NtRp2286
(dp2287
g66
(dp2288
g74
I3
ssg75
g2282
sg68
(lp2289
S'3'
asbasbasbag61
(g77
g63
NtRp2290
(dp2291
g66
(dp2292
sg75
g2262
sg68
(lp2293
g61
(g82
g63
NtRp2294
(dp2295
g66
(dp2296
sg75
g2290
sg68
(lp2297
g61
(g62
g63
NtRp2298
(dp2299
g66
(dp2300
g74
I3
ssg75
g2294
sg68
(lp2301
S'2'
asbasbasbag61
(g77
g63
NtRp2302
(dp2303
g66
(dp2304
sg75
g2262
sg68
(lp2305
g61
(g82
g63
NtRp2306
(dp2307
g66
(dp2308
sg75
g2302
sg68
(lp2309
g61
(g62
g63
NtRp2310
(dp2311
g66
(dp2312
g74
I3
ssg75
g2306
sg68
(lp2313
S'datetime.datetime(2012, 12, 17, 15, 3, 30)'
p2314
asbasbasbag61
(g77
g63
NtRp2315
(dp2316
g66
(dp2317
sg75
g2262
sg68
(lp2318
g61
(g82
g63
NtRp2319
(dp2320
g66
(dp2321
sg75
g2315
sg68
(lp2322
g61
(g62
g63
NtRp2323
(dp2324
g66
(dp2325
g74
I3
ssg75
g2319
sg68
(lp2326
g1665
asbasbasbasbasbasbasbasbasbasbasbag61
(g77
g63
NtRp2327
(dp2328
g66
(dp2329
sg75
g71
sg68
(lp2330
g61
(g82
g63
NtRp2331
(dp2332
g66
(dp2333
g86
g87
ssg75
g2327
sg68
(lp2334
S'is_https'
p2335
asbag61
(g82
g63
NtRp2336
(dp2337
g66
(dp2338
g93
g94
ssg75
g2327
sg68
(lp2339
S':'
asbag61
(g82
g63
NtRp2340
(dp2341
g66
(dp2342
sg75
g2327
sg68
(lp2343
g61
(g62
g63
NtRp2344
(dp2345
g66
(dp2346
g74
I5
ssg75
g2340
sg68
(lp2347
g104
asbasbasbag61
(g77
g63
NtRp2348
(dp2349
g66
(dp2350
sg75
g71
sg68
(lp2351
g61
(g82
g63
NtRp2352
(dp2353
g66
(dp2354
g86
g87
ssg75
g2348
sg68
(lp2355
S'is_local'
p2356
asbag61
(g82
g63
NtRp2357
(dp2358
g66
(dp2359
g93
g94
ssg75
g2348
sg68
(lp2360
S':'
asbag61
(g82
g63
NtRp2361
(dp2362
g66
(dp2363
sg75
g2348
sg68
(lp2364
g61
(g62
g63
NtRp2365
(dp2366
g66
(dp2367
g74
I5
ssg75
g2361
sg68
(lp2368
g1774
asbasbasbag61
(g77
g63
NtRp2369
(dp2370
g66
(dp2371
sg75
g71
sg68
(lp2372
g61
(g82
g63
NtRp2373
(dp2374
g66
(dp2375
g86
g87
ssg75
g2369
sg68
(lp2376
S'is_restful'
p2377
asbag61
(g82
g63
NtRp2378
(dp2379
g66
(dp2380
g93
g94
ssg75
g2369
sg68
(lp2381
S':'
asbag61
(g82
g63
NtRp2382
(dp2383
g66
(dp2384
sg75
g2369
sg68
(lp2385
g61
(g62
g63
NtRp2386
(dp2387
g66
(dp2388
g74
I5
ssg75
g2382
sg68
(lp2389
g104
asbasbasbag61
(g77
g63
NtRp2390
(dp2391
g66
(dp2392
sg75
g71
sg68
(lp2393
g61
(g82
g63
NtRp2394
(dp2395
g66
(dp2396
g86
g87
ssg75
g2390
sg68
(lp2397
S'now'
p2398
asbag61
(g82
g63
NtRp2399
(dp2400
g66
(dp2401
g93
g94
ssg75
g2390
sg68
(lp2402
S':'
asbag61
(g82
g63
NtRp2403
(dp2404
g66
(dp2405
sg75
g2390
sg68
(lp2406
g61
(g62
g63
NtRp2407
(dp2408
g66
(dp2409
g74
I5
ssg75
g2403
sg68
(lp2410
S'datetime.datetime(2013, 4, 3, 15, 30, 48, 63340)'
p2411
asbasbasbag61
(g77
g63
NtRp2412
(dp2413
g66
(dp2414
sg75
g71
sg68
(lp2415
g61
(g82
g63
NtRp2416
(dp2417
g66
(dp2418
g86
g87
ssg75
g2412
sg68
(lp2419
S'post_vars'
p2420
asbag61
(g82
g63
NtRp2421
(dp2422
g66
(dp2423
g93
g94
ssg75
g2412
sg68
(lp2424
S':'
asbag61
(g82
g63
NtRp2425
(dp2426
g66
(dp2427
sg75
g2412
sg68
(lp2428
g61
(g62
g63
NtRp2429
(dp2430
g66
(dp2431
g74
I5
ssg75
g2425
sg68
(lp2432
g61
(g70
g63
NtRp2433
(dp2434
g66
(dp2435
g74
I4
ssg75
Nsg68
(lp2436
g61
(g77
g63
NtRp2437
(dp2438
g66
(dp2439
sg75
g2433
sg68
(lp2440
g61
(g82
g63
NtRp2441
(dp2442
g66
(dp2443
g86
g87
ssg75
g2437
sg68
(lp2444
S'admin_user'
p2445
asbag61
(g82
g63
NtRp2446
(dp2447
g66
(dp2448
g93
g94
ssg75
g2437
sg68
(lp2449
S':'
asbag61
(g82
g63
NtRp2450
(dp2451
g66
(dp2452
sg75
g2437
sg68
(lp2453
g61
(g62
g63
NtRp2454
(dp2455
g66
(dp2456
g74
I4
ssg75
g2450
sg68
(lp2457
S'1'
asbasbasbag61
(g77
g63
NtRp2458
(dp2459
g66
(dp2460
sg75
g2433
sg68
(lp2461
g61
(g82
g63
NtRp2462
(dp2463
g66
(dp2464
g86
g87
ssg75
g2458
sg68
(lp2465
S'endtime'
p2466
asbag61
(g82
g63
NtRp2467
(dp2468
g66
(dp2469
g93
g94
ssg75
g2458
sg68
(lp2470
S':'
asbag61
(g82
g63
NtRp2471
(dp2472
g66
(dp2473
sg75
g2458
sg68
(lp2474
g61
(g62
g63
NtRp2475
(dp2476
g66
(dp2477
g74
I4
ssg75
g2471
sg68
(lp2478
S'2013-04-03 15:40:26'
p2479
asbasbasbag61
(g77
g63
NtRp2480
(dp2481
g66
(dp2482
sg75
g2433
sg68
(lp2483
g61
(g82
g63
NtRp2484
(dp2485
g66
(dp2486
g86
g87
ssg75
g2480
sg68
(lp2487
S'gravacao'
p2488
asbag61
(g82
g63
NtRp2489
(dp2490
g66
(dp2491
g93
g94
ssg75
g2480
sg68
(lp2492
S':'
asbag61
(g82
g63
NtRp2493
(dp2494
g66
(dp2495
sg75
g2480
sg68
(lp2496
g61
(g62
g63
NtRp2497
(dp2498
g66
(dp2499
g74
I4
ssg75
g2493
sg68
(lp2500
S'on'
p2501
asbasbasbag61
(g77
g63
NtRp2502
(dp2503
g66
(dp2504
sg75
g2433
sg68
(lp2505
g61
(g82
g63
NtRp2506
(dp2507
g66
(dp2508
g86
g87
ssg75
g2502
sg68
(lp2509
S'membros_user'
p2510
asbag61
(g82
g63
NtRp2511
(dp2512
g66
(dp2513
g93
g94
ssg75
g2502
sg68
(lp2514
S':'
asbag61
(g82
g63
NtRp2515
(dp2516
g66
(dp2517
sg75
g2502
sg68
(lp2518
g61
(g62
g63
NtRp2519
(dp2520
g66
(dp2521
g74
I4
ssg75
g2515
sg68
(lp2522
g61
(g70
g63
NtRp2523
(dp2524
g66
(dp2525
g74
I3
ssg75
Nsg68
(lp2526
g61
(g77
g63
NtRp2527
(dp2528
g66
(dp2529
sg75
g2523
sg68
(lp2530
g61
(g82
g63
NtRp2531
(dp2532
g66
(dp2533
sg75
g2527
sg68
(lp2534
g61
(g62
g63
NtRp2535
(dp2536
g66
(dp2537
g74
I3
ssg75
g2531
sg68
(lp2538
S'1'
asbasbasbag61
(g77
g63
NtRp2539
(dp2540
g66
(dp2541
sg75
g2523
sg68
(lp2542
g61
(g82
g63
NtRp2543
(dp2544
g66
(dp2545
sg75
g2539
sg68
(lp2546
g61
(g62
g63
NtRp2547
(dp2548
g66
(dp2549
g74
I3
ssg75
g2543
sg68
(lp2550
S'2'
asbasbasbasbasbasbasbag61
(g77
g63
NtRp2551
(dp2552
g66
(dp2553
sg75
g2433
sg68
(lp2554
g61
(g82
g63
NtRp2555
(dp2556
g66
(dp2557
g86
g87
ssg75
g2551
sg68
(lp2558
S'starttime'
p2559
asbag61
(g82
g63
NtRp2560
(dp2561
g66
(dp2562
g93
g94
ssg75
g2551
sg68
(lp2563
S':'
asbag61
(g82
g63
NtRp2564
(dp2565
g66
(dp2566
sg75
g2551
sg68
(lp2567
g61
(g62
g63
NtRp2568
(dp2569
g66
(dp2570
g74
I4
ssg75
g2564
sg68
(lp2571
S'2013-04-03 15:30:25'
p2572
asbasbasbasbasbasbasbag61
(g77
g63
NtRp2573
(dp2574
g66
(dp2575
sg75
g71
sg68
(lp2576
g61
(g82
g63
NtRp2577
(dp2578
g66
(dp2579
g86
g87
ssg75
g2573
sg68
(lp2580
S'url'
p2581
asbag61
(g82
g63
NtRp2582
(dp2583
g66
(dp2584
g93
g94
ssg75
g2573
sg68
(lp2585
S':'
asbag61
(g82
g63
NtRp2586
(dp2587
g66
(dp2588
sg75
g2573
sg68
(lp2589
g61
(g62
g63
NtRp2590
(dp2591
g66
(dp2592
g74
I5
ssg75
g2586
sg68
(lp2593
g1319
asbasbasbag61
(g77
g63
NtRp2594
(dp2595
g66
(dp2596
sg75
g71
sg68
(lp2597
g61
(g82
g63
NtRp2598
(dp2599
g66
(dp2600
g86
g87
ssg75
g2594
sg68
(lp2601
S'utcnow'
p2602
asbag61
(g82
g63
NtRp2603
(dp2604
g66
(dp2605
g93
g94
ssg75
g2594
sg68
(lp2606
S':'
asbag61
(g82
g63
NtRp2607
(dp2608
g66
(dp2609
sg75
g2594
sg68
(lp2610
g61
(g62
g63
NtRp2611
(dp2612
g66
(dp2613
g74
I5
ssg75
g2607
sg68
(lp2614
S'datetime.datetime(2013, 4, 3, 18, 30, 48, 63393)'
p2615
asbasbasbag61
(g77
g63
NtRp2616
(dp2617
g66
(dp2618
sg75
g71
sg68
(lp2619
g61
(g82
g63
NtRp2620
(dp2621
g66
(dp2622
g86
g87
ssg75
g2616
sg68
(lp2623
S'uuid'
p2624
asbag61
(g82
g63
NtRp2625
(dp2626
g66
(dp2627
g93
g94
ssg75
g2616
sg68
(lp2628
S':'
asbag61
(g82
g63
NtRp2629
(dp2630
g66
(dp2631
sg75
g2616
sg68
(lp2632
g61
(g62
g63
NtRp2633
(dp2634
g66
(dp2635
g74
I5
ssg75
g2629
sg68
(lp2636
S'projeto/127.0.0.1.2013-04-03.15-30-48.7ee52725-8fa9-4dfb-ae8f-13c8ebc4e66a'
p2637
asbasbasbag61
(g77
g63
NtRp2638
(dp2639
g66
(dp2640
sg75
g71
sg68
(lp2641
g61
(g82
g63
NtRp2642
(dp2643
g66
(dp2644
g86
g87
ssg75
g2638
sg68
(lp2645
S'vars'
p2646
asbag61
(g82
g63
NtRp2647
(dp2648
g66
(dp2649
g93
g94
ssg75
g2638
sg68
(lp2650
S':'
asbag61
(g82
g63
NtRp2651
(dp2652
g66
(dp2653
sg75
g2638
sg68
(lp2654
g61
(g62
g63
NtRp2655
(dp2656
g66
(dp2657
g74
I5
ssg75
g2651
sg68
(lp2658
g61
(g70
g63
NtRp2659
(dp2660
g66
(dp2661
g74
I4
ssg75
Nsg68
(lp2662
g61
(g77
g63
NtRp2663
(dp2664
g66
(dp2665
sg75
g2659
sg68
(lp2666
g61
(g82
g63
NtRp2667
(dp2668
g66
(dp2669
g86
g87
ssg75
g2663
sg68
(lp2670
g2445
asbag61
(g82
g63
NtRp2671
(dp2672
g66
(dp2673
g93
g94
ssg75
g2663
sg68
(lp2674
S':'
asbag61
(g82
g63
NtRp2675
(dp2676
g66
(dp2677
sg75
g2663
sg68
(lp2678
g61
(g62
g63
NtRp2679
(dp2680
g66
(dp2681
g74
I4
ssg75
g2675
sg68
(lp2682
S'1'
asbasbasbag61
(g77
g63
NtRp2683
(dp2684
g66
(dp2685
sg75
g2659
sg68
(lp2686
g61
(g82
g63
NtRp2687
(dp2688
g66
(dp2689
g86
g87
ssg75
g2683
sg68
(lp2690
g2466
asbag61
(g82
g63
NtRp2691
(dp2692
g66
(dp2693
g93
g94
ssg75
g2683
sg68
(lp2694
S':'
asbag61
(g82
g63
NtRp2695
(dp2696
g66
(dp2697
sg75
g2683
sg68
(lp2698
g61
(g62
g63
NtRp2699
(dp2700
g66
(dp2701
g74
I4
ssg75
g2695
sg68
(lp2702
g2479
asbasbasbag61
(g77
g63
NtRp2703
(dp2704
g66
(dp2705
sg75
g2659
sg68
(lp2706
g61
(g82
g63
NtRp2707
(dp2708
g66
(dp2709
g86
g87
ssg75
g2703
sg68
(lp2710
g2488
asbag61
(g82
g63
NtRp2711
(dp2712
g66
(dp2713
g93
g94
ssg75
g2703
sg68
(lp2714
S':'
asbag61
(g82
g63
NtRp2715
(dp2716
g66
(dp2717
sg75
g2703
sg68
(lp2718
g61
(g62
g63
NtRp2719
(dp2720
g66
(dp2721
g74
I4
ssg75
g2715
sg68
(lp2722
g2501
asbasbasbag61
(g77
g63
NtRp2723
(dp2724
g66
(dp2725
sg75
g2659
sg68
(lp2726
g61
(g82
g63
NtRp2727
(dp2728
g66
(dp2729
g86
g87
ssg75
g2723
sg68
(lp2730
g2510
asbag61
(g82
g63
NtRp2731
(dp2732
g66
(dp2733
g93
g94
ssg75
g2723
sg68
(lp2734
S':'
asbag61
(g82
g63
NtRp2735
(dp2736
g66
(dp2737
sg75
g2723
sg68
(lp2738
g61
(g62
g63
NtRp2739
(dp2740
g66
(dp2741
g74
I4
ssg75
g2735
sg68
(lp2742
g61
(g70
g63
NtRp2743
(dp2744
g66
(dp2745
g74
I3
ssg75
Nsg68
(lp2746
g61
(g77
g63
NtRp2747
(dp2748
g66
(dp2749
sg75
g2743
sg68
(lp2750
g61
(g82
g63
NtRp2751
(dp2752
g66
(dp2753
sg75
g2747
sg68
(lp2754
g61
(g62
g63
NtRp2755
(dp2756
g66
(dp2757
g74
I3
ssg75
g2751
sg68
(lp2758
S'1'
asbasbasbag61
(g77
g63
NtRp2759
(dp2760
g66
(dp2761
sg75
g2743
sg68
(lp2762
g61
(g82
g63
NtRp2763
(dp2764
g66
(dp2765
sg75
g2759
sg68
(lp2766
g61
(g62
g63
NtRp2767
(dp2768
g66
(dp2769
g74
I3
ssg75
g2763
sg68
(lp2770
S'2'
asbasbasbasbasbasbasbag61
(g77
g63
NtRp2771
(dp2772
g66
(dp2773
sg75
g2659
sg68
(lp2774
g61
(g82
g63
NtRp2775
(dp2776
g66
(dp2777
g86
g87
ssg75
g2771
sg68
(lp2778
g2559
asbag61
(g82
g63
NtRp2779
(dp2780
g66
(dp2781
g93
g94
ssg75
g2771
sg68
(lp2782
S':'
asbag61
(g82
g63
NtRp2783
(dp2784
g66
(dp2785
sg75
g2771
sg68
(lp2786
g61
(g62
g63
NtRp2787
(dp2788
g66
(dp2789
g74
I4
ssg75
g2783
sg68
(lp2790
g2572
asbasbasbasbasbasbasbag61
(g77
g63
NtRp2791
(dp2792
g66
(dp2793
sg75
g71
sg68
(lp2794
g61
(g82
g63
NtRp2795
(dp2796
g66
(dp2797
g86
g87
ssg75
g2791
sg68
(lp2798
S'wsgi'
p2799
asbag61
(g82
g63
NtRp2800
(dp2801
g66
(dp2802
g93
g94
ssg75
g2791
sg68
(lp2803
S':'
asbag61
(g82
g63
NtRp2804
(dp2805
g66
(dp2806
sg75
g2791
sg68
(lp2807
g61
(g62
g63
NtRp2808
(dp2809
g66
(dp2810
g74
I5
ssg75
g2804
sg68
(lp2811
g61
(g70
g63
NtRp2812
(dp2813
g66
(dp2814
g74
I4
ssg75
Nsg68
(lp2815
g61
(g77
g63
NtRp2816
(dp2817
g66
(dp2818
sg75
g2812
sg68
(lp2819
g61
(g82
g63
NtRp2820
(dp2821
g66
(dp2822
g86
g87
ssg75
g2816
sg68
(lp2823
S'environ'
p2824
asbag61
(g82
g63
NtRp2825
(dp2826
g66
(dp2827
g93
g94
ssg75
g2816
sg68
(lp2828
S':'
asbag61
(g82
g63
NtRp2829
(dp2830
g66
(dp2831
sg75
g2816
sg68
(lp2832
g61
(g62
g63
NtRp2833
(dp2834
g66
(dp2835
g74
I4
ssg75
g2829
sg68
(lp2836
g61
(g70
g63
NtRp2837
(dp2838
g66
(dp2839
g74
I3
ssg75
Nsg68
(lp2840
g61
(g77
g63
NtRp2841
(dp2842
g66
(dp2843
sg75
g2837
sg68
(lp2844
g61
(g82
g63
NtRp2845
(dp2846
g66
(dp2847
g86
g87
ssg75
g2841
sg68
(lp2848
S'CONTENT_LENGTH'
p2849
asbag61
(g82
g63
NtRp2850
(dp2851
g66
(dp2852
g93
g94
ssg75
g2841
sg68
(lp2853
S':'
asbag61
(g82
g63
NtRp2854
(dp2855
g66
(dp2856
sg75
g2841
sg68
(lp2857
g61
(g62
g63
NtRp2858
(dp2859
g66
(dp2860
g74
I3
ssg75
g2854
sg68
(lp2861
g807
asbasbasbag61
(g77
g63
NtRp2862
(dp2863
g66
(dp2864
sg75
g2837
sg68
(lp2865
g61
(g82
g63
NtRp2866
(dp2867
g66
(dp2868
g86
g87
ssg75
g2862
sg68
(lp2869
S'CONTENT_TYPE'
p2870
asbag61
(g82
g63
NtRp2871
(dp2872
g66
(dp2873
g93
g94
ssg75
g2862
sg68
(lp2874
S':'
asbag61
(g82
g63
NtRp2875
(dp2876
g66
(dp2877
sg75
g2862
sg68
(lp2878
g61
(g62
g63
NtRp2879
(dp2880
g66
(dp2881
g74
I3
ssg75
g2875
sg68
(lp2882
g829
asbasbasbag61
(g77
g63
NtRp2883
(dp2884
g66
(dp2885
sg75
g2837
sg68
(lp2886
g61
(g82
g63
NtRp2887
(dp2888
g66
(dp2889
g86
g87
ssg75
g2883
sg68
(lp2890
S'HTTP_ACCEPT'
p2891
asbag61
(g82
g63
NtRp2892
(dp2893
g66
(dp2894
g93
g94
ssg75
g2883
sg68
(lp2895
S':'
asbag61
(g82
g63
NtRp2896
(dp2897
g66
(dp2898
sg75
g2883
sg68
(lp2899
g61
(g62
g63
NtRp2900
(dp2901
g66
(dp2902
g74
I3
ssg75
g2896
sg68
(lp2903
g916
asbasbasbag61
(g77
g63
NtRp2904
(dp2905
g66
(dp2906
sg75
g2837
sg68
(lp2907
g61
(g82
g63
NtRp2908
(dp2909
g66
(dp2910
g86
g87
ssg75
g2904
sg68
(lp2911
S'HTTP_ACCEPT_CHARSET'
p2912
asbag61
(g82
g63
NtRp2913
(dp2914
g66
(dp2915
g93
g94
ssg75
g2904
sg68
(lp2916
S':'
asbag61
(g82
g63
NtRp2917
(dp2918
g66
(dp2919
sg75
g2904
sg68
(lp2920
g61
(g62
g63
NtRp2921
(dp2922
g66
(dp2923
g74
I3
ssg75
g2917
sg68
(lp2924
g938
asbasbasbag61
(g77
g63
NtRp2925
(dp2926
g66
(dp2927
sg75
g2837
sg68
(lp2928
g61
(g82
g63
NtRp2929
(dp2930
g66
(dp2931
g86
g87
ssg75
g2925
sg68
(lp2932
S'HTTP_ACCEPT_ENCODING'
p2933
asbag61
(g82
g63
NtRp2934
(dp2935
g66
(dp2936
g93
g94
ssg75
g2925
sg68
(lp2937
S':'
asbag61
(g82
g63
NtRp2938
(dp2939
g66
(dp2940
sg75
g2925
sg68
(lp2941
g61
(g62
g63
NtRp2942
(dp2943
g66
(dp2944
g74
I3
ssg75
g2938
sg68
(lp2945
g960
asbasbasbag61
(g77
g63
NtRp2946
(dp2947
g66
(dp2948
sg75
g2837
sg68
(lp2949
g61
(g82
g63
NtRp2950
(dp2951
g66
(dp2952
g86
g87
ssg75
g2946
sg68
(lp2953
S'HTTP_ACCEPT_LANGUAGE'
p2954
asbag61
(g82
g63
NtRp2955
(dp2956
g66
(dp2957
g93
g94
ssg75
g2946
sg68
(lp2958
S':'
asbag61
(g82
g63
NtRp2959
(dp2960
g66
(dp2961
sg75
g2946
sg68
(lp2962
g61
(g62
g63
NtRp2963
(dp2964
g66
(dp2965
g74
I3
ssg75
g2959
sg68
(lp2966
g982
asbasbasbag61
(g77
g63
NtRp2967
(dp2968
g66
(dp2969
sg75
g2837
sg68
(lp2970
g61
(g82
g63
NtRp2971
(dp2972
g66
(dp2973
g86
g87
ssg75
g2967
sg68
(lp2974
S'HTTP_CACHE_CONTROL'
p2975
asbag61
(g82
g63
NtRp2976
(dp2977
g66
(dp2978
g93
g94
ssg75
g2967
sg68
(lp2979
S':'
asbag61
(g82
g63
NtRp2980
(dp2981
g66
(dp2982
sg75
g2967
sg68
(lp2983
g61
(g62
g63
NtRp2984
(dp2985
g66
(dp2986
g74
I3
ssg75
g2980
sg68
(lp2987
g1004
asbasbasbag61
(g77
g63
NtRp2988
(dp2989
g66
(dp2990
sg75
g2837
sg68
(lp2991
g61
(g82
g63
NtRp2992
(dp2993
g66
(dp2994
g86
g87
ssg75
g2988
sg68
(lp2995
S'HTTP_CONNECTION'
p2996
asbag61
(g82
g63
NtRp2997
(dp2998
g66
(dp2999
g93
g94
ssg75
g2988
sg68
(lp3000
S':'
asbag61
(g82
g63
NtRp3001
(dp3002
g66
(dp3003
sg75
g2988
sg68
(lp3004
g61
(g62
g63
NtRp3005
(dp3006
g66
(dp3007
g74
I3
ssg75
g3001
sg68
(lp3008
g1026
asbasbasbag61
(g77
g63
NtRp3009
(dp3010
g66
(dp3011
sg75
g2837
sg68
(lp3012
g61
(g82
g63
NtRp3013
(dp3014
g66
(dp3015
g86
g87
ssg75
g3009
sg68
(lp3016
S'HTTP_CONTENT_LENGTH'
p3017
asbag61
(g82
g63
NtRp3018
(dp3019
g66
(dp3020
g93
g94
ssg75
g3009
sg68
(lp3021
S':'
asbag61
(g82
g63
NtRp3022
(dp3023
g66
(dp3024
sg75
g3009
sg68
(lp3025
g61
(g62
g63
NtRp3026
(dp3027
g66
(dp3028
g74
I3
ssg75
g3022
sg68
(lp3029
g807
asbasbasbag61
(g77
g63
NtRp3030
(dp3031
g66
(dp3032
sg75
g2837
sg68
(lp3033
g61
(g82
g63
NtRp3034
(dp3035
g66
(dp3036
g86
g87
ssg75
g3030
sg68
(lp3037
S'HTTP_CONTENT_TYPE'
p3038
asbag61
(g82
g63
NtRp3039
(dp3040
g66
(dp3041
g93
g94
ssg75
g3030
sg68
(lp3042
S':'
asbag61
(g82
g63
NtRp3043
(dp3044
g66
(dp3045
sg75
g3030
sg68
(lp3046
g61
(g62
g63
NtRp3047
(dp3048
g66
(dp3049
g74
I3
ssg75
g3043
sg68
(lp3050
g829
asbasbasbag61
(g77
g63
NtRp3051
(dp3052
g66
(dp3053
sg75
g2837
sg68
(lp3054
g61
(g82
g63
NtRp3055
(dp3056
g66
(dp3057
g86
g87
ssg75
g3051
sg68
(lp3058
S'HTTP_COOKIE'
p3059
asbag61
(g82
g63
NtRp3060
(dp3061
g66
(dp3062
g93
g94
ssg75
g3051
sg68
(lp3063
S':'
asbag61
(g82
g63
NtRp3064
(dp3065
g66
(dp3066
sg75
g3051
sg68
(lp3067
g61
(g62
g63
NtRp3068
(dp3069
g66
(dp3070
g74
I3
ssg75
g3064
sg68
(lp3071
g1090
asbasbasbag61
(g77
g63
NtRp3072
(dp3073
g66
(dp3074
sg75
g2837
sg68
(lp3075
g61
(g82
g63
NtRp3076
(dp3077
g66
(dp3078
g86
g87
ssg75
g3072
sg68
(lp3079
S'HTTP_HOST'
p3080
asbag61
(g82
g63
NtRp3081
(dp3082
g66
(dp3083
g93
g94
ssg75
g3072
sg68
(lp3084
S':'
asbag61
(g82
g63
NtRp3085
(dp3086
g66
(dp3087
sg75
g3072
sg68
(lp3088
g61
(g62
g63
NtRp3089
(dp3090
g66
(dp3091
g74
I3
ssg75
g3085
sg68
(lp3092
g1112
asbasbasbag61
(g77
g63
NtRp3093
(dp3094
g66
(dp3095
sg75
g2837
sg68
(lp3096
g61
(g82
g63
NtRp3097
(dp3098
g66
(dp3099
g86
g87
ssg75
g3093
sg68
(lp3100
S'HTTP_ORIGIN'
p3101
asbag61
(g82
g63
NtRp3102
(dp3103
g66
(dp3104
g93
g94
ssg75
g3093
sg68
(lp3105
S':'
asbag61
(g82
g63
NtRp3106
(dp3107
g66
(dp3108
sg75
g3093
sg68
(lp3109
g61
(g62
g63
NtRp3110
(dp3111
g66
(dp3112
g74
I3
ssg75
g3106
sg68
(lp3113
g1134
asbasbasbag61
(g77
g63
NtRp3114
(dp3115
g66
(dp3116
sg75
g2837
sg68
(lp3117
g61
(g82
g63
NtRp3118
(dp3119
g66
(dp3120
g86
g87
ssg75
g3114
sg68
(lp3121
S'HTTP_REFERER'
p3122
asbag61
(g82
g63
NtRp3123
(dp3124
g66
(dp3125
g93
g94
ssg75
g3114
sg68
(lp3126
S':'
asbag61
(g82
g63
NtRp3127
(dp3128
g66
(dp3129
sg75
g3114
sg68
(lp3130
g61
(g62
g63
NtRp3131
(dp3132
g66
(dp3133
g74
I3
ssg75
g3127
sg68
(lp3134
g1156
asbasbasbag61
(g77
g63
NtRp3135
(dp3136
g66
(dp3137
sg75
g2837
sg68
(lp3138
g61
(g82
g63
NtRp3139
(dp3140
g66
(dp3141
g86
g87
ssg75
g3135
sg68
(lp3142
S'HTTP_USER_AGENT'
p3143
asbag61
(g82
g63
NtRp3144
(dp3145
g66
(dp3146
g93
g94
ssg75
g3135
sg68
(lp3147
S':'
asbag61
(g82
g63
NtRp3148
(dp3149
g66
(dp3150
sg75
g3135
sg68
(lp3151
g61
(g62
g63
NtRp3152
(dp3153
g66
(dp3154
g74
I3
ssg75
g3148
sg68
(lp3155
g1178
asbasbasbag61
(g77
g63
NtRp3156
(dp3157
g66
(dp3158
sg75
g2837
sg68
(lp3159
g61
(g82
g63
NtRp3160
(dp3161
g66
(dp3162
g86
g87
ssg75
g3156
sg68
(lp3163
S'PATH_INFO'
p3164
asbag61
(g82
g63
NtRp3165
(dp3166
g66
(dp3167
g93
g94
ssg75
g3156
sg68
(lp3168
S':'
asbag61
(g82
g63
NtRp3169
(dp3170
g66
(dp3171
sg75
g3156
sg68
(lp3172
g61
(g62
g63
NtRp3173
(dp3174
g66
(dp3175
g74
I3
ssg75
g3169
sg68
(lp3176
g1319
asbasbasbag61
(g77
g63
NtRp3177
(dp3178
g66
(dp3179
sg75
g2837
sg68
(lp3180
g61
(g82
g63
NtRp3181
(dp3182
g66
(dp3183
g86
g87
ssg75
g3177
sg68
(lp3184
S'QUERY_STRING'
p3185
asbag61
(g82
g63
NtRp3186
(dp3187
g66
(dp3188
g93
g94
ssg75
g3177
sg68
(lp3189
S':'
asbag61
(g82
g63
NtRp3190
(dp3191
g66
(dp3192
sg75
g3177
sg68
(lp3193
g61
(g62
g63
NtRp3194
(dp3195
g66
(dp3196
g74
I3
ssg75
g3190
sg68
(lp3197
S''
asbasbasbag61
(g77
g63
NtRp3198
(dp3199
g66
(dp3200
sg75
g2837
sg68
(lp3201
g61
(g82
g63
NtRp3202
(dp3203
g66
(dp3204
g86
g87
ssg75
g3198
sg68
(lp3205
S'REMOTE_ADDR'
p3206
asbag61
(g82
g63
NtRp3207
(dp3208
g66
(dp3209
g93
g94
ssg75
g3198
sg68
(lp3210
S':'
asbag61
(g82
g63
NtRp3211
(dp3212
g66
(dp3213
sg75
g3198
sg68
(lp3214
g61
(g62
g63
NtRp3215
(dp3216
g66
(dp3217
g74
I3
ssg75
g3211
sg68
(lp3218
g242
asbasbasbag61
(g77
g63
NtRp3219
(dp3220
g66
(dp3221
sg75
g2837
sg68
(lp3222
g61
(g82
g63
NtRp3223
(dp3224
g66
(dp3225
g86
g87
ssg75
g3219
sg68
(lp3226
S'REMOTE_PORT'
p3227
asbag61
(g82
g63
NtRp3228
(dp3229
g66
(dp3230
g93
g94
ssg75
g3219
sg68
(lp3231
S':'
asbag61
(g82
g63
NtRp3232
(dp3233
g66
(dp3234
sg75
g3219
sg68
(lp3235
g61
(g62
g63
NtRp3236
(dp3237
g66
(dp3238
g74
I3
ssg75
g3232
sg68
(lp3239
g1383
asbasbasbag61
(g77
g63
NtRp3240
(dp3241
g66
(dp3242
sg75
g2837
sg68
(lp3243
g61
(g82
g63
NtRp3244
(dp3245
g66
(dp3246
g86
g87
ssg75
g3240
sg68
(lp3247
S'REQUEST_METHOD'
p3248
asbag61
(g82
g63
NtRp3249
(dp3250
g66
(dp3251
g93
g94
ssg75
g3240
sg68
(lp3252
S':'
asbag61
(g82
g63
NtRp3253
(dp3254
g66
(dp3255
sg75
g3240
sg68
(lp3256
g61
(g62
g63
NtRp3257
(dp3258
g66
(dp3259
g74
I3
ssg75
g3253
sg68
(lp3260
g1405
asbasbasbag61
(g77
g63
NtRp3261
(dp3262
g66
(dp3263
sg75
g2837
sg68
(lp3264
g61
(g82
g63
NtRp3265
(dp3266
g66
(dp3267
g86
g87
ssg75
g3261
sg68
(lp3268
S'REQUEST_URI'
p3269
asbag61
(g82
g63
NtRp3270
(dp3271
g66
(dp3272
g93
g94
ssg75
g3261
sg68
(lp3273
S':'
asbag61
(g82
g63
NtRp3274
(dp3275
g66
(dp3276
sg75
g3261
sg68
(lp3277
g61
(g62
g63
NtRp3278
(dp3279
g66
(dp3280
g74
I3
ssg75
g3274
sg68
(lp3281
g1427
asbasbasbag61
(g77
g63
NtRp3282
(dp3283
g66
(dp3284
sg75
g2837
sg68
(lp3285
g61
(g82
g63
NtRp3286
(dp3287
g66
(dp3288
g86
g87
ssg75
g3282
sg68
(lp3289
S'SCRIPT_NAME'
p3290
asbag61
(g82
g63
NtRp3291
(dp3292
g66
(dp3293
g93
g94
ssg75
g3282
sg68
(lp3294
S':'
asbag61
(g82
g63
NtRp3295
(dp3296
g66
(dp3297
sg75
g3282
sg68
(lp3298
g61
(g62
g63
NtRp3299
(dp3300
g66
(dp3301
g74
I3
ssg75
g3295
sg68
(lp3302
S''
asbasbasbag61
(g77
g63
NtRp3303
(dp3304
g66
(dp3305
sg75
g2837
sg68
(lp3306
g61
(g82
g63
NtRp3307
(dp3308
g66
(dp3309
g86
g87
ssg75
g3303
sg68
(lp3310
S'SERVER_NAME'
p3311
asbag61
(g82
g63
NtRp3312
(dp3313
g66
(dp3314
g93
g94
ssg75
g3303
sg68
(lp3315
S':'
asbag61
(g82
g63
NtRp3316
(dp3317
g66
(dp3318
sg75
g3303
sg68
(lp3319
g61
(g62
g63
NtRp3320
(dp3321
g66
(dp3322
g74
I3
ssg75
g3316
sg68
(lp3323
g1470
asbasbasbag61
(g77
g63
NtRp3324
(dp3325
g66
(dp3326
sg75
g2837
sg68
(lp3327
g61
(g82
g63
NtRp3328
(dp3329
g66
(dp3330
g86
g87
ssg75
g3324
sg68
(lp3331
S'SERVER_PORT'
p3332
asbag61
(g82
g63
NtRp3333
(dp3334
g66
(dp3335
g93
g94
ssg75
g3324
sg68
(lp3336
S':'
asbag61
(g82
g63
NtRp3337
(dp3338
g66
(dp3339
sg75
g3324
sg68
(lp3340
g61
(g62
g63
NtRp3341
(dp3342
g66
(dp3343
g74
I3
ssg75
g3337
sg68
(lp3344
g1492
asbasbasbag61
(g77
g63
NtRp3345
(dp3346
g66
(dp3347
sg75
g2837
sg68
(lp3348
g61
(g82
g63
NtRp3349
(dp3350
g66
(dp3351
g86
g87
ssg75
g3345
sg68
(lp3352
S'SERVER_PROTOCOL'
p3353
asbag61
(g82
g63
NtRp3354
(dp3355
g66
(dp3356
g93
g94
ssg75
g3345
sg68
(lp3357
S':'
asbag61
(g82
g63
NtRp3358
(dp3359
g66
(dp3360
sg75
g3345
sg68
(lp3361
g61
(g62
g63
NtRp3362
(dp3363
g66
(dp3364
g74
I3
ssg75
g3358
sg68
(lp3365
g1514
asbasbasbag61
(g77
g63
NtRp3366
(dp3367
g66
(dp3368
sg75
g2837
sg68
(lp3369
g61
(g82
g63
NtRp3370
(dp3371
g66
(dp3372
g86
g87
ssg75
g3366
sg68
(lp3373
S'SERVER_SOFTWARE'
p3374
asbag61
(g82
g63
NtRp3375
(dp3376
g66
(dp3377
g93
g94
ssg75
g3366
sg68
(lp3378
S':'
asbag61
(g82
g63
NtRp3379
(dp3380
g66
(dp3381
sg75
g3366
sg68
(lp3382
g61
(g62
g63
NtRp3383
(dp3384
g66
(dp3385
g74
I3
ssg75
g3379
sg68
(lp3386
g1536
asbasbasbag61
(g77
g63
NtRp3387
(dp3388
g66
(dp3389
sg75
g2837
sg68
(lp3390
g61
(g82
g63
NtRp3391
(dp3392
g66
(dp3393
g86
g87
ssg75
g3387
sg68
(lp3394
S'WEB2PY_ORIGINAL_URI'
p3395
asbag61
(g82
g63
NtRp3396
(dp3397
g66
(dp3398
g93
g94
ssg75
g3387
sg68
(lp3399
S':'
asbag61
(g82
g63
NtRp3400
(dp3401
g66
(dp3402
sg75
g3387
sg68
(lp3403
g61
(g62
g63
NtRp3404
(dp3405
g66
(dp3406
g74
I3
ssg75
g3400
sg68
(lp3407
g1319
asbasbasbag61
(g77
g63
NtRp3408
(dp3409
g66
(dp3410
sg75
g2837
sg68
(lp3411
g61
(g82
g63
NtRp3412
(dp3413
g66
(dp3414
g86
g87
ssg75
g3408
sg68
(lp3415
S'wsgi.errors'
p3416
asbag61
(g82
g63
NtRp3417
(dp3418
g66
(dp3419
g93
g94
ssg75
g3408
sg68
(lp3420
S':'
asbag61
(g82
g63
NtRp3421
(dp3422
g66
(dp3423
sg75
g3408
sg68
(lp3424
g61
(g62
g63
NtRp3425
(dp3426
g66
(dp3427
g74
I3
ssg75
g3421
sg68
(lp3428
S"<open file '<stderr>', mode 'w' at 0x7fe2c5a40270>"
p3429
asbasbasbag61
(g77
g63
NtRp3430
(dp3431
g66
(dp3432
sg75
g2837
sg68
(lp3433
g61
(g82
g63
NtRp3434
(dp3435
g66
(dp3436
g86
g87
ssg75
g3430
sg68
(lp3437
S'wsgi.file_wrapper'
p3438
asbag61
(g82
g63
NtRp3439
(dp3440
g66
(dp3441
g93
g94
ssg75
g3430
sg68
(lp3442
S':'
asbag61
(g82
g63
NtRp3443
(dp3444
g66
(dp3445
sg75
g3430
sg68
(lp3446
g61
(g62
g63
NtRp3447
(dp3448
g66
(dp3449
g74
I3
ssg75
g3443
sg68
(lp3450
S'<class wsgiref.util.FileWrapper at 0x199c598>'
p3451
asbasbasbag61
(g77
g63
NtRp3452
(dp3453
g66
(dp3454
sg75
g2837
sg68
(lp3455
g61
(g82
g63
NtRp3456
(dp3457
g66
(dp3458
g86
g87
ssg75
g3452
sg68
(lp3459
S'wsgi.input'
p3460
asbag61
(g82
g63
NtRp3461
(dp3462
g66
(dp3463
g93
g94
ssg75
g3452
sg68
(lp3464
S':'
asbag61
(g82
g63
NtRp3465
(dp3466
g66
(dp3467
sg75
g3452
sg68
(lp3468
g61
(g62
g63
NtRp3469
(dp3470
g66
(dp3471
g74
I3
ssg75
g3465
sg68
(lp3472
S"<open file '<fdopen>', mode 'w+b' at 0x7fe2b8125810>"
p3473
asbasbasbag61
(g77
g63
NtRp3474
(dp3475
g66
(dp3476
sg75
g2837
sg68
(lp3477
g61
(g82
g63
NtRp3478
(dp3479
g66
(dp3480
g86
g87
ssg75
g3474
sg68
(lp3481
S'wsgi.multiprocess'
p3482
asbag61
(g82
g63
NtRp3483
(dp3484
g66
(dp3485
g93
g94
ssg75
g3474
sg68
(lp3486
S':'
asbag61
(g82
g63
NtRp3487
(dp3488
g66
(dp3489
sg75
g3474
sg68
(lp3490
g61
(g62
g63
NtRp3491
(dp3492
g66
(dp3493
g74
I3
ssg75
g3487
sg68
(lp3494
g104
asbasbasbag61
(g77
g63
NtRp3495
(dp3496
g66
(dp3497
sg75
g2837
sg68
(lp3498
g61
(g82
g63
NtRp3499
(dp3500
g66
(dp3501
g86
g87
ssg75
g3495
sg68
(lp3502
S'wsgi.multithread'
p3503
asbag61
(g82
g63
NtRp3504
(dp3505
g66
(dp3506
g93
g94
ssg75
g3495
sg68
(lp3507
S':'
asbag61
(g82
g63
NtRp3508
(dp3509
g66
(dp3510
sg75
g3495
sg68
(lp3511
g61
(g62
g63
NtRp3512
(dp3513
g66
(dp3514
g74
I3
ssg75
g3508
sg68
(lp3515
g1774
asbasbasbag61
(g77
g63
NtRp3516
(dp3517
g66
(dp3518
sg75
g2837
sg68
(lp3519
g61
(g82
g63
NtRp3520
(dp3521
g66
(dp3522
g86
g87
ssg75
g3516
sg68
(lp3523
S'wsgi.run_once'
p3524
asbag61
(g82
g63
NtRp3525
(dp3526
g66
(dp3527
g93
g94
ssg75
g3516
sg68
(lp3528
S':'
asbag61
(g82
g63
NtRp3529
(dp3530
g66
(dp3531
sg75
g3516
sg68
(lp3532
g61
(g62
g63
NtRp3533
(dp3534
g66
(dp3535
g74
I3
ssg75
g3529
sg68
(lp3536
g104
asbasbasbag61
(g77
g63
NtRp3537
(dp3538
g66
(dp3539
sg75
g2837
sg68
(lp3540
g61
(g82
g63
NtRp3541
(dp3542
g66
(dp3543
g86
g87
ssg75
g3537
sg68
(lp3544
S'wsgi.url_scheme'
p3545
asbag61
(g82
g63
NtRp3546
(dp3547
g66
(dp3548
g93
g94
ssg75
g3537
sg68
(lp3549
S':'
asbag61
(g82
g63
NtRp3550
(dp3551
g66
(dp3552
sg75
g3537
sg68
(lp3553
g61
(g62
g63
NtRp3554
(dp3555
g66
(dp3556
g74
I3
ssg75
g3550
sg68
(lp3557
g1817
asbasbasbag61
(g77
g63
NtRp3558
(dp3559
g66
(dp3560
sg75
g2837
sg68
(lp3561
g61
(g82
g63
NtRp3562
(dp3563
g66
(dp3564
g86
g87
ssg75
g3558
sg68
(lp3565
S'wsgi.version'
p3566
asbag61
(g82
g63
NtRp3567
(dp3568
g66
(dp3569
g93
g94
ssg75
g3558
sg68
(lp3570
S':'
asbag61
(g82
g63
NtRp3571
(dp3572
g66
(dp3573
sg75
g3558
sg68
(lp3574
g61
(g62
g63
NtRp3575
(dp3576
g66
(dp3577
g74
I3
ssg75
g3571
sg68
(lp3578
S'1'
asbasbasbasbasbasbasbasbasbasbasbasbasbsS'frames'
p3579
(lp3580
(dp3581
S'file'
p3582
S'/var/www/conferencia/gluon/restricted.py'
p3583
sS'dump'
p3584
(dp3585
S'environment'
p3586
S"{'A': <class 'gluon.html.A'>, 'Auth': <class 'gluon.tools.Auth'>, 'B': <class 'gluon.html.B'>, 'BEAUTIFY': <class 'gluon.html.BEAUTIFY'>, 'BODY': <class 'gluon.html.BODY'>, 'BR': <class 'gluon.html.BR'>, 'BUTTON': <class 'gluon.html.BUTTON'>, 'CAT': <class 'gluon.html.CAT'>, 'CENTER': <class 'gluon.html.CENTER'>, 'CLEANUP': <class 'gluon.validators.CLEANUP'>, ...}"
p3587
sS'ccode'
p3588
S'<code object <module> at 0x7fe2b81d0630, file "/...ications/projeto/controllers/initial.py", line 3>'
p3589
ssS'lnum'
p3590
I212
sS'lines'
p3591
(dp3592
I207
S'    try:'
p3593
sI208
S'        if isinstance(code, types.CodeType):'
p3594
sI209
S'            ccode = code'
p3595
sI210
S'        else:'
p3596
sI211
S'            ccode = compile2(code, layer)'
p3597
sI212
S'        exec ccode in environment'
p3598
sI213
S'    except HTTP:'
p3599
sI214
S'        raise'
p3600
sI215
S'    except RestrictedError:'
p3601
sI216
S'        # do not encapsulate (obfuscate) the original RestrictedError'
p3602
ssS'call'
p3603
S"(code='# coding: utf-8\\n\\ndef show_cliente():\\n\\tresponse.t...)\\n\\nresponse._vars=response._caller(show_cliente)\\n', environment={'A': <class 'gluon.html.A'>, 'Auth': <class 'gluon.tools.Auth'>, 'B': <class 'gluon.html.B'>, 'BEAUTIFY': <class 'gluon.html.BEAUTIFY'>, 'BODY': <class 'gluon.html.BODY'>, 'BR': <class 'gluon.html.BR'>, 'BUTTON': <class 'gluon.html.BUTTON'>, 'CAT': <class 'gluon.html.CAT'>, 'CENTER': <class 'gluon.html.CENTER'>, 'CLEANUP': <class 'gluon.validators.CLEANUP'>, ...}, layer='/var/www/conferencia/applications/projeto/controllers/initial.py')"
p3604
sS'func'
p3605
S'restricted'
p3606
sa(dp3607
g3582
S'/var/www/conferencia/applications/projeto/controllers/initial.py'
p3608
sg3584
(dp3609
sg3590
I324
sg3591
(dp3610
I320
S'\t\t\tsubject="host adicionado",'
p3611
sI321
S'\t\t\tmessage="<html>Um novo host foi adicionado pelo usu\xc3\xa1rio %s <br>nome: %s <br>vpn: %s<br><br>\xc3\x89 preciso fazer a instala\xc3\xa7\xc3\xa3o do client zabbix e bacula</html>" % (auth.user.first_name, host.nome, host.ip_chegada,)'
p3612
sI322
S'\t\t\t)'
p3613
sI313
S'\t\t\tto="fndiaz02@gmail.com",'
p3614
sI314
S'\t\t\tsubject="host adicionado",'
p3615
sI315
S'\t\t\tmessage="<html>Um novo host foi adicionado pelo usu\xc3\xa1rio %s <br>nome: %s <br>vpn: %s<br><br>\xc3\x89 preciso fazer a instala\xc3\xa7\xc3\xa3o do client zabbix e bacula</html>" % (auth.user.first_name, host.nome, host.ip_chegada,)'
p3616
sI316
S'\t\t\t)'
p3617
sI317
S"\telif auth.has_membership('internet'):"
p3618
sI318
S'\t\tmail.send('
p3619
sI319
S'\t\t\tto="fernando@ad2.com.br",'
p3620
ssg3603
S'()'
p3621
sg3605
S'<module>'
p3622
sa(dp3623
g3582
S'/var/www/conferencia/gluon/globals.py'
p3624
sg3584
(dp3625
S'self'
p3626
S'undefined'
p3627
sS'f'
S'<function show_cliente>'
p3628
ssg3590
I193
sg3591
(dp3629
I192
S'        self._vars = None'
p3630
sI193
S'        self._caller = lambda f: f()'
p3631
sI194
S'        self._view_environment = None'
p3632
sI195
S'        self._custom_commit = None'
p3633
sI196
S'        self._custom_rollback = None'
p3634
sI197
S''
sI188
S'        self.menu = []             # used by the default view layout'
p3635
sI189
S'        self.files = []            # used by web2py_ajax.html'
p3636
sI190
S'        self.generic_patterns = []  # patterns to allow generic views'
p3637
sI191
S"        self.delimiters = ('{{', '}}')"
p3638
ssg3603
S'(f=<function show_cliente>)'
p3639
sg3605
S'<lambda>'
p3640
sa(dp3641
g3582
S'/var/www/conferencia/applications/projeto/controllers/initial.py'
p3642
sg3584
(dp3643
S'_href'
p3644
g3627
sS'links'
p3645
g3627
sS'f'
g3627
sS'builtinvars'
p3646
S'<built-in function vars>'
p3647
sS'global URL'
p3648
S'<function URL>'
p3649
sS'_class'
p3650
g3627
sS'global A'
p3651
S"<class 'gluon.html.A'>"
p3652
sS'_title'
p3653
g3627
sS'builtindict'
p3654
S"<type 'dict'>"
p3655
sS'row'
p3656
g3627
ssg3590
I14
sg3591
(dp3657
I9
S''
sI10
S'\tgrid = SQLFORM.grid(db.meetme, orderby=db.meetme.endtime,'
p3658
sI11
S'\t\tuser_signature=False, searchable=True, csv=False,'
p3659
sI12
S'\t\tpaginate=50, details=False,'
p3660
sI13
S'\t\tignore_rw = True, maxtextlength=36,'
p3661
sI14
S"\t\tlinks=[lambda row: A('Editar',"
p3662
sI15
S"    \t\t      _class='btn',"
p3663
sI16
S"    \t\t      _title='Editar',"
p3664
sI17
S'    \t\t      _href=URL("initial", "/edit_host",'
p3665
sI18
S'    \t\t      vars=dict(f=row.confno)))]'
p3666
ssg3603
S'()'
p3667
sg3605
S'show_cliente'
p3668
sa(dp3669
g3582
S'/var/www/conferencia/gluon/sqlhtml.py'
p3670
sg3584
(dp3671
S'oncreate'
p3672
S'None'
p3673
sS'onsuccess'
p3674
g3627
ssg3590
I1881
sg3591
(dp3675
I1876
S"                _class='web2py_form',"
p3676
sI1877
S'                **sqlformargs)'
p3677
sI1878
S'            create_form.process(formname=formname,'
p3678
sI1879
S'                                next=referrer,'
p3679
sI1880
S'                                onvalidation=onvalidation,'
p3680
sI1881
S'                                onsuccess=oncreate)'
p3681
sI1882
S'            res = DIV(buttons(), create_form, formfooter, _class=_class)'
p3682
sI1883
S'            res.create_form = create_form'
p3683
sI1884
S'            res.update_form = update_form'
p3684
sI1885
S'            res.view_form = view_form'
p3685
ssg3603
S"(query=<Table meetme (confno,starttime,endtime,membros_user,admin_user,gravacao)>, fields=[<gluon.dal.Field object>, <gluon.dal.Field object>, <gluon.dal.Field object>, <gluon.dal.Field object>, <gluon.dal.Field object>, <gluon.dal.Field object>], field_id=<gluon.dal.Field object>, left=None, headers={}, orderby=<gluon.dal.Field object>, groupby=None, searchable=True, sortable=True, paginate=50, deletable=True, editable=True, details=False, selectable=None, create=True, csv=False, links=[<function <lambda>>], links_in_grid=True, upload=<function <lambda>>, args=[], user_signature=False, maxtextlengths={}, maxtextlength=36, onvalidation=None, oncreate=None, onupdate=None, ondelete=None, sorter_icons=(<gluon.html.XML object>, <gluon.html.XML object>), ui={'button': 'button btn', 'buttonadd': 'icon plus icon-plus', 'buttonback': 'icon leftarrow icon-arrow-left', 'buttondelete': 'icon trash icon-trash', 'buttonedit': 'icon pen icon-pencil', 'buttonexport': 'icon downarrow icon-download', 'buttontable': 'icon rightarrow icon-arrow-right', 'buttontext': 'buttontext button', 'buttonview': 'icon magnifier icon-zoom-in', 'content': '', ...}, showbuttontext=True, _class='web2py_grid', formname='web2py_grid', search_widget='default', ignore_rw=True, formstyle='table3cols', exportclasses=None, formargs={}, createargs={}, editargs={}, viewargs={}, buttons_placement='right', links_placement='right')"
p3686
sg3605
S'grid'
p3687
sa(dp3688
g3582
S'/var/www/conferencia/gluon/html.py'
p3689
sg3584
(dp3690
S'self'
p3691
S'<gluon.sqlhtml.SQLFORM object>'
p3692
sS'self.validate'
p3693
S'<bound method SQLFORM.validate of <gluon.sqlhtml.SQLFORM object>>'
p3694
sS'kwargs'
p3695
S"{'dbio': True, 'formname': 'web2py_grid', 'next': '/show_cliente', 'onsuccess': None, 'onvalidation': None}"
p3696
ssg3590
I2179
sg3591
(dp3697
I2176
S'        """'
p3698
sI2177
S"        kwargs['dbio'] = kwargs.get('dbio', True)"
p3699
sI2178
S'                                    # necessary for SQLHTML forms'
p3700
sI2179
S'        self.validate(**kwargs)'
p3701
sI2180
S'        return self'
p3702
sI2181
S''
sI2182
S'    REDIRECT_JS = "window.location=\'%s\';return false"'
p3703
sI2183
S''
sI2174
S'        def action():'
p3704
sI2175
S'            return dict(form=SQLFORM(db.table).process(onsuccess=my_callback)'
p3705
ssg3603
S"(self=<gluon.sqlhtml.SQLFORM object>, **kwargs={'dbio': True, 'formname': 'web2py_grid', 'next': '/show_cliente', 'onsuccess': None, 'onvalidation': None})"
p3706
sg3605
S'process'
p3707
sa(dp3708
g3582
S'/var/www/conferencia/gluon/html.py'
p3709
sg3584
(dp3710
S'self'
p3711
S'<gluon.sqlhtml.SQLFORM object>'
p3712
sS'self.accepts'
p3713
S'<bound method SQLFORM.accepts of <gluon.sqlhtml.SQLFORM object>>'
p3714
sS'kwargs'
p3715
S"{'dbio': True, 'formname': 'web2py_grid', 'onvalidation': None, 'request_vars': <Storage {'admin_user': '1', 'starttime': '2013-...013-04-03 15:40:26', '_formname': 'web2py_grid'}>, 'session': <Storage {'_formkey[web2py_grid]': '0b313b60-b1e... {'version': '22.0.1229.94', 'name': 'Chrome'}}}>}"
p3716
ssg3590
I2118
sg3591
(dp3717
I2113
S"        for key in ('message_onsuccess', 'message_onfailure', 'onsuccess',"
p3718
sI2114
S"                    'onfailure', 'next', 'message_onchange', 'onchange'):"
p3719
sI2115
S'            if key in kwargs:'
p3720
sI2116
S'                del kwargs[key]'
p3721
sI2117
S''
sI2118
S'        if self.accepts(**kwargs):'
p3722
sI2119
S"            if onsuccess == 'flash':"
p3723
sI2120
S'                if next:'
p3724
sI2121
S'                    current.session.flash = message_onsuccess'
p3725
sI2122
S'                else:'
p3726
ssg3603
S"(self=<gluon.sqlhtml.SQLFORM object>, **kwargs={'dbio': True, 'formname': 'web2py_grid', 'onvalidation': None, 'request_vars': <Storage {'admin_user': '1', 'starttime': '2013-...013-04-03 15:40:26', '_formname': 'web2py_grid'}>, 'session': <Storage {'_formkey[web2py_grid]': '0b313b60-b1e... {'version': '22.0.1229.94', 'name': 'Chrome'}}}>})"
p3727
sg3605
S'validate'
p3728
sa(dp3729
g3582
S'/var/www/conferencia/gluon/sqlhtml.py'
p3730
sg3584
(dp3731
S'self.vars.id'
p3732
S'None'
p3733
sS'fields'
p3734
S"{'admin_user': ['1'], 'endtime': datetime.datetime(2013, 4, 3, 15, 40, 26), 'gravacao': True, 'membros_user': ['1', '2'], 'starttime': datetime.datetime(2013, 4, 3, 15, 30, 25)}"
p3735
sS'self'
p3736
S'<gluon.sqlhtml.SQLFORM object>'
p3737
sS'self.vars'
p3738
S"<Storage {'membros_user': ['1', '2'], 'endtime':...me(2013, 4, 3, 15, 30, 25), 'admin_user': ['1']}>"
p3739
sS'self.table.insert'
p3740
S'<bound method Table.insert of <Table meetme (con...ttime,endtime,membros_user,admin_user,gravacao)>>'
p3741
sS'self.table'
p3742
S'<Table meetme (confno,starttime,endtime,membros_user,admin_user,gravacao)>'
p3743
ssg3590
I1486
sg3591
(dp3744
I1481
S'                    self.vars.id = self.record[self.id_field_name]'
p3745
sI1482
S'                    if fields:'
p3746
sI1483
S'                        self.table._db(self.table._id == self.record['
p3747
sI1484
S'                                       self.id_field_name]).update(**fields)'
p3748
sI1485
S'                else:'
p3749
sI1486
S'                    self.vars.id = self.table.insert(**fields)'
p3750
sI1487
S'        self.accepted = ret'
p3751
sI1488
S'        return ret'
p3752
sI1489
S''
sI1490
S'    AUTOTYPES = {'
p3753
ssg3603
S"(self=<gluon.sqlhtml.SQLFORM object>, request_vars=<Storage {'admin_user': '1', 'starttime': '2013-...013-04-03 15:40:26', '_formname': 'web2py_grid'}>, session=<Storage {'_formkey[web2py_grid]': '0b313b60-b1e... {'version': '22.0.1229.94', 'name': 'Chrome'}}}>, formname='web2py_grid', keepvalues=False, onvalidation=None, dbio=True, hideerror=False, detect_record_change=False, **kwargs={})"
p3754
sg3605
S'accepts'
p3755
sa(dp3756
g3582
S'/var/www/conferencia/gluon/dal.py'
p3757
sg3584
(dp3758
S'self._listify'
p3759
S'<bound method Table._listify of <Table meetme (c...ttime,endtime,membros_user,admin_user,gravacao)>>'
p3760
sS'fields'
p3761
S"{'admin_user': ['1'], 'endtime': datetime.datetime(2013, 4, 3, 15, 40, 26), 'gravacao': True, 'membros_user': ['1', '2'], 'starttime': datetime.datetime(2013, 4, 3, 15, 30, 25)}"
p3762
sS'self'
p3763
S'<Table meetme (confno,starttime,endtime,membros_user,admin_user,gravacao)>'
p3764
sS'ret'
p3765
g3627
sS'self._db._adapter'
p3766
S'<gluon.dal.PostgreSQLAdapter object>'
p3767
sS'self._db._adapter.insert'
p3768
S'<bound method PostgreSQLAdapter.insert of <gluon.dal.PostgreSQLAdapter object>>'
p3769
sS'self._db'
p3770
S'<DAL uri="postgres:pg8000://******:123456@127.0.0.1/conferencia">'
p3771
ssg3590
I7918
sg3591
(dp3772
I7913
S'        return self._db._adapter._insert(self,self._listify(fields))'
p3773
sI7914
S''
sI7915
S'    def insert(self, **fields):'
p3774
sI7916
S'        self._attempt_upload(fields)'
p3775
sI7917
S'        if any(f(fields) for f in self._before_insert): return 0'
p3776
sI7918
S'        ret =  self._db._adapter.insert(self,self._listify(fields))'
p3777
sI7919
S'        if ret and self._after_insert:'
p3778
sI7920
S'            fields = Row(fields)'
p3779
sI7921
S'            [f(fields,ret) for f in self._after_insert]'
p3780
sI7922
S'        return ret'
p3781
ssg3603
S"(self=<Table meetme (confno,starttime,endtime,membros_user,admin_user,gravacao)>, **fields={'admin_user': ['1'], 'endtime': datetime.datetime(2013, 4, 3, 15, 40, 26), 'gravacao': True, 'membros_user': ['1', '2'], 'starttime': datetime.datetime(2013, 4, 3, 15, 30, 25)})"
p3782
sg3605
S'insert'
p3783
sa(dp3784
g3582
S'/var/www/conferencia/gluon/dal.py'
p3785
sg3584
(dp3786
S'self.lastrowid'
p3787
S'<bound method PostgreSQLAdapter.lastrowid of <gluon.dal.PostgreSQLAdapter object>>'
p3788
sS'self'
p3789
S'<gluon.dal.PostgreSQLAdapter object>'
p3790
sS'table'
p3791
S'<Table meetme (confno,starttime,endtime,membros_user,admin_user,gravacao)>'
p3792
sS'builtinid'
p3793
S'<built-in function id>'
p3794
ssg3590
I1180
sg3591
(dp3795
I1184
S'        (rid._table, rid._record) = (table, None)'
p3796
sI1175
S'                return None'
p3797
sI1176
S'            raise e'
p3798
sI1177
S"        if hasattr(table,'_primarykey'):"
p3799
sI1178
S'            return dict([(k[0].name, k[1]) for k in fields \\'
p3800
sI1179
S'                             if k[0].name in table._primarykey])'
p3801
sI1180
S'        id = self.lastrowid(table)'
p3802
sI1181
S'        if not isinstance(id,int):'
p3803
sI1182
S'            return id'
p3804
sI1183
S'        rid = Reference(id)'
p3805
ssg3603
S"(self=<gluon.dal.PostgreSQLAdapter object>, table=<Table meetme (confno,starttime,endtime,membros_user,admin_user,gravacao)>, fields=[(<gluon.dal.Field object>, ['1', '2']), (<gluon.dal.Field object>, datetime.datetime(2013, 4, 3, 15, 40, 26)), (<gluon.dal.Field object>, True), (<gluon.dal.Field object>, datetime.datetime(2013, 4, 3, 15, 30, 25)), (<gluon.dal.Field object>, ['1'])])"
p3806
sg3605
g3783
sa(dp3807
g3582
S'/var/www/conferencia/gluon/dal.py'
p3808
sg3584
(dp3809
S'table._sequence_name'
p3810
S"'meetme_id_Seq'"
p3811
sS'table'
p3812
S'<Table meetme (confno,starttime,endtime,membros_user,admin_user,gravacao)>'
p3813
sS'self'
p3814
S'<gluon.dal.PostgreSQLAdapter object>'
p3815
sS'self.execute'
p3816
S'<bound method PostgreSQLAdapter.execute of <gluon.dal.PostgreSQLAdapter object>>'
p3817
ssg3590
I2537
sg3591
(dp3818
I2532
S'    def after_connection(self):'
p3819
sI2533
S"        self.connection.set_client_encoding('UTF8')"
p3820
sI2534
S'        self.execute("SET standard_conforming_strings=on;")'
p3821
sI2535
S''
sI2536
S'    def lastrowid(self,table):'
p3822
sI2537
S'        self.execute("select currval(\'%s\')" % table._sequence_name)'
p3823
sI2538
S'        return int(self.cursor.fetchone()[0])'
p3824
sI2539
S''
sI2540
S''
sI2541
S'    def LIKE(self,first,second):'
p3825
ssg3603
S'(self=<gluon.dal.PostgreSQLAdapter object>, table=<Table meetme (confno,starttime,endtime,membros_user,admin_user,gravacao)>)'
p3826
sg3605
S'lastrowid'
p3827
sa(dp3828
g3582
S'/var/www/conferencia/gluon/dal.py'
p3829
sg3584
(dp3830
S'a'
S'("select currval(\'meetme_id_Seq\')",)'
p3831
sS'self'
p3832
S'<gluon.dal.PostgreSQLAdapter object>'
p3833
sS'b'
g21
sS'self.log_execute'
p3834
S'<bound method PostgreSQLAdapter.log_execute of <gluon.dal.PostgreSQLAdapter object>>'
p3835
ssg3590
I1709
sg3591
(dp3836
I1704
S'        self.db._timings.append((command,time.time()-t0))'
p3837
sI1705
S'        del self.db._timings[:-TIMINGSSIZE]'
p3838
sI1706
S'        return ret'
p3839
sI1707
S''
sI1708
S'    def execute(self, *a, **b):'
p3840
sI1709
S'        return self.log_execute(*a, **b)'
p3841
sI1710
S''
sI1711
S'    def represent(self, obj, fieldtype):'
p3842
sI1712
S'        field_is_type = fieldtype.startswith'
p3843
sI1713
S'        if isinstance(obj, CALLABLETYPES):'
p3844
ssg3603
S'(self=<gluon.dal.PostgreSQLAdapter object>, *a=("select currval(\'meetme_id_Seq\')",), **b={})'
p3845
sg3605
S'execute'
p3846
sa(dp3847
g3582
S'/var/www/conferencia/gluon/dal.py'
p3848
sg3584
(dp3849
S'a'
S'("select currval(\'meetme_id_Seq\')",)'
p3850
sS'b'
g21
sS'self'
p3851
S'<gluon.dal.PostgreSQLAdapter object>'
p3852
sS'ret'
p3853
g3627
sS'self.cursor'
p3854
S'<gluon.contrib.pg8000.dbapi.CursorWrapper object>'
p3855
sS'self.cursor.execute'
p3856
S'<bound method CursorWrapper._fn of <gluon.contrib.pg8000.dbapi.CursorWrapper object>>'
p3857
ssg3590
I1703
sg3591
(dp3858
I1698
S'        command = a[0]'
p3859
sI1699
S'        if self.db._debug:'
p3860
sI1700
S"            LOGGER.debug('SQL: %s' % command)"
p3861
sI1701
S'        self.db._lastsql = command'
p3862
sI1702
S'        t0 = time.time()'
p3863
sI1703
S'        ret = self.cursor.execute(*a, **b)'
p3864
sI1704
S'        self.db._timings.append((command,time.time()-t0))'
p3865
sI1705
S'        del self.db._timings[:-TIMINGSSIZE]'
p3866
sI1706
S'        return ret'
p3867
sI1707
S''
ssg3603
S'(self=<gluon.dal.PostgreSQLAdapter object>, *a=("select currval(\'meetme_id_Seq\')",), **b={})'
p3868
sg3605
S'log_execute'
p3869
sa(dp3870
g3582
S'/var/www/conferencia/gluon/contrib/pg8000/dbapi.py'
p3871
sg3584
(dp3872
S'self'
p3873
S'<gluon.contrib.pg8000.dbapi.CursorWrapper object>'
p3874
sS'args'
p3875
S'("select currval(\'meetme_id_Seq\')",)'
p3876
sS'fn'
p3877
S'<function execute>'
p3878
sS'kwargs'
p3879
g21
ssg3590
I246
sg3591
(dp3880
I241
S''
sI242
S'def require_open_cursor(fn):'
p3881
sI243
S'    def _fn(self, *args, **kwargs):'
p3882
sI244
S'        if self.cursor == None:'
p3883
sI245
S'            raise CursorClosedError()'
p3884
sI246
S'        return fn(self, *args, **kwargs)'
p3885
sI247
S'    return _fn'
p3886
sI248
S''
sI249
S'##'
p3887
sI250
S'# The class of object returned by the {@link #ConnectionWrapper.cursor cursor method}.'
p3888
ssg3603
S'(self=<gluon.contrib.pg8000.dbapi.CursorWrapper object>, *args=("select currval(\'meetme_id_Seq\')",), **kwargs={})'
p3889
sg3605
S'_fn'
p3890
sa(dp3891
g3582
S'/var/www/conferencia/gluon/contrib/pg8000/dbapi.py'
p3892
sg3584
(dp3893
S'self._execute'
p3894
S'<bound method CursorWrapper._execute of <gluon.contrib.pg8000.dbapi.CursorWrapper object>>'
p3895
sS'self'
p3896
S'<gluon.contrib.pg8000.dbapi.CursorWrapper object>'
p3897
sS'args'
p3898
S'()'
p3899
sS'operation'
p3900
S'"select currval(\'meetme_id_Seq\')"'
p3901
ssg3590
I317
sg3591
(dp3902
I320
S'        new_query, new_args = convert_paramstyle(paramstyle, operation, args)'
p3903
sI321
S'        try:'
p3904
sI312
S'    @require_open_cursor'
p3905
sI313
S'    def execute(self, operation, args=()):'
p3906
sI314
S'        if not self._connection.in_transaction:'
p3907
sI315
S'            self._connection.begin()'
p3908
sI316
S'        self._override_rowcount = None'
p3909
sI317
S'        self._execute(operation, args)'
p3910
sI318
S''
sI319
S'    def _execute(self, operation, args=()):'
p3911
ssg3603
S'(self=<gluon.contrib.pg8000.dbapi.CursorWrapper object>, operation="select currval(\'meetme_id_Seq\')", args=())'
p3912
sg3605
g3846
sa(dp3913
g3582
S'/var/www/conferencia/gluon/contrib/pg8000/dbapi.py'
p3914
sg3584
(dp3915
S'new_args'
p3916
S'()'
p3917
sS'self.cursor'
p3918
S'<gluon.contrib.pg8000.interface.Cursor object>'
p3919
sS'self'
p3920
S'<gluon.contrib.pg8000.dbapi.CursorWrapper object>'
p3921
sS'new_query'
p3922
S'"select currval(\'meetme_id_Seq\')"'
p3923
sS'self.cursor.execute'
p3924
S'<bound method Cursor.execute of <gluon.contrib.pg8000.interface.Cursor object>>'
p3925
ssg3590
I322
sg3591
(dp3926
I320
S'        new_query, new_args = convert_paramstyle(paramstyle, operation, args)'
p3927
sI321
S'        try:'
p3928
sI322
S'            self.cursor.execute(new_query, *new_args)'
p3929
sI323
S'        except ConnectionClosedError:'
p3930
sI324
S"            # can't rollback in this case"
p3931
sI325
S'            raise'
p3932
sI326
S'        except:'
p3933
sI317
S'        self._execute(operation, args)'
p3934
sI318
S''
sI319
S'    def _execute(self, operation, args=()):'
p3935
ssg3603
S'(self=<gluon.contrib.pg8000.dbapi.CursorWrapper object>, operation="select currval(\'meetme_id_Seq\')", args=())'
p3936
sg3605
S'_execute'
p3937
sa(dp3938
g3582
S'/var/www/conferencia/gluon/contrib/pg8000/interface.py'
p3939
sg3584
(dp3940
S'x'
g3627
sS'args'
p3941
S'()'
p3942
sS'builtintype'
p3943
S"<type 'type'>"
p3944
sS'self._stmt'
p3945
S'<gluon.contrib.pg8000.interface.PreparedStatement object>'
p3946
sS'self'
p3947
S'<gluon.contrib.pg8000.interface.Cursor object>'
p3948
sS'self.connection'
p3949
S'<gluon.contrib.pg8000.interface.Connection object>'
p3950
sS'global PreparedStatement'
p3951
S"<class 'gluon.contrib.pg8000.interface.PreparedStatement'>"
p3952
sS'statement_name'
p3953
g3627
sS'query'
p3954
S'"select currval(\'meetme_id_Seq\')"'
p3955
ssg3590
I398
sg3591
(dp3956
I393
S'                # use PostgreSQL Simple Query Protocol'
p3957
sI394
S'                ## print "SimpleQuery:", query'
p3958
sI395
S'                self._stmt = SimpleStatement(self.connection, query)'
p3959
sI396
S'            else:'
p3960
sI397
S'                # use PostgreSQL Extended Query Protocol'
p3961
sI398
S'                self._stmt = PreparedStatement(self.connection, query, statement_name="", *[{"type": type(x), "value": x} for x in args])'
p3962
sI399
S'            self._stmt.execute(*args, **kwargs)'
p3963
sI400
S'        finally:'
p3964
sI401
S'            self.connection._unnamed_prepared_statement_lock.release()'
p3965
sI402
S''
ssg3603
S'(self=<gluon.contrib.pg8000.interface.Cursor object>, query="select currval(\'meetme_id_Seq\')", *args=(), **kwargs={})'
p3966
sg3605
g3846
sa(dp3967
g3582
S'/var/www/conferencia/gluon/contrib/pg8000/interface.py'
p3968
sg3584
(dp3969
S'self.c'
p3970
S'<gluon.contrib.pg8000.protocol.Connection object>'
p3971
sS'self'
p3972
S'<gluon.contrib.pg8000.interface.PreparedStatement object>'
p3973
sS'self.c.parse'
p3974
S'<bound method Connection._fn of <gluon.contrib.pg8000.protocol.Connection object>>'
p3975
sS'self._statement_name'
p3976
S"''"
p3977
sS'self._parse_row_desc'
p3978
g3627
sS'statement'
p3979
S'"select currval(\'meetme_id_Seq\')"'
p3980
sS'types'
p3981
S'()'
p3982
ssg3590
I138
sg3591
(dp3983
I133
S'        self._statement_name = kwargs.get("statement_name", "pg8000_statement_%s" % self._statement_number)'
p3984
sI134
S'        self._row_desc = None'
p3985
sI135
S'        self._cached_rows = []'
p3986
sI136
S'        self._ongoing_row_count = 0'
p3987
sI137
S'        self._command_complete = True'
p3988
sI138
S'        self._parse_row_desc = self.c.parse(self._statement_name, statement, types)'
p3989
sI139
S'        self._lock = threading.RLock()'
p3990
sI140
S''
sI141
S'    def close(self):'
p3991
sI142
S'        if self._statement_name != "": # don\'t close unnamed statement'
p3992
ssg3603
S'(self=<gluon.contrib.pg8000.interface.PreparedStatement object>, connection=<gluon.contrib.pg8000.interface.Connection object>, statement="select currval(\'meetme_id_Seq\')", *types=(), **kwargs={\'statement_name\': \'\'})'
p3993
sg3605
g26
sa(dp3994
g3582
S'/var/www/conferencia/gluon/contrib/pg8000/protocol.py'
p3995
sg3584
(dp3996
S'self'
p3997
S'<gluon.contrib.pg8000.protocol.Connection object>'
p3998
sS'args'
p3999
S'(\'\', "select currval(\'meetme_id_Seq\')", ())'
p4000
sS'fn'
p4001
S'<function parse>'
p4002
sS'kwargs'
p4003
g21
ssg3590
I943
sg3591
(dp4004
I938
S''
sI939
S'def sync_on_error(fn):'
p4005
sI940
S'    def _fn(self, *args, **kwargs):'
p4006
sI941
S'        try:'
p4007
sI942
S'            self._sock_lock.acquire()'
p4008
sI943
S'            return fn(self, *args, **kwargs)'
p4009
sI944
S'        except:'
p4010
sI945
S'            self._sync()'
p4011
sI946
S'            raise'
p4012
sI947
S'        finally:'
p4013
ssg3603
S'(self=<gluon.contrib.pg8000.protocol.Connection object>, *args=(\'\', "select currval(\'meetme_id_Seq\')", ()), **kwargs={})'
p4014
sg3605
g3890
sa(dp4015
g3582
S'/var/www/conferencia/gluon/contrib/pg8000/protocol.py'
p4016
sg3584
(dp4017
S'reader.handle_messages'
p4018
S'<bound method MessageReader.handle_messages of <gluon.contrib.pg8000.protocol.MessageReader object>>'
p4019
sS'reader'
p4020
S'<gluon.contrib.pg8000.protocol.MessageReader object>'
p4021
ssg3590
I1104
sg3591
(dp4022
I1099
S'        reader.add_message(NoData, lambda msg: (None, param_fc))'
p4023
sI1100
S''
sI1101
S'        # Common row description response'
p4024
sI1102
S'        reader.add_message(RowDescription, lambda msg: (msg, param_fc))'
p4025
sI1103
S''
sI1104
S'        return reader.handle_messages()'
p4026
sI1105
S''
sI1106
S'    @sync_on_error'
p4027
sI1107
S'    def bind(self, portal, statement, params, parse_data, copy_stream):'
p4028
sI1108
S'        self.verifyState("ready")'
p4029
ssg3603
S'(self=<gluon.contrib.pg8000.protocol.Connection object>, statement=\'\', qs="select currval(\'meetme_id_Seq\')", param_types=[])'
p4030
sg3605
S'parse'
p4031
sa(dp4032
g3582
S'/var/www/conferencia/gluon/contrib/pg8000/protocol.py'
p4033
sg3584
(dp4034
S'exc'
p4035
S'ProgrammingError(\'ERROR\', \'42P01\', \'relation "meetme_id_seq" does not exist\')'
p4036
ssg3590
I929
sg3591
(dp4037
I928
S'                if not self.delay_raising_exception:'
p4038
sI929
S'                    raise exc'
p4039
sI930
S'            elif isinstance(msg, NoticeResponse):'
p4040
sI931
S'                self._conn.handleNoticeResponse(msg)'
p4041
sI932
S'            elif isinstance(msg, ParameterStatus):'
p4042
sI933
S'                self._conn.handleParameterStatus(msg)'
p4043
sI924
S'            if msg_handled:'
p4044
sI925
S'                continue'
p4045
sI926
S'            elif isinstance(msg, ErrorResponse):'
p4046
sI927
S'                exc = msg.createException()'
p4047
ssg3603
S'(self=<gluon.contrib.pg8000.protocol.MessageReader object>)'
p4048
sg3605
S'handle_messages'
p4049
sasS'pyver'
p4050
S'Python 2.7.3: /usr/bin/python'
p4051
sS'session'
p4052
g61
(g62
g63
NtRp4053
(dp4054
g66
(dp4055
sg68
(lp4056
g61
(g70
g63
NtRp4057
(dp4058
g66
(dp4059
g74
I5
ssg75
Nsg68
(lp4060
sbasbsS'etype'
p4061
S"<class 'gluon.contrib.pg8000.errors.ProgrammingError'>"
p4062
sS'date'
p4063
S'Wed Apr  3 15:30:48 2013'
p4064
sS'response'
p4065
g61
(g62
g63
NtRp4066
(dp4067
g66
(dp4068
sg68
(lp4069
g61
(g70
g63
NtRp4070
(dp4071
g66
(dp4072
g74
I5
ssg75
Nsg68
(lp4073
g61
(g77
g63
NtRp4074
(dp4075
g66
(dp4076
sg75
g4070
sg68
(lp4077
g61
(g82
g63
NtRp4078
(dp4079
g66
(dp4080
g86
g87
ssg75
g4074
sg68
(lp4081
g185
asbag61
(g82
g63
NtRp4082
(dp4083
g66
(dp4084
g93
g94
ssg75
g4074
sg68
(lp4085
S':'
asbag61
(g82
g63
NtRp4086
(dp4087
g66
(dp4088
sg75
g4074
sg68
(lp4089
g61
(g62
g63
NtRp4090
(dp4091
g66
(dp4092
g74
I5
ssg75
g4086
sg68
(lp4093
S'<cStringIO.StringO object at 0x7fe2b81c92d0>'
p4094
asbasbasbag61
(g77
g63
NtRp4095
(dp4096
g66
(dp4097
sg75
g4070
sg68
(lp4098
g61
(g82
g63
NtRp4099
(dp4100
g66
(dp4101
g86
g87
ssg75
g4095
sg68
(lp4102
g273
asbag61
(g82
g63
NtRp4103
(dp4104
g66
(dp4105
g93
g94
ssg75
g4095
sg68
(lp4106
S':'
asbag61
(g82
g63
NtRp4107
(dp4108
g66
(dp4109
sg75
g4095
sg68
(lp4110
g61
(g62
g63
NtRp4111
(dp4112
g66
(dp4113
g74
I5
ssg75
g4107
sg68
(lp4114
g61
(g70
g63
NtRp4115
(dp4116
g66
(dp4117
g74
I4
ssg75
Nsg68
(lp4118
g61
(g77
g63
NtRp4119
(dp4120
g66
(dp4121
sg75
g4115
sg68
(lp4122
g61
(g82
g63
NtRp4123
(dp4124
g66
(dp4125
g86
g87
ssg75
g4119
sg68
(lp4126
S'session_id_projeto'
p4127
asbag61
(g82
g63
NtRp4128
(dp4129
g66
(dp4130
g93
g94
ssg75
g4119
sg68
(lp4131
S':'
asbag61
(g82
g63
NtRp4132
(dp4133
g66
(dp4134
sg75
g4119
sg68
(lp4135
g61
(g62
g63
NtRp4136
(dp4137
g66
(dp4138
g74
I4
ssg75
g4132
sg68
(lp4139
g505
ag61
(g70
g63
NtRp4140
(dp4141
g66
(dp4142
g74
I3
ssg75
Nsg68
(lp4143
g61
(g77
g63
NtRp4144
(dp4145
g66
(dp4146
sg75
g4140
sg68
(lp4147
g61
(g82
g63
NtRp4148
(dp4149
g66
(dp4150
g86
g87
ssg75
g4144
sg68
(lp4151
g324
asbag61
(g82
g63
NtRp4152
(dp4153
g66
(dp4154
g93
g94
ssg75
g4144
sg68
(lp4155
S':'
asbag61
(g82
g63
NtRp4156
(dp4157
g66
(dp4158
sg75
g4144
sg68
(lp4159
g61
(g62
g63
NtRp4160
(dp4161
g66
(dp4162
g74
I3
ssg75
g4156
sg68
(lp4163
S''
asbasbasbag61
(g77
g63
NtRp4164
(dp4165
g66
(dp4166
sg75
g4140
sg68
(lp4167
g61
(g82
g63
NtRp4168
(dp4169
g66
(dp4170
g86
g87
ssg75
g4164
sg68
(lp4171
g345
asbag61
(g82
g63
NtRp4172
(dp4173
g66
(dp4174
g93
g94
ssg75
g4164
sg68
(lp4175
S':'
asbag61
(g82
g63
NtRp4176
(dp4177
g66
(dp4178
sg75
g4164
sg68
(lp4179
g61
(g62
g63
NtRp4180
(dp4181
g66
(dp4182
g74
I3
ssg75
g4176
sg68
(lp4183
S''
asbasbasbag61
(g77
g63
NtRp4184
(dp4185
g66
(dp4186
sg75
g4140
sg68
(lp4187
g61
(g82
g63
NtRp4188
(dp4189
g66
(dp4190
g86
g87
ssg75
g4184
sg68
(lp4191
g366
asbag61
(g82
g63
NtRp4192
(dp4193
g66
(dp4194
g93
g94
ssg75
g4184
sg68
(lp4195
S':'
asbag61
(g82
g63
NtRp4196
(dp4197
g66
(dp4198
sg75
g4184
sg68
(lp4199
g61
(g62
g63
NtRp4200
(dp4201
g66
(dp4202
g74
I3
ssg75
g4196
sg68
(lp4203
S''
asbasbasbag61
(g77
g63
NtRp4204
(dp4205
g66
(dp4206
sg75
g4140
sg68
(lp4207
g61
(g82
g63
NtRp4208
(dp4209
g66
(dp4210
g86
g87
ssg75
g4204
sg68
(lp4211
g387
asbag61
(g82
g63
NtRp4212
(dp4213
g66
(dp4214
g93
g94
ssg75
g4204
sg68
(lp4215
S':'
asbag61
(g82
g63
NtRp4216
(dp4217
g66
(dp4218
sg75
g4204
sg68
(lp4219
g61
(g62
g63
NtRp4220
(dp4221
g66
(dp4222
g74
I3
ssg75
g4216
sg68
(lp4223
S''
asbasbasbag61
(g77
g63
NtRp4224
(dp4225
g66
(dp4226
sg75
g4140
sg68
(lp4227
g61
(g82
g63
NtRp4228
(dp4229
g66
(dp4230
g86
g87
ssg75
g4224
sg68
(lp4231
g408
asbag61
(g82
g63
NtRp4232
(dp4233
g66
(dp4234
g93
g94
ssg75
g4224
sg68
(lp4235
S':'
asbag61
(g82
g63
NtRp4236
(dp4237
g66
(dp4238
sg75
g4224
sg68
(lp4239
g61
(g62
g63
NtRp4240
(dp4241
g66
(dp4242
g74
I3
ssg75
g4236
sg68
(lp4243
S''
asbasbasbag61
(g77
g63
NtRp4244
(dp4245
g66
(dp4246
sg75
g4140
sg68
(lp4247
g61
(g82
g63
NtRp4248
(dp4249
g66
(dp4250
g86
g87
ssg75
g4244
sg68
(lp4251
g429
asbag61
(g82
g63
NtRp4252
(dp4253
g66
(dp4254
g93
g94
ssg75
g4244
sg68
(lp4255
S':'
asbag61
(g82
g63
NtRp4256
(dp4257
g66
(dp4258
sg75
g4244
sg68
(lp4259
g61
(g62
g63
NtRp4260
(dp4261
g66
(dp4262
g74
I3
ssg75
g4256
sg68
(lp4263
S'/'
asbasbasbag61
(g77
g63
NtRp4264
(dp4265
g66
(dp4266
sg75
g4140
sg68
(lp4267
g61
(g82
g63
NtRp4268
(dp4269
g66
(dp4270
g86
g87
ssg75
g4264
sg68
(lp4271
g450
asbag61
(g82
g63
NtRp4272
(dp4273
g66
(dp4274
g93
g94
ssg75
g4264
sg68
(lp4275
S':'
asbag61
(g82
g63
NtRp4276
(dp4277
g66
(dp4278
sg75
g4264
sg68
(lp4279
g61
(g62
g63
NtRp4280
(dp4281
g66
(dp4282
g74
I3
ssg75
g4276
sg68
(lp4283
S''
asbasbasbag61
(g77
g63
NtRp4284
(dp4285
g66
(dp4286
sg75
g4140
sg68
(lp4287
g61
(g82
g63
NtRp4288
(dp4289
g66
(dp4290
g86
g87
ssg75
g4284
sg68
(lp4291
g471
asbag61
(g82
g63
NtRp4292
(dp4293
g66
(dp4294
g93
g94
ssg75
g4284
sg68
(lp4295
S':'
asbag61
(g82
g63
NtRp4296
(dp4297
g66
(dp4298
sg75
g4284
sg68
(lp4299
g61
(g62
g63
NtRp4300
(dp4301
g66
(dp4302
g74
I3
ssg75
g4296
sg68
(lp4303
S''
asbasbasbasbasbasbasbasbasbasbasbag61
(g77
g63
NtRp4304
(dp4305
g66
(dp4306
sg75
g4070
sg68
(lp4307
g61
(g82
g63
NtRp4308
(dp4309
g66
(dp4310
g86
g87
ssg75
g4304
sg68
(lp4311
S'delimiters'
p4312
asbag61
(g82
g63
NtRp4313
(dp4314
g66
(dp4315
g93
g94
ssg75
g4304
sg68
(lp4316
S':'
asbag61
(g82
g63
NtRp4317
(dp4318
g66
(dp4319
sg75
g4304
sg68
(lp4320
g61
(g62
g63
NtRp4321
(dp4322
g66
(dp4323
g74
I5
ssg75
g4317
sg68
(lp4324
g61
(g70
g63
NtRp4325
(dp4326
g66
(dp4327
g74
I4
ssg75
Nsg68
(lp4328
g61
(g77
g63
NtRp4329
(dp4330
g66
(dp4331
sg75
g4325
sg68
(lp4332
g61
(g82
g63
NtRp4333
(dp4334
g66
(dp4335
sg75
g4329
sg68
(lp4336
g61
(g62
g63
NtRp4337
(dp4338
g66
(dp4339
g74
I4
ssg75
g4333
sg68
(lp4340
S'{{'
p4341
asbasbasbag61
(g77
g63
NtRp4342
(dp4343
g66
(dp4344
sg75
g4325
sg68
(lp4345
g61
(g82
g63
NtRp4346
(dp4347
g66
(dp4348
sg75
g4342
sg68
(lp4349
g61
(g62
g63
NtRp4350
(dp4351
g66
(dp4352
g74
I4
ssg75
g4346
sg68
(lp4353
S'}}'
p4354
asbasbasbasbasbasbasbag61
(g77
g63
NtRp4355
(dp4356
g66
(dp4357
sg75
g4070
sg68
(lp4358
g61
(g82
g63
NtRp4359
(dp4360
g66
(dp4361
g86
g87
ssg75
g4355
sg68
(lp4362
S'files'
p4363
asbag61
(g82
g63
NtRp4364
(dp4365
g66
(dp4366
g93
g94
ssg75
g4355
sg68
(lp4367
S':'
asbag61
(g82
g63
NtRp4368
(dp4369
g66
(dp4370
sg75
g4355
sg68
(lp4371
g61
(g62
g63
NtRp4372
(dp4373
g66
(dp4374
g74
I5
ssg75
g4368
sg68
(lp4375
g61
(g70
g63
NtRp4376
(dp4377
g66
(dp4378
g74
I4
ssg75
Nsg68
(lp4379
sbasbasbasbag61
(g77
g63
NtRp4380
(dp4381
g66
(dp4382
sg75
g4070
sg68
(lp4383
g61
(g82
g63
NtRp4384
(dp4385
g66
(dp4386
g86
g87
ssg75
g4380
sg68
(lp4387
S'flash'
p4388
asbag61
(g82
g63
NtRp4389
(dp4390
g66
(dp4391
g93
g94
ssg75
g4380
sg68
(lp4392
S':'
asbag61
(g82
g63
NtRp4393
(dp4394
g66
(dp4395
sg75
g4380
sg68
(lp4396
g61
(g62
g63
NtRp4397
(dp4398
g66
(dp4399
g74
I5
ssg75
g4393
sg68
(lp4400
S''
asbasbasbag61
(g77
g63
NtRp4401
(dp4402
g66
(dp4403
sg75
g4070
sg68
(lp4404
g61
(g82
g63
NtRp4405
(dp4406
g66
(dp4407
g86
g87
ssg75
g4401
sg68
(lp4408
S'generic_patterns'
p4409
asbag61
(g82
g63
NtRp4410
(dp4411
g66
(dp4412
g93
g94
ssg75
g4401
sg68
(lp4413
S':'
asbag61
(g82
g63
NtRp4414
(dp4415
g66
(dp4416
sg75
g4401
sg68
(lp4417
g61
(g62
g63
NtRp4418
(dp4419
g66
(dp4420
g74
I5
ssg75
g4414
sg68
(lp4421
g61
(g70
g63
NtRp4422
(dp4423
g66
(dp4424
g74
I4
ssg75
Nsg68
(lp4425
g61
(g77
g63
NtRp4426
(dp4427
g66
(dp4428
sg75
g4422
sg68
(lp4429
g61
(g82
g63
NtRp4430
(dp4431
g66
(dp4432
sg75
g4426
sg68
(lp4433
g61
(g62
g63
NtRp4434
(dp4435
g66
(dp4436
g74
I4
ssg75
g4430
sg68
(lp4437
S'*'
asbasbasbasbasbasbasbag61
(g77
g63
NtRp4438
(dp4439
g66
(dp4440
sg75
g4070
sg68
(lp4441
g61
(g82
g63
NtRp4442
(dp4443
g66
(dp4444
g86
g87
ssg75
g4438
sg68
(lp4445
S'google_analytics_id'
p4446
asbag61
(g82
g63
NtRp4447
(dp4448
g66
(dp4449
g93
g94
ssg75
g4438
sg68
(lp4450
S':'
asbag61
(g82
g63
NtRp4451
(dp4452
g66
(dp4453
sg75
g4438
sg68
(lp4454
g61
(g62
g63
NtRp4455
(dp4456
g66
(dp4457
g74
I5
ssg75
g4451
sg68
(lp4458
S'None'
p4459
asbasbasbag61
(g77
g63
NtRp4460
(dp4461
g66
(dp4462
sg75
g4070
sg68
(lp4463
g61
(g82
g63
NtRp4464
(dp4465
g66
(dp4466
g86
g87
ssg75
g4460
sg68
(lp4467
S'headers'
p4468
asbag61
(g82
g63
NtRp4469
(dp4470
g66
(dp4471
g93
g94
ssg75
g4460
sg68
(lp4472
S':'
asbag61
(g82
g63
NtRp4473
(dp4474
g66
(dp4475
sg75
g4460
sg68
(lp4476
g61
(g62
g63
NtRp4477
(dp4478
g66
(dp4479
g74
I5
ssg75
g4473
sg68
(lp4480
g61
(g70
g63
NtRp4481
(dp4482
g66
(dp4483
g74
I4
ssg75
Nsg68
(lp4484
g61
(g77
g63
NtRp4485
(dp4486
g66
(dp4487
sg75
g4481
sg68
(lp4488
g61
(g82
g63
NtRp4489
(dp4490
g66
(dp4491
g86
g87
ssg75
g4485
sg68
(lp4492
S'X-Powered-By'
p4493
asbag61
(g82
g63
NtRp4494
(dp4495
g66
(dp4496
g93
g94
ssg75
g4485
sg68
(lp4497
S':'
asbag61
(g82
g63
NtRp4498
(dp4499
g66
(dp4500
sg75
g4485
sg68
(lp4501
g61
(g62
g63
NtRp4502
(dp4503
g66
(dp4504
g74
I4
ssg75
g4498
sg68
(lp4505
S'web2py'
p4506
asbasbasbasbasbasbasbag61
(g77
g63
NtRp4507
(dp4508
g66
(dp4509
sg75
g4070
sg68
(lp4510
g61
(g82
g63
NtRp4511
(dp4512
g66
(dp4513
g86
g87
ssg75
g4507
sg68
(lp4514
S'logo'
p4515
asbag61
(g82
g63
NtRp4516
(dp4517
g66
(dp4518
g93
g94
ssg75
g4507
sg68
(lp4519
S':'
asbag61
(g82
g63
NtRp4520
(dp4521
g66
(dp4522
sg75
g4507
sg68
(lp4523
g61
(g62
g63
NtRp4524
(dp4525
g66
(dp4526
g74
I5
ssg75
g4520
sg68
(lp4527
g61
(cgluon.html
A
p4528
g63
NtRp4529
(dp4530
g66
(dp4531
S'_class'
p4532
S'brand'
p4533
sS'_href'
p4534
S'principal'
p4535
ssg75
Nsg68
(lp4536
g61
(cgluon.html
B
p4537
g63
NtRp4538
(dp4539
g66
(dp4540
sg75
g4529
sg68
(lp4541
S'hosts'
p4542
ag61
(cgluon.html
SPAN
p4543
g63
NtRp4544
(dp4545
g66
(dp4546
sg75
g4538
sg68
(lp4547
S'3'
asbaS''
asbacgluon.html
XML_unpickle
p4548
(S's\r\x00\x00\x00&trade;&nbsp;'
tRp4549
asbasbasbasbag61
(g77
g63
NtRp4550
(dp4551
g66
(dp4552
sg75
g4070
sg68
(lp4553
g61
(g82
g63
NtRp4554
(dp4555
g66
(dp4556
g86
g87
ssg75
g4550
sg68
(lp4557
S'menu'
p4558
asbag61
(g82
g63
NtRp4559
(dp4560
g66
(dp4561
g93
g94
ssg75
g4550
sg68
(lp4562
S':'
asbag61
(g82
g63
NtRp4563
(dp4564
g66
(dp4565
sg75
g4550
sg68
(lp4566
g61
(g62
g63
NtRp4567
(dp4568
g66
(dp4569
g74
I5
ssg75
g4563
sg68
(lp4570
g61
(g70
g63
NtRp4571
(dp4572
g66
(dp4573
g74
I4
ssg75
Nsg68
(lp4574
g61
(g77
g63
NtRp4575
(dp4576
g66
(dp4577
sg75
g4571
sg68
(lp4578
g61
(g82
g63
NtRp4579
(dp4580
g66
(dp4581
sg75
g4575
sg68
(lp4582
g61
(g62
g63
NtRp4583
(dp4584
g66
(dp4585
g74
I4
ssg75
g4579
sg68
(lp4586
g61
(g70
g63
NtRp4587
(dp4588
g66
(dp4589
g74
I3
ssg75
Nsg68
(lp4590
g61
(g77
g63
NtRp4591
(dp4592
g66
(dp4593
sg75
g4587
sg68
(lp4594
g61
(g82
g63
NtRp4595
(dp4596
g66
(dp4597
sg75
g4591
sg68
(lp4598
g61
(g62
g63
NtRp4599
(dp4600
g66
(dp4601
g74
I3
ssg75
g4595
sg68
(lp4602
cgluon.languages
lazyT_unpickle
p4603
(S't\x08\x00\x00\x00Clientes'
tRp4604
asbasbasbag61
(g77
g63
NtRp4605
(dp4606
g66
(dp4607
sg75
g4587
sg68
(lp4608
g61
(g82
g63
NtRp4609
(dp4610
g66
(dp4611
sg75
g4605
sg68
(lp4612
g61
(g62
g63
NtRp4613
(dp4614
g66
(dp4615
g74
I3
ssg75
g4609
sg68
(lp4616
g104
asbasbasbag61
(g77
g63
NtRp4617
(dp4618
g66
(dp4619
sg75
g4587
sg68
(lp4620
g61
(g82
g63
NtRp4621
(dp4622
g66
(dp4623
sg75
g4617
sg68
(lp4624
g61
(g62
g63
NtRp4625
(dp4626
g66
(dp4627
g74
I3
ssg75
g4621
sg68
(lp4628
S'/show_cliente'
p4629
asbasbasbag61
(g77
g63
NtRp4630
(dp4631
g66
(dp4632
sg75
g4587
sg68
(lp4633
g61
(g82
g63
NtRp4634
(dp4635
g66
(dp4636
sg75
g4630
sg68
(lp4637
g61
(g62
g63
NtRp4638
(dp4639
g66
(dp4640
g74
I3
ssg75
g4634
sg68
(lp4641
g61
(g70
g63
NtRp4642
(dp4643
g66
(dp4644
g74
I2
ssg75
Nsg68
(lp4645
sbasbasbasbasbasbasbasbag61
(g77
g63
NtRp4646
(dp4647
g66
(dp4648
sg75
g4571
sg68
(lp4649
g61
(g82
g63
NtRp4650
(dp4651
g66
(dp4652
sg75
g4646
sg68
(lp4653
g61
(g62
g63
NtRp4654
(dp4655
g66
(dp4656
g74
I4
ssg75
g4650
sg68
(lp4657
g61
(g70
g63
NtRp4658
(dp4659
g66
(dp4660
g74
I3
ssg75
Nsg68
(lp4661
g61
(g77
g63
NtRp4662
(dp4663
g66
(dp4664
sg75
g4658
sg68
(lp4665
g61
(g82
g63
NtRp4666
(dp4667
g66
(dp4668
sg75
g4662
sg68
(lp4669
g61
(g62
g63
NtRp4670
(dp4671
g66
(dp4672
g74
I3
ssg75
g4666
sg68
(lp4673
g4603
(S't\n\x00\x00\x00Servidores'
tRp4674
asbasbasbag61
(g77
g63
NtRp4675
(dp4676
g66
(dp4677
sg75
g4658
sg68
(lp4678
g61
(g82
g63
NtRp4679
(dp4680
g66
(dp4681
sg75
g4675
sg68
(lp4682
g61
(g62
g63
NtRp4683
(dp4684
g66
(dp4685
g74
I3
ssg75
g4679
sg68
(lp4686
g104
asbasbasbag61
(g77
g63
NtRp4687
(dp4688
g66
(dp4689
sg75
g4658
sg68
(lp4690
g61
(g82
g63
NtRp4691
(dp4692
g66
(dp4693
sg75
g4687
sg68
(lp4694
g61
(g62
g63
NtRp4695
(dp4696
g66
(dp4697
g74
I3
ssg75
g4691
sg68
(lp4698
S'/show_servidor'
p4699
asbasbasbag61
(g77
g63
NtRp4700
(dp4701
g66
(dp4702
sg75
g4658
sg68
(lp4703
g61
(g82
g63
NtRp4704
(dp4705
g66
(dp4706
sg75
g4700
sg68
(lp4707
g61
(g62
g63
NtRp4708
(dp4709
g66
(dp4710
g74
I3
ssg75
g4704
sg68
(lp4711
g61
(g70
g63
NtRp4712
(dp4713
g66
(dp4714
g74
I2
ssg75
Nsg68
(lp4715
sbasbasbasbasbasbasbasbag61
(g77
g63
NtRp4716
(dp4717
g66
(dp4718
sg75
g4571
sg68
(lp4719
g61
(g82
g63
NtRp4720
(dp4721
g66
(dp4722
sg75
g4716
sg68
(lp4723
g61
(g62
g63
NtRp4724
(dp4725
g66
(dp4726
g74
I4
ssg75
g4720
sg68
(lp4727
g61
(g70
g63
NtRp4728
(dp4729
g66
(dp4730
g74
I3
ssg75
Nsg68
(lp4731
g61
(g77
g63
NtRp4732
(dp4733
g66
(dp4734
sg75
g4728
sg68
(lp4735
g61
(g82
g63
NtRp4736
(dp4737
g66
(dp4738
sg75
g4732
sg68
(lp4739
g61
(g62
g63
NtRp4740
(dp4741
g66
(dp4742
g74
I3
ssg75
g4736
sg68
(lp4743
g4603
(S't\x07\x00\x00\x00Distros'
tRp4744
asbasbasbag61
(g77
g63
NtRp4745
(dp4746
g66
(dp4747
sg75
g4728
sg68
(lp4748
g61
(g82
g63
NtRp4749
(dp4750
g66
(dp4751
sg75
g4745
sg68
(lp4752
g61
(g62
g63
NtRp4753
(dp4754
g66
(dp4755
g74
I3
ssg75
g4749
sg68
(lp4756
g104
asbasbasbag61
(g77
g63
NtRp4757
(dp4758
g66
(dp4759
sg75
g4728
sg68
(lp4760
g61
(g82
g63
NtRp4761
(dp4762
g66
(dp4763
sg75
g4757
sg68
(lp4764
g61
(g62
g63
NtRp4765
(dp4766
g66
(dp4767
g74
I3
ssg75
g4761
sg68
(lp4768
S'/show_distro'
p4769
asbasbasbag61
(g77
g63
NtRp4770
(dp4771
g66
(dp4772
sg75
g4728
sg68
(lp4773
g61
(g82
g63
NtRp4774
(dp4775
g66
(dp4776
sg75
g4770
sg68
(lp4777
g61
(g62
g63
NtRp4778
(dp4779
g66
(dp4780
g74
I3
ssg75
g4774
sg68
(lp4781
g61
(g70
g63
NtRp4782
(dp4783
g66
(dp4784
g74
I2
ssg75
Nsg68
(lp4785
sbasbasbasbasbasbasbasbag61
(g77
g63
NtRp4786
(dp4787
g66
(dp4788
sg75
g4571
sg68
(lp4789
g61
(g82
g63
NtRp4790
(dp4791
g66
(dp4792
sg75
g4786
sg68
(lp4793
g61
(g62
g63
NtRp4794
(dp4795
g66
(dp4796
g74
I4
ssg75
g4790
sg68
(lp4797
g61
(g70
g63
NtRp4798
(dp4799
g66
(dp4800
g74
I3
ssg75
Nsg68
(lp4801
g61
(g77
g63
NtRp4802
(dp4803
g66
(dp4804
sg75
g4798
sg68
(lp4805
g61
(g82
g63
NtRp4806
(dp4807
g66
(dp4808
sg75
g4802
sg68
(lp4809
g61
(g62
g63
NtRp4810
(dp4811
g66
(dp4812
g74
I3
ssg75
g4806
sg68
(lp4813
g4603
(S's\x05\x00\x00\x00+host'
tRp4814
asbasbasbag61
(g77
g63
NtRp4815
(dp4816
g66
(dp4817
sg75
g4798
sg68
(lp4818
g61
(g82
g63
NtRp4819
(dp4820
g66
(dp4821
sg75
g4815
sg68
(lp4822
g61
(g62
g63
NtRp4823
(dp4824
g66
(dp4825
g74
I3
ssg75
g4819
sg68
(lp4826
g104
asbasbasbag61
(g77
g63
NtRp4827
(dp4828
g66
(dp4829
sg75
g4798
sg68
(lp4830
g61
(g82
g63
NtRp4831
(dp4832
g66
(dp4833
sg75
g4827
sg68
(lp4834
g61
(g62
g63
NtRp4835
(dp4836
g66
(dp4837
g74
I3
ssg75
g4831
sg68
(lp4838
S'/interface'
p4839
asbasbasbag61
(g77
g63
NtRp4840
(dp4841
g66
(dp4842
sg75
g4798
sg68
(lp4843
g61
(g82
g63
NtRp4844
(dp4845
g66
(dp4846
sg75
g4840
sg68
(lp4847
g61
(g62
g63
NtRp4848
(dp4849
g66
(dp4850
g74
I3
ssg75
g4844
sg68
(lp4851
g61
(g70
g63
NtRp4852
(dp4853
g66
(dp4854
g74
I2
ssg75
Nsg68
(lp4855
sbasbasbasbasbasbasbasbasbasbasbasbag61
(g77
g63
NtRp4856
(dp4857
g66
(dp4858
sg75
g4070
sg68
(lp4859
g61
(g82
g63
NtRp4860
(dp4861
g66
(dp4862
g86
g87
ssg75
g4856
sg68
(lp4863
S'menu2'
p4864
asbag61
(g82
g63
NtRp4865
(dp4866
g66
(dp4867
g93
g94
ssg75
g4856
sg68
(lp4868
S':'
asbag61
(g82
g63
NtRp4869
(dp4870
g66
(dp4871
sg75
g4856
sg68
(lp4872
g61
(g62
g63
NtRp4873
(dp4874
g66
(dp4875
g74
I5
ssg75
g4869
sg68
(lp4876
g61
(g70
g63
NtRp4877
(dp4878
g66
(dp4879
g74
I4
ssg75
Nsg68
(lp4880
g61
(g77
g63
NtRp4881
(dp4882
g66
(dp4883
sg75
g4877
sg68
(lp4884
g61
(g82
g63
NtRp4885
(dp4886
g66
(dp4887
sg75
g4881
sg68
(lp4888
g61
(g62
g63
NtRp4889
(dp4890
g66
(dp4891
g74
I4
ssg75
g4885
sg68
(lp4892
g61
(g70
g63
NtRp4893
(dp4894
g66
(dp4895
g74
I3
ssg75
Nsg68
(lp4896
g61
(g77
g63
NtRp4897
(dp4898
g66
(dp4899
sg75
g4893
sg68
(lp4900
g61
(g82
g63
NtRp4901
(dp4902
g66
(dp4903
sg75
g4897
sg68
(lp4904
g61
(g62
g63
NtRp4905
(dp4906
g66
(dp4907
g74
I3
ssg75
g4901
sg68
(lp4908
g61
(g4543
g63
NtRp4909
(dp4910
g66
(dp4911
g4532
S'dropdown-toggle'
p4912
ssg75
Nsg68
(lp4913
S'Admin'
p4914
asbasbasbasbag61
(g77
g63
NtRp4915
(dp4916
g66
(dp4917
sg75
g4893
sg68
(lp4918
g61
(g82
g63
NtRp4919
(dp4920
g66
(dp4921
sg75
g4915
sg68
(lp4922
g61
(g62
g63
NtRp4923
(dp4924
g66
(dp4925
g74
I3
ssg75
g4919
sg68
(lp4926
g104
asbasbasbag61
(g77
g63
NtRp4927
(dp4928
g66
(dp4929
sg75
g4893
sg68
(lp4930
g61
(g82
g63
NtRp4931
(dp4932
g66
(dp4933
sg75
g4927
sg68
(lp4934
g61
(g62
g63
NtRp4935
(dp4936
g66
(dp4937
g74
I3
ssg75
g4931
sg68
(lp4938
S'#'
asbasbasbag61
(g77
g63
NtRp4939
(dp4940
g66
(dp4941
sg75
g4893
sg68
(lp4942
g61
(g82
g63
NtRp4943
(dp4944
g66
(dp4945
sg75
g4939
sg68
(lp4946
g61
(g62
g63
NtRp4947
(dp4948
g66
(dp4949
g74
I3
ssg75
g4943
sg68
(lp4950
g61
(g70
g63
NtRp4951
(dp4952
g66
(dp4953
g74
I2
ssg75
Nsg68
(lp4954
g61
(g77
g63
NtRp4955
(dp4956
g66
(dp4957
sg75
g4951
sg68
(lp4958
g61
(g82
g63
NtRp4959
(dp4960
g66
(dp4961
sg75
g4955
sg68
(lp4962
g61
(g62
g63
NtRp4963
(dp4964
g66
(dp4965
g74
I2
ssg75
g4959
sg68
(lp4966
g61
(g70
g63
NtRp4967
(dp4968
g66
(dp4969
g74
I1
ssg75
Nsg68
(lp4970
g61
(g77
g63
NtRp4971
(dp4972
g66
(dp4973
sg75
g4967
sg68
(lp4974
g61
(g82
g63
NtRp4975
(dp4976
g66
(dp4977
sg75
g4971
sg68
(lp4978
g61
(g62
g63
NtRp4979
(dp4980
g66
(dp4981
g74
I1
ssg75
g4975
sg68
(lp4982
g4603
(S's\t\x00\x00\x00Usu\xc3\xa1rios'
tRp4983
asbasbasbag61
(g77
g63
NtRp4984
(dp4985
g66
(dp4986
sg75
g4967
sg68
(lp4987
g61
(g82
g63
NtRp4988
(dp4989
g66
(dp4990
sg75
g4984
sg68
(lp4991
g61
(g62
g63
NtRp4992
(dp4993
g66
(dp4994
g74
I1
ssg75
g4988
sg68
(lp4995
I00
asbasbasbag61
(g77
g63
NtRp4996
(dp4997
g66
(dp4998
sg75
g4967
sg68
(lp4999
g61
(g82
g63
NtRp5000
(dp5001
g66
(dp5002
sg75
g4996
sg68
(lp5003
g61
(g62
g63
NtRp5004
(dp5005
g66
(dp5006
g74
I1
ssg75
g5000
sg68
(lp5007
S'/manager/users'
p5008
asbasbasbasbasbasbasbag61
(g77
g63
NtRp5009
(dp5010
g66
(dp5011
sg75
g4951
sg68
(lp5012
g61
(g82
g63
NtRp5013
(dp5014
g66
(dp5015
sg75
g5009
sg68
(lp5016
g61
(g62
g63
NtRp5017
(dp5018
g66
(dp5019
g74
I2
ssg75
g5013
sg68
(lp5020
g61
(g70
g63
NtRp5021
(dp5022
g66
(dp5023
g74
I1
ssg75
Nsg68
(lp5024
g61
(g77
g63
NtRp5025
(dp5026
g66
(dp5027
sg75
g5021
sg68
(lp5028
g61
(g82
g63
NtRp5029
(dp5030
g66
(dp5031
sg75
g5025
sg68
(lp5032
g61
(g62
g63
NtRp5033
(dp5034
g66
(dp5035
g74
I1
ssg75
g5029
sg68
(lp5036
g4603
(S't\x06\x00\x00\x00Grupos'
tRp5037
asbasbasbag61
(g77
g63
NtRp5038
(dp5039
g66
(dp5040
sg75
g5021
sg68
(lp5041
g61
(g82
g63
NtRp5042
(dp5043
g66
(dp5044
sg75
g5038
sg68
(lp5045
g61
(g62
g63
NtRp5046
(dp5047
g66
(dp5048
g74
I1
ssg75
g5042
sg68
(lp5049
I00
asbasbasbag61
(g77
g63
NtRp5050
(dp5051
g66
(dp5052
sg75
g5021
sg68
(lp5053
g61
(g82
g63
NtRp5054
(dp5055
g66
(dp5056
sg75
g5050
sg68
(lp5057
g61
(g62
g63
NtRp5058
(dp5059
g66
(dp5060
g74
I1
ssg75
g5054
sg68
(lp5061
S'/manager/groups'
p5062
asbasbasbasbasbasbasbag61
(g77
g63
NtRp5063
(dp5064
g66
(dp5065
sg75
g4951
sg68
(lp5066
g61
(g82
g63
NtRp5067
(dp5068
g66
(dp5069
sg75
g5063
sg68
(lp5070
g61
(g62
g63
NtRp5071
(dp5072
g66
(dp5073
g74
I2
ssg75
g5067
sg68
(lp5074
g61
(g70
g63
NtRp5075
(dp5076
g66
(dp5077
g74
I1
ssg75
Nsg68
(lp5078
g61
(g77
g63
NtRp5079
(dp5080
g66
(dp5081
sg75
g5075
sg68
(lp5082
g61
(g82
g63
NtRp5083
(dp5084
g66
(dp5085
sg75
g5079
sg68
(lp5086
g61
(g62
g63
NtRp5087
(dp5088
g66
(dp5089
g74
I1
ssg75
g5083
sg68
(lp5090
g4603
(S't\x07\x00\x00\x00Membros'
tRp5091
asbasbasbag61
(g77
g63
NtRp5092
(dp5093
g66
(dp5094
sg75
g5075
sg68
(lp5095
g61
(g82
g63
NtRp5096
(dp5097
g66
(dp5098
sg75
g5092
sg68
(lp5099
g61
(g62
g63
NtRp5100
(dp5101
g66
(dp5102
g74
I1
ssg75
g5096
sg68
(lp5103
I00
asbasbasbag61
(g77
g63
NtRp5104
(dp5105
g66
(dp5106
sg75
g5075
sg68
(lp5107
g61
(g82
g63
NtRp5108
(dp5109
g66
(dp5110
sg75
g5104
sg68
(lp5111
g61
(g62
g63
NtRp5112
(dp5113
g66
(dp5114
g74
I1
ssg75
g5108
sg68
(lp5115
S'/manager/membership'
p5116
asbasbasbasbasbasbasbasbasbasbasbasbasbasbasbag61
(g77
g63
NtRp5117
(dp5118
g66
(dp5119
sg75
g4877
sg68
(lp5120
g61
(g82
g63
NtRp5121
(dp5122
g66
(dp5123
sg75
g5117
sg68
(lp5124
g61
(g62
g63
NtRp5125
(dp5126
g66
(dp5127
g74
I4
ssg75
g5121
sg68
(lp5128
g61
(g70
g63
NtRp5129
(dp5130
g66
(dp5131
g74
I3
ssg75
Nsg68
(lp5132
g61
(g77
g63
NtRp5133
(dp5134
g66
(dp5135
sg75
g5129
sg68
(lp5136
g61
(g82
g63
NtRp5137
(dp5138
g66
(dp5139
sg75
g5133
sg68
(lp5140
g61
(g62
g63
NtRp5141
(dp5142
g66
(dp5143
g74
I3
ssg75
g5137
sg68
(lp5144
g61
(g4543
g63
NtRp5145
(dp5146
g66
(dp5147
g4532
g4912
ssg75
Nsg68
(lp5148
S'Login'
p5149
asbasbasbasbag61
(g77
g63
NtRp5150
(dp5151
g66
(dp5152
sg75
g5129
sg68
(lp5153
g61
(g82
g63
NtRp5154
(dp5155
g66
(dp5156
sg75
g5150
sg68
(lp5157
g61
(g62
g63
NtRp5158
(dp5159
g66
(dp5160
g74
I3
ssg75
g5154
sg68
(lp5161
g104
asbasbasbag61
(g77
g63
NtRp5162
(dp5163
g66
(dp5164
sg75
g5129
sg68
(lp5165
g61
(g82
g63
NtRp5166
(dp5167
g66
(dp5168
sg75
g5162
sg68
(lp5169
g61
(g62
g63
NtRp5170
(dp5171
g66
(dp5172
g74
I3
ssg75
g5166
sg68
(lp5173
S'#'
asbasbasbag61
(g77
g63
NtRp5174
(dp5175
g66
(dp5176
sg75
g5129
sg68
(lp5177
g61
(g82
g63
NtRp5178
(dp5179
g66
(dp5180
sg75
g5174
sg68
(lp5181
g61
(g62
g63
NtRp5182
(dp5183
g66
(dp5184
g74
I3
ssg75
g5178
sg68
(lp5185
g61
(g70
g63
NtRp5186
(dp5187
g66
(dp5188
g74
I2
ssg75
Nsg68
(lp5189
g61
(g77
g63
NtRp5190
(dp5191
g66
(dp5192
sg75
g5186
sg68
(lp5193
g61
(g82
g63
NtRp5194
(dp5195
g66
(dp5196
sg75
g5190
sg68
(lp5197
g61
(g62
g63
NtRp5198
(dp5199
g66
(dp5200
g74
I2
ssg75
g5194
sg68
(lp5201
g61
(g70
g63
NtRp5202
(dp5203
g66
(dp5204
g74
I1
ssg75
Nsg68
(lp5205
g61
(g77
g63
NtRp5206
(dp5207
g66
(dp5208
sg75
g5202
sg68
(lp5209
g61
(g82
g63
NtRp5210
(dp5211
g66
(dp5212
sg75
g5206
sg68
(lp5213
g61
(g62
g63
NtRp5214
(dp5215
g66
(dp5216
g74
I1
ssg75
g5210
sg68
(lp5217
g4603
(S't\x06\x00\x00\x00Logout'
tRp5218
asbasbasbag61
(g77
g63
NtRp5219
(dp5220
g66
(dp5221
sg75
g5202
sg68
(lp5222
g61
(g82
g63
NtRp5223
(dp5224
g66
(dp5225
sg75
g5219
sg68
(lp5226
g61
(g62
g63
NtRp5227
(dp5228
g66
(dp5229
g74
I1
ssg75
g5223
sg68
(lp5230
I00
asbasbasbag61
(g77
g63
NtRp5231
(dp5232
g66
(dp5233
sg75
g5202
sg68
(lp5234
g61
(g82
g63
NtRp5235
(dp5236
g66
(dp5237
sg75
g5231
sg68
(lp5238
g61
(g62
g63
NtRp5239
(dp5240
g66
(dp5241
g74
I1
ssg75
g5235
sg68
(lp5242
S'/initial/user/logout'
p5243
asbasbasbasbasbasbasbasbasbasbasbasbasbasbasbasbasbasbasbag61
(g77
g63
NtRp5244
(dp5245
g66
(dp5246
sg75
g4070
sg68
(lp5247
g61
(g82
g63
NtRp5248
(dp5249
g66
(dp5250
g86
g87
ssg75
g5244
sg68
(lp5251
S'meta'
p5252
asbag61
(g82
g63
NtRp5253
(dp5254
g66
(dp5255
g93
g94
ssg75
g5244
sg68
(lp5256
S':'
asbag61
(g82
g63
NtRp5257
(dp5258
g66
(dp5259
sg75
g5244
sg68
(lp5260
g61
(g62
g63
NtRp5261
(dp5262
g66
(dp5263
g74
I5
ssg75
g5257
sg68
(lp5264
g61
(g70
g63
NtRp5265
(dp5266
g66
(dp5267
g74
I4
ssg75
Nsg68
(lp5268
g61
(g77
g63
NtRp5269
(dp5270
g66
(dp5271
sg75
g5265
sg68
(lp5272
g61
(g82
g63
NtRp5273
(dp5274
g66
(dp5275
g86
g87
ssg75
g5269
sg68
(lp5276
S'author'
p5277
asbag61
(g82
g63
NtRp5278
(dp5279
g66
(dp5280
g93
g94
ssg75
g5269
sg68
(lp5281
S':'
asbag61
(g82
g63
NtRp5282
(dp5283
g66
(dp5284
sg75
g5269
sg68
(lp5285
g61
(g62
g63
NtRp5286
(dp5287
g66
(dp5288
g74
I4
ssg75
g5282
sg68
(lp5289
S'Your Name <you@example.com>'
p5290
asbasbasbag61
(g77
g63
NtRp5291
(dp5292
g66
(dp5293
sg75
g5265
sg68
(lp5294
g61
(g82
g63
NtRp5295
(dp5296
g66
(dp5297
g86
g87
ssg75
g5291
sg68
(lp5298
S'description'
p5299
asbag61
(g82
g63
NtRp5300
(dp5301
g66
(dp5302
g93
g94
ssg75
g5291
sg68
(lp5303
S':'
asbag61
(g82
g63
NtRp5304
(dp5305
g66
(dp5306
sg75
g5291
sg68
(lp5307
g61
(g62
g63
NtRp5308
(dp5309
g66
(dp5310
g74
I4
ssg75
g5304
sg68
(lp5311
S'a cool new app'
p5312
asbasbasbag61
(g77
g63
NtRp5313
(dp5314
g66
(dp5315
sg75
g5265
sg68
(lp5316
g61
(g82
g63
NtRp5317
(dp5318
g66
(dp5319
g86
g87
ssg75
g5313
sg68
(lp5320
S'generator'
p5321
asbag61
(g82
g63
NtRp5322
(dp5323
g66
(dp5324
g93
g94
ssg75
g5313
sg68
(lp5325
S':'
asbag61
(g82
g63
NtRp5326
(dp5327
g66
(dp5328
sg75
g5313
sg68
(lp5329
g61
(g62
g63
NtRp5330
(dp5331
g66
(dp5332
g74
I4
ssg75
g5326
sg68
(lp5333
S'Web2py Web Framework'
p5334
asbasbasbag61
(g77
g63
NtRp5335
(dp5336
g66
(dp5337
sg75
g5265
sg68
(lp5338
g61
(g82
g63
NtRp5339
(dp5340
g66
(dp5341
g86
g87
ssg75
g5335
sg68
(lp5342
S'keywords'
p5343
asbag61
(g82
g63
NtRp5344
(dp5345
g66
(dp5346
g93
g94
ssg75
g5335
sg68
(lp5347
S':'
asbag61
(g82
g63
NtRp5348
(dp5349
g66
(dp5350
sg75
g5335
sg68
(lp5351
g61
(g62
g63
NtRp5352
(dp5353
g66
(dp5354
g74
I4
ssg75
g5348
sg68
(lp5355
S'web2py, python, framework'
p5356
asbasbasbasbasbasbasbag61
(g77
g63
NtRp5357
(dp5358
g66
(dp5359
sg75
g4070
sg68
(lp5360
g61
(g82
g63
NtRp5361
(dp5362
g66
(dp5363
g86
g87
ssg75
g5357
sg68
(lp5364
S'models_to_run'
p5365
asbag61
(g82
g63
NtRp5366
(dp5367
g66
(dp5368
g93
g94
ssg75
g5357
sg68
(lp5369
S':'
asbag61
(g82
g63
NtRp5370
(dp5371
g66
(dp5372
sg75
g5357
sg68
(lp5373
g61
(g62
g63
NtRp5374
(dp5375
g66
(dp5376
g74
I5
ssg75
g5370
sg68
(lp5377
g61
(g70
g63
NtRp5378
(dp5379
g66
(dp5380
g74
I4
ssg75
Nsg68
(lp5381
g61
(g77
g63
NtRp5382
(dp5383
g66
(dp5384
sg75
g5378
sg68
(lp5385
g61
(g82
g63
NtRp5386
(dp5387
g66
(dp5388
sg75
g5382
sg68
(lp5389
g61
(g62
g63
NtRp5390
(dp5391
g66
(dp5392
g74
I4
ssg75
g5386
sg68
(lp5393
S'^\\w+\\.py$'
p5394
asbasbasbag61
(g77
g63
NtRp5395
(dp5396
g66
(dp5397
sg75
g5378
sg68
(lp5398
g61
(g82
g63
NtRp5399
(dp5400
g66
(dp5401
sg75
g5395
sg68
(lp5402
g61
(g62
g63
NtRp5403
(dp5404
g66
(dp5405
g74
I4
ssg75
g5399
sg68
(lp5406
S'^initial/\\w+\\.py$'
p5407
asbasbasbag61
(g77
g63
NtRp5408
(dp5409
g66
(dp5410
sg75
g5378
sg68
(lp5411
g61
(g82
g63
NtRp5412
(dp5413
g66
(dp5414
sg75
g5408
sg68
(lp5415
g61
(g62
g63
NtRp5416
(dp5417
g66
(dp5418
g74
I4
ssg75
g5412
sg68
(lp5419
S'^initial/show_cliente/\\w+\\.py$'
p5420
asbasbasbasbasbasbasbag61
(g77
g63
NtRp5421
(dp5422
g66
(dp5423
sg75
g4070
sg68
(lp5424
g61
(g82
g63
NtRp5425
(dp5426
g66
(dp5427
g86
g87
ssg75
g5421
sg68
(lp5428
S'postprocessing'
p5429
asbag61
(g82
g63
NtRp5430
(dp5431
g66
(dp5432
g93
g94
ssg75
g5421
sg68
(lp5433
S':'
asbag61
(g82
g63
NtRp5434
(dp5435
g66
(dp5436
sg75
g5421
sg68
(lp5437
g61
(g62
g63
NtRp5438
(dp5439
g66
(dp5440
g74
I5
ssg75
g5434
sg68
(lp5441
g61
(g70
g63
NtRp5442
(dp5443
g66
(dp5444
g74
I4
ssg75
Nsg68
(lp5445
sbasbasbasbag61
(g77
g63
NtRp5446
(dp5447
g66
(dp5448
sg75
g4070
sg68
(lp5449
g61
(g82
g63
NtRp5450
(dp5451
g66
(dp5452
g86
g87
ssg75
g5446
sg68
(lp5453
S'session_cookie_expires'
p5454
asbag61
(g82
g63
NtRp5455
(dp5456
g66
(dp5457
g93
g94
ssg75
g5446
sg68
(lp5458
S':'
asbag61
(g82
g63
NtRp5459
(dp5460
g66
(dp5461
sg75
g5446
sg68
(lp5462
g61
(g62
g63
NtRp5463
(dp5464
g66
(dp5465
g74
I5
ssg75
g5459
sg68
(lp5466
S'None'
p5467
asbasbasbag61
(g77
g63
NtRp5468
(dp5469
g66
(dp5470
sg75
g4070
sg68
(lp5471
g61
(g82
g63
NtRp5472
(dp5473
g66
(dp5474
g86
g87
ssg75
g5468
sg68
(lp5475
S'session_data_name'
p5476
asbag61
(g82
g63
NtRp5477
(dp5478
g66
(dp5479
g93
g94
ssg75
g5468
sg68
(lp5480
S':'
asbag61
(g82
g63
NtRp5481
(dp5482
g66
(dp5483
sg75
g5468
sg68
(lp5484
g61
(g62
g63
NtRp5485
(dp5486
g66
(dp5487
g74
I5
ssg75
g5481
sg68
(lp5488
S'session_data_projeto'
p5489
asbasbasbag61
(g77
g63
NtRp5490
(dp5491
g66
(dp5492
sg75
g4070
sg68
(lp5493
g61
(g82
g63
NtRp5494
(dp5495
g66
(dp5496
g86
g87
ssg75
g5490
sg68
(lp5497
S'session_file'
p5498
asbag61
(g82
g63
NtRp5499
(dp5500
g66
(dp5501
g93
g94
ssg75
g5490
sg68
(lp5502
S':'
asbag61
(g82
g63
NtRp5503
(dp5504
g66
(dp5505
sg75
g5490
sg68
(lp5506
g61
(g62
g63
NtRp5507
(dp5508
g66
(dp5509
g74
I5
ssg75
g5503
sg68
(lp5510
S"<open file '/var/www/conferencia/applications/projeto/sessions/127.0.0.1-001edd4c-cc9d-40b6-92aa-d3bbbc6019b5', mode 'rb+' at 0x7fe2b825fc00>"
p5511
asbasbasbag61
(g77
g63
NtRp5512
(dp5513
g66
(dp5514
sg75
g4070
sg68
(lp5515
g61
(g82
g63
NtRp5516
(dp5517
g66
(dp5518
g86
g87
ssg75
g5512
sg68
(lp5519
S'session_filename'
p5520
asbag61
(g82
g63
NtRp5521
(dp5522
g66
(dp5523
g93
g94
ssg75
g5512
sg68
(lp5524
S':'
asbag61
(g82
g63
NtRp5525
(dp5526
g66
(dp5527
sg75
g5512
sg68
(lp5528
g61
(g62
g63
NtRp5529
(dp5530
g66
(dp5531
g74
I5
ssg75
g5525
sg68
(lp5532
S'/var/www/conferencia/applications/projeto/sessions/127.0.0.1-001edd4c-cc9d-40b6-92aa-d3bbbc6019b5'
p5533
asbasbasbag61
(g77
g63
NtRp5534
(dp5535
g66
(dp5536
sg75
g4070
sg68
(lp5537
g61
(g82
g63
NtRp5538
(dp5539
g66
(dp5540
g86
g87
ssg75
g5534
sg68
(lp5541
S'session_id'
p5542
asbag61
(g82
g63
NtRp5543
(dp5544
g66
(dp5545
g93
g94
ssg75
g5534
sg68
(lp5546
S':'
asbag61
(g82
g63
NtRp5547
(dp5548
g66
(dp5549
sg75
g5534
sg68
(lp5550
g61
(g62
g63
NtRp5551
(dp5552
g66
(dp5553
g74
I5
ssg75
g5547
sg68
(lp5554
g505
asbasbasbag61
(g77
g63
NtRp5555
(dp5556
g66
(dp5557
sg75
g4070
sg68
(lp5558
g61
(g82
g63
NtRp5559
(dp5560
g66
(dp5561
g86
g87
ssg75
g5555
sg68
(lp5562
S'session_id_name'
p5563
asbag61
(g82
g63
NtRp5564
(dp5565
g66
(dp5566
g93
g94
ssg75
g5555
sg68
(lp5567
S':'
asbag61
(g82
g63
NtRp5568
(dp5569
g66
(dp5570
sg75
g5555
sg68
(lp5571
g61
(g62
g63
NtRp5572
(dp5573
g66
(dp5574
g74
I5
ssg75
g5568
sg68
(lp5575
g4127
asbasbasbag61
(g77
g63
NtRp5576
(dp5577
g66
(dp5578
sg75
g4070
sg68
(lp5579
g61
(g82
g63
NtRp5580
(dp5581
g66
(dp5582
g86
g87
ssg75
g5576
sg68
(lp5583
S'session_locked'
p5584
asbag61
(g82
g63
NtRp5585
(dp5586
g66
(dp5587
g93
g94
ssg75
g5576
sg68
(lp5588
S':'
asbag61
(g82
g63
NtRp5589
(dp5590
g66
(dp5591
sg75
g5576
sg68
(lp5592
g61
(g62
g63
NtRp5593
(dp5594
g66
(dp5595
g74
I5
ssg75
g5589
sg68
(lp5596
g1774
asbasbasbag61
(g77
g63
NtRp5597
(dp5598
g66
(dp5599
sg75
g4070
sg68
(lp5600
g61
(g82
g63
NtRp5601
(dp5602
g66
(dp5603
g86
g87
ssg75
g5597
sg68
(lp5604
S'session_new'
p5605
asbag61
(g82
g63
NtRp5606
(dp5607
g66
(dp5608
g93
g94
ssg75
g5597
sg68
(lp5609
S':'
asbag61
(g82
g63
NtRp5610
(dp5611
g66
(dp5612
sg75
g5597
sg68
(lp5613
g61
(g62
g63
NtRp5614
(dp5615
g66
(dp5616
g74
I5
ssg75
g5610
sg68
(lp5617
g104
asbasbasbag61
(g77
g63
NtRp5618
(dp5619
g66
(dp5620
sg75
g4070
sg68
(lp5621
g61
(g82
g63
NtRp5622
(dp5623
g66
(dp5624
g86
g87
ssg75
g5618
sg68
(lp5625
S'session_storage_type'
p5626
asbag61
(g82
g63
NtRp5627
(dp5628
g66
(dp5629
g93
g94
ssg75
g5618
sg68
(lp5630
S':'
asbag61
(g82
g63
NtRp5631
(dp5632
g66
(dp5633
sg75
g5618
sg68
(lp5634
g61
(g62
g63
NtRp5635
(dp5636
g66
(dp5637
g74
I5
ssg75
g5631
sg68
(lp5638
g3582
asbasbasbag61
(g77
g63
NtRp5639
(dp5640
g66
(dp5641
sg75
g4070
sg68
(lp5642
g61
(g82
g63
NtRp5643
(dp5644
g66
(dp5645
g86
g87
ssg75
g5639
sg68
(lp5646
S'status'
p5647
asbag61
(g82
g63
NtRp5648
(dp5649
g66
(dp5650
g93
g94
ssg75
g5639
sg68
(lp5651
S':'
asbag61
(g82
g63
NtRp5652
(dp5653
g66
(dp5654
sg75
g5639
sg68
(lp5655
g61
(g62
g63
NtRp5656
(dp5657
g66
(dp5658
g74
I5
ssg75
g5652
sg68
(lp5659
S'200'
p5660
asbasbasbag61
(g77
g63
NtRp5661
(dp5662
g66
(dp5663
sg75
g4070
sg68
(lp5664
g61
(g82
g63
NtRp5665
(dp5666
g66
(dp5667
g86
g87
ssg75
g5661
sg68
(lp5668
S'subtitle'
p5669
asbag61
(g82
g63
NtRp5670
(dp5671
g66
(dp5672
g93
g94
ssg75
g5661
sg68
(lp5673
S':'
asbag61
(g82
g63
NtRp5674
(dp5675
g66
(dp5676
sg75
g5661
sg68
(lp5677
g61
(g62
g63
NtRp5678
(dp5679
g66
(dp5680
g74
I5
ssg75
g5674
sg68
(lp5681
g4603
(S's\r\x00\x00\x00customize me!'
tRp5682
asbasbasbag61
(g77
g63
NtRp5683
(dp5684
g66
(dp5685
sg75
g4070
sg68
(lp5686
g61
(g82
g63
NtRp5687
(dp5688
g66
(dp5689
g86
g87
ssg75
g5683
sg68
(lp5690
S'title'
p5691
asbag61
(g82
g63
NtRp5692
(dp5693
g66
(dp5694
g93
g94
ssg75
g5683
sg68
(lp5695
S':'
asbag61
(g82
g63
NtRp5696
(dp5697
g66
(dp5698
sg75
g5683
sg68
(lp5699
g61
(g62
g63
NtRp5700
(dp5701
g66
(dp5702
g74
I5
ssg75
g5696
sg68
(lp5703
S'Eventos'
p5704
asbasbasbag61
(g77
g63
NtRp5705
(dp5706
g66
(dp5707
sg75
g4070
sg68
(lp5708
g61
(g82
g63
NtRp5709
(dp5710
g66
(dp5711
g86
g87
ssg75
g5705
sg68
(lp5712
S'view'
p5713
asbag61
(g82
g63
NtRp5714
(dp5715
g66
(dp5716
g93
g94
ssg75
g5705
sg68
(lp5717
S':'
asbag61
(g82
g63
NtRp5718
(dp5719
g66
(dp5720
sg75
g5705
sg68
(lp5721
g61
(g62
g63
NtRp5722
(dp5723
g66
(dp5724
g74
I5
ssg75
g5718
sg68
(lp5725
S'initial/show_cliente.html'
p5726
asbasbasbasbasbsS'locals'
p5727
(dp5728
S'exc'
p5729
S'ProgrammingError(\'ERROR\', \'42P01\', \'relation "meetme_id_seq" does not exist\')'
p5730
sS'msg_class'
p5731
S"<class 'gluon.contrib.pg8000.protocol.RowDescription'>"
p5732
sS'self'
p5733
S'<gluon.contrib.pg8000.protocol.MessageReader object>'
p5734
sg46
S'()'
p5735
sS'handler'
p5736
S'<function <lambda>>'
p5737
sS'kwargs'
p5738
g21
sS'msg'
p5739
S'<ErrorResponse ERROR 42P01 \'relation "meetme_id_seq" does not exist\'>'
p5740
sS'msg_handled'
p5741
g104
sssS'traceback'
p5742
S'Traceback (most recent call last):\n  File "/var/www/conferencia/gluon/restricted.py", line 212, in restricted\n    exec ccode in environment\n  File "/var/www/conferencia/applications/projeto/controllers/initial.py", line 324, in <module>\n  File "/var/www/conferencia/gluon/globals.py", line 193, in <lambda>\n    self._caller = lambda f: f()\n  File "/var/www/conferencia/applications/projeto/controllers/initial.py", line 14, in show_cliente\n    links=[lambda row: A(\'Editar\',\n  File "/var/www/conferencia/gluon/sqlhtml.py", line 1881, in grid\n    onsuccess=oncreate)\n  File "/var/www/conferencia/gluon/html.py", line 2179, in process\n    self.validate(**kwargs)\n  File "/var/www/conferencia/gluon/html.py", line 2118, in validate\n    if self.accepts(**kwargs):\n  File "/var/www/conferencia/gluon/sqlhtml.py", line 1486, in accepts\n    self.vars.id = self.table.insert(**fields)\n  File "/var/www/conferencia/gluon/dal.py", line 7918, in insert\n    ret =  self._db._adapter.insert(self,self._listify(fields))\n  File "/var/www/conferencia/gluon/dal.py", line 1180, in insert\n    id = self.lastrowid(table)\n  File "/var/www/conferencia/gluon/dal.py", line 2537, in lastrowid\n    self.execute("select currval(\'%s\')" % table._sequence_name)\n  File "/var/www/conferencia/gluon/dal.py", line 1709, in execute\n    return self.log_execute(*a, **b)\n  File "/var/www/conferencia/gluon/dal.py", line 1703, in log_execute\n    ret = self.cursor.execute(*a, **b)\n  File "/var/www/conferencia/gluon/contrib/pg8000/dbapi.py", line 246, in _fn\n    return fn(self, *args, **kwargs)\n  File "/var/www/conferencia/gluon/contrib/pg8000/dbapi.py", line 317, in execute\n    self._execute(operation, args)\n  File "/var/www/conferencia/gluon/contrib/pg8000/dbapi.py", line 322, in _execute\n    self.cursor.execute(new_query, *new_args)\n  File "/var/www/conferencia/gluon/contrib/pg8000/interface.py", line 398, in execute\n    self._stmt = PreparedStatement(self.connection, query, statement_name="", *[{"type": type(x), "value": x} for x in args])\n  File "/var/www/conferencia/gluon/contrib/pg8000/interface.py", line 138, in __init__\n    self._parse_row_desc = self.c.parse(self._statement_name, statement, types)\n  File "/var/www/conferencia/gluon/contrib/pg8000/protocol.py", line 943, in _fn\n    return fn(self, *args, **kwargs)\n  File "/var/www/conferencia/gluon/contrib/pg8000/protocol.py", line 1104, in parse\n    return reader.handle_messages()\n  File "/var/www/conferencia/gluon/contrib/pg8000/protocol.py", line 929, in handle_messages\n    raise exc\nProgrammingError: (\'ERROR\', \'42P01\', \'relation "meetme_id_seq" does not exist\')\n'
p5743
s.