(dp1
S'output'
p2
S'<class \'gluon.contrib.pg8000.errors.ProgrammingError\'> (\'ERROR\', \'42P16\', \'multiple primary keys for table "meetme" are not allowed\')'
p3
sS'layer'
p4
S'/var/www/conferencia/applications/projeto/models/models.py'
p5
sS'code'
p6
S'usuario = db.define_table("usuario",\n      Field("nome", notnull=True, unique=True),\n      Field("pin"),\n      Field("email"),\n      #auth.signature\n      format="%(nome)s")\n\n\nmeetme = db.define_table("meetme",\n      Field("confno", type=\'id\'), \n      Field("starttime", "datetime"),\n      Field("endtime", "datetime"),\n      Field("membros_user", \'list:reference usuario\'),\n      primarykey=[\'confno\']\n      )\n\n\n\n'
p7
sS'snapshot'
p8
(dp9
S'exception'
p10
(dp11
S'__module__'
p12
S"'gluon.contrib.pg8000.errors'"
p13
sS'__getslice__'
p14
S"<method-wrapper '__getslice__' of ProgrammingError object>"
p15
sS'__str__'
p16
S"<method-wrapper '__str__' of ProgrammingError object>"
p17
sS'__reduce__'
p18
S'<built-in method __reduce__ of ProgrammingError object>'
p19
sS'__dict__'
p20
S'{}'
p21
sS'__sizeof__'
p22
S'<built-in method __sizeof__ of ProgrammingError object>'
p23
sS'__weakref__'
p24
S'None'
p25
sS'__init__'
p26
S"<method-wrapper '__init__' of ProgrammingError object>"
p27
sS'__setattr__'
p28
S"<method-wrapper '__setattr__' of ProgrammingError object>"
p29
sS'__reduce_ex__'
p30
S'<built-in method __reduce_ex__ of ProgrammingError object>'
p31
sS'__new__'
p32
S'<built-in method __new__ of type object>'
p33
sS'__format__'
p34
S'<built-in method __format__ of ProgrammingError object>'
p35
sS'__class__'
p36
S"<class 'gluon.contrib.pg8000.errors.ProgrammingError'>"
p37
sS'__doc__'
p38
S'None'
p39
sS'__getitem__'
p40
S"<method-wrapper '__getitem__' of ProgrammingError object>"
p41
sS'__setstate__'
p42
S'<built-in method __setstate__ of ProgrammingError object>'
p43
sS'__getattribute__'
p44
S"<method-wrapper '__getattribute__' of ProgrammingError object>"
p45
sS'args'
p46
S'(\'ERROR\', \'42P16\', \'multiple primary keys for table "meetme" are not allowed\')'
p47
sS'__subclasshook__'
p48
S'<built-in method __subclasshook__ of type object>'
p49
sS'__unicode__'
p50
S'<built-in method __unicode__ of ProgrammingError object>'
p51
sS'__delattr__'
p52
S"<method-wrapper '__delattr__' of ProgrammingError object>"
p53
sS'__repr__'
p54
S"<method-wrapper '__repr__' of ProgrammingError object>"
p55
sS'__hash__'
p56
S"<method-wrapper '__hash__' of ProgrammingError object>"
p57
ssS'evalue'
p58
S'(\'ERROR\', \'42P16\', \'multiple primary keys for table "meetme" are not allowed\')'
p59
sS'request'
p60
ccopy_reg
_reconstructor
p61
(cgluon.html
BEAUTIFY
p62
c__builtin__
object
p63
NtRp64
(dp65
S'attributes'
p66
(dp67
sS'components'
p68
(lp69
g61
(cgluon.html
TABLE
p70
g63
NtRp71
(dp72
g66
(dp73
S'level'
p74
I5
ssS'parent'
p75
Nsg68
(lp76
g61
(cgluon.html
TR
p77
g63
NtRp78
(dp79
g66
(dp80
sg75
g71
sg68
(lp81
g61
(cgluon.html
TD
p82
g63
NtRp83
(dp84
g66
(dp85
S'_style'
p86
S'font-weight:bold;vertical-align:top'
p87
ssg75
g78
sg68
(lp88
S'ajax'
p89
asbag61
(g82
g63
NtRp90
(dp91
g66
(dp92
S'_valign'
p93
S'top'
p94
ssg75
g78
sg68
(lp95
S':'
asbag61
(g82
g63
NtRp96
(dp97
g66
(dp98
sg75
g78
sg68
(lp99
g61
(g62
g63
NtRp100
(dp101
g66
(dp102
g74
I5
ssg75
g96
sg68
(lp103
S'False'
p104
asbasbasbag61
(g77
g63
NtRp105
(dp106
g66
(dp107
sg75
g71
sg68
(lp108
g61
(g82
g63
NtRp109
(dp110
g66
(dp111
g86
g87
ssg75
g105
sg68
(lp112
S'application'
p113
asbag61
(g82
g63
NtRp114
(dp115
g66
(dp116
g93
g94
ssg75
g105
sg68
(lp117
S':'
asbag61
(g82
g63
NtRp118
(dp119
g66
(dp120
sg75
g105
sg68
(lp121
g61
(g62
g63
NtRp122
(dp123
g66
(dp124
g74
I5
ssg75
g118
sg68
(lp125
S'projeto'
p126
asbasbasbag61
(g77
g63
NtRp127
(dp128
g66
(dp129
sg75
g71
sg68
(lp130
g61
(g82
g63
NtRp131
(dp132
g66
(dp133
g86
g87
ssg75
g127
sg68
(lp134
g46
asbag61
(g82
g63
NtRp135
(dp136
g66
(dp137
g93
g94
ssg75
g127
sg68
(lp138
S':'
asbag61
(g82
g63
NtRp139
(dp140
g66
(dp141
sg75
g127
sg68
(lp142
g61
(g62
g63
NtRp143
(dp144
g66
(dp145
g74
I5
ssg75
g139
sg68
(lp146
g61
(g70
g63
NtRp147
(dp148
g66
(dp149
g74
I4
ssg75
Nsg68
(lp150
sbasbasbasbag61
(g77
g63
NtRp151
(dp152
g66
(dp153
sg75
g71
sg68
(lp154
g61
(g82
g63
NtRp155
(dp156
g66
(dp157
g86
g87
ssg75
g151
sg68
(lp158
S'body'
p159
asbag61
(g82
g63
NtRp160
(dp161
g66
(dp162
g93
g94
ssg75
g151
sg68
(lp163
S':'
asbag61
(g82
g63
NtRp164
(dp165
g66
(dp166
sg75
g151
sg68
(lp167
g61
(g62
g63
NtRp168
(dp169
g66
(dp170
g74
I5
ssg75
g164
sg68
(lp171
S'<cStringIO.StringO object at 0x1ee2260>'
p172
asbasbasbag61
(g77
g63
NtRp173
(dp174
g66
(dp175
sg75
g71
sg68
(lp176
g61
(g82
g63
NtRp177
(dp178
g66
(dp179
g86
g87
ssg75
g173
sg68
(lp180
S'cid'
p181
asbag61
(g82
g63
NtRp182
(dp183
g66
(dp184
g93
g94
ssg75
g173
sg68
(lp185
S':'
asbag61
(g82
g63
NtRp186
(dp187
g66
(dp188
sg75
g173
sg68
(lp189
g61
(g62
g63
NtRp190
(dp191
g66
(dp192
g74
I5
ssg75
g186
sg68
(lp193
S'None'
p194
asbasbasbag61
(g77
g63
NtRp195
(dp196
g66
(dp197
sg75
g71
sg68
(lp198
g61
(g82
g63
NtRp199
(dp200
g66
(dp201
g86
g87
ssg75
g195
sg68
(lp202
S'client'
p203
asbag61
(g82
g63
NtRp204
(dp205
g66
(dp206
g93
g94
ssg75
g195
sg68
(lp207
S':'
asbag61
(g82
g63
NtRp208
(dp209
g66
(dp210
sg75
g195
sg68
(lp211
g61
(g62
g63
NtRp212
(dp213
g66
(dp214
g74
I5
ssg75
g208
sg68
(lp215
S'127.0.0.1'
p216
asbasbasbag61
(g77
g63
NtRp217
(dp218
g66
(dp219
sg75
g71
sg68
(lp220
g61
(g82
g63
NtRp221
(dp222
g66
(dp223
g86
g87
ssg75
g217
sg68
(lp224
S'controller'
p225
asbag61
(g82
g63
NtRp226
(dp227
g66
(dp228
g93
g94
ssg75
g217
sg68
(lp229
S':'
asbag61
(g82
g63
NtRp230
(dp231
g66
(dp232
sg75
g217
sg68
(lp233
g61
(g62
g63
NtRp234
(dp235
g66
(dp236
g74
I5
ssg75
g230
sg68
(lp237
S'initial'
p238
asbasbasbag61
(g77
g63
NtRp239
(dp240
g66
(dp241
sg75
g71
sg68
(lp242
g61
(g82
g63
NtRp243
(dp244
g66
(dp245
g86
g87
ssg75
g239
sg68
(lp246
S'cookies'
p247
asbag61
(g82
g63
NtRp248
(dp249
g66
(dp250
g93
g94
ssg75
g239
sg68
(lp251
S':'
asbag61
(g82
g63
NtRp252
(dp253
g66
(dp254
sg75
g239
sg68
(lp255
g61
(g62
g63
NtRp256
(dp257
g66
(dp258
g74
I5
ssg75
g252
sg68
(lp259
g61
(g70
g63
NtRp260
(dp261
g66
(dp262
g74
I4
ssg75
Nsg68
(lp263
g61
(g77
g63
NtRp264
(dp265
g66
(dp266
sg75
g260
sg68
(lp267
g61
(g82
g63
NtRp268
(dp269
g66
(dp270
g86
g87
ssg75
g264
sg68
(lp271
S'session_id_admin'
p272
asbag61
(g82
g63
NtRp273
(dp274
g66
(dp275
g93
g94
ssg75
g264
sg68
(lp276
S':'
asbag61
(g82
g63
NtRp277
(dp278
g66
(dp279
sg75
g264
sg68
(lp280
g61
(g62
g63
NtRp281
(dp282
g66
(dp283
g74
I4
ssg75
g277
sg68
(lp284
S'127.0.0.1-f08163e7-63a0-4e97-8334-13b9dc892d78'
p285
ag61
(g70
g63
NtRp286
(dp287
g66
(dp288
g74
I3
ssg75
Nsg68
(lp289
g61
(g77
g63
NtRp290
(dp291
g66
(dp292
sg75
g286
sg68
(lp293
g61
(g82
g63
NtRp294
(dp295
g66
(dp296
g86
g87
ssg75
g290
sg68
(lp297
S'comment'
p298
asbag61
(g82
g63
NtRp299
(dp300
g66
(dp301
g93
g94
ssg75
g290
sg68
(lp302
S':'
asbag61
(g82
g63
NtRp303
(dp304
g66
(dp305
sg75
g290
sg68
(lp306
g61
(g62
g63
NtRp307
(dp308
g66
(dp309
g74
I3
ssg75
g303
sg68
(lp310
S''
asbasbasbag61
(g77
g63
NtRp311
(dp312
g66
(dp313
sg75
g286
sg68
(lp314
g61
(g82
g63
NtRp315
(dp316
g66
(dp317
g86
g87
ssg75
g311
sg68
(lp318
S'domain'
p319
asbag61
(g82
g63
NtRp320
(dp321
g66
(dp322
g93
g94
ssg75
g311
sg68
(lp323
S':'
asbag61
(g82
g63
NtRp324
(dp325
g66
(dp326
sg75
g311
sg68
(lp327
g61
(g62
g63
NtRp328
(dp329
g66
(dp330
g74
I3
ssg75
g324
sg68
(lp331
S''
asbasbasbag61
(g77
g63
NtRp332
(dp333
g66
(dp334
sg75
g286
sg68
(lp335
g61
(g82
g63
NtRp336
(dp337
g66
(dp338
g86
g87
ssg75
g332
sg68
(lp339
S'expires'
p340
asbag61
(g82
g63
NtRp341
(dp342
g66
(dp343
g93
g94
ssg75
g332
sg68
(lp344
S':'
asbag61
(g82
g63
NtRp345
(dp346
g66
(dp347
sg75
g332
sg68
(lp348
g61
(g62
g63
NtRp349
(dp350
g66
(dp351
g74
I3
ssg75
g345
sg68
(lp352
S''
asbasbasbag61
(g77
g63
NtRp353
(dp354
g66
(dp355
sg75
g286
sg68
(lp356
g61
(g82
g63
NtRp357
(dp358
g66
(dp359
g86
g87
ssg75
g353
sg68
(lp360
S'httponly'
p361
asbag61
(g82
g63
NtRp362
(dp363
g66
(dp364
g93
g94
ssg75
g353
sg68
(lp365
S':'
asbag61
(g82
g63
NtRp366
(dp367
g66
(dp368
sg75
g353
sg68
(lp369
g61
(g62
g63
NtRp370
(dp371
g66
(dp372
g74
I3
ssg75
g366
sg68
(lp373
S''
asbasbasbag61
(g77
g63
NtRp374
(dp375
g66
(dp376
sg75
g286
sg68
(lp377
g61
(g82
g63
NtRp378
(dp379
g66
(dp380
g86
g87
ssg75
g374
sg68
(lp381
S'max-age'
p382
asbag61
(g82
g63
NtRp383
(dp384
g66
(dp385
g93
g94
ssg75
g374
sg68
(lp386
S':'
asbag61
(g82
g63
NtRp387
(dp388
g66
(dp389
sg75
g374
sg68
(lp390
g61
(g62
g63
NtRp391
(dp392
g66
(dp393
g74
I3
ssg75
g387
sg68
(lp394
S''
asbasbasbag61
(g77
g63
NtRp395
(dp396
g66
(dp397
sg75
g286
sg68
(lp398
g61
(g82
g63
NtRp399
(dp400
g66
(dp401
g86
g87
ssg75
g395
sg68
(lp402
S'path'
p403
asbag61
(g82
g63
NtRp404
(dp405
g66
(dp406
g93
g94
ssg75
g395
sg68
(lp407
S':'
asbag61
(g82
g63
NtRp408
(dp409
g66
(dp410
sg75
g395
sg68
(lp411
g61
(g62
g63
NtRp412
(dp413
g66
(dp414
g74
I3
ssg75
g408
sg68
(lp415
S''
asbasbasbag61
(g77
g63
NtRp416
(dp417
g66
(dp418
sg75
g286
sg68
(lp419
g61
(g82
g63
NtRp420
(dp421
g66
(dp422
g86
g87
ssg75
g416
sg68
(lp423
S'secure'
p424
asbag61
(g82
g63
NtRp425
(dp426
g66
(dp427
g93
g94
ssg75
g416
sg68
(lp428
S':'
asbag61
(g82
g63
NtRp429
(dp430
g66
(dp431
sg75
g416
sg68
(lp432
g61
(g62
g63
NtRp433
(dp434
g66
(dp435
g74
I3
ssg75
g429
sg68
(lp436
S''
asbasbasbag61
(g77
g63
NtRp437
(dp438
g66
(dp439
sg75
g286
sg68
(lp440
g61
(g82
g63
NtRp441
(dp442
g66
(dp443
g86
g87
ssg75
g437
sg68
(lp444
S'version'
p445
asbag61
(g82
g63
NtRp446
(dp447
g66
(dp448
g93
g94
ssg75
g437
sg68
(lp449
S':'
asbag61
(g82
g63
NtRp450
(dp451
g66
(dp452
sg75
g437
sg68
(lp453
g61
(g62
g63
NtRp454
(dp455
g66
(dp456
g74
I3
ssg75
g450
sg68
(lp457
S''
asbasbasbasbasbasbasbag61
(g77
g63
NtRp458
(dp459
g66
(dp460
sg75
g260
sg68
(lp461
g61
(g82
g63
NtRp462
(dp463
g66
(dp464
g86
g87
ssg75
g458
sg68
(lp465
S'session_id_projeto'
p466
asbag61
(g82
g63
NtRp467
(dp468
g66
(dp469
g93
g94
ssg75
g458
sg68
(lp470
S':'
asbag61
(g82
g63
NtRp471
(dp472
g66
(dp473
sg75
g458
sg68
(lp474
g61
(g62
g63
NtRp475
(dp476
g66
(dp477
g74
I4
ssg75
g471
sg68
(lp478
S'127.0.0.1-0fe02c32-0739-4f06-a369-3bba6377da8b'
p479
ag61
(g70
g63
NtRp480
(dp481
g66
(dp482
g74
I3
ssg75
Nsg68
(lp483
g61
(g77
g63
NtRp484
(dp485
g66
(dp486
sg75
g480
sg68
(lp487
g61
(g82
g63
NtRp488
(dp489
g66
(dp490
g86
g87
ssg75
g484
sg68
(lp491
g298
asbag61
(g82
g63
NtRp492
(dp493
g66
(dp494
g93
g94
ssg75
g484
sg68
(lp495
S':'
asbag61
(g82
g63
NtRp496
(dp497
g66
(dp498
sg75
g484
sg68
(lp499
g61
(g62
g63
NtRp500
(dp501
g66
(dp502
g74
I3
ssg75
g496
sg68
(lp503
S''
asbasbasbag61
(g77
g63
NtRp504
(dp505
g66
(dp506
sg75
g480
sg68
(lp507
g61
(g82
g63
NtRp508
(dp509
g66
(dp510
g86
g87
ssg75
g504
sg68
(lp511
g319
asbag61
(g82
g63
NtRp512
(dp513
g66
(dp514
g93
g94
ssg75
g504
sg68
(lp515
S':'
asbag61
(g82
g63
NtRp516
(dp517
g66
(dp518
sg75
g504
sg68
(lp519
g61
(g62
g63
NtRp520
(dp521
g66
(dp522
g74
I3
ssg75
g516
sg68
(lp523
S''
asbasbasbag61
(g77
g63
NtRp524
(dp525
g66
(dp526
sg75
g480
sg68
(lp527
g61
(g82
g63
NtRp528
(dp529
g66
(dp530
g86
g87
ssg75
g524
sg68
(lp531
g340
asbag61
(g82
g63
NtRp532
(dp533
g66
(dp534
g93
g94
ssg75
g524
sg68
(lp535
S':'
asbag61
(g82
g63
NtRp536
(dp537
g66
(dp538
sg75
g524
sg68
(lp539
g61
(g62
g63
NtRp540
(dp541
g66
(dp542
g74
I3
ssg75
g536
sg68
(lp543
S''
asbasbasbag61
(g77
g63
NtRp544
(dp545
g66
(dp546
sg75
g480
sg68
(lp547
g61
(g82
g63
NtRp548
(dp549
g66
(dp550
g86
g87
ssg75
g544
sg68
(lp551
g361
asbag61
(g82
g63
NtRp552
(dp553
g66
(dp554
g93
g94
ssg75
g544
sg68
(lp555
S':'
asbag61
(g82
g63
NtRp556
(dp557
g66
(dp558
sg75
g544
sg68
(lp559
g61
(g62
g63
NtRp560
(dp561
g66
(dp562
g74
I3
ssg75
g556
sg68
(lp563
S''
asbasbasbag61
(g77
g63
NtRp564
(dp565
g66
(dp566
sg75
g480
sg68
(lp567
g61
(g82
g63
NtRp568
(dp569
g66
(dp570
g86
g87
ssg75
g564
sg68
(lp571
g382
asbag61
(g82
g63
NtRp572
(dp573
g66
(dp574
g93
g94
ssg75
g564
sg68
(lp575
S':'
asbag61
(g82
g63
NtRp576
(dp577
g66
(dp578
sg75
g564
sg68
(lp579
g61
(g62
g63
NtRp580
(dp581
g66
(dp582
g74
I3
ssg75
g576
sg68
(lp583
S''
asbasbasbag61
(g77
g63
NtRp584
(dp585
g66
(dp586
sg75
g480
sg68
(lp587
g61
(g82
g63
NtRp588
(dp589
g66
(dp590
g86
g87
ssg75
g584
sg68
(lp591
g403
asbag61
(g82
g63
NtRp592
(dp593
g66
(dp594
g93
g94
ssg75
g584
sg68
(lp595
S':'
asbag61
(g82
g63
NtRp596
(dp597
g66
(dp598
sg75
g584
sg68
(lp599
g61
(g62
g63
NtRp600
(dp601
g66
(dp602
g74
I3
ssg75
g596
sg68
(lp603
S''
asbasbasbag61
(g77
g63
NtRp604
(dp605
g66
(dp606
sg75
g480
sg68
(lp607
g61
(g82
g63
NtRp608
(dp609
g66
(dp610
g86
g87
ssg75
g604
sg68
(lp611
g424
asbag61
(g82
g63
NtRp612
(dp613
g66
(dp614
g93
g94
ssg75
g604
sg68
(lp615
S':'
asbag61
(g82
g63
NtRp616
(dp617
g66
(dp618
sg75
g604
sg68
(lp619
g61
(g62
g63
NtRp620
(dp621
g66
(dp622
g74
I3
ssg75
g616
sg68
(lp623
S''
asbasbasbag61
(g77
g63
NtRp624
(dp625
g66
(dp626
sg75
g480
sg68
(lp627
g61
(g82
g63
NtRp628
(dp629
g66
(dp630
g86
g87
ssg75
g624
sg68
(lp631
g445
asbag61
(g82
g63
NtRp632
(dp633
g66
(dp634
g93
g94
ssg75
g624
sg68
(lp635
S':'
asbag61
(g82
g63
NtRp636
(dp637
g66
(dp638
sg75
g624
sg68
(lp639
g61
(g62
g63
NtRp640
(dp641
g66
(dp642
g74
I3
ssg75
g636
sg68
(lp643
S''
asbasbasbasbasbasbasbasbasbasbasbag61
(g77
g63
NtRp644
(dp645
g66
(dp646
sg75
g71
sg68
(lp647
g61
(g82
g63
NtRp648
(dp649
g66
(dp650
g86
g87
ssg75
g644
sg68
(lp651
S'env'
p652
asbag61
(g82
g63
NtRp653
(dp654
g66
(dp655
g93
g94
ssg75
g644
sg68
(lp656
S':'
asbag61
(g82
g63
NtRp657
(dp658
g66
(dp659
sg75
g644
sg68
(lp660
g61
(g62
g63
NtRp661
(dp662
g66
(dp663
g74
I5
ssg75
g657
sg68
(lp664
g61
(g70
g63
NtRp665
(dp666
g66
(dp667
g74
I4
ssg75
Nsg68
(lp668
g61
(g77
g63
NtRp669
(dp670
g66
(dp671
sg75
g665
sg68
(lp672
g61
(g82
g63
NtRp673
(dp674
g66
(dp675
g86
g87
ssg75
g669
sg68
(lp676
S'app_folders'
p677
asbag61
(g82
g63
NtRp678
(dp679
g66
(dp680
g93
g94
ssg75
g669
sg68
(lp681
S':'
asbag61
(g82
g63
NtRp682
(dp683
g66
(dp684
sg75
g669
sg68
(lp685
g61
(g62
g63
NtRp686
(dp687
g66
(dp688
g74
I4
ssg75
g682
sg68
(lp689
S"set(['/var/www/conferencia/applications/projeto/'])"
p690
asbasbasbag61
(g77
g63
NtRp691
(dp692
g66
(dp693
sg75
g665
sg68
(lp694
g61
(g82
g63
NtRp695
(dp696
g66
(dp697
g86
g87
ssg75
g691
sg68
(lp698
S'applications_parent'
p699
asbag61
(g82
g63
NtRp700
(dp701
g66
(dp702
g93
g94
ssg75
g691
sg68
(lp703
S':'
asbag61
(g82
g63
NtRp704
(dp705
g66
(dp706
sg75
g691
sg68
(lp707
g61
(g62
g63
NtRp708
(dp709
g66
(dp710
g74
I4
ssg75
g704
sg68
(lp711
S'/var/www/conferencia'
p712
asbasbasbag61
(g77
g63
NtRp713
(dp714
g66
(dp715
sg75
g665
sg68
(lp716
g61
(g82
g63
NtRp717
(dp718
g66
(dp719
g86
g87
ssg75
g713
sg68
(lp720
S'cmd_args'
p721
asbag61
(g82
g63
NtRp722
(dp723
g66
(dp724
g93
g94
ssg75
g713
sg68
(lp725
S':'
asbag61
(g82
g63
NtRp726
(dp727
g66
(dp728
sg75
g713
sg68
(lp729
g61
(g62
g63
NtRp730
(dp731
g66
(dp732
g74
I4
ssg75
g726
sg68
(lp733
g61
(g70
g63
NtRp734
(dp735
g66
(dp736
g74
I3
ssg75
Nsg68
(lp737
sbasbasbasbag61
(g77
g63
NtRp738
(dp739
g66
(dp740
sg75
g665
sg68
(lp741
g61
(g82
g63
NtRp742
(dp743
g66
(dp744
g86
g87
ssg75
g738
sg68
(lp745
S'cmd_options'
p746
asbag61
(g82
g63
NtRp747
(dp748
g66
(dp749
g93
g94
ssg75
g738
sg68
(lp750
S':'
asbag61
(g82
g63
NtRp751
(dp752
g66
(dp753
sg75
g738
sg68
(lp754
g61
(g62
g63
NtRp755
(dp756
g66
(dp757
g74
I4
ssg75
g751
sg68
(lp758
S"<Values at 0x1ea6248: {'verbose': False, 'ip': '127.0.0.1', 'with_scheduler': False, 'ips': [], 'shutdown_timeout': 5, 'taskbar': False, 'port': 8000, 'maxthreads': None, 'softcron': False, 'server_name': 'fernando-workstation', 'bpython': False, 'nogui': False, 'pid_filename': 'httpserver.pid', 'extcron': False, 'runcron': False, 'run_system_tests': False, 'test': None, 'folder': '/var/www/conferencia', 'config': '', 'minthreads': None, 'winservice': '', 'shell': None, 'run': '', 'log_filename': 'httpserver.log', 'debuglevel': 30, 'args': [''], 'socket_timeout': 5, 'ssl_ca_certificate': None, 'scheduler': None, 'profiler_filename': None, 'ssl_private_key': '', 'scheduler_groups': None, 'password': '123456', 'request_queue_size': 5, 'ssl_certificate': '', 'cronjob': False, 'numthreads': None, 'quiet': False, 'interfaces': None, 'import_models': False, 'timeout': 10, 'plain': False, 'nobanner': False}>"
p759
asbasbasbag61
(g77
g63
NtRp760
(dp761
g66
(dp762
sg75
g665
sg68
(lp763
g61
(g82
g63
NtRp764
(dp765
g66
(dp766
g86
g87
ssg75
g760
sg68
(lp767
S'db_sessions'
p768
asbag61
(g82
g63
NtRp769
(dp770
g66
(dp771
g93
g94
ssg75
g760
sg68
(lp772
S':'
asbag61
(g82
g63
NtRp773
(dp774
g66
(dp775
sg75
g760
sg68
(lp776
g61
(g62
g63
NtRp777
(dp778
g66
(dp779
g74
I4
ssg75
g773
sg68
(lp780
S'set([])'
p781
asbasbasbag61
(g77
g63
NtRp782
(dp783
g66
(dp784
sg75
g665
sg68
(lp785
g61
(g82
g63
NtRp786
(dp787
g66
(dp788
g86
g87
ssg75
g782
sg68
(lp789
S'debugging'
p790
asbag61
(g82
g63
NtRp791
(dp792
g66
(dp793
g93
g94
ssg75
g782
sg68
(lp794
S':'
asbag61
(g82
g63
NtRp795
(dp796
g66
(dp797
sg75
g782
sg68
(lp798
g61
(g62
g63
NtRp799
(dp800
g66
(dp801
g74
I4
ssg75
g795
sg68
(lp802
g104
asbasbasbag61
(g77
g63
NtRp803
(dp804
g66
(dp805
sg75
g665
sg68
(lp806
g61
(g82
g63
NtRp807
(dp808
g66
(dp809
g86
g87
ssg75
g803
sg68
(lp810
S'gluon_parent'
p811
asbag61
(g82
g63
NtRp812
(dp813
g66
(dp814
g93
g94
ssg75
g803
sg68
(lp815
S':'
asbag61
(g82
g63
NtRp816
(dp817
g66
(dp818
sg75
g803
sg68
(lp819
g61
(g62
g63
NtRp820
(dp821
g66
(dp822
g74
I4
ssg75
g816
sg68
(lp823
S'/var/www/conferencia'
p824
asbasbasbag61
(g77
g63
NtRp825
(dp826
g66
(dp827
sg75
g665
sg68
(lp828
g61
(g82
g63
NtRp829
(dp830
g66
(dp831
g86
g87
ssg75
g825
sg68
(lp832
S'http_accept'
p833
asbag61
(g82
g63
NtRp834
(dp835
g66
(dp836
g93
g94
ssg75
g825
sg68
(lp837
S':'
asbag61
(g82
g63
NtRp838
(dp839
g66
(dp840
sg75
g825
sg68
(lp841
g61
(g62
g63
NtRp842
(dp843
g66
(dp844
g74
I4
ssg75
g838
sg68
(lp845
S'text/html,application/xhtml+xml,application/xml;q=0.9,*/*;q=0.8'
p846
asbasbasbag61
(g77
g63
NtRp847
(dp848
g66
(dp849
sg75
g665
sg68
(lp850
g61
(g82
g63
NtRp851
(dp852
g66
(dp853
g86
g87
ssg75
g847
sg68
(lp854
S'http_accept_charset'
p855
asbag61
(g82
g63
NtRp856
(dp857
g66
(dp858
g93
g94
ssg75
g847
sg68
(lp859
S':'
asbag61
(g82
g63
NtRp860
(dp861
g66
(dp862
sg75
g847
sg68
(lp863
g61
(g62
g63
NtRp864
(dp865
g66
(dp866
g74
I4
ssg75
g860
sg68
(lp867
S'ISO-8859-1,utf-8;q=0.7,*;q=0.3'
p868
asbasbasbag61
(g77
g63
NtRp869
(dp870
g66
(dp871
sg75
g665
sg68
(lp872
g61
(g82
g63
NtRp873
(dp874
g66
(dp875
g86
g87
ssg75
g869
sg68
(lp876
S'http_accept_encoding'
p877
asbag61
(g82
g63
NtRp878
(dp879
g66
(dp880
g93
g94
ssg75
g869
sg68
(lp881
S':'
asbag61
(g82
g63
NtRp882
(dp883
g66
(dp884
sg75
g869
sg68
(lp885
g61
(g62
g63
NtRp886
(dp887
g66
(dp888
g74
I4
ssg75
g882
sg68
(lp889
S'gzip,deflate,sdch'
p890
asbasbasbag61
(g77
g63
NtRp891
(dp892
g66
(dp893
sg75
g665
sg68
(lp894
g61
(g82
g63
NtRp895
(dp896
g66
(dp897
g86
g87
ssg75
g891
sg68
(lp898
S'http_accept_language'
p899
asbag61
(g82
g63
NtRp900
(dp901
g66
(dp902
g93
g94
ssg75
g891
sg68
(lp903
S':'
asbag61
(g82
g63
NtRp904
(dp905
g66
(dp906
sg75
g891
sg68
(lp907
g61
(g62
g63
NtRp908
(dp909
g66
(dp910
g74
I4
ssg75
g904
sg68
(lp911
S'pt-BR,pt;q=0.8,en-US;q=0.6,en;q=0.4'
p912
asbasbasbag61
(g77
g63
NtRp913
(dp914
g66
(dp915
sg75
g665
sg68
(lp916
g61
(g82
g63
NtRp917
(dp918
g66
(dp919
g86
g87
ssg75
g913
sg68
(lp920
S'http_connection'
p921
asbag61
(g82
g63
NtRp922
(dp923
g66
(dp924
g93
g94
ssg75
g913
sg68
(lp925
S':'
asbag61
(g82
g63
NtRp926
(dp927
g66
(dp928
sg75
g913
sg68
(lp929
g61
(g62
g63
NtRp930
(dp931
g66
(dp932
g74
I4
ssg75
g926
sg68
(lp933
S'keep-alive'
p934
asbasbasbag61
(g77
g63
NtRp935
(dp936
g66
(dp937
sg75
g665
sg68
(lp938
g61
(g82
g63
NtRp939
(dp940
g66
(dp941
g86
g87
ssg75
g935
sg68
(lp942
S'http_cookie'
p943
asbag61
(g82
g63
NtRp944
(dp945
g66
(dp946
g93
g94
ssg75
g935
sg68
(lp947
S':'
asbag61
(g82
g63
NtRp948
(dp949
g66
(dp950
sg75
g935
sg68
(lp951
g61
(g62
g63
NtRp952
(dp953
g66
(dp954
g74
I4
ssg75
g948
sg68
(lp955
S'session_id_admin=127.0.0.1-f08163e7-63a0-4e97-8334-13b9dc892d78; session_id_projeto=127.0.0.1-0fe02c32-0739-4f06-a369-3bba6377da8b'
p956
asbasbasbag61
(g77
g63
NtRp957
(dp958
g66
(dp959
sg75
g665
sg68
(lp960
g61
(g82
g63
NtRp961
(dp962
g66
(dp963
g86
g87
ssg75
g957
sg68
(lp964
S'http_host'
p965
asbag61
(g82
g63
NtRp966
(dp967
g66
(dp968
g93
g94
ssg75
g957
sg68
(lp969
S':'
asbag61
(g82
g63
NtRp970
(dp971
g66
(dp972
sg75
g957
sg68
(lp973
g61
(g62
g63
NtRp974
(dp975
g66
(dp976
g74
I4
ssg75
g970
sg68
(lp977
S'127.0.0.1:8000'
p978
asbasbasbag61
(g77
g63
NtRp979
(dp980
g66
(dp981
sg75
g665
sg68
(lp982
g61
(g82
g63
NtRp983
(dp984
g66
(dp985
g86
g87
ssg75
g979
sg68
(lp986
S'http_user_agent'
p987
asbag61
(g82
g63
NtRp988
(dp989
g66
(dp990
g93
g94
ssg75
g979
sg68
(lp991
S':'
asbag61
(g82
g63
NtRp992
(dp993
g66
(dp994
sg75
g979
sg68
(lp995
g61
(g62
g63
NtRp996
(dp997
g66
(dp998
g74
I4
ssg75
g992
sg68
(lp999
S'Mozilla/5.0 (X11; Linux x86_64) AppleWebKit/537.4 (KHTML, like Gecko) Ubuntu/12.10 Chromium/22.0.1229.94 Chrome/22.0.1229.94 Safari/537.4'
p1000
asbasbasbag61
(g77
g63
NtRp1001
(dp1002
g66
(dp1003
sg75
g665
sg68
(lp1004
g61
(g82
g63
NtRp1005
(dp1006
g66
(dp1007
g86
g87
ssg75
g1001
sg68
(lp1008
S'is_jython'
p1009
asbag61
(g82
g63
NtRp1010
(dp1011
g66
(dp1012
g93
g94
ssg75
g1001
sg68
(lp1013
S':'
asbag61
(g82
g63
NtRp1014
(dp1015
g66
(dp1016
sg75
g1001
sg68
(lp1017
g61
(g62
g63
NtRp1018
(dp1019
g66
(dp1020
g74
I4
ssg75
g1014
sg68
(lp1021
g104
asbasbasbag61
(g77
g63
NtRp1022
(dp1023
g66
(dp1024
sg75
g665
sg68
(lp1025
g61
(g82
g63
NtRp1026
(dp1027
g66
(dp1028
g86
g87
ssg75
g1022
sg68
(lp1029
S'is_pypy'
p1030
asbag61
(g82
g63
NtRp1031
(dp1032
g66
(dp1033
g93
g94
ssg75
g1022
sg68
(lp1034
S':'
asbag61
(g82
g63
NtRp1035
(dp1036
g66
(dp1037
sg75
g1022
sg68
(lp1038
g61
(g62
g63
NtRp1039
(dp1040
g66
(dp1041
g74
I4
ssg75
g1035
sg68
(lp1042
g104
asbasbasbag61
(g77
g63
NtRp1043
(dp1044
g66
(dp1045
sg75
g665
sg68
(lp1046
g61
(g82
g63
NtRp1047
(dp1048
g66
(dp1049
g86
g87
ssg75
g1043
sg68
(lp1050
S'path_info'
p1051
asbag61
(g82
g63
NtRp1052
(dp1053
g66
(dp1054
g93
g94
ssg75
g1043
sg68
(lp1055
S':'
asbag61
(g82
g63
NtRp1056
(dp1057
g66
(dp1058
sg75
g1043
sg68
(lp1059
g61
(g62
g63
NtRp1060
(dp1061
g66
(dp1062
g74
I4
ssg75
g1056
sg68
(lp1063
S'/'
asbasbasbag61
(g77
g63
NtRp1064
(dp1065
g66
(dp1066
sg75
g665
sg68
(lp1067
g61
(g82
g63
NtRp1068
(dp1069
g66
(dp1070
g86
g87
ssg75
g1064
sg68
(lp1071
S'query_string'
p1072
asbag61
(g82
g63
NtRp1073
(dp1074
g66
(dp1075
g93
g94
ssg75
g1064
sg68
(lp1076
S':'
asbag61
(g82
g63
NtRp1077
(dp1078
g66
(dp1079
sg75
g1064
sg68
(lp1080
g61
(g62
g63
NtRp1081
(dp1082
g66
(dp1083
g74
I4
ssg75
g1077
sg68
(lp1084
S''
asbasbasbag61
(g77
g63
NtRp1085
(dp1086
g66
(dp1087
sg75
g665
sg68
(lp1088
g61
(g82
g63
NtRp1089
(dp1090
g66
(dp1091
g86
g87
ssg75
g1085
sg68
(lp1092
S'remote_addr'
p1093
asbag61
(g82
g63
NtRp1094
(dp1095
g66
(dp1096
g93
g94
ssg75
g1085
sg68
(lp1097
S':'
asbag61
(g82
g63
NtRp1098
(dp1099
g66
(dp1100
sg75
g1085
sg68
(lp1101
g61
(g62
g63
NtRp1102
(dp1103
g66
(dp1104
g74
I4
ssg75
g1098
sg68
(lp1105
g216
asbasbasbag61
(g77
g63
NtRp1106
(dp1107
g66
(dp1108
sg75
g665
sg68
(lp1109
g61
(g82
g63
NtRp1110
(dp1111
g66
(dp1112
g86
g87
ssg75
g1106
sg68
(lp1113
S'remote_port'
p1114
asbag61
(g82
g63
NtRp1115
(dp1116
g66
(dp1117
g93
g94
ssg75
g1106
sg68
(lp1118
S':'
asbag61
(g82
g63
NtRp1119
(dp1120
g66
(dp1121
sg75
g1106
sg68
(lp1122
g61
(g62
g63
NtRp1123
(dp1124
g66
(dp1125
g74
I4
ssg75
g1119
sg68
(lp1126
S'45462'
p1127
asbasbasbag61
(g77
g63
NtRp1128
(dp1129
g66
(dp1130
sg75
g665
sg68
(lp1131
g61
(g82
g63
NtRp1132
(dp1133
g66
(dp1134
g86
g87
ssg75
g1128
sg68
(lp1135
S'request_method'
p1136
asbag61
(g82
g63
NtRp1137
(dp1138
g66
(dp1139
g93
g94
ssg75
g1128
sg68
(lp1140
S':'
asbag61
(g82
g63
NtRp1141
(dp1142
g66
(dp1143
sg75
g1128
sg68
(lp1144
g61
(g62
g63
NtRp1145
(dp1146
g66
(dp1147
g74
I4
ssg75
g1141
sg68
(lp1148
S'GET'
p1149
asbasbasbag61
(g77
g63
NtRp1150
(dp1151
g66
(dp1152
sg75
g665
sg68
(lp1153
g61
(g82
g63
NtRp1154
(dp1155
g66
(dp1156
g86
g87
ssg75
g1150
sg68
(lp1157
S'request_uri'
p1158
asbag61
(g82
g63
NtRp1159
(dp1160
g66
(dp1161
g93
g94
ssg75
g1150
sg68
(lp1162
S':'
asbag61
(g82
g63
NtRp1163
(dp1164
g66
(dp1165
sg75
g1150
sg68
(lp1166
g61
(g62
g63
NtRp1167
(dp1168
g66
(dp1169
g74
I4
ssg75
g1163
sg68
(lp1170
S'/projeto/initial/principal'
p1171
asbasbasbag61
(g77
g63
NtRp1172
(dp1173
g66
(dp1174
sg75
g665
sg68
(lp1175
g61
(g82
g63
NtRp1176
(dp1177
g66
(dp1178
g86
g87
ssg75
g1172
sg68
(lp1179
S'script_name'
p1180
asbag61
(g82
g63
NtRp1181
(dp1182
g66
(dp1183
g93
g94
ssg75
g1172
sg68
(lp1184
S':'
asbag61
(g82
g63
NtRp1185
(dp1186
g66
(dp1187
sg75
g1172
sg68
(lp1188
g61
(g62
g63
NtRp1189
(dp1190
g66
(dp1191
g74
I4
ssg75
g1185
sg68
(lp1192
S''
asbasbasbag61
(g77
g63
NtRp1193
(dp1194
g66
(dp1195
sg75
g665
sg68
(lp1196
g61
(g82
g63
NtRp1197
(dp1198
g66
(dp1199
g86
g87
ssg75
g1193
sg68
(lp1200
S'server_name'
p1201
asbag61
(g82
g63
NtRp1202
(dp1203
g66
(dp1204
g93
g94
ssg75
g1193
sg68
(lp1205
S':'
asbag61
(g82
g63
NtRp1206
(dp1207
g66
(dp1208
sg75
g1193
sg68
(lp1209
g61
(g62
g63
NtRp1210
(dp1211
g66
(dp1212
g74
I4
ssg75
g1206
sg68
(lp1213
S'fernando-workstation'
p1214
asbasbasbag61
(g77
g63
NtRp1215
(dp1216
g66
(dp1217
sg75
g665
sg68
(lp1218
g61
(g82
g63
NtRp1219
(dp1220
g66
(dp1221
g86
g87
ssg75
g1215
sg68
(lp1222
S'server_port'
p1223
asbag61
(g82
g63
NtRp1224
(dp1225
g66
(dp1226
g93
g94
ssg75
g1215
sg68
(lp1227
S':'
asbag61
(g82
g63
NtRp1228
(dp1229
g66
(dp1230
sg75
g1215
sg68
(lp1231
g61
(g62
g63
NtRp1232
(dp1233
g66
(dp1234
g74
I4
ssg75
g1228
sg68
(lp1235
S'8000'
p1236
asbasbasbag61
(g77
g63
NtRp1237
(dp1238
g66
(dp1239
sg75
g665
sg68
(lp1240
g61
(g82
g63
NtRp1241
(dp1242
g66
(dp1243
g86
g87
ssg75
g1237
sg68
(lp1244
S'server_protocol'
p1245
asbag61
(g82
g63
NtRp1246
(dp1247
g66
(dp1248
g93
g94
ssg75
g1237
sg68
(lp1249
S':'
asbag61
(g82
g63
NtRp1250
(dp1251
g66
(dp1252
sg75
g1237
sg68
(lp1253
g61
(g62
g63
NtRp1254
(dp1255
g66
(dp1256
g74
I4
ssg75
g1250
sg68
(lp1257
S'HTTP/1.1'
p1258
asbasbasbag61
(g77
g63
NtRp1259
(dp1260
g66
(dp1261
sg75
g665
sg68
(lp1262
g61
(g82
g63
NtRp1263
(dp1264
g66
(dp1265
g86
g87
ssg75
g1259
sg68
(lp1266
S'server_software'
p1267
asbag61
(g82
g63
NtRp1268
(dp1269
g66
(dp1270
g93
g94
ssg75
g1259
sg68
(lp1271
S':'
asbag61
(g82
g63
NtRp1272
(dp1273
g66
(dp1274
sg75
g1259
sg68
(lp1275
g61
(g62
g63
NtRp1276
(dp1277
g66
(dp1278
g74
I4
ssg75
g1272
sg68
(lp1279
S'Rocket 1.2.6'
p1280
asbasbasbag61
(g77
g63
NtRp1281
(dp1282
g66
(dp1283
sg75
g665
sg68
(lp1284
g61
(g82
g63
NtRp1285
(dp1286
g66
(dp1287
g86
g87
ssg75
g1281
sg68
(lp1288
S'web2py_original_uri'
p1289
asbag61
(g82
g63
NtRp1290
(dp1291
g66
(dp1292
g93
g94
ssg75
g1281
sg68
(lp1293
S':'
asbag61
(g82
g63
NtRp1294
(dp1295
g66
(dp1296
sg75
g1281
sg68
(lp1297
g61
(g62
g63
NtRp1298
(dp1299
g66
(dp1300
g74
I4
ssg75
g1294
sg68
(lp1301
S'/'
asbasbasbag61
(g77
g63
NtRp1302
(dp1303
g66
(dp1304
sg75
g665
sg68
(lp1305
g61
(g82
g63
NtRp1306
(dp1307
g66
(dp1308
g86
g87
ssg75
g1302
sg68
(lp1309
S'web2py_path'
p1310
asbag61
(g82
g63
NtRp1311
(dp1312
g66
(dp1313
g93
g94
ssg75
g1302
sg68
(lp1314
S':'
asbag61
(g82
g63
NtRp1315
(dp1316
g66
(dp1317
sg75
g1302
sg68
(lp1318
g61
(g62
g63
NtRp1319
(dp1320
g66
(dp1321
g74
I4
ssg75
g1315
sg68
(lp1322
g712
asbasbasbag61
(g77
g63
NtRp1323
(dp1324
g66
(dp1325
sg75
g665
sg68
(lp1326
g61
(g82
g63
NtRp1327
(dp1328
g66
(dp1329
g86
g87
ssg75
g1323
sg68
(lp1330
S'web2py_version'
p1331
asbag61
(g82
g63
NtRp1332
(dp1333
g66
(dp1334
g93
g94
ssg75
g1323
sg68
(lp1335
S':'
asbag61
(g82
g63
NtRp1336
(dp1337
g66
(dp1338
sg75
g1323
sg68
(lp1339
g61
(g62
g63
NtRp1340
(dp1341
g66
(dp1342
g74
I4
ssg75
g1336
sg68
(lp1343
g61
(g70
g63
NtRp1344
(dp1345
g66
(dp1346
g74
I3
ssg75
Nsg68
(lp1347
g61
(g77
g63
NtRp1348
(dp1349
g66
(dp1350
sg75
g1344
sg68
(lp1351
g61
(g82
g63
NtRp1352
(dp1353
g66
(dp1354
sg75
g1348
sg68
(lp1355
g61
(g62
g63
NtRp1356
(dp1357
g66
(dp1358
g74
I3
ssg75
g1352
sg68
(lp1359
S'2'
asbasbasbag61
(g77
g63
NtRp1360
(dp1361
g66
(dp1362
sg75
g1344
sg68
(lp1363
g61
(g82
g63
NtRp1364
(dp1365
g66
(dp1366
sg75
g1360
sg68
(lp1367
g61
(g62
g63
NtRp1368
(dp1369
g66
(dp1370
g74
I3
ssg75
g1364
sg68
(lp1371
S'3'
asbasbasbag61
(g77
g63
NtRp1372
(dp1373
g66
(dp1374
sg75
g1344
sg68
(lp1375
g61
(g82
g63
NtRp1376
(dp1377
g66
(dp1378
sg75
g1372
sg68
(lp1379
g61
(g62
g63
NtRp1380
(dp1381
g66
(dp1382
g74
I3
ssg75
g1376
sg68
(lp1383
S'2'
asbasbasbag61
(g77
g63
NtRp1384
(dp1385
g66
(dp1386
sg75
g1344
sg68
(lp1387
g61
(g82
g63
NtRp1388
(dp1389
g66
(dp1390
sg75
g1384
sg68
(lp1391
g61
(g62
g63
NtRp1392
(dp1393
g66
(dp1394
g74
I3
ssg75
g1388
sg68
(lp1395
S'datetime.datetime(2012, 12, 17, 15, 3, 30)'
p1396
asbasbasbag61
(g77
g63
NtRp1397
(dp1398
g66
(dp1399
sg75
g1344
sg68
(lp1400
g61
(g82
g63
NtRp1401
(dp1402
g66
(dp1403
sg75
g1397
sg68
(lp1404
g61
(g62
g63
NtRp1405
(dp1406
g66
(dp1407
g74
I3
ssg75
g1401
sg68
(lp1408
S'stable'
p1409
asbasbasbasbasbasbasbag61
(g77
g63
NtRp1410
(dp1411
g66
(dp1412
sg75
g665
sg68
(lp1413
g61
(g82
g63
NtRp1414
(dp1415
g66
(dp1416
g86
g87
ssg75
g1410
sg68
(lp1417
S'wsgi_errors'
p1418
asbag61
(g82
g63
NtRp1419
(dp1420
g66
(dp1421
g93
g94
ssg75
g1410
sg68
(lp1422
S':'
asbag61
(g82
g63
NtRp1423
(dp1424
g66
(dp1425
sg75
g1410
sg68
(lp1426
g61
(g62
g63
NtRp1427
(dp1428
g66
(dp1429
g74
I4
ssg75
g1423
sg68
(lp1430
S"<open file '<stderr>', mode 'w' at 0x7fc9a1290270>"
p1431
asbasbasbag61
(g77
g63
NtRp1432
(dp1433
g66
(dp1434
sg75
g665
sg68
(lp1435
g61
(g82
g63
NtRp1436
(dp1437
g66
(dp1438
g86
g87
ssg75
g1432
sg68
(lp1439
S'wsgi_file_wrapper'
p1440
asbag61
(g82
g63
NtRp1441
(dp1442
g66
(dp1443
g93
g94
ssg75
g1432
sg68
(lp1444
S':'
asbag61
(g82
g63
NtRp1445
(dp1446
g66
(dp1447
sg75
g1432
sg68
(lp1448
g61
(g62
g63
NtRp1449
(dp1450
g66
(dp1451
g74
I4
ssg75
g1445
sg68
(lp1452
S'<class wsgiref.util.FileWrapper at 0x1e1e598>'
p1453
asbasbasbag61
(g77
g63
NtRp1454
(dp1455
g66
(dp1456
sg75
g665
sg68
(lp1457
g61
(g82
g63
NtRp1458
(dp1459
g66
(dp1460
g86
g87
ssg75
g1454
sg68
(lp1461
S'wsgi_input'
p1462
asbag61
(g82
g63
NtRp1463
(dp1464
g66
(dp1465
g93
g94
ssg75
g1454
sg68
(lp1466
S':'
asbag61
(g82
g63
NtRp1467
(dp1468
g66
(dp1469
sg75
g1454
sg68
(lp1470
g61
(g62
g63
NtRp1471
(dp1472
g66
(dp1473
g74
I4
ssg75
g1467
sg68
(lp1474
S'<socket._fileobject object at 0x1261350>'
p1475
asbasbasbag61
(g77
g63
NtRp1476
(dp1477
g66
(dp1478
sg75
g665
sg68
(lp1479
g61
(g82
g63
NtRp1480
(dp1481
g66
(dp1482
g86
g87
ssg75
g1476
sg68
(lp1483
S'wsgi_multiprocess'
p1484
asbag61
(g82
g63
NtRp1485
(dp1486
g66
(dp1487
g93
g94
ssg75
g1476
sg68
(lp1488
S':'
asbag61
(g82
g63
NtRp1489
(dp1490
g66
(dp1491
sg75
g1476
sg68
(lp1492
g61
(g62
g63
NtRp1493
(dp1494
g66
(dp1495
g74
I4
ssg75
g1489
sg68
(lp1496
g104
asbasbasbag61
(g77
g63
NtRp1497
(dp1498
g66
(dp1499
sg75
g665
sg68
(lp1500
g61
(g82
g63
NtRp1501
(dp1502
g66
(dp1503
g86
g87
ssg75
g1497
sg68
(lp1504
S'wsgi_multithread'
p1505
asbag61
(g82
g63
NtRp1506
(dp1507
g66
(dp1508
g93
g94
ssg75
g1497
sg68
(lp1509
S':'
asbag61
(g82
g63
NtRp1510
(dp1511
g66
(dp1512
sg75
g1497
sg68
(lp1513
g61
(g62
g63
NtRp1514
(dp1515
g66
(dp1516
g74
I4
ssg75
g1510
sg68
(lp1517
S'True'
p1518
asbasbasbag61
(g77
g63
NtRp1519
(dp1520
g66
(dp1521
sg75
g665
sg68
(lp1522
g61
(g82
g63
NtRp1523
(dp1524
g66
(dp1525
g86
g87
ssg75
g1519
sg68
(lp1526
S'wsgi_run_once'
p1527
asbag61
(g82
g63
NtRp1528
(dp1529
g66
(dp1530
g93
g94
ssg75
g1519
sg68
(lp1531
S':'
asbag61
(g82
g63
NtRp1532
(dp1533
g66
(dp1534
sg75
g1519
sg68
(lp1535
g61
(g62
g63
NtRp1536
(dp1537
g66
(dp1538
g74
I4
ssg75
g1532
sg68
(lp1539
g104
asbasbasbag61
(g77
g63
NtRp1540
(dp1541
g66
(dp1542
sg75
g665
sg68
(lp1543
g61
(g82
g63
NtRp1544
(dp1545
g66
(dp1546
g86
g87
ssg75
g1540
sg68
(lp1547
S'wsgi_url_scheme'
p1548
asbag61
(g82
g63
NtRp1549
(dp1550
g66
(dp1551
g93
g94
ssg75
g1540
sg68
(lp1552
S':'
asbag61
(g82
g63
NtRp1553
(dp1554
g66
(dp1555
sg75
g1540
sg68
(lp1556
g61
(g62
g63
NtRp1557
(dp1558
g66
(dp1559
g74
I4
ssg75
g1553
sg68
(lp1560
S'http'
p1561
asbasbasbag61
(g77
g63
NtRp1562
(dp1563
g66
(dp1564
sg75
g665
sg68
(lp1565
g61
(g82
g63
NtRp1566
(dp1567
g66
(dp1568
g86
g87
ssg75
g1562
sg68
(lp1569
S'wsgi_version'
p1570
asbag61
(g82
g63
NtRp1571
(dp1572
g66
(dp1573
g93
g94
ssg75
g1562
sg68
(lp1574
S':'
asbag61
(g82
g63
NtRp1575
(dp1576
g66
(dp1577
sg75
g1562
sg68
(lp1578
g61
(g62
g63
NtRp1579
(dp1580
g66
(dp1581
g74
I4
ssg75
g1575
sg68
(lp1582
g61
(g70
g63
NtRp1583
(dp1584
g66
(dp1585
g74
I3
ssg75
Nsg68
(lp1586
g61
(g77
g63
NtRp1587
(dp1588
g66
(dp1589
sg75
g1583
sg68
(lp1590
g61
(g82
g63
NtRp1591
(dp1592
g66
(dp1593
sg75
g1587
sg68
(lp1594
g61
(g62
g63
NtRp1595
(dp1596
g66
(dp1597
g74
I3
ssg75
g1591
sg68
(lp1598
S'1'
asbasbasbag61
(g77
g63
NtRp1599
(dp1600
g66
(dp1601
sg75
g1583
sg68
(lp1602
g61
(g82
g63
NtRp1603
(dp1604
g66
(dp1605
sg75
g1599
sg68
(lp1606
g61
(g62
g63
NtRp1607
(dp1608
g66
(dp1609
g74
I3
ssg75
g1603
sg68
(lp1610
S'0'
asbasbasbasbasbasbasbasbasbasbasbag61
(g77
g63
NtRp1611
(dp1612
g66
(dp1613
sg75
g71
sg68
(lp1614
g61
(g82
g63
NtRp1615
(dp1616
g66
(dp1617
g86
g87
ssg75
g1611
sg68
(lp1618
S'extension'
p1619
asbag61
(g82
g63
NtRp1620
(dp1621
g66
(dp1622
g93
g94
ssg75
g1611
sg68
(lp1623
S':'
asbag61
(g82
g63
NtRp1624
(dp1625
g66
(dp1626
sg75
g1611
sg68
(lp1627
g61
(g62
g63
NtRp1628
(dp1629
g66
(dp1630
g74
I5
ssg75
g1624
sg68
(lp1631
S'html'
p1632
asbasbasbag61
(g77
g63
NtRp1633
(dp1634
g66
(dp1635
sg75
g71
sg68
(lp1636
g61
(g82
g63
NtRp1637
(dp1638
g66
(dp1639
g86
g87
ssg75
g1633
sg68
(lp1640
S'folder'
p1641
asbag61
(g82
g63
NtRp1642
(dp1643
g66
(dp1644
g93
g94
ssg75
g1633
sg68
(lp1645
S':'
asbag61
(g82
g63
NtRp1646
(dp1647
g66
(dp1648
sg75
g1633
sg68
(lp1649
g61
(g62
g63
NtRp1650
(dp1651
g66
(dp1652
g74
I5
ssg75
g1646
sg68
(lp1653
S'/var/www/conferencia/applications/projeto/'
p1654
asbasbasbag61
(g77
g63
NtRp1655
(dp1656
g66
(dp1657
sg75
g71
sg68
(lp1658
g61
(g82
g63
NtRp1659
(dp1660
g66
(dp1661
g86
g87
ssg75
g1655
sg68
(lp1662
S'function'
p1663
asbag61
(g82
g63
NtRp1664
(dp1665
g66
(dp1666
g93
g94
ssg75
g1655
sg68
(lp1667
S':'
asbag61
(g82
g63
NtRp1668
(dp1669
g66
(dp1670
sg75
g1655
sg68
(lp1671
g61
(g62
g63
NtRp1672
(dp1673
g66
(dp1674
g74
I5
ssg75
g1668
sg68
(lp1675
S'principal'
p1676
asbasbasbag61
(g77
g63
NtRp1677
(dp1678
g66
(dp1679
sg75
g71
sg68
(lp1680
g61
(g82
g63
NtRp1681
(dp1682
g66
(dp1683
g86
g87
ssg75
g1677
sg68
(lp1684
S'get_vars'
p1685
asbag61
(g82
g63
NtRp1686
(dp1687
g66
(dp1688
g93
g94
ssg75
g1677
sg68
(lp1689
S':'
asbag61
(g82
g63
NtRp1690
(dp1691
g66
(dp1692
sg75
g1677
sg68
(lp1693
g61
(g62
g63
NtRp1694
(dp1695
g66
(dp1696
g74
I5
ssg75
g1690
sg68
(lp1697
g61
(g70
g63
NtRp1698
(dp1699
g66
(dp1700
g74
I4
ssg75
Nsg68
(lp1701
sbasbasbasbag61
(g77
g63
NtRp1702
(dp1703
g66
(dp1704
sg75
g71
sg68
(lp1705
g61
(g82
g63
NtRp1706
(dp1707
g66
(dp1708
g86
g87
ssg75
g1702
sg68
(lp1709
S'global_settings'
p1710
asbag61
(g82
g63
NtRp1711
(dp1712
g66
(dp1713
g93
g94
ssg75
g1702
sg68
(lp1714
S':'
asbag61
(g82
g63
NtRp1715
(dp1716
g66
(dp1717
sg75
g1702
sg68
(lp1718
g61
(g62
g63
NtRp1719
(dp1720
g66
(dp1721
g74
I5
ssg75
g1715
sg68
(lp1722
g61
(g70
g63
NtRp1723
(dp1724
g66
(dp1725
g74
I4
ssg75
Nsg68
(lp1726
g61
(g77
g63
NtRp1727
(dp1728
g66
(dp1729
sg75
g1723
sg68
(lp1730
g61
(g82
g63
NtRp1731
(dp1732
g66
(dp1733
g86
g87
ssg75
g1727
sg68
(lp1734
g677
asbag61
(g82
g63
NtRp1735
(dp1736
g66
(dp1737
g93
g94
ssg75
g1727
sg68
(lp1738
S':'
asbag61
(g82
g63
NtRp1739
(dp1740
g66
(dp1741
sg75
g1727
sg68
(lp1742
g61
(g62
g63
NtRp1743
(dp1744
g66
(dp1745
g74
I4
ssg75
g1739
sg68
(lp1746
S"set(['/var/www/conferencia/applications/projeto/'])"
p1747
asbasbasbag61
(g77
g63
NtRp1748
(dp1749
g66
(dp1750
sg75
g1723
sg68
(lp1751
g61
(g82
g63
NtRp1752
(dp1753
g66
(dp1754
g86
g87
ssg75
g1748
sg68
(lp1755
g699
asbag61
(g82
g63
NtRp1756
(dp1757
g66
(dp1758
g93
g94
ssg75
g1748
sg68
(lp1759
S':'
asbag61
(g82
g63
NtRp1760
(dp1761
g66
(dp1762
sg75
g1748
sg68
(lp1763
g61
(g62
g63
NtRp1764
(dp1765
g66
(dp1766
g74
I4
ssg75
g1760
sg68
(lp1767
g712
asbasbasbag61
(g77
g63
NtRp1768
(dp1769
g66
(dp1770
sg75
g1723
sg68
(lp1771
g61
(g82
g63
NtRp1772
(dp1773
g66
(dp1774
g86
g87
ssg75
g1768
sg68
(lp1775
g721
asbag61
(g82
g63
NtRp1776
(dp1777
g66
(dp1778
g93
g94
ssg75
g1768
sg68
(lp1779
S':'
asbag61
(g82
g63
NtRp1780
(dp1781
g66
(dp1782
sg75
g1768
sg68
(lp1783
g61
(g62
g63
NtRp1784
(dp1785
g66
(dp1786
g74
I4
ssg75
g1780
sg68
(lp1787
g61
(g70
g63
NtRp1788
(dp1789
g66
(dp1790
g74
I3
ssg75
Nsg68
(lp1791
sbasbasbasbag61
(g77
g63
NtRp1792
(dp1793
g66
(dp1794
sg75
g1723
sg68
(lp1795
g61
(g82
g63
NtRp1796
(dp1797
g66
(dp1798
g86
g87
ssg75
g1792
sg68
(lp1799
g746
asbag61
(g82
g63
NtRp1800
(dp1801
g66
(dp1802
g93
g94
ssg75
g1792
sg68
(lp1803
S':'
asbag61
(g82
g63
NtRp1804
(dp1805
g66
(dp1806
sg75
g1792
sg68
(lp1807
g61
(g62
g63
NtRp1808
(dp1809
g66
(dp1810
g74
I4
ssg75
g1804
sg68
(lp1811
S"<Values at 0x1ea6248: {'verbose': False, 'ip': '127.0.0.1', 'with_scheduler': False, 'ips': [], 'shutdown_timeout': 5, 'taskbar': False, 'port': 8000, 'maxthreads': None, 'softcron': False, 'server_name': 'fernando-workstation', 'bpython': False, 'nogui': False, 'pid_filename': 'httpserver.pid', 'extcron': False, 'runcron': False, 'run_system_tests': False, 'test': None, 'folder': '/var/www/conferencia', 'config': '', 'minthreads': None, 'winservice': '', 'shell': None, 'run': '', 'log_filename': 'httpserver.log', 'debuglevel': 30, 'args': [''], 'socket_timeout': 5, 'ssl_ca_certificate': None, 'scheduler': None, 'profiler_filename': None, 'ssl_private_key': '', 'scheduler_groups': None, 'password': '123456', 'request_queue_size': 5, 'ssl_certificate': '', 'cronjob': False, 'numthreads': None, 'quiet': False, 'interfaces': None, 'import_models': False, 'timeout': 10, 'plain': False, 'nobanner': False}>"
p1812
asbasbasbag61
(g77
g63
NtRp1813
(dp1814
g66
(dp1815
sg75
g1723
sg68
(lp1816
g61
(g82
g63
NtRp1817
(dp1818
g66
(dp1819
g86
g87
ssg75
g1813
sg68
(lp1820
g768
asbag61
(g82
g63
NtRp1821
(dp1822
g66
(dp1823
g93
g94
ssg75
g1813
sg68
(lp1824
S':'
asbag61
(g82
g63
NtRp1825
(dp1826
g66
(dp1827
sg75
g1813
sg68
(lp1828
g61
(g62
g63
NtRp1829
(dp1830
g66
(dp1831
g74
I4
ssg75
g1825
sg68
(lp1832
S'set([])'
p1833
asbasbasbag61
(g77
g63
NtRp1834
(dp1835
g66
(dp1836
sg75
g1723
sg68
(lp1837
g61
(g82
g63
NtRp1838
(dp1839
g66
(dp1840
g86
g87
ssg75
g1834
sg68
(lp1841
g790
asbag61
(g82
g63
NtRp1842
(dp1843
g66
(dp1844
g93
g94
ssg75
g1834
sg68
(lp1845
S':'
asbag61
(g82
g63
NtRp1846
(dp1847
g66
(dp1848
sg75
g1834
sg68
(lp1849
g61
(g62
g63
NtRp1850
(dp1851
g66
(dp1852
g74
I4
ssg75
g1846
sg68
(lp1853
g104
asbasbasbag61
(g77
g63
NtRp1854
(dp1855
g66
(dp1856
sg75
g1723
sg68
(lp1857
g61
(g82
g63
NtRp1858
(dp1859
g66
(dp1860
g86
g87
ssg75
g1854
sg68
(lp1861
g811
asbag61
(g82
g63
NtRp1862
(dp1863
g66
(dp1864
g93
g94
ssg75
g1854
sg68
(lp1865
S':'
asbag61
(g82
g63
NtRp1866
(dp1867
g66
(dp1868
sg75
g1854
sg68
(lp1869
g61
(g62
g63
NtRp1870
(dp1871
g66
(dp1872
g74
I4
ssg75
g1866
sg68
(lp1873
g824
asbasbasbag61
(g77
g63
NtRp1874
(dp1875
g66
(dp1876
sg75
g1723
sg68
(lp1877
g61
(g82
g63
NtRp1878
(dp1879
g66
(dp1880
g86
g87
ssg75
g1874
sg68
(lp1881
g1009
asbag61
(g82
g63
NtRp1882
(dp1883
g66
(dp1884
g93
g94
ssg75
g1874
sg68
(lp1885
S':'
asbag61
(g82
g63
NtRp1886
(dp1887
g66
(dp1888
sg75
g1874
sg68
(lp1889
g61
(g62
g63
NtRp1890
(dp1891
g66
(dp1892
g74
I4
ssg75
g1886
sg68
(lp1893
g104
asbasbasbag61
(g77
g63
NtRp1894
(dp1895
g66
(dp1896
sg75
g1723
sg68
(lp1897
g61
(g82
g63
NtRp1898
(dp1899
g66
(dp1900
g86
g87
ssg75
g1894
sg68
(lp1901
g1030
asbag61
(g82
g63
NtRp1902
(dp1903
g66
(dp1904
g93
g94
ssg75
g1894
sg68
(lp1905
S':'
asbag61
(g82
g63
NtRp1906
(dp1907
g66
(dp1908
sg75
g1894
sg68
(lp1909
g61
(g62
g63
NtRp1910
(dp1911
g66
(dp1912
g74
I4
ssg75
g1906
sg68
(lp1913
g104
asbasbasbag61
(g77
g63
NtRp1914
(dp1915
g66
(dp1916
sg75
g1723
sg68
(lp1917
g61
(g82
g63
NtRp1918
(dp1919
g66
(dp1920
g86
g87
ssg75
g1914
sg68
(lp1921
S'local_hosts'
p1922
asbag61
(g82
g63
NtRp1923
(dp1924
g66
(dp1925
g93
g94
ssg75
g1914
sg68
(lp1926
S':'
asbag61
(g82
g63
NtRp1927
(dp1928
g66
(dp1929
sg75
g1914
sg68
(lp1930
g61
(g62
g63
NtRp1931
(dp1932
g66
(dp1933
g74
I4
ssg75
g1927
sg68
(lp1934
g61
(g70
g63
NtRp1935
(dp1936
g66
(dp1937
g74
I3
ssg75
Nsg68
(lp1938
g61
(g77
g63
NtRp1939
(dp1940
g66
(dp1941
sg75
g1935
sg68
(lp1942
g61
(g82
g63
NtRp1943
(dp1944
g66
(dp1945
sg75
g1939
sg68
(lp1946
g61
(g62
g63
NtRp1947
(dp1948
g66
(dp1949
g74
I3
ssg75
g1943
sg68
(lp1950
S'::1'
p1951
asbasbasbag61
(g77
g63
NtRp1952
(dp1953
g66
(dp1954
sg75
g1935
sg68
(lp1955
g61
(g82
g63
NtRp1956
(dp1957
g66
(dp1958
sg75
g1952
sg68
(lp1959
g61
(g62
g63
NtRp1960
(dp1961
g66
(dp1962
g74
I3
ssg75
g1956
sg68
(lp1963
S'::ffff:127.0.0.1'
p1964
asbasbasbag61
(g77
g63
NtRp1965
(dp1966
g66
(dp1967
sg75
g1935
sg68
(lp1968
g61
(g82
g63
NtRp1969
(dp1970
g66
(dp1971
sg75
g1965
sg68
(lp1972
g61
(g62
g63
NtRp1973
(dp1974
g66
(dp1975
g74
I3
ssg75
g1969
sg68
(lp1976
S'127.0.0.1'
p1977
asbasbasbag61
(g77
g63
NtRp1978
(dp1979
g66
(dp1980
sg75
g1935
sg68
(lp1981
g61
(g82
g63
NtRp1982
(dp1983
g66
(dp1984
sg75
g1978
sg68
(lp1985
g61
(g62
g63
NtRp1986
(dp1987
g66
(dp1988
g74
I3
ssg75
g1982
sg68
(lp1989
S'fernando-workstation'
p1990
asbasbasbasbasbasbasbag61
(g77
g63
NtRp1991
(dp1992
g66
(dp1993
sg75
g1723
sg68
(lp1994
g61
(g82
g63
NtRp1995
(dp1996
g66
(dp1997
g86
g87
ssg75
g1991
sg68
(lp1998
g1331
asbag61
(g82
g63
NtRp1999
(dp2000
g66
(dp2001
g93
g94
ssg75
g1991
sg68
(lp2002
S':'
asbag61
(g82
g63
NtRp2003
(dp2004
g66
(dp2005
sg75
g1991
sg68
(lp2006
g61
(g62
g63
NtRp2007
(dp2008
g66
(dp2009
g74
I4
ssg75
g2003
sg68
(lp2010
g61
(g70
g63
NtRp2011
(dp2012
g66
(dp2013
g74
I3
ssg75
Nsg68
(lp2014
g61
(g77
g63
NtRp2015
(dp2016
g66
(dp2017
sg75
g2011
sg68
(lp2018
g61
(g82
g63
NtRp2019
(dp2020
g66
(dp2021
sg75
g2015
sg68
(lp2022
g61
(g62
g63
NtRp2023
(dp2024
g66
(dp2025
g74
I3
ssg75
g2019
sg68
(lp2026
S'2'
asbasbasbag61
(g77
g63
NtRp2027
(dp2028
g66
(dp2029
sg75
g2011
sg68
(lp2030
g61
(g82
g63
NtRp2031
(dp2032
g66
(dp2033
sg75
g2027
sg68
(lp2034
g61
(g62
g63
NtRp2035
(dp2036
g66
(dp2037
g74
I3
ssg75
g2031
sg68
(lp2038
S'3'
asbasbasbag61
(g77
g63
NtRp2039
(dp2040
g66
(dp2041
sg75
g2011
sg68
(lp2042
g61
(g82
g63
NtRp2043
(dp2044
g66
(dp2045
sg75
g2039
sg68
(lp2046
g61
(g62
g63
NtRp2047
(dp2048
g66
(dp2049
g74
I3
ssg75
g2043
sg68
(lp2050
S'2'
asbasbasbag61
(g77
g63
NtRp2051
(dp2052
g66
(dp2053
sg75
g2011
sg68
(lp2054
g61
(g82
g63
NtRp2055
(dp2056
g66
(dp2057
sg75
g2051
sg68
(lp2058
g61
(g62
g63
NtRp2059
(dp2060
g66
(dp2061
g74
I3
ssg75
g2055
sg68
(lp2062
S'datetime.datetime(2012, 12, 17, 15, 3, 30)'
p2063
asbasbasbag61
(g77
g63
NtRp2064
(dp2065
g66
(dp2066
sg75
g2011
sg68
(lp2067
g61
(g82
g63
NtRp2068
(dp2069
g66
(dp2070
sg75
g2064
sg68
(lp2071
g61
(g62
g63
NtRp2072
(dp2073
g66
(dp2074
g74
I3
ssg75
g2068
sg68
(lp2075
g1409
asbasbasbasbasbasbasbasbasbasbasbag61
(g77
g63
NtRp2076
(dp2077
g66
(dp2078
sg75
g71
sg68
(lp2079
g61
(g82
g63
NtRp2080
(dp2081
g66
(dp2082
g86
g87
ssg75
g2076
sg68
(lp2083
S'is_https'
p2084
asbag61
(g82
g63
NtRp2085
(dp2086
g66
(dp2087
g93
g94
ssg75
g2076
sg68
(lp2088
S':'
asbag61
(g82
g63
NtRp2089
(dp2090
g66
(dp2091
sg75
g2076
sg68
(lp2092
g61
(g62
g63
NtRp2093
(dp2094
g66
(dp2095
g74
I5
ssg75
g2089
sg68
(lp2096
g104
asbasbasbag61
(g77
g63
NtRp2097
(dp2098
g66
(dp2099
sg75
g71
sg68
(lp2100
g61
(g82
g63
NtRp2101
(dp2102
g66
(dp2103
g86
g87
ssg75
g2097
sg68
(lp2104
S'is_local'
p2105
asbag61
(g82
g63
NtRp2106
(dp2107
g66
(dp2108
g93
g94
ssg75
g2097
sg68
(lp2109
S':'
asbag61
(g82
g63
NtRp2110
(dp2111
g66
(dp2112
sg75
g2097
sg68
(lp2113
g61
(g62
g63
NtRp2114
(dp2115
g66
(dp2116
g74
I5
ssg75
g2110
sg68
(lp2117
g1518
asbasbasbag61
(g77
g63
NtRp2118
(dp2119
g66
(dp2120
sg75
g71
sg68
(lp2121
g61
(g82
g63
NtRp2122
(dp2123
g66
(dp2124
g86
g87
ssg75
g2118
sg68
(lp2125
S'is_restful'
p2126
asbag61
(g82
g63
NtRp2127
(dp2128
g66
(dp2129
g93
g94
ssg75
g2118
sg68
(lp2130
S':'
asbag61
(g82
g63
NtRp2131
(dp2132
g66
(dp2133
sg75
g2118
sg68
(lp2134
g61
(g62
g63
NtRp2135
(dp2136
g66
(dp2137
g74
I5
ssg75
g2131
sg68
(lp2138
g104
asbasbasbag61
(g77
g63
NtRp2139
(dp2140
g66
(dp2141
sg75
g71
sg68
(lp2142
g61
(g82
g63
NtRp2143
(dp2144
g66
(dp2145
g86
g87
ssg75
g2139
sg68
(lp2146
S'now'
p2147
asbag61
(g82
g63
NtRp2148
(dp2149
g66
(dp2150
g93
g94
ssg75
g2139
sg68
(lp2151
S':'
asbag61
(g82
g63
NtRp2152
(dp2153
g66
(dp2154
sg75
g2139
sg68
(lp2155
g61
(g62
g63
NtRp2156
(dp2157
g66
(dp2158
g74
I5
ssg75
g2152
sg68
(lp2159
S'datetime.datetime(2013, 4, 2, 18, 57, 54, 487142)'
p2160
asbasbasbag61
(g77
g63
NtRp2161
(dp2162
g66
(dp2163
sg75
g71
sg68
(lp2164
g61
(g82
g63
NtRp2165
(dp2166
g66
(dp2167
g86
g87
ssg75
g2161
sg68
(lp2168
S'post_vars'
p2169
asbag61
(g82
g63
NtRp2170
(dp2171
g66
(dp2172
g93
g94
ssg75
g2161
sg68
(lp2173
S':'
asbag61
(g82
g63
NtRp2174
(dp2175
g66
(dp2176
sg75
g2161
sg68
(lp2177
g61
(g62
g63
NtRp2178
(dp2179
g66
(dp2180
g74
I5
ssg75
g2174
sg68
(lp2181
g61
(g70
g63
NtRp2182
(dp2183
g66
(dp2184
g74
I4
ssg75
Nsg68
(lp2185
sbasbasbasbag61
(g77
g63
NtRp2186
(dp2187
g66
(dp2188
sg75
g71
sg68
(lp2189
g61
(g82
g63
NtRp2190
(dp2191
g66
(dp2192
g86
g87
ssg75
g2186
sg68
(lp2193
S'url'
p2194
asbag61
(g82
g63
NtRp2195
(dp2196
g66
(dp2197
g93
g94
ssg75
g2186
sg68
(lp2198
S':'
asbag61
(g82
g63
NtRp2199
(dp2200
g66
(dp2201
sg75
g2186
sg68
(lp2202
g61
(g62
g63
NtRp2203
(dp2204
g66
(dp2205
g74
I5
ssg75
g2199
sg68
(lp2206
S'/'
asbasbasbag61
(g77
g63
NtRp2207
(dp2208
g66
(dp2209
sg75
g71
sg68
(lp2210
g61
(g82
g63
NtRp2211
(dp2212
g66
(dp2213
g86
g87
ssg75
g2207
sg68
(lp2214
S'utcnow'
p2215
asbag61
(g82
g63
NtRp2216
(dp2217
g66
(dp2218
g93
g94
ssg75
g2207
sg68
(lp2219
S':'
asbag61
(g82
g63
NtRp2220
(dp2221
g66
(dp2222
sg75
g2207
sg68
(lp2223
g61
(g62
g63
NtRp2224
(dp2225
g66
(dp2226
g74
I5
ssg75
g2220
sg68
(lp2227
S'datetime.datetime(2013, 4, 2, 21, 57, 54, 487193)'
p2228
asbasbasbag61
(g77
g63
NtRp2229
(dp2230
g66
(dp2231
sg75
g71
sg68
(lp2232
g61
(g82
g63
NtRp2233
(dp2234
g66
(dp2235
g86
g87
ssg75
g2229
sg68
(lp2236
S'uuid'
p2237
asbag61
(g82
g63
NtRp2238
(dp2239
g66
(dp2240
g93
g94
ssg75
g2229
sg68
(lp2241
S':'
asbag61
(g82
g63
NtRp2242
(dp2243
g66
(dp2244
sg75
g2229
sg68
(lp2245
g61
(g62
g63
NtRp2246
(dp2247
g66
(dp2248
g74
I5
ssg75
g2242
sg68
(lp2249
S'projeto/127.0.0.1.2013-04-02.18-57-54.9548127f-ccff-4c63-9b3b-e7445c79655c'
p2250
asbasbasbag61
(g77
g63
NtRp2251
(dp2252
g66
(dp2253
sg75
g71
sg68
(lp2254
g61
(g82
g63
NtRp2255
(dp2256
g66
(dp2257
g86
g87
ssg75
g2251
sg68
(lp2258
S'vars'
p2259
asbag61
(g82
g63
NtRp2260
(dp2261
g66
(dp2262
g93
g94
ssg75
g2251
sg68
(lp2263
S':'
asbag61
(g82
g63
NtRp2264
(dp2265
g66
(dp2266
sg75
g2251
sg68
(lp2267
g61
(g62
g63
NtRp2268
(dp2269
g66
(dp2270
g74
I5
ssg75
g2264
sg68
(lp2271
g61
(g70
g63
NtRp2272
(dp2273
g66
(dp2274
g74
I4
ssg75
Nsg68
(lp2275
sbasbasbasbag61
(g77
g63
NtRp2276
(dp2277
g66
(dp2278
sg75
g71
sg68
(lp2279
g61
(g82
g63
NtRp2280
(dp2281
g66
(dp2282
g86
g87
ssg75
g2276
sg68
(lp2283
S'wsgi'
p2284
asbag61
(g82
g63
NtRp2285
(dp2286
g66
(dp2287
g93
g94
ssg75
g2276
sg68
(lp2288
S':'
asbag61
(g82
g63
NtRp2289
(dp2290
g66
(dp2291
sg75
g2276
sg68
(lp2292
g61
(g62
g63
NtRp2293
(dp2294
g66
(dp2295
g74
I5
ssg75
g2289
sg68
(lp2296
g61
(g70
g63
NtRp2297
(dp2298
g66
(dp2299
g74
I4
ssg75
Nsg68
(lp2300
g61
(g77
g63
NtRp2301
(dp2302
g66
(dp2303
sg75
g2297
sg68
(lp2304
g61
(g82
g63
NtRp2305
(dp2306
g66
(dp2307
g86
g87
ssg75
g2301
sg68
(lp2308
S'environ'
p2309
asbag61
(g82
g63
NtRp2310
(dp2311
g66
(dp2312
g93
g94
ssg75
g2301
sg68
(lp2313
S':'
asbag61
(g82
g63
NtRp2314
(dp2315
g66
(dp2316
sg75
g2301
sg68
(lp2317
g61
(g62
g63
NtRp2318
(dp2319
g66
(dp2320
g74
I4
ssg75
g2314
sg68
(lp2321
g61
(g70
g63
NtRp2322
(dp2323
g66
(dp2324
g74
I3
ssg75
Nsg68
(lp2325
g61
(g77
g63
NtRp2326
(dp2327
g66
(dp2328
sg75
g2322
sg68
(lp2329
g61
(g82
g63
NtRp2330
(dp2331
g66
(dp2332
g86
g87
ssg75
g2326
sg68
(lp2333
S'HTTP_ACCEPT'
p2334
asbag61
(g82
g63
NtRp2335
(dp2336
g66
(dp2337
g93
g94
ssg75
g2326
sg68
(lp2338
S':'
asbag61
(g82
g63
NtRp2339
(dp2340
g66
(dp2341
sg75
g2326
sg68
(lp2342
g61
(g62
g63
NtRp2343
(dp2344
g66
(dp2345
g74
I3
ssg75
g2339
sg68
(lp2346
g846
asbasbasbag61
(g77
g63
NtRp2347
(dp2348
g66
(dp2349
sg75
g2322
sg68
(lp2350
g61
(g82
g63
NtRp2351
(dp2352
g66
(dp2353
g86
g87
ssg75
g2347
sg68
(lp2354
S'HTTP_ACCEPT_CHARSET'
p2355
asbag61
(g82
g63
NtRp2356
(dp2357
g66
(dp2358
g93
g94
ssg75
g2347
sg68
(lp2359
S':'
asbag61
(g82
g63
NtRp2360
(dp2361
g66
(dp2362
sg75
g2347
sg68
(lp2363
g61
(g62
g63
NtRp2364
(dp2365
g66
(dp2366
g74
I3
ssg75
g2360
sg68
(lp2367
g868
asbasbasbag61
(g77
g63
NtRp2368
(dp2369
g66
(dp2370
sg75
g2322
sg68
(lp2371
g61
(g82
g63
NtRp2372
(dp2373
g66
(dp2374
g86
g87
ssg75
g2368
sg68
(lp2375
S'HTTP_ACCEPT_ENCODING'
p2376
asbag61
(g82
g63
NtRp2377
(dp2378
g66
(dp2379
g93
g94
ssg75
g2368
sg68
(lp2380
S':'
asbag61
(g82
g63
NtRp2381
(dp2382
g66
(dp2383
sg75
g2368
sg68
(lp2384
g61
(g62
g63
NtRp2385
(dp2386
g66
(dp2387
g74
I3
ssg75
g2381
sg68
(lp2388
g890
asbasbasbag61
(g77
g63
NtRp2389
(dp2390
g66
(dp2391
sg75
g2322
sg68
(lp2392
g61
(g82
g63
NtRp2393
(dp2394
g66
(dp2395
g86
g87
ssg75
g2389
sg68
(lp2396
S'HTTP_ACCEPT_LANGUAGE'
p2397
asbag61
(g82
g63
NtRp2398
(dp2399
g66
(dp2400
g93
g94
ssg75
g2389
sg68
(lp2401
S':'
asbag61
(g82
g63
NtRp2402
(dp2403
g66
(dp2404
sg75
g2389
sg68
(lp2405
g61
(g62
g63
NtRp2406
(dp2407
g66
(dp2408
g74
I3
ssg75
g2402
sg68
(lp2409
g912
asbasbasbag61
(g77
g63
NtRp2410
(dp2411
g66
(dp2412
sg75
g2322
sg68
(lp2413
g61
(g82
g63
NtRp2414
(dp2415
g66
(dp2416
g86
g87
ssg75
g2410
sg68
(lp2417
S'HTTP_CONNECTION'
p2418
asbag61
(g82
g63
NtRp2419
(dp2420
g66
(dp2421
g93
g94
ssg75
g2410
sg68
(lp2422
S':'
asbag61
(g82
g63
NtRp2423
(dp2424
g66
(dp2425
sg75
g2410
sg68
(lp2426
g61
(g62
g63
NtRp2427
(dp2428
g66
(dp2429
g74
I3
ssg75
g2423
sg68
(lp2430
g934
asbasbasbag61
(g77
g63
NtRp2431
(dp2432
g66
(dp2433
sg75
g2322
sg68
(lp2434
g61
(g82
g63
NtRp2435
(dp2436
g66
(dp2437
g86
g87
ssg75
g2431
sg68
(lp2438
S'HTTP_COOKIE'
p2439
asbag61
(g82
g63
NtRp2440
(dp2441
g66
(dp2442
g93
g94
ssg75
g2431
sg68
(lp2443
S':'
asbag61
(g82
g63
NtRp2444
(dp2445
g66
(dp2446
sg75
g2431
sg68
(lp2447
g61
(g62
g63
NtRp2448
(dp2449
g66
(dp2450
g74
I3
ssg75
g2444
sg68
(lp2451
g956
asbasbasbag61
(g77
g63
NtRp2452
(dp2453
g66
(dp2454
sg75
g2322
sg68
(lp2455
g61
(g82
g63
NtRp2456
(dp2457
g66
(dp2458
g86
g87
ssg75
g2452
sg68
(lp2459
S'HTTP_HOST'
p2460
asbag61
(g82
g63
NtRp2461
(dp2462
g66
(dp2463
g93
g94
ssg75
g2452
sg68
(lp2464
S':'
asbag61
(g82
g63
NtRp2465
(dp2466
g66
(dp2467
sg75
g2452
sg68
(lp2468
g61
(g62
g63
NtRp2469
(dp2470
g66
(dp2471
g74
I3
ssg75
g2465
sg68
(lp2472
g978
asbasbasbag61
(g77
g63
NtRp2473
(dp2474
g66
(dp2475
sg75
g2322
sg68
(lp2476
g61
(g82
g63
NtRp2477
(dp2478
g66
(dp2479
g86
g87
ssg75
g2473
sg68
(lp2480
S'HTTP_USER_AGENT'
p2481
asbag61
(g82
g63
NtRp2482
(dp2483
g66
(dp2484
g93
g94
ssg75
g2473
sg68
(lp2485
S':'
asbag61
(g82
g63
NtRp2486
(dp2487
g66
(dp2488
sg75
g2473
sg68
(lp2489
g61
(g62
g63
NtRp2490
(dp2491
g66
(dp2492
g74
I3
ssg75
g2486
sg68
(lp2493
g1000
asbasbasbag61
(g77
g63
NtRp2494
(dp2495
g66
(dp2496
sg75
g2322
sg68
(lp2497
g61
(g82
g63
NtRp2498
(dp2499
g66
(dp2500
g86
g87
ssg75
g2494
sg68
(lp2501
S'PATH_INFO'
p2502
asbag61
(g82
g63
NtRp2503
(dp2504
g66
(dp2505
g93
g94
ssg75
g2494
sg68
(lp2506
S':'
asbag61
(g82
g63
NtRp2507
(dp2508
g66
(dp2509
sg75
g2494
sg68
(lp2510
g61
(g62
g63
NtRp2511
(dp2512
g66
(dp2513
g74
I3
ssg75
g2507
sg68
(lp2514
S'/'
asbasbasbag61
(g77
g63
NtRp2515
(dp2516
g66
(dp2517
sg75
g2322
sg68
(lp2518
g61
(g82
g63
NtRp2519
(dp2520
g66
(dp2521
g86
g87
ssg75
g2515
sg68
(lp2522
S'QUERY_STRING'
p2523
asbag61
(g82
g63
NtRp2524
(dp2525
g66
(dp2526
g93
g94
ssg75
g2515
sg68
(lp2527
S':'
asbag61
(g82
g63
NtRp2528
(dp2529
g66
(dp2530
sg75
g2515
sg68
(lp2531
g61
(g62
g63
NtRp2532
(dp2533
g66
(dp2534
g74
I3
ssg75
g2528
sg68
(lp2535
S''
asbasbasbag61
(g77
g63
NtRp2536
(dp2537
g66
(dp2538
sg75
g2322
sg68
(lp2539
g61
(g82
g63
NtRp2540
(dp2541
g66
(dp2542
g86
g87
ssg75
g2536
sg68
(lp2543
S'REMOTE_ADDR'
p2544
asbag61
(g82
g63
NtRp2545
(dp2546
g66
(dp2547
g93
g94
ssg75
g2536
sg68
(lp2548
S':'
asbag61
(g82
g63
NtRp2549
(dp2550
g66
(dp2551
sg75
g2536
sg68
(lp2552
g61
(g62
g63
NtRp2553
(dp2554
g66
(dp2555
g74
I3
ssg75
g2549
sg68
(lp2556
g216
asbasbasbag61
(g77
g63
NtRp2557
(dp2558
g66
(dp2559
sg75
g2322
sg68
(lp2560
g61
(g82
g63
NtRp2561
(dp2562
g66
(dp2563
g86
g87
ssg75
g2557
sg68
(lp2564
S'REMOTE_PORT'
p2565
asbag61
(g82
g63
NtRp2566
(dp2567
g66
(dp2568
g93
g94
ssg75
g2557
sg68
(lp2569
S':'
asbag61
(g82
g63
NtRp2570
(dp2571
g66
(dp2572
sg75
g2557
sg68
(lp2573
g61
(g62
g63
NtRp2574
(dp2575
g66
(dp2576
g74
I3
ssg75
g2570
sg68
(lp2577
g1127
asbasbasbag61
(g77
g63
NtRp2578
(dp2579
g66
(dp2580
sg75
g2322
sg68
(lp2581
g61
(g82
g63
NtRp2582
(dp2583
g66
(dp2584
g86
g87
ssg75
g2578
sg68
(lp2585
S'REQUEST_METHOD'
p2586
asbag61
(g82
g63
NtRp2587
(dp2588
g66
(dp2589
g93
g94
ssg75
g2578
sg68
(lp2590
S':'
asbag61
(g82
g63
NtRp2591
(dp2592
g66
(dp2593
sg75
g2578
sg68
(lp2594
g61
(g62
g63
NtRp2595
(dp2596
g66
(dp2597
g74
I3
ssg75
g2591
sg68
(lp2598
g1149
asbasbasbag61
(g77
g63
NtRp2599
(dp2600
g66
(dp2601
sg75
g2322
sg68
(lp2602
g61
(g82
g63
NtRp2603
(dp2604
g66
(dp2605
g86
g87
ssg75
g2599
sg68
(lp2606
S'REQUEST_URI'
p2607
asbag61
(g82
g63
NtRp2608
(dp2609
g66
(dp2610
g93
g94
ssg75
g2599
sg68
(lp2611
S':'
asbag61
(g82
g63
NtRp2612
(dp2613
g66
(dp2614
sg75
g2599
sg68
(lp2615
g61
(g62
g63
NtRp2616
(dp2617
g66
(dp2618
g74
I3
ssg75
g2612
sg68
(lp2619
g1171
asbasbasbag61
(g77
g63
NtRp2620
(dp2621
g66
(dp2622
sg75
g2322
sg68
(lp2623
g61
(g82
g63
NtRp2624
(dp2625
g66
(dp2626
g86
g87
ssg75
g2620
sg68
(lp2627
S'SCRIPT_NAME'
p2628
asbag61
(g82
g63
NtRp2629
(dp2630
g66
(dp2631
g93
g94
ssg75
g2620
sg68
(lp2632
S':'
asbag61
(g82
g63
NtRp2633
(dp2634
g66
(dp2635
sg75
g2620
sg68
(lp2636
g61
(g62
g63
NtRp2637
(dp2638
g66
(dp2639
g74
I3
ssg75
g2633
sg68
(lp2640
S''
asbasbasbag61
(g77
g63
NtRp2641
(dp2642
g66
(dp2643
sg75
g2322
sg68
(lp2644
g61
(g82
g63
NtRp2645
(dp2646
g66
(dp2647
g86
g87
ssg75
g2641
sg68
(lp2648
S'SERVER_NAME'
p2649
asbag61
(g82
g63
NtRp2650
(dp2651
g66
(dp2652
g93
g94
ssg75
g2641
sg68
(lp2653
S':'
asbag61
(g82
g63
NtRp2654
(dp2655
g66
(dp2656
sg75
g2641
sg68
(lp2657
g61
(g62
g63
NtRp2658
(dp2659
g66
(dp2660
g74
I3
ssg75
g2654
sg68
(lp2661
g1214
asbasbasbag61
(g77
g63
NtRp2662
(dp2663
g66
(dp2664
sg75
g2322
sg68
(lp2665
g61
(g82
g63
NtRp2666
(dp2667
g66
(dp2668
g86
g87
ssg75
g2662
sg68
(lp2669
S'SERVER_PORT'
p2670
asbag61
(g82
g63
NtRp2671
(dp2672
g66
(dp2673
g93
g94
ssg75
g2662
sg68
(lp2674
S':'
asbag61
(g82
g63
NtRp2675
(dp2676
g66
(dp2677
sg75
g2662
sg68
(lp2678
g61
(g62
g63
NtRp2679
(dp2680
g66
(dp2681
g74
I3
ssg75
g2675
sg68
(lp2682
g1236
asbasbasbag61
(g77
g63
NtRp2683
(dp2684
g66
(dp2685
sg75
g2322
sg68
(lp2686
g61
(g82
g63
NtRp2687
(dp2688
g66
(dp2689
g86
g87
ssg75
g2683
sg68
(lp2690
S'SERVER_PROTOCOL'
p2691
asbag61
(g82
g63
NtRp2692
(dp2693
g66
(dp2694
g93
g94
ssg75
g2683
sg68
(lp2695
S':'
asbag61
(g82
g63
NtRp2696
(dp2697
g66
(dp2698
sg75
g2683
sg68
(lp2699
g61
(g62
g63
NtRp2700
(dp2701
g66
(dp2702
g74
I3
ssg75
g2696
sg68
(lp2703
g1258
asbasbasbag61
(g77
g63
NtRp2704
(dp2705
g66
(dp2706
sg75
g2322
sg68
(lp2707
g61
(g82
g63
NtRp2708
(dp2709
g66
(dp2710
g86
g87
ssg75
g2704
sg68
(lp2711
S'SERVER_SOFTWARE'
p2712
asbag61
(g82
g63
NtRp2713
(dp2714
g66
(dp2715
g93
g94
ssg75
g2704
sg68
(lp2716
S':'
asbag61
(g82
g63
NtRp2717
(dp2718
g66
(dp2719
sg75
g2704
sg68
(lp2720
g61
(g62
g63
NtRp2721
(dp2722
g66
(dp2723
g74
I3
ssg75
g2717
sg68
(lp2724
g1280
asbasbasbag61
(g77
g63
NtRp2725
(dp2726
g66
(dp2727
sg75
g2322
sg68
(lp2728
g61
(g82
g63
NtRp2729
(dp2730
g66
(dp2731
g86
g87
ssg75
g2725
sg68
(lp2732
S'WEB2PY_ORIGINAL_URI'
p2733
asbag61
(g82
g63
NtRp2734
(dp2735
g66
(dp2736
g93
g94
ssg75
g2725
sg68
(lp2737
S':'
asbag61
(g82
g63
NtRp2738
(dp2739
g66
(dp2740
sg75
g2725
sg68
(lp2741
g61
(g62
g63
NtRp2742
(dp2743
g66
(dp2744
g74
I3
ssg75
g2738
sg68
(lp2745
S'/'
asbasbasbag61
(g77
g63
NtRp2746
(dp2747
g66
(dp2748
sg75
g2322
sg68
(lp2749
g61
(g82
g63
NtRp2750
(dp2751
g66
(dp2752
g86
g87
ssg75
g2746
sg68
(lp2753
S'wsgi.errors'
p2754
asbag61
(g82
g63
NtRp2755
(dp2756
g66
(dp2757
g93
g94
ssg75
g2746
sg68
(lp2758
S':'
asbag61
(g82
g63
NtRp2759
(dp2760
g66
(dp2761
sg75
g2746
sg68
(lp2762
g61
(g62
g63
NtRp2763
(dp2764
g66
(dp2765
g74
I3
ssg75
g2759
sg68
(lp2766
S"<open file '<stderr>', mode 'w' at 0x7fc9a1290270>"
p2767
asbasbasbag61
(g77
g63
NtRp2768
(dp2769
g66
(dp2770
sg75
g2322
sg68
(lp2771
g61
(g82
g63
NtRp2772
(dp2773
g66
(dp2774
g86
g87
ssg75
g2768
sg68
(lp2775
S'wsgi.file_wrapper'
p2776
asbag61
(g82
g63
NtRp2777
(dp2778
g66
(dp2779
g93
g94
ssg75
g2768
sg68
(lp2780
S':'
asbag61
(g82
g63
NtRp2781
(dp2782
g66
(dp2783
sg75
g2768
sg68
(lp2784
g61
(g62
g63
NtRp2785
(dp2786
g66
(dp2787
g74
I3
ssg75
g2781
sg68
(lp2788
S'<class wsgiref.util.FileWrapper at 0x1e1e598>'
p2789
asbasbasbag61
(g77
g63
NtRp2790
(dp2791
g66
(dp2792
sg75
g2322
sg68
(lp2793
g61
(g82
g63
NtRp2794
(dp2795
g66
(dp2796
g86
g87
ssg75
g2790
sg68
(lp2797
S'wsgi.input'
p2798
asbag61
(g82
g63
NtRp2799
(dp2800
g66
(dp2801
g93
g94
ssg75
g2790
sg68
(lp2802
S':'
asbag61
(g82
g63
NtRp2803
(dp2804
g66
(dp2805
sg75
g2790
sg68
(lp2806
g61
(g62
g63
NtRp2807
(dp2808
g66
(dp2809
g74
I3
ssg75
g2803
sg68
(lp2810
S'<cStringIO.StringO object at 0x1ee2260>'
p2811
asbasbasbag61
(g77
g63
NtRp2812
(dp2813
g66
(dp2814
sg75
g2322
sg68
(lp2815
g61
(g82
g63
NtRp2816
(dp2817
g66
(dp2818
g86
g87
ssg75
g2812
sg68
(lp2819
S'wsgi.multiprocess'
p2820
asbag61
(g82
g63
NtRp2821
(dp2822
g66
(dp2823
g93
g94
ssg75
g2812
sg68
(lp2824
S':'
asbag61
(g82
g63
NtRp2825
(dp2826
g66
(dp2827
sg75
g2812
sg68
(lp2828
g61
(g62
g63
NtRp2829
(dp2830
g66
(dp2831
g74
I3
ssg75
g2825
sg68
(lp2832
g104
asbasbasbag61
(g77
g63
NtRp2833
(dp2834
g66
(dp2835
sg75
g2322
sg68
(lp2836
g61
(g82
g63
NtRp2837
(dp2838
g66
(dp2839
g86
g87
ssg75
g2833
sg68
(lp2840
S'wsgi.multithread'
p2841
asbag61
(g82
g63
NtRp2842
(dp2843
g66
(dp2844
g93
g94
ssg75
g2833
sg68
(lp2845
S':'
asbag61
(g82
g63
NtRp2846
(dp2847
g66
(dp2848
sg75
g2833
sg68
(lp2849
g61
(g62
g63
NtRp2850
(dp2851
g66
(dp2852
g74
I3
ssg75
g2846
sg68
(lp2853
g1518
asbasbasbag61
(g77
g63
NtRp2854
(dp2855
g66
(dp2856
sg75
g2322
sg68
(lp2857
g61
(g82
g63
NtRp2858
(dp2859
g66
(dp2860
g86
g87
ssg75
g2854
sg68
(lp2861
S'wsgi.run_once'
p2862
asbag61
(g82
g63
NtRp2863
(dp2864
g66
(dp2865
g93
g94
ssg75
g2854
sg68
(lp2866
S':'
asbag61
(g82
g63
NtRp2867
(dp2868
g66
(dp2869
sg75
g2854
sg68
(lp2870
g61
(g62
g63
NtRp2871
(dp2872
g66
(dp2873
g74
I3
ssg75
g2867
sg68
(lp2874
g104
asbasbasbag61
(g77
g63
NtRp2875
(dp2876
g66
(dp2877
sg75
g2322
sg68
(lp2878
g61
(g82
g63
NtRp2879
(dp2880
g66
(dp2881
g86
g87
ssg75
g2875
sg68
(lp2882
S'wsgi.url_scheme'
p2883
asbag61
(g82
g63
NtRp2884
(dp2885
g66
(dp2886
g93
g94
ssg75
g2875
sg68
(lp2887
S':'
asbag61
(g82
g63
NtRp2888
(dp2889
g66
(dp2890
sg75
g2875
sg68
(lp2891
g61
(g62
g63
NtRp2892
(dp2893
g66
(dp2894
g74
I3
ssg75
g2888
sg68
(lp2895
g1561
asbasbasbag61
(g77
g63
NtRp2896
(dp2897
g66
(dp2898
sg75
g2322
sg68
(lp2899
g61
(g82
g63
NtRp2900
(dp2901
g66
(dp2902
g86
g87
ssg75
g2896
sg68
(lp2903
S'wsgi.version'
p2904
asbag61
(g82
g63
NtRp2905
(dp2906
g66
(dp2907
g93
g94
ssg75
g2896
sg68
(lp2908
S':'
asbag61
(g82
g63
NtRp2909
(dp2910
g66
(dp2911
sg75
g2896
sg68
(lp2912
g61
(g62
g63
NtRp2913
(dp2914
g66
(dp2915
g74
I3
ssg75
g2909
sg68
(lp2916
S'1'
asbasbasbasbasbasbasbasbasbasbasbasbasbsS'frames'
p2917
(lp2918
(dp2919
S'file'
p2920
S'/var/www/conferencia/gluon/restricted.py'
p2921
sS'dump'
p2922
(dp2923
S'environment'
p2924
S"{'A': <class 'gluon.html.A'>, 'Auth': <class 'gluon.tools.Auth'>, 'B': <class 'gluon.html.B'>, 'BEAUTIFY': <class 'gluon.html.BEAUTIFY'>, 'BODY': <class 'gluon.html.BODY'>, 'BR': <class 'gluon.html.BR'>, 'BUTTON': <class 'gluon.html.BUTTON'>, 'CAT': <class 'gluon.html.CAT'>, 'CENTER': <class 'gluon.html.CENTER'>, 'CLEANUP': <class 'gluon.validators.CLEANUP'>, ...}"
p2925
sS'ccode'
p2926
S'<code object <module> at 0x1e90330, file "/var/w...a/applications/projeto/models/models.py", line 1>'
p2927
ssS'lnum'
p2928
I212
sS'lines'
p2929
(dp2930
I207
S'    try:'
p2931
sI208
S'        if isinstance(code, types.CodeType):'
p2932
sI209
S'            ccode = code'
p2933
sI210
S'        else:'
p2934
sI211
S'            ccode = compile2(code, layer)'
p2935
sI212
S'        exec ccode in environment'
p2936
sI213
S'    except HTTP:'
p2937
sI214
S'        raise'
p2938
sI215
S'    except RestrictedError:'
p2939
sI216
S'        # do not encapsulate (obfuscate) the original RestrictedError'
p2940
ssS'call'
p2941
S'(code=\'usuario = db.define_table("usuario",\\n      Field...suario\\\'),\\n      primarykey=[\\\'confno\\\']\\n      )\\n\\n\\n\\n\', environment={\'A\': <class \'gluon.html.A\'>, \'Auth\': <class \'gluon.tools.Auth\'>, \'B\': <class \'gluon.html.B\'>, \'BEAUTIFY\': <class \'gluon.html.BEAUTIFY\'>, \'BODY\': <class \'gluon.html.BODY\'>, \'BR\': <class \'gluon.html.BR\'>, \'BUTTON\': <class \'gluon.html.BUTTON\'>, \'CAT\': <class \'gluon.html.CAT\'>, \'CENTER\': <class \'gluon.html.CENTER\'>, \'CLEANUP\': <class \'gluon.validators.CLEANUP\'>, ...}, layer=\'/var/www/conferencia/applications/projeto/models/models.py\')'
p2942
sS'func'
p2943
S'restricted'
p2944
sa(dp2945
g2920
S'/var/www/conferencia/applications/projeto/models/models.py'
p2946
sg2922
(dp2947
S'primarykey'
p2948
S'undefined'
p2949
ssg2928
I14
sg2929
(dp2950
I9
S'meetme = db.define_table("meetme",'
p2951
sI10
S'      Field("confno", type=\'id\'),'
p2952
sI11
S'      Field("starttime", "datetime"),'
p2953
sI12
S'      Field("endtime", "datetime"),'
p2954
sI13
S'      Field("membros_user", \'list:reference usuario\'),'
p2955
sI14
S"      primarykey=['confno']"
p2956
sI15
S'      )'
p2957
sI16
S''
sI17
S''
sI18
S''
ssg2941
S'()'
p2958
sg2943
S'<module>'
p2959
sa(dp2960
g2920
S'/var/www/conferencia/gluon/dal.py'
p2961
sg2922
(dp2962
S'fields'
p2963
S'(<gluon.dal.Field object>, <gluon.dal.Field object>, <gluon.dal.Field object>, <gluon.dal.Field object>)'
p2964
sS'self'
p2965
S'<DAL uri="postgres:pg8000://******:123456@127.0.0.1/conferencia">'
p2966
sS'args'
p2967
S"{'primarykey': ['confno']}"
p2968
sS'tablename'
p2969
S"'meetme'"
p2970
sS'table'
p2971
g2949
sS'self.lazy_define_table'
p2972
S'<bound method DAL.lazy_define_table of <DAL uri=...s:pg8000://******:123456@127.0.0.1/conferencia">>'
p2973
ssg2928
I7186
sg2929
(dp2974
I7181
S'                    % (tablename,invalid_args))'
p2975
sI7182
S'        if self._lazy_tables and not tablename in self._LAZY_TABLES:'
p2976
sI7183
S'            self._LAZY_TABLES[tablename] = (tablename,fields,args)'
p2977
sI7184
S'            table = None'
p2978
sI7185
S'        else:'
p2979
sI7186
S'            table = self.lazy_define_table(tablename,*fields,**args)'
p2980
sI7187
S'        if not tablename in self.tables:'
p2981
sI7188
S'            self.tables.append(tablename)'
p2982
sI7189
S'        return table'
p2983
sI7190
S''
ssg2941
S'(self=<DAL uri="postgres:pg8000://******:123456@127.0.0.1/conferencia">, tablename=\'meetme\', *fields=(<gluon.dal.Field object>, <gluon.dal.Field object>, <gluon.dal.Field object>, <gluon.dal.Field object>), **args={\'primarykey\': [\'confno\']})'
p2984
sg2943
S'define_table'
p2985
sa(dp2986
g2920
S'/var/www/conferencia/gluon/dal.py'
p2987
sg2922
(dp2988
S'polymodel'
p2989
S'None'
p2990
ssg2928
I7222
sg2929
(dp2991
I7217
S"            polymodel = args_get('polymodel',None)"
p2992
sI7218
S'            try:'
p2993
sI7219
S'                GLOBAL_LOCKER.acquire()'
p2994
sI7220
S'                self._adapter.create_table(table,migrate=migrate,'
p2995
sI7221
S'                                           fake_migrate=fake_migrate,'
p2996
sI7222
S'                                           polymodel=polymodel)'
p2997
sI7223
S'            finally:'
p2998
sI7224
S'                GLOBAL_LOCKER.release()'
p2999
sI7225
S'        else:'
p3000
sI7226
S'            table._dbt = None'
p3001
ssg2941
S'(self=<DAL uri="postgres:pg8000://******:123456@127.0.0.1/conferencia">, tablename=\'meetme\', *fields=(<gluon.dal.Field object>, <gluon.dal.Field object>, <gluon.dal.Field object>, <gluon.dal.Field object>), **args={\'primarykey\': [\'confno\']})'
p3002
sg2943
S'lazy_define_table'
p3003
sa(dp3004
g2920
S'/var/www/conferencia/gluon/dal.py'
p3005
sg2922
(dp3006
S'query'
p3007
S"'CREATE TABLE meetme(\\n    confno SERIAL PRIMARY K...    membros_user TEXT,\\n    PRIMARY KEY(confno)) ;'"
p3008
sS'self'
p3009
S'<gluon.dal.PostgreSQLAdapter object>'
p3010
sS'table'
p3011
S'<Table meetme (confno,starttime,endtime,membros_user)>'
p3012
sS'self.create_sequence_and_triggers'
p3013
S'<bound method PostgreSQLAdapter.create_sequence_...triggers of <gluon.dal.PostgreSQLAdapter object>>'
p3014
ssg2928
I935
sg2929
(dp3015
I930
S'            if table._dbt:'
p3016
sI931
S"                logfile.write('timestamp: %s\\n'"
p3017
sI932
S'                               % datetime.datetime.today().isoformat())'
p3018
sI933
S"                logfile.write(query + '\\n')"
p3019
sI934
S'            if not fake_migrate:'
p3020
sI935
S'                self.create_sequence_and_triggers(query,table)'
p3021
sI936
S'                table._db.commit()'
p3022
sI937
S'                # Postgres geom fields are added now,'
p3023
sI938
S'                # after the table has been created'
p3024
sI939
S'                for query in postcreation_fields:'
p3025
ssg2941
S'(self=<gluon.dal.PostgreSQLAdapter object>, table=<Table meetme (confno,starttime,endtime,membros_user)>, migrate=True, fake_migrate=False, polymodel=None)'
p3026
sg2943
S'create_table'
p3027
sa(dp3028
g2920
S'/var/www/conferencia/gluon/dal.py'
p3029
sg2922
(dp3030
S'query'
p3031
S"'CREATE TABLE meetme(\\n    confno SERIAL PRIMARY K...    membros_user TEXT,\\n    PRIMARY KEY(confno)) ;'"
p3032
sS'self'
p3033
S'<gluon.dal.PostgreSQLAdapter object>'
p3034
sS'self.execute'
p3035
S'<bound method PostgreSQLAdapter.execute of <gluon.dal.PostgreSQLAdapter object>>'
p3036
ssg2928
I2483
sg2929
(dp3037
I2478
S'    def create_sequence_and_triggers(self, query, table, **args):'
p3038
sI2479
S'        # following lines should only be executed if table._sequence_name does not exist'
p3039
sI2480
S"        # self.execute('CREATE SEQUENCE %s;' % table._sequence_name)"
p3040
sI2481
S'        # self.execute("ALTER TABLE %s ALTER COLUMN %s SET DEFAULT NEXTVAL(\'%s\');" \\'
p3041
sI2482
S'        #              % (table._tablename, table._fieldname, table._sequence_name))'
p3042
sI2483
S'        self.execute(query)'
p3043
sI2484
S''
sI2485
S"    REGEX_URI = re.compile('^(?P<user>[^:@]+)(\\:(?P<password>[^@]*))?@(?P<host>[^\\:@]+)(\\:(?P<port>[0-9]+))?/(?P<db>[^\\?]+)(\\?sslmode=(?P<sslmode>.+))?$')"
p3044
sI2486
S''
sI2487
S"    def __init__(self,db,uri,pool_size=0,folder=None,db_codec ='UTF-8',"
p3045
ssg2941
S"(self=<gluon.dal.PostgreSQLAdapter object>, query='CREATE TABLE meetme(\\n    confno SERIAL PRIMARY K...    membros_user TEXT,\\n    PRIMARY KEY(confno)) ;', table=<Table meetme (confno,starttime,endtime,membros_user)>, **args={})"
p3046
sg2943
S'create_sequence_and_triggers'
p3047
sa(dp3048
g2920
S'/var/www/conferencia/gluon/dal.py'
p3049
sg2922
(dp3050
S'a'
S"('CREATE TABLE meetme(\\n    confno SERIAL PRIMARY K...    membros_user TEXT,\\n    PRIMARY KEY(confno)) ;',)"
p3051
sS'self'
p3052
S'<gluon.dal.PostgreSQLAdapter object>'
p3053
sS'b'
g21
sS'self.log_execute'
p3054
S'<bound method PostgreSQLAdapter.log_execute of <gluon.dal.PostgreSQLAdapter object>>'
p3055
ssg2928
I1709
sg2929
(dp3056
I1704
S'        self.db._timings.append((command,time.time()-t0))'
p3057
sI1705
S'        del self.db._timings[:-TIMINGSSIZE]'
p3058
sI1706
S'        return ret'
p3059
sI1707
S''
sI1708
S'    def execute(self, *a, **b):'
p3060
sI1709
S'        return self.log_execute(*a, **b)'
p3061
sI1710
S''
sI1711
S'    def represent(self, obj, fieldtype):'
p3062
sI1712
S'        field_is_type = fieldtype.startswith'
p3063
sI1713
S'        if isinstance(obj, CALLABLETYPES):'
p3064
ssg2941
S"(self=<gluon.dal.PostgreSQLAdapter object>, *a=('CREATE TABLE meetme(\\n    confno SERIAL PRIMARY K...    membros_user TEXT,\\n    PRIMARY KEY(confno)) ;',), **b={})"
p3065
sg2943
S'execute'
p3066
sa(dp3067
g2920
S'/var/www/conferencia/gluon/dal.py'
p3068
sg2922
(dp3069
S'a'
S"('CREATE TABLE meetme(\\n    confno SERIAL PRIMARY K...    membros_user TEXT,\\n    PRIMARY KEY(confno)) ;',)"
p3070
sS'b'
g21
sS'self'
p3071
S'<gluon.dal.PostgreSQLAdapter object>'
p3072
sS'ret'
p3073
g2949
sS'self.cursor'
p3074
S'<gluon.contrib.pg8000.dbapi.CursorWrapper object>'
p3075
sS'self.cursor.execute'
p3076
S'<bound method CursorWrapper._fn of <gluon.contrib.pg8000.dbapi.CursorWrapper object>>'
p3077
ssg2928
I1703
sg2929
(dp3078
I1698
S'        command = a[0]'
p3079
sI1699
S'        if self.db._debug:'
p3080
sI1700
S"            LOGGER.debug('SQL: %s' % command)"
p3081
sI1701
S'        self.db._lastsql = command'
p3082
sI1702
S'        t0 = time.time()'
p3083
sI1703
S'        ret = self.cursor.execute(*a, **b)'
p3084
sI1704
S'        self.db._timings.append((command,time.time()-t0))'
p3085
sI1705
S'        del self.db._timings[:-TIMINGSSIZE]'
p3086
sI1706
S'        return ret'
p3087
sI1707
S''
ssg2941
S"(self=<gluon.dal.PostgreSQLAdapter object>, *a=('CREATE TABLE meetme(\\n    confno SERIAL PRIMARY K...    membros_user TEXT,\\n    PRIMARY KEY(confno)) ;',), **b={})"
p3088
sg2943
S'log_execute'
p3089
sa(dp3090
g2920
S'/var/www/conferencia/gluon/contrib/pg8000/dbapi.py'
p3091
sg2922
(dp3092
S'self'
p3093
S'<gluon.contrib.pg8000.dbapi.CursorWrapper object>'
p3094
sS'args'
p3095
S"('CREATE TABLE meetme(\\n    confno SERIAL PRIMARY K...    membros_user TEXT,\\n    PRIMARY KEY(confno)) ;',)"
p3096
sS'fn'
p3097
S'<function execute>'
p3098
sS'kwargs'
p3099
g21
ssg2928
I246
sg2929
(dp3100
I241
S''
sI242
S'def require_open_cursor(fn):'
p3101
sI243
S'    def _fn(self, *args, **kwargs):'
p3102
sI244
S'        if self.cursor == None:'
p3103
sI245
S'            raise CursorClosedError()'
p3104
sI246
S'        return fn(self, *args, **kwargs)'
p3105
sI247
S'    return _fn'
p3106
sI248
S''
sI249
S'##'
p3107
sI250
S'# The class of object returned by the {@link #ConnectionWrapper.cursor cursor method}.'
p3108
ssg2941
S"(self=<gluon.contrib.pg8000.dbapi.CursorWrapper object>, *args=('CREATE TABLE meetme(\\n    confno SERIAL PRIMARY K...    membros_user TEXT,\\n    PRIMARY KEY(confno)) ;',), **kwargs={})"
p3109
sg2943
S'_fn'
p3110
sa(dp3111
g2920
S'/var/www/conferencia/gluon/contrib/pg8000/dbapi.py'
p3112
sg2922
(dp3113
S'self._execute'
p3114
S'<bound method CursorWrapper._execute of <gluon.contrib.pg8000.dbapi.CursorWrapper object>>'
p3115
sS'self'
p3116
S'<gluon.contrib.pg8000.dbapi.CursorWrapper object>'
p3117
sS'args'
p3118
S'()'
p3119
sS'operation'
p3120
S"'CREATE TABLE meetme(\\n    confno SERIAL PRIMARY K...    membros_user TEXT,\\n    PRIMARY KEY(confno)) ;'"
p3121
ssg2928
I317
sg2929
(dp3122
I320
S'        new_query, new_args = convert_paramstyle(paramstyle, operation, args)'
p3123
sI321
S'        try:'
p3124
sI312
S'    @require_open_cursor'
p3125
sI313
S'    def execute(self, operation, args=()):'
p3126
sI314
S'        if not self._connection.in_transaction:'
p3127
sI315
S'            self._connection.begin()'
p3128
sI316
S'        self._override_rowcount = None'
p3129
sI317
S'        self._execute(operation, args)'
p3130
sI318
S''
sI319
S'    def _execute(self, operation, args=()):'
p3131
ssg2941
S"(self=<gluon.contrib.pg8000.dbapi.CursorWrapper object>, operation='CREATE TABLE meetme(\\n    confno SERIAL PRIMARY K...    membros_user TEXT,\\n    PRIMARY KEY(confno)) ;', args=())"
p3132
sg2943
g3066
sa(dp3133
g2920
S'/var/www/conferencia/gluon/contrib/pg8000/dbapi.py'
p3134
sg2922
(dp3135
S'new_args'
p3136
S'()'
p3137
sS'self.cursor'
p3138
S'<gluon.contrib.pg8000.interface.Cursor object>'
p3139
sS'self'
p3140
S'<gluon.contrib.pg8000.dbapi.CursorWrapper object>'
p3141
sS'new_query'
p3142
S"'CREATE TABLE meetme(\\n    confno SERIAL PRIMARY K...    membros_user TEXT,\\n    PRIMARY KEY(confno)) ;'"
p3143
sS'self.cursor.execute'
p3144
S'<bound method Cursor.execute of <gluon.contrib.pg8000.interface.Cursor object>>'
p3145
ssg2928
I322
sg2929
(dp3146
I320
S'        new_query, new_args = convert_paramstyle(paramstyle, operation, args)'
p3147
sI321
S'        try:'
p3148
sI322
S'            self.cursor.execute(new_query, *new_args)'
p3149
sI323
S'        except ConnectionClosedError:'
p3150
sI324
S"            # can't rollback in this case"
p3151
sI325
S'            raise'
p3152
sI326
S'        except:'
p3153
sI317
S'        self._execute(operation, args)'
p3154
sI318
S''
sI319
S'    def _execute(self, operation, args=()):'
p3155
ssg2941
S"(self=<gluon.contrib.pg8000.dbapi.CursorWrapper object>, operation='CREATE TABLE meetme(\\n    confno SERIAL PRIMARY K...    membros_user TEXT,\\n    PRIMARY KEY(confno)) ;', args=())"
p3156
sg2943
S'_execute'
p3157
sa(dp3158
g2920
S'/var/www/conferencia/gluon/contrib/pg8000/interface.py'
p3159
sg2922
(dp3160
S'self._stmt.execute'
p3161
S'<bound method PreparedStatement.execute of <gluo...ntrib.pg8000.interface.PreparedStatement object>>'
p3162
sS'kwargs'
p3163
g21
sS'self'
p3164
S'<gluon.contrib.pg8000.interface.Cursor object>'
p3165
sS'args'
p3166
S'()'
p3167
sS'self._stmt'
p3168
S'<gluon.contrib.pg8000.interface.PreparedStatement object>'
p3169
ssg2928
I399
sg2929
(dp3170
I394
S'                ## print "SimpleQuery:", query'
p3171
sI395
S'                self._stmt = SimpleStatement(self.connection, query)'
p3172
sI396
S'            else:'
p3173
sI397
S'                # use PostgreSQL Extended Query Protocol'
p3174
sI398
S'                self._stmt = PreparedStatement(self.connection, query, statement_name="", *[{"type": type(x), "value": x} for x in args])'
p3175
sI399
S'            self._stmt.execute(*args, **kwargs)'
p3176
sI400
S'        finally:'
p3177
sI401
S'            self.connection._unnamed_prepared_statement_lock.release()'
p3178
sI402
S''
sI403
S'    ##'
p3179
ssg2941
S"(self=<gluon.contrib.pg8000.interface.Cursor object>, query='CREATE TABLE meetme(\\n    confno SERIAL PRIMARY K...    membros_user TEXT,\\n    PRIMARY KEY(confno)) ;', *args=(), **kwargs={})"
p3180
sg2943
g3066
sa(dp3181
g2920
S'/var/www/conferencia/gluon/contrib/pg8000/interface.py'
p3182
sg2922
(dp3183
S'kwargs.get'
p3184
S'<built-in method get of dict object>'
p3185
sS'args'
p3186
S'()'
p3187
sS'self.c'
p3188
S'<gluon.contrib.pg8000.protocol.Connection object>'
p3189
sS'self'
p3190
S'<gluon.contrib.pg8000.interface.PreparedStatement object>'
p3191
sS'cmd'
p3192
g2949
sS'self._row_desc'
p3193
S'None'
p3194
sS'self.c.bind'
p3195
S'<bound method Connection._fn of <gluon.contrib.pg8000.protocol.Connection object>>'
p3196
sS'self._statement_name'
p3197
S"''"
p3198
sS'self._parse_row_desc'
p3199
S'(None, [])'
p3200
sS'kwargs'
p3201
g21
sS'self._portal_name'
p3202
S"'pg8000_portal_11'"
p3203
ssg2928
I169
sg2929
(dp3204
I164
S'                self._ongoing_row_count = 0'
p3205
sI165
S'            if self._portal_name != None:'
p3206
sI166
S'                self.c.close_portal(self._portal_name)'
p3207
sI167
S'            self._command_complete = False'
p3208
sI168
S'            self._portal_name = "pg8000_portal_%s" % self._statement_number'
p3209
sI169
S'            self._row_desc, cmd = self.c.bind(self._portal_name, self._statement_name, args, self._parse_row_desc, kwargs.get("stream"))'
p3210
sI170
S'            if self._row_desc:'
p3211
sI171
S'                # We execute our cursor right away to fill up our cache.  This'
p3212
sI172
S'                # prevents the cursor from being destroyed, apparently, by a rogue'
p3213
sI173
S'                # Sync between Bind and Execute.  Since it is quite likely that'
p3214
ssg2941
S'(self=<gluon.contrib.pg8000.interface.PreparedStatement object>, *args=(), **kwargs={})'
p3215
sg2943
g3066
sa(dp3216
g2920
S'/var/www/conferencia/gluon/contrib/pg8000/protocol.py'
p3217
sg2922
(dp3218
S'self'
p3219
S'<gluon.contrib.pg8000.protocol.Connection object>'
p3220
sS'args'
p3221
S"('pg8000_portal_11', '', (), (None, []), None)"
p3222
sS'fn'
p3223
S'<function bind>'
p3224
sS'kwargs'
p3225
g21
ssg2928
I943
sg2929
(dp3226
I938
S''
sI939
S'def sync_on_error(fn):'
p3227
sI940
S'    def _fn(self, *args, **kwargs):'
p3228
sI941
S'        try:'
p3229
sI942
S'            self._sock_lock.acquire()'
p3230
sI943
S'            return fn(self, *args, **kwargs)'
p3231
sI944
S'        except:'
p3232
sI945
S'            self._sync()'
p3233
sI946
S'            raise'
p3234
sI947
S'        finally:'
p3235
ssg2941
S"(self=<gluon.contrib.pg8000.protocol.Connection object>, *args=('pg8000_portal_11', '', (), (None, []), None), **kwargs={})"
p3236
sg2943
g3110
sa(dp3237
g2920
S'/var/www/conferencia/gluon/contrib/pg8000/protocol.py'
p3238
sg2922
(dp3239
S'reader.handle_messages'
p3240
S'<bound method MessageReader.handle_messages of <gluon.contrib.pg8000.protocol.MessageReader object>>'
p3241
sS'reader'
p3242
S'<gluon.contrib.pg8000.protocol.MessageReader object>'
p3243
ssg2928
I1142
sg2929
(dp3244
I1137
S''
sI1138
S'        # Return the new row desc, since it will have the format types we'
p3245
sI1139
S'        # asked the server for'
p3246
sI1140
S'        reader.add_message(RowDescription, lambda msg: (msg, None))'
p3247
sI1141
S''
sI1142
S'        return reader.handle_messages()'
p3248
sI1143
S''
sI1144
S'    def _copy_in_response(self, copyin, fileobj, old_reader):'
p3249
sI1145
S'        if fileobj == None:'
p3250
sI1146
S'            raise CopyQueryWithoutStreamError()'
p3251
ssg2941
S"(self=<gluon.contrib.pg8000.protocol.Connection object>, portal='pg8000_portal_11', statement='', params=(), parse_data=(None, []), copy_stream=None)"
p3252
sg2943
S'bind'
p3253
sa(dp3254
g2920
S'/var/www/conferencia/gluon/contrib/pg8000/protocol.py'
p3255
sg2922
(dp3256
S'msg'
p3257
S'<gluon.contrib.pg8000.protocol.NoData object>'
p3258
sS'handler'
p3259
S'<bound method Connection._bind_nodata of <gluon.contrib.pg8000.protocol.Connection object>>'
p3260
sS'retval'
p3261
S'0'
sS'args'
p3262
S"('pg8000_portal_11', <gluon.contrib.pg8000.protocol.MessageReader object>, None)"
p3263
sS'kwargs'
p3264
g21
ssg2928
I911
sg2929
(dp3265
I906
S'            msg = self._conn._read_message()'
p3266
sI907
S'            msg_handled = False'
p3267
sI908
S'            for (msg_class, handler, args, kwargs) in self._msgs:'
p3268
sI909
S'                if isinstance(msg, msg_class):'
p3269
sI910
S'                    msg_handled = True'
p3270
sI911
S'                    retval = handler(msg, *args, **kwargs)'
p3271
sI912
S'                    if retval:'
p3272
sI913
S'                        # The handler returned a true value, meaning that the'
p3273
sI914
S'                        # message loop should be aborted.'
p3274
sI915
S'                        if exc != None:'
p3275
ssg2941
S'(self=<gluon.contrib.pg8000.protocol.MessageReader object>)'
p3276
sg2943
S'handle_messages'
p3277
sa(dp3278
g2920
S'/var/www/conferencia/gluon/contrib/pg8000/protocol.py'
p3279
sg2922
(dp3280
S'reader.handle_messages'
p3281
S'<bound method MessageReader.handle_messages of <gluon.contrib.pg8000.protocol.MessageReader object>>'
p3282
sS'reader'
p3283
S'<gluon.contrib.pg8000.protocol.MessageReader object>'
p3284
ssg2928
I1181
sg2929
(dp3285
I1184
S''
sI1185
S'    @sync_on_error'
p3286
sI1176
S'        reader.add_message(CopyOutResponse, self._copy_out_response, copy_stream, reader)'
p3287
sI1177
S'        reader.add_message(CopyInResponse, self._copy_in_response, copy_stream, reader)'
p3288
sI1178
S"        reader.add_message(CommandComplete, lambda msg, out: out.setdefault('msg', msg) and False, output)"
p3289
sI1179
S'        reader.add_message(ReadyForQuery, lambda msg: 1)'
p3290
sI1180
S'        reader.delay_raising_exception = True'
p3291
sI1181
S'        reader.handle_messages()'
p3292
sI1182
S''
sI1183
S"        old_reader.return_value((None, output['msg']))"
p3293
ssg2941
S"(self=<gluon.contrib.pg8000.protocol.Connection object>, msg=<gluon.contrib.pg8000.protocol.NoData object>, portal='pg8000_portal_11', old_reader=<gluon.contrib.pg8000.protocol.MessageReader object>, copy_stream=None)"
p3294
sg2943
S'_bind_nodata'
p3295
sa(dp3296
g2920
S'/var/www/conferencia/gluon/contrib/pg8000/protocol.py'
p3297
sg2922
(dp3298
S'exc'
p3299
S'ProgrammingError(\'ERROR\', \'42P16\', \'multiple primary keys for table "meetme" are not allowed\')'
p3300
ssg2928
I916
sg2929
(dp3301
I911
S'                    retval = handler(msg, *args, **kwargs)'
p3302
sI912
S'                    if retval:'
p3303
sI913
S'                        # The handler returned a true value, meaning that the'
p3304
sI914
S'                        # message loop should be aborted.'
p3305
sI915
S'                        if exc != None:'
p3306
sI916
S'                            raise exc'
p3307
sI917
S'                        return retval'
p3308
sI918
S'                    elif hasattr(self, "_retval"):'
p3309
sI919
S'                        # The handler told us to return -- used for non-true'
p3310
sI920
S'                        # return values'
p3311
ssg2941
S'(self=<gluon.contrib.pg8000.protocol.MessageReader object>)'
p3312
sg2943
g3277
sasS'pyver'
p3313
S'Python 2.7.3: /usr/bin/python'
p3314
sS'session'
p3315
g61
(g62
g63
NtRp3316
(dp3317
g66
(dp3318
sg68
(lp3319
g61
(g70
g63
NtRp3320
(dp3321
g66
(dp3322
g74
I5
ssg75
Nsg68
(lp3323
g61
(g77
g63
NtRp3324
(dp3325
g66
(dp3326
sg75
g3320
sg68
(lp3327
g61
(g82
g63
NtRp3328
(dp3329
g66
(dp3330
g86
g87
ssg75
g3324
sg68
(lp3331
S'flash'
p3332
asbag61
(g82
g63
NtRp3333
(dp3334
g66
(dp3335
g93
g94
ssg75
g3324
sg68
(lp3336
S':'
asbag61
(g82
g63
NtRp3337
(dp3338
g66
(dp3339
sg75
g3324
sg68
(lp3340
g61
(g62
g63
NtRp3341
(dp3342
g66
(dp3343
g74
I5
ssg75
g3337
sg68
(lp3344
S'None'
p3345
asbasbasbasbasbsS'etype'
p3346
S"<class 'gluon.contrib.pg8000.errors.ProgrammingError'>"
p3347
sS'date'
p3348
S'Tue Apr  2 18:57:55 2013'
p3349
sS'response'
p3350
g61
(g62
g63
NtRp3351
(dp3352
g66
(dp3353
sg68
(lp3354
g61
(g70
g63
NtRp3355
(dp3356
g66
(dp3357
g74
I5
ssg75
Nsg68
(lp3358
g61
(g77
g63
NtRp3359
(dp3360
g66
(dp3361
sg75
g3355
sg68
(lp3362
g61
(g82
g63
NtRp3363
(dp3364
g66
(dp3365
g86
g87
ssg75
g3359
sg68
(lp3366
g159
asbag61
(g82
g63
NtRp3367
(dp3368
g66
(dp3369
g93
g94
ssg75
g3359
sg68
(lp3370
S':'
asbag61
(g82
g63
NtRp3371
(dp3372
g66
(dp3373
sg75
g3359
sg68
(lp3374
g61
(g62
g63
NtRp3375
(dp3376
g66
(dp3377
g74
I5
ssg75
g3371
sg68
(lp3378
S'<cStringIO.StringO object at 0x1ee2030>'
p3379
asbasbasbag61
(g77
g63
NtRp3380
(dp3381
g66
(dp3382
sg75
g3355
sg68
(lp3383
g61
(g82
g63
NtRp3384
(dp3385
g66
(dp3386
g86
g87
ssg75
g3380
sg68
(lp3387
g247
asbag61
(g82
g63
NtRp3388
(dp3389
g66
(dp3390
g93
g94
ssg75
g3380
sg68
(lp3391
S':'
asbag61
(g82
g63
NtRp3392
(dp3393
g66
(dp3394
sg75
g3380
sg68
(lp3395
g61
(g62
g63
NtRp3396
(dp3397
g66
(dp3398
g74
I5
ssg75
g3392
sg68
(lp3399
g61
(g70
g63
NtRp3400
(dp3401
g66
(dp3402
g74
I4
ssg75
Nsg68
(lp3403
g61
(g77
g63
NtRp3404
(dp3405
g66
(dp3406
sg75
g3400
sg68
(lp3407
g61
(g82
g63
NtRp3408
(dp3409
g66
(dp3410
g86
g87
ssg75
g3404
sg68
(lp3411
S'session_id_projeto'
p3412
asbag61
(g82
g63
NtRp3413
(dp3414
g66
(dp3415
g93
g94
ssg75
g3404
sg68
(lp3416
S':'
asbag61
(g82
g63
NtRp3417
(dp3418
g66
(dp3419
sg75
g3404
sg68
(lp3420
g61
(g62
g63
NtRp3421
(dp3422
g66
(dp3423
g74
I4
ssg75
g3417
sg68
(lp3424
g479
ag61
(g70
g63
NtRp3425
(dp3426
g66
(dp3427
g74
I3
ssg75
Nsg68
(lp3428
g61
(g77
g63
NtRp3429
(dp3430
g66
(dp3431
sg75
g3425
sg68
(lp3432
g61
(g82
g63
NtRp3433
(dp3434
g66
(dp3435
g86
g87
ssg75
g3429
sg68
(lp3436
g298
asbag61
(g82
g63
NtRp3437
(dp3438
g66
(dp3439
g93
g94
ssg75
g3429
sg68
(lp3440
S':'
asbag61
(g82
g63
NtRp3441
(dp3442
g66
(dp3443
sg75
g3429
sg68
(lp3444
g61
(g62
g63
NtRp3445
(dp3446
g66
(dp3447
g74
I3
ssg75
g3441
sg68
(lp3448
S''
asbasbasbag61
(g77
g63
NtRp3449
(dp3450
g66
(dp3451
sg75
g3425
sg68
(lp3452
g61
(g82
g63
NtRp3453
(dp3454
g66
(dp3455
g86
g87
ssg75
g3449
sg68
(lp3456
g319
asbag61
(g82
g63
NtRp3457
(dp3458
g66
(dp3459
g93
g94
ssg75
g3449
sg68
(lp3460
S':'
asbag61
(g82
g63
NtRp3461
(dp3462
g66
(dp3463
sg75
g3449
sg68
(lp3464
g61
(g62
g63
NtRp3465
(dp3466
g66
(dp3467
g74
I3
ssg75
g3461
sg68
(lp3468
S''
asbasbasbag61
(g77
g63
NtRp3469
(dp3470
g66
(dp3471
sg75
g3425
sg68
(lp3472
g61
(g82
g63
NtRp3473
(dp3474
g66
(dp3475
g86
g87
ssg75
g3469
sg68
(lp3476
g340
asbag61
(g82
g63
NtRp3477
(dp3478
g66
(dp3479
g93
g94
ssg75
g3469
sg68
(lp3480
S':'
asbag61
(g82
g63
NtRp3481
(dp3482
g66
(dp3483
sg75
g3469
sg68
(lp3484
g61
(g62
g63
NtRp3485
(dp3486
g66
(dp3487
g74
I3
ssg75
g3481
sg68
(lp3488
S''
asbasbasbag61
(g77
g63
NtRp3489
(dp3490
g66
(dp3491
sg75
g3425
sg68
(lp3492
g61
(g82
g63
NtRp3493
(dp3494
g66
(dp3495
g86
g87
ssg75
g3489
sg68
(lp3496
g361
asbag61
(g82
g63
NtRp3497
(dp3498
g66
(dp3499
g93
g94
ssg75
g3489
sg68
(lp3500
S':'
asbag61
(g82
g63
NtRp3501
(dp3502
g66
(dp3503
sg75
g3489
sg68
(lp3504
g61
(g62
g63
NtRp3505
(dp3506
g66
(dp3507
g74
I3
ssg75
g3501
sg68
(lp3508
S''
asbasbasbag61
(g77
g63
NtRp3509
(dp3510
g66
(dp3511
sg75
g3425
sg68
(lp3512
g61
(g82
g63
NtRp3513
(dp3514
g66
(dp3515
g86
g87
ssg75
g3509
sg68
(lp3516
g382
asbag61
(g82
g63
NtRp3517
(dp3518
g66
(dp3519
g93
g94
ssg75
g3509
sg68
(lp3520
S':'
asbag61
(g82
g63
NtRp3521
(dp3522
g66
(dp3523
sg75
g3509
sg68
(lp3524
g61
(g62
g63
NtRp3525
(dp3526
g66
(dp3527
g74
I3
ssg75
g3521
sg68
(lp3528
S''
asbasbasbag61
(g77
g63
NtRp3529
(dp3530
g66
(dp3531
sg75
g3425
sg68
(lp3532
g61
(g82
g63
NtRp3533
(dp3534
g66
(dp3535
g86
g87
ssg75
g3529
sg68
(lp3536
g403
asbag61
(g82
g63
NtRp3537
(dp3538
g66
(dp3539
g93
g94
ssg75
g3529
sg68
(lp3540
S':'
asbag61
(g82
g63
NtRp3541
(dp3542
g66
(dp3543
sg75
g3529
sg68
(lp3544
g61
(g62
g63
NtRp3545
(dp3546
g66
(dp3547
g74
I3
ssg75
g3541
sg68
(lp3548
S'/'
asbasbasbag61
(g77
g63
NtRp3549
(dp3550
g66
(dp3551
sg75
g3425
sg68
(lp3552
g61
(g82
g63
NtRp3553
(dp3554
g66
(dp3555
g86
g87
ssg75
g3549
sg68
(lp3556
g424
asbag61
(g82
g63
NtRp3557
(dp3558
g66
(dp3559
g93
g94
ssg75
g3549
sg68
(lp3560
S':'
asbag61
(g82
g63
NtRp3561
(dp3562
g66
(dp3563
sg75
g3549
sg68
(lp3564
g61
(g62
g63
NtRp3565
(dp3566
g66
(dp3567
g74
I3
ssg75
g3561
sg68
(lp3568
S''
asbasbasbag61
(g77
g63
NtRp3569
(dp3570
g66
(dp3571
sg75
g3425
sg68
(lp3572
g61
(g82
g63
NtRp3573
(dp3574
g66
(dp3575
g86
g87
ssg75
g3569
sg68
(lp3576
g445
asbag61
(g82
g63
NtRp3577
(dp3578
g66
(dp3579
g93
g94
ssg75
g3569
sg68
(lp3580
S':'
asbag61
(g82
g63
NtRp3581
(dp3582
g66
(dp3583
sg75
g3569
sg68
(lp3584
g61
(g62
g63
NtRp3585
(dp3586
g66
(dp3587
g74
I3
ssg75
g3581
sg68
(lp3588
S''
asbasbasbasbasbasbasbasbasbasbasbag61
(g77
g63
NtRp3589
(dp3590
g66
(dp3591
sg75
g3355
sg68
(lp3592
g61
(g82
g63
NtRp3593
(dp3594
g66
(dp3595
g86
g87
ssg75
g3589
sg68
(lp3596
S'delimiters'
p3597
asbag61
(g82
g63
NtRp3598
(dp3599
g66
(dp3600
g93
g94
ssg75
g3589
sg68
(lp3601
S':'
asbag61
(g82
g63
NtRp3602
(dp3603
g66
(dp3604
sg75
g3589
sg68
(lp3605
g61
(g62
g63
NtRp3606
(dp3607
g66
(dp3608
g74
I5
ssg75
g3602
sg68
(lp3609
g61
(g70
g63
NtRp3610
(dp3611
g66
(dp3612
g74
I4
ssg75
Nsg68
(lp3613
g61
(g77
g63
NtRp3614
(dp3615
g66
(dp3616
sg75
g3610
sg68
(lp3617
g61
(g82
g63
NtRp3618
(dp3619
g66
(dp3620
sg75
g3614
sg68
(lp3621
g61
(g62
g63
NtRp3622
(dp3623
g66
(dp3624
g74
I4
ssg75
g3618
sg68
(lp3625
S'{{'
p3626
asbasbasbag61
(g77
g63
NtRp3627
(dp3628
g66
(dp3629
sg75
g3610
sg68
(lp3630
g61
(g82
g63
NtRp3631
(dp3632
g66
(dp3633
sg75
g3627
sg68
(lp3634
g61
(g62
g63
NtRp3635
(dp3636
g66
(dp3637
g74
I4
ssg75
g3631
sg68
(lp3638
S'}}'
p3639
asbasbasbasbasbasbasbag61
(g77
g63
NtRp3640
(dp3641
g66
(dp3642
sg75
g3355
sg68
(lp3643
g61
(g82
g63
NtRp3644
(dp3645
g66
(dp3646
g86
g87
ssg75
g3640
sg68
(lp3647
S'files'
p3648
asbag61
(g82
g63
NtRp3649
(dp3650
g66
(dp3651
g93
g94
ssg75
g3640
sg68
(lp3652
S':'
asbag61
(g82
g63
NtRp3653
(dp3654
g66
(dp3655
sg75
g3640
sg68
(lp3656
g61
(g62
g63
NtRp3657
(dp3658
g66
(dp3659
g74
I5
ssg75
g3653
sg68
(lp3660
g61
(g70
g63
NtRp3661
(dp3662
g66
(dp3663
g74
I4
ssg75
Nsg68
(lp3664
sbasbasbasbag61
(g77
g63
NtRp3665
(dp3666
g66
(dp3667
sg75
g3355
sg68
(lp3668
g61
(g82
g63
NtRp3669
(dp3670
g66
(dp3671
g86
g87
ssg75
g3665
sg68
(lp3672
S'flash'
p3673
asbag61
(g82
g63
NtRp3674
(dp3675
g66
(dp3676
g93
g94
ssg75
g3665
sg68
(lp3677
S':'
asbag61
(g82
g63
NtRp3678
(dp3679
g66
(dp3680
sg75
g3665
sg68
(lp3681
g61
(g62
g63
NtRp3682
(dp3683
g66
(dp3684
g74
I5
ssg75
g3678
sg68
(lp3685
S''
asbasbasbag61
(g77
g63
NtRp3686
(dp3687
g66
(dp3688
sg75
g3355
sg68
(lp3689
g61
(g82
g63
NtRp3690
(dp3691
g66
(dp3692
g86
g87
ssg75
g3686
sg68
(lp3693
S'generic_patterns'
p3694
asbag61
(g82
g63
NtRp3695
(dp3696
g66
(dp3697
g93
g94
ssg75
g3686
sg68
(lp3698
S':'
asbag61
(g82
g63
NtRp3699
(dp3700
g66
(dp3701
sg75
g3686
sg68
(lp3702
g61
(g62
g63
NtRp3703
(dp3704
g66
(dp3705
g74
I5
ssg75
g3699
sg68
(lp3706
g61
(g70
g63
NtRp3707
(dp3708
g66
(dp3709
g74
I4
ssg75
Nsg68
(lp3710
g61
(g77
g63
NtRp3711
(dp3712
g66
(dp3713
sg75
g3707
sg68
(lp3714
g61
(g82
g63
NtRp3715
(dp3716
g66
(dp3717
sg75
g3711
sg68
(lp3718
g61
(g62
g63
NtRp3719
(dp3720
g66
(dp3721
g74
I4
ssg75
g3715
sg68
(lp3722
S'*'
asbasbasbasbasbasbasbag61
(g77
g63
NtRp3723
(dp3724
g66
(dp3725
sg75
g3355
sg68
(lp3726
g61
(g82
g63
NtRp3727
(dp3728
g66
(dp3729
g86
g87
ssg75
g3723
sg68
(lp3730
S'google_analytics_id'
p3731
asbag61
(g82
g63
NtRp3732
(dp3733
g66
(dp3734
g93
g94
ssg75
g3723
sg68
(lp3735
S':'
asbag61
(g82
g63
NtRp3736
(dp3737
g66
(dp3738
sg75
g3723
sg68
(lp3739
g61
(g62
g63
NtRp3740
(dp3741
g66
(dp3742
g74
I5
ssg75
g3736
sg68
(lp3743
S'None'
p3744
asbasbasbag61
(g77
g63
NtRp3745
(dp3746
g66
(dp3747
sg75
g3355
sg68
(lp3748
g61
(g82
g63
NtRp3749
(dp3750
g66
(dp3751
g86
g87
ssg75
g3745
sg68
(lp3752
S'headers'
p3753
asbag61
(g82
g63
NtRp3754
(dp3755
g66
(dp3756
g93
g94
ssg75
g3745
sg68
(lp3757
S':'
asbag61
(g82
g63
NtRp3758
(dp3759
g66
(dp3760
sg75
g3745
sg68
(lp3761
g61
(g62
g63
NtRp3762
(dp3763
g66
(dp3764
g74
I5
ssg75
g3758
sg68
(lp3765
g61
(g70
g63
NtRp3766
(dp3767
g66
(dp3768
g74
I4
ssg75
Nsg68
(lp3769
g61
(g77
g63
NtRp3770
(dp3771
g66
(dp3772
sg75
g3766
sg68
(lp3773
g61
(g82
g63
NtRp3774
(dp3775
g66
(dp3776
g86
g87
ssg75
g3770
sg68
(lp3777
S'X-Powered-By'
p3778
asbag61
(g82
g63
NtRp3779
(dp3780
g66
(dp3781
g93
g94
ssg75
g3770
sg68
(lp3782
S':'
asbag61
(g82
g63
NtRp3783
(dp3784
g66
(dp3785
sg75
g3770
sg68
(lp3786
g61
(g62
g63
NtRp3787
(dp3788
g66
(dp3789
g74
I4
ssg75
g3783
sg68
(lp3790
S'web2py'
p3791
asbasbasbasbasbasbasbag61
(g77
g63
NtRp3792
(dp3793
g66
(dp3794
sg75
g3355
sg68
(lp3795
g61
(g82
g63
NtRp3796
(dp3797
g66
(dp3798
g86
g87
ssg75
g3792
sg68
(lp3799
S'logo'
p3800
asbag61
(g82
g63
NtRp3801
(dp3802
g66
(dp3803
g93
g94
ssg75
g3792
sg68
(lp3804
S':'
asbag61
(g82
g63
NtRp3805
(dp3806
g66
(dp3807
sg75
g3792
sg68
(lp3808
g61
(g62
g63
NtRp3809
(dp3810
g66
(dp3811
g74
I5
ssg75
g3805
sg68
(lp3812
g61
(cgluon.html
A
p3813
g63
NtRp3814
(dp3815
g66
(dp3816
S'_class'
p3817
S'brand'
p3818
sS'_href'
p3819
g1676
ssg75
Nsg68
(lp3820
g61
(cgluon.html
B
p3821
g63
NtRp3822
(dp3823
g66
(dp3824
sg75
g3814
sg68
(lp3825
S'hosts'
p3826
ag61
(cgluon.html
SPAN
p3827
g63
NtRp3828
(dp3829
g66
(dp3830
sg75
g3822
sg68
(lp3831
S'3'
asbaS''
asbacgluon.html
XML_unpickle
p3832
(S's\r\x00\x00\x00&trade;&nbsp;'
tRp3833
asbasbasbasbag61
(g77
g63
NtRp3834
(dp3835
g66
(dp3836
sg75
g3355
sg68
(lp3837
g61
(g82
g63
NtRp3838
(dp3839
g66
(dp3840
g86
g87
ssg75
g3834
sg68
(lp3841
S'menu'
p3842
asbag61
(g82
g63
NtRp3843
(dp3844
g66
(dp3845
g93
g94
ssg75
g3834
sg68
(lp3846
S':'
asbag61
(g82
g63
NtRp3847
(dp3848
g66
(dp3849
sg75
g3834
sg68
(lp3850
g61
(g62
g63
NtRp3851
(dp3852
g66
(dp3853
g74
I5
ssg75
g3847
sg68
(lp3854
g61
(g70
g63
NtRp3855
(dp3856
g66
(dp3857
g74
I4
ssg75
Nsg68
(lp3858
g61
(g77
g63
NtRp3859
(dp3860
g66
(dp3861
sg75
g3855
sg68
(lp3862
g61
(g82
g63
NtRp3863
(dp3864
g66
(dp3865
sg75
g3859
sg68
(lp3866
g61
(g62
g63
NtRp3867
(dp3868
g66
(dp3869
g74
I4
ssg75
g3863
sg68
(lp3870
g61
(g70
g63
NtRp3871
(dp3872
g66
(dp3873
g74
I3
ssg75
Nsg68
(lp3874
g61
(g77
g63
NtRp3875
(dp3876
g66
(dp3877
sg75
g3871
sg68
(lp3878
g61
(g82
g63
NtRp3879
(dp3880
g66
(dp3881
sg75
g3875
sg68
(lp3882
g61
(g62
g63
NtRp3883
(dp3884
g66
(dp3885
g74
I3
ssg75
g3879
sg68
(lp3886
cgluon.languages
lazyT_unpickle
p3887
(S't\x08\x00\x00\x00Clientes'
tRp3888
asbasbasbag61
(g77
g63
NtRp3889
(dp3890
g66
(dp3891
sg75
g3871
sg68
(lp3892
g61
(g82
g63
NtRp3893
(dp3894
g66
(dp3895
sg75
g3889
sg68
(lp3896
g61
(g62
g63
NtRp3897
(dp3898
g66
(dp3899
g74
I3
ssg75
g3893
sg68
(lp3900
g104
asbasbasbag61
(g77
g63
NtRp3901
(dp3902
g66
(dp3903
sg75
g3871
sg68
(lp3904
g61
(g82
g63
NtRp3905
(dp3906
g66
(dp3907
sg75
g3901
sg68
(lp3908
g61
(g62
g63
NtRp3909
(dp3910
g66
(dp3911
g74
I3
ssg75
g3905
sg68
(lp3912
S'/show_cliente'
p3913
asbasbasbag61
(g77
g63
NtRp3914
(dp3915
g66
(dp3916
sg75
g3871
sg68
(lp3917
g61
(g82
g63
NtRp3918
(dp3919
g66
(dp3920
sg75
g3914
sg68
(lp3921
g61
(g62
g63
NtRp3922
(dp3923
g66
(dp3924
g74
I3
ssg75
g3918
sg68
(lp3925
g61
(g70
g63
NtRp3926
(dp3927
g66
(dp3928
g74
I2
ssg75
Nsg68
(lp3929
sbasbasbasbasbasbasbasbag61
(g77
g63
NtRp3930
(dp3931
g66
(dp3932
sg75
g3855
sg68
(lp3933
g61
(g82
g63
NtRp3934
(dp3935
g66
(dp3936
sg75
g3930
sg68
(lp3937
g61
(g62
g63
NtRp3938
(dp3939
g66
(dp3940
g74
I4
ssg75
g3934
sg68
(lp3941
g61
(g70
g63
NtRp3942
(dp3943
g66
(dp3944
g74
I3
ssg75
Nsg68
(lp3945
g61
(g77
g63
NtRp3946
(dp3947
g66
(dp3948
sg75
g3942
sg68
(lp3949
g61
(g82
g63
NtRp3950
(dp3951
g66
(dp3952
sg75
g3946
sg68
(lp3953
g61
(g62
g63
NtRp3954
(dp3955
g66
(dp3956
g74
I3
ssg75
g3950
sg68
(lp3957
g3887
(S't\n\x00\x00\x00Servidores'
tRp3958
asbasbasbag61
(g77
g63
NtRp3959
(dp3960
g66
(dp3961
sg75
g3942
sg68
(lp3962
g61
(g82
g63
NtRp3963
(dp3964
g66
(dp3965
sg75
g3959
sg68
(lp3966
g61
(g62
g63
NtRp3967
(dp3968
g66
(dp3969
g74
I3
ssg75
g3963
sg68
(lp3970
g104
asbasbasbag61
(g77
g63
NtRp3971
(dp3972
g66
(dp3973
sg75
g3942
sg68
(lp3974
g61
(g82
g63
NtRp3975
(dp3976
g66
(dp3977
sg75
g3971
sg68
(lp3978
g61
(g62
g63
NtRp3979
(dp3980
g66
(dp3981
g74
I3
ssg75
g3975
sg68
(lp3982
S'/show_servidor'
p3983
asbasbasbag61
(g77
g63
NtRp3984
(dp3985
g66
(dp3986
sg75
g3942
sg68
(lp3987
g61
(g82
g63
NtRp3988
(dp3989
g66
(dp3990
sg75
g3984
sg68
(lp3991
g61
(g62
g63
NtRp3992
(dp3993
g66
(dp3994
g74
I3
ssg75
g3988
sg68
(lp3995
g61
(g70
g63
NtRp3996
(dp3997
g66
(dp3998
g74
I2
ssg75
Nsg68
(lp3999
sbasbasbasbasbasbasbasbag61
(g77
g63
NtRp4000
(dp4001
g66
(dp4002
sg75
g3855
sg68
(lp4003
g61
(g82
g63
NtRp4004
(dp4005
g66
(dp4006
sg75
g4000
sg68
(lp4007
g61
(g62
g63
NtRp4008
(dp4009
g66
(dp4010
g74
I4
ssg75
g4004
sg68
(lp4011
g61
(g70
g63
NtRp4012
(dp4013
g66
(dp4014
g74
I3
ssg75
Nsg68
(lp4015
g61
(g77
g63
NtRp4016
(dp4017
g66
(dp4018
sg75
g4012
sg68
(lp4019
g61
(g82
g63
NtRp4020
(dp4021
g66
(dp4022
sg75
g4016
sg68
(lp4023
g61
(g62
g63
NtRp4024
(dp4025
g66
(dp4026
g74
I3
ssg75
g4020
sg68
(lp4027
g3887
(S't\x07\x00\x00\x00Distros'
tRp4028
asbasbasbag61
(g77
g63
NtRp4029
(dp4030
g66
(dp4031
sg75
g4012
sg68
(lp4032
g61
(g82
g63
NtRp4033
(dp4034
g66
(dp4035
sg75
g4029
sg68
(lp4036
g61
(g62
g63
NtRp4037
(dp4038
g66
(dp4039
g74
I3
ssg75
g4033
sg68
(lp4040
g104
asbasbasbag61
(g77
g63
NtRp4041
(dp4042
g66
(dp4043
sg75
g4012
sg68
(lp4044
g61
(g82
g63
NtRp4045
(dp4046
g66
(dp4047
sg75
g4041
sg68
(lp4048
g61
(g62
g63
NtRp4049
(dp4050
g66
(dp4051
g74
I3
ssg75
g4045
sg68
(lp4052
S'/show_distro'
p4053
asbasbasbag61
(g77
g63
NtRp4054
(dp4055
g66
(dp4056
sg75
g4012
sg68
(lp4057
g61
(g82
g63
NtRp4058
(dp4059
g66
(dp4060
sg75
g4054
sg68
(lp4061
g61
(g62
g63
NtRp4062
(dp4063
g66
(dp4064
g74
I3
ssg75
g4058
sg68
(lp4065
g61
(g70
g63
NtRp4066
(dp4067
g66
(dp4068
g74
I2
ssg75
Nsg68
(lp4069
sbasbasbasbasbasbasbasbag61
(g77
g63
NtRp4070
(dp4071
g66
(dp4072
sg75
g3855
sg68
(lp4073
g61
(g82
g63
NtRp4074
(dp4075
g66
(dp4076
sg75
g4070
sg68
(lp4077
g61
(g62
g63
NtRp4078
(dp4079
g66
(dp4080
g74
I4
ssg75
g4074
sg68
(lp4081
g61
(g70
g63
NtRp4082
(dp4083
g66
(dp4084
g74
I3
ssg75
Nsg68
(lp4085
g61
(g77
g63
NtRp4086
(dp4087
g66
(dp4088
sg75
g4082
sg68
(lp4089
g61
(g82
g63
NtRp4090
(dp4091
g66
(dp4092
sg75
g4086
sg68
(lp4093
g61
(g62
g63
NtRp4094
(dp4095
g66
(dp4096
g74
I3
ssg75
g4090
sg68
(lp4097
g3887
(S's\x05\x00\x00\x00+host'
tRp4098
asbasbasbag61
(g77
g63
NtRp4099
(dp4100
g66
(dp4101
sg75
g4082
sg68
(lp4102
g61
(g82
g63
NtRp4103
(dp4104
g66
(dp4105
sg75
g4099
sg68
(lp4106
g61
(g62
g63
NtRp4107
(dp4108
g66
(dp4109
g74
I3
ssg75
g4103
sg68
(lp4110
g104
asbasbasbag61
(g77
g63
NtRp4111
(dp4112
g66
(dp4113
sg75
g4082
sg68
(lp4114
g61
(g82
g63
NtRp4115
(dp4116
g66
(dp4117
sg75
g4111
sg68
(lp4118
g61
(g62
g63
NtRp4119
(dp4120
g66
(dp4121
g74
I3
ssg75
g4115
sg68
(lp4122
S'/interface'
p4123
asbasbasbag61
(g77
g63
NtRp4124
(dp4125
g66
(dp4126
sg75
g4082
sg68
(lp4127
g61
(g82
g63
NtRp4128
(dp4129
g66
(dp4130
sg75
g4124
sg68
(lp4131
g61
(g62
g63
NtRp4132
(dp4133
g66
(dp4134
g74
I3
ssg75
g4128
sg68
(lp4135
g61
(g70
g63
NtRp4136
(dp4137
g66
(dp4138
g74
I2
ssg75
Nsg68
(lp4139
sbasbasbasbasbasbasbasbasbasbasbasbag61
(g77
g63
NtRp4140
(dp4141
g66
(dp4142
sg75
g3355
sg68
(lp4143
g61
(g82
g63
NtRp4144
(dp4145
g66
(dp4146
g86
g87
ssg75
g4140
sg68
(lp4147
S'menu2'
p4148
asbag61
(g82
g63
NtRp4149
(dp4150
g66
(dp4151
g93
g94
ssg75
g4140
sg68
(lp4152
S':'
asbag61
(g82
g63
NtRp4153
(dp4154
g66
(dp4155
sg75
g4140
sg68
(lp4156
g61
(g62
g63
NtRp4157
(dp4158
g66
(dp4159
g74
I5
ssg75
g4153
sg68
(lp4160
g61
(g70
g63
NtRp4161
(dp4162
g66
(dp4163
g74
I4
ssg75
Nsg68
(lp4164
g61
(g77
g63
NtRp4165
(dp4166
g66
(dp4167
sg75
g4161
sg68
(lp4168
g61
(g82
g63
NtRp4169
(dp4170
g66
(dp4171
sg75
g4165
sg68
(lp4172
g61
(g62
g63
NtRp4173
(dp4174
g66
(dp4175
g74
I4
ssg75
g4169
sg68
(lp4176
g61
(g70
g63
NtRp4177
(dp4178
g66
(dp4179
g74
I3
ssg75
Nsg68
(lp4180
g61
(g77
g63
NtRp4181
(dp4182
g66
(dp4183
sg75
g4177
sg68
(lp4184
g61
(g82
g63
NtRp4185
(dp4186
g66
(dp4187
sg75
g4181
sg68
(lp4188
g61
(g62
g63
NtRp4189
(dp4190
g66
(dp4191
g74
I3
ssg75
g4185
sg68
(lp4192
g61
(g3827
g63
NtRp4193
(dp4194
g66
(dp4195
g3817
S'dropdown-toggle'
p4196
ssg75
Nsg68
(lp4197
S'Admin'
p4198
asbasbasbasbag61
(g77
g63
NtRp4199
(dp4200
g66
(dp4201
sg75
g4177
sg68
(lp4202
g61
(g82
g63
NtRp4203
(dp4204
g66
(dp4205
sg75
g4199
sg68
(lp4206
g61
(g62
g63
NtRp4207
(dp4208
g66
(dp4209
g74
I3
ssg75
g4203
sg68
(lp4210
g104
asbasbasbag61
(g77
g63
NtRp4211
(dp4212
g66
(dp4213
sg75
g4177
sg68
(lp4214
g61
(g82
g63
NtRp4215
(dp4216
g66
(dp4217
sg75
g4211
sg68
(lp4218
g61
(g62
g63
NtRp4219
(dp4220
g66
(dp4221
g74
I3
ssg75
g4215
sg68
(lp4222
S'#'
asbasbasbag61
(g77
g63
NtRp4223
(dp4224
g66
(dp4225
sg75
g4177
sg68
(lp4226
g61
(g82
g63
NtRp4227
(dp4228
g66
(dp4229
sg75
g4223
sg68
(lp4230
g61
(g62
g63
NtRp4231
(dp4232
g66
(dp4233
g74
I3
ssg75
g4227
sg68
(lp4234
g61
(g70
g63
NtRp4235
(dp4236
g66
(dp4237
g74
I2
ssg75
Nsg68
(lp4238
g61
(g77
g63
NtRp4239
(dp4240
g66
(dp4241
sg75
g4235
sg68
(lp4242
g61
(g82
g63
NtRp4243
(dp4244
g66
(dp4245
sg75
g4239
sg68
(lp4246
g61
(g62
g63
NtRp4247
(dp4248
g66
(dp4249
g74
I2
ssg75
g4243
sg68
(lp4250
g61
(g70
g63
NtRp4251
(dp4252
g66
(dp4253
g74
I1
ssg75
Nsg68
(lp4254
g61
(g77
g63
NtRp4255
(dp4256
g66
(dp4257
sg75
g4251
sg68
(lp4258
g61
(g82
g63
NtRp4259
(dp4260
g66
(dp4261
sg75
g4255
sg68
(lp4262
g61
(g62
g63
NtRp4263
(dp4264
g66
(dp4265
g74
I1
ssg75
g4259
sg68
(lp4266
g3887
(S's\t\x00\x00\x00Usu\xc3\xa1rios'
tRp4267
asbasbasbag61
(g77
g63
NtRp4268
(dp4269
g66
(dp4270
sg75
g4251
sg68
(lp4271
g61
(g82
g63
NtRp4272
(dp4273
g66
(dp4274
sg75
g4268
sg68
(lp4275
g61
(g62
g63
NtRp4276
(dp4277
g66
(dp4278
g74
I1
ssg75
g4272
sg68
(lp4279
I00
asbasbasbag61
(g77
g63
NtRp4280
(dp4281
g66
(dp4282
sg75
g4251
sg68
(lp4283
g61
(g82
g63
NtRp4284
(dp4285
g66
(dp4286
sg75
g4280
sg68
(lp4287
g61
(g62
g63
NtRp4288
(dp4289
g66
(dp4290
g74
I1
ssg75
g4284
sg68
(lp4291
S'/manager/users'
p4292
asbasbasbasbasbasbasbag61
(g77
g63
NtRp4293
(dp4294
g66
(dp4295
sg75
g4235
sg68
(lp4296
g61
(g82
g63
NtRp4297
(dp4298
g66
(dp4299
sg75
g4293
sg68
(lp4300
g61
(g62
g63
NtRp4301
(dp4302
g66
(dp4303
g74
I2
ssg75
g4297
sg68
(lp4304
g61
(g70
g63
NtRp4305
(dp4306
g66
(dp4307
g74
I1
ssg75
Nsg68
(lp4308
g61
(g77
g63
NtRp4309
(dp4310
g66
(dp4311
sg75
g4305
sg68
(lp4312
g61
(g82
g63
NtRp4313
(dp4314
g66
(dp4315
sg75
g4309
sg68
(lp4316
g61
(g62
g63
NtRp4317
(dp4318
g66
(dp4319
g74
I1
ssg75
g4313
sg68
(lp4320
g3887
(S't\x06\x00\x00\x00Grupos'
tRp4321
asbasbasbag61
(g77
g63
NtRp4322
(dp4323
g66
(dp4324
sg75
g4305
sg68
(lp4325
g61
(g82
g63
NtRp4326
(dp4327
g66
(dp4328
sg75
g4322
sg68
(lp4329
g61
(g62
g63
NtRp4330
(dp4331
g66
(dp4332
g74
I1
ssg75
g4326
sg68
(lp4333
I00
asbasbasbag61
(g77
g63
NtRp4334
(dp4335
g66
(dp4336
sg75
g4305
sg68
(lp4337
g61
(g82
g63
NtRp4338
(dp4339
g66
(dp4340
sg75
g4334
sg68
(lp4341
g61
(g62
g63
NtRp4342
(dp4343
g66
(dp4344
g74
I1
ssg75
g4338
sg68
(lp4345
S'/manager/groups'
p4346
asbasbasbasbasbasbasbag61
(g77
g63
NtRp4347
(dp4348
g66
(dp4349
sg75
g4235
sg68
(lp4350
g61
(g82
g63
NtRp4351
(dp4352
g66
(dp4353
sg75
g4347
sg68
(lp4354
g61
(g62
g63
NtRp4355
(dp4356
g66
(dp4357
g74
I2
ssg75
g4351
sg68
(lp4358
g61
(g70
g63
NtRp4359
(dp4360
g66
(dp4361
g74
I1
ssg75
Nsg68
(lp4362
g61
(g77
g63
NtRp4363
(dp4364
g66
(dp4365
sg75
g4359
sg68
(lp4366
g61
(g82
g63
NtRp4367
(dp4368
g66
(dp4369
sg75
g4363
sg68
(lp4370
g61
(g62
g63
NtRp4371
(dp4372
g66
(dp4373
g74
I1
ssg75
g4367
sg68
(lp4374
g3887
(S't\x07\x00\x00\x00Membros'
tRp4375
asbasbasbag61
(g77
g63
NtRp4376
(dp4377
g66
(dp4378
sg75
g4359
sg68
(lp4379
g61
(g82
g63
NtRp4380
(dp4381
g66
(dp4382
sg75
g4376
sg68
(lp4383
g61
(g62
g63
NtRp4384
(dp4385
g66
(dp4386
g74
I1
ssg75
g4380
sg68
(lp4387
I00
asbasbasbag61
(g77
g63
NtRp4388
(dp4389
g66
(dp4390
sg75
g4359
sg68
(lp4391
g61
(g82
g63
NtRp4392
(dp4393
g66
(dp4394
sg75
g4388
sg68
(lp4395
g61
(g62
g63
NtRp4396
(dp4397
g66
(dp4398
g74
I1
ssg75
g4392
sg68
(lp4399
S'/manager/membership'
p4400
asbasbasbasbasbasbasbasbasbasbasbasbasbasbasbag61
(g77
g63
NtRp4401
(dp4402
g66
(dp4403
sg75
g4161
sg68
(lp4404
g61
(g82
g63
NtRp4405
(dp4406
g66
(dp4407
sg75
g4401
sg68
(lp4408
g61
(g62
g63
NtRp4409
(dp4410
g66
(dp4411
g74
I4
ssg75
g4405
sg68
(lp4412
g61
(g70
g63
NtRp4413
(dp4414
g66
(dp4415
g74
I3
ssg75
Nsg68
(lp4416
g61
(g77
g63
NtRp4417
(dp4418
g66
(dp4419
sg75
g4413
sg68
(lp4420
g61
(g82
g63
NtRp4421
(dp4422
g66
(dp4423
sg75
g4417
sg68
(lp4424
g61
(g62
g63
NtRp4425
(dp4426
g66
(dp4427
g74
I3
ssg75
g4421
sg68
(lp4428
g61
(g3827
g63
NtRp4429
(dp4430
g66
(dp4431
g3817
g4196
ssg75
Nsg68
(lp4432
S'Login'
p4433
asbasbasbasbag61
(g77
g63
NtRp4434
(dp4435
g66
(dp4436
sg75
g4413
sg68
(lp4437
g61
(g82
g63
NtRp4438
(dp4439
g66
(dp4440
sg75
g4434
sg68
(lp4441
g61
(g62
g63
NtRp4442
(dp4443
g66
(dp4444
g74
I3
ssg75
g4438
sg68
(lp4445
g104
asbasbasbag61
(g77
g63
NtRp4446
(dp4447
g66
(dp4448
sg75
g4413
sg68
(lp4449
g61
(g82
g63
NtRp4450
(dp4451
g66
(dp4452
sg75
g4446
sg68
(lp4453
g61
(g62
g63
NtRp4454
(dp4455
g66
(dp4456
g74
I3
ssg75
g4450
sg68
(lp4457
S'#'
asbasbasbag61
(g77
g63
NtRp4458
(dp4459
g66
(dp4460
sg75
g4413
sg68
(lp4461
g61
(g82
g63
NtRp4462
(dp4463
g66
(dp4464
sg75
g4458
sg68
(lp4465
g61
(g62
g63
NtRp4466
(dp4467
g66
(dp4468
g74
I3
ssg75
g4462
sg68
(lp4469
g61
(g70
g63
NtRp4470
(dp4471
g66
(dp4472
g74
I2
ssg75
Nsg68
(lp4473
g61
(g77
g63
NtRp4474
(dp4475
g66
(dp4476
sg75
g4470
sg68
(lp4477
g61
(g82
g63
NtRp4478
(dp4479
g66
(dp4480
sg75
g4474
sg68
(lp4481
g61
(g62
g63
NtRp4482
(dp4483
g66
(dp4484
g74
I2
ssg75
g4478
sg68
(lp4485
g61
(g70
g63
NtRp4486
(dp4487
g66
(dp4488
g74
I1
ssg75
Nsg68
(lp4489
g61
(g77
g63
NtRp4490
(dp4491
g66
(dp4492
sg75
g4486
sg68
(lp4493
g61
(g82
g63
NtRp4494
(dp4495
g66
(dp4496
sg75
g4490
sg68
(lp4497
g61
(g62
g63
NtRp4498
(dp4499
g66
(dp4500
g74
I1
ssg75
g4494
sg68
(lp4501
g3887
(S't\x06\x00\x00\x00Logout'
tRp4502
asbasbasbag61
(g77
g63
NtRp4503
(dp4504
g66
(dp4505
sg75
g4486
sg68
(lp4506
g61
(g82
g63
NtRp4507
(dp4508
g66
(dp4509
sg75
g4503
sg68
(lp4510
g61
(g62
g63
NtRp4511
(dp4512
g66
(dp4513
g74
I1
ssg75
g4507
sg68
(lp4514
I00
asbasbasbag61
(g77
g63
NtRp4515
(dp4516
g66
(dp4517
sg75
g4486
sg68
(lp4518
g61
(g82
g63
NtRp4519
(dp4520
g66
(dp4521
sg75
g4515
sg68
(lp4522
g61
(g62
g63
NtRp4523
(dp4524
g66
(dp4525
g74
I1
ssg75
g4519
sg68
(lp4526
S'/initial/user/logout'
p4527
asbasbasbasbasbasbasbasbasbasbasbasbasbasbasbasbasbasbasbag61
(g77
g63
NtRp4528
(dp4529
g66
(dp4530
sg75
g3355
sg68
(lp4531
g61
(g82
g63
NtRp4532
(dp4533
g66
(dp4534
g86
g87
ssg75
g4528
sg68
(lp4535
S'meta'
p4536
asbag61
(g82
g63
NtRp4537
(dp4538
g66
(dp4539
g93
g94
ssg75
g4528
sg68
(lp4540
S':'
asbag61
(g82
g63
NtRp4541
(dp4542
g66
(dp4543
sg75
g4528
sg68
(lp4544
g61
(g62
g63
NtRp4545
(dp4546
g66
(dp4547
g74
I5
ssg75
g4541
sg68
(lp4548
g61
(g70
g63
NtRp4549
(dp4550
g66
(dp4551
g74
I4
ssg75
Nsg68
(lp4552
g61
(g77
g63
NtRp4553
(dp4554
g66
(dp4555
sg75
g4549
sg68
(lp4556
g61
(g82
g63
NtRp4557
(dp4558
g66
(dp4559
g86
g87
ssg75
g4553
sg68
(lp4560
S'author'
p4561
asbag61
(g82
g63
NtRp4562
(dp4563
g66
(dp4564
g93
g94
ssg75
g4553
sg68
(lp4565
S':'
asbag61
(g82
g63
NtRp4566
(dp4567
g66
(dp4568
sg75
g4553
sg68
(lp4569
g61
(g62
g63
NtRp4570
(dp4571
g66
(dp4572
g74
I4
ssg75
g4566
sg68
(lp4573
S'Your Name <you@example.com>'
p4574
asbasbasbag61
(g77
g63
NtRp4575
(dp4576
g66
(dp4577
sg75
g4549
sg68
(lp4578
g61
(g82
g63
NtRp4579
(dp4580
g66
(dp4581
g86
g87
ssg75
g4575
sg68
(lp4582
S'description'
p4583
asbag61
(g82
g63
NtRp4584
(dp4585
g66
(dp4586
g93
g94
ssg75
g4575
sg68
(lp4587
S':'
asbag61
(g82
g63
NtRp4588
(dp4589
g66
(dp4590
sg75
g4575
sg68
(lp4591
g61
(g62
g63
NtRp4592
(dp4593
g66
(dp4594
g74
I4
ssg75
g4588
sg68
(lp4595
S'a cool new app'
p4596
asbasbasbag61
(g77
g63
NtRp4597
(dp4598
g66
(dp4599
sg75
g4549
sg68
(lp4600
g61
(g82
g63
NtRp4601
(dp4602
g66
(dp4603
g86
g87
ssg75
g4597
sg68
(lp4604
S'generator'
p4605
asbag61
(g82
g63
NtRp4606
(dp4607
g66
(dp4608
g93
g94
ssg75
g4597
sg68
(lp4609
S':'
asbag61
(g82
g63
NtRp4610
(dp4611
g66
(dp4612
sg75
g4597
sg68
(lp4613
g61
(g62
g63
NtRp4614
(dp4615
g66
(dp4616
g74
I4
ssg75
g4610
sg68
(lp4617
S'Web2py Web Framework'
p4618
asbasbasbag61
(g77
g63
NtRp4619
(dp4620
g66
(dp4621
sg75
g4549
sg68
(lp4622
g61
(g82
g63
NtRp4623
(dp4624
g66
(dp4625
g86
g87
ssg75
g4619
sg68
(lp4626
S'keywords'
p4627
asbag61
(g82
g63
NtRp4628
(dp4629
g66
(dp4630
g93
g94
ssg75
g4619
sg68
(lp4631
S':'
asbag61
(g82
g63
NtRp4632
(dp4633
g66
(dp4634
sg75
g4619
sg68
(lp4635
g61
(g62
g63
NtRp4636
(dp4637
g66
(dp4638
g74
I4
ssg75
g4632
sg68
(lp4639
S'web2py, python, framework'
p4640
asbasbasbasbasbasbasbag61
(g77
g63
NtRp4641
(dp4642
g66
(dp4643
sg75
g3355
sg68
(lp4644
g61
(g82
g63
NtRp4645
(dp4646
g66
(dp4647
g86
g87
ssg75
g4641
sg68
(lp4648
S'models_to_run'
p4649
asbag61
(g82
g63
NtRp4650
(dp4651
g66
(dp4652
g93
g94
ssg75
g4641
sg68
(lp4653
S':'
asbag61
(g82
g63
NtRp4654
(dp4655
g66
(dp4656
sg75
g4641
sg68
(lp4657
g61
(g62
g63
NtRp4658
(dp4659
g66
(dp4660
g74
I5
ssg75
g4654
sg68
(lp4661
g61
(g70
g63
NtRp4662
(dp4663
g66
(dp4664
g74
I4
ssg75
Nsg68
(lp4665
g61
(g77
g63
NtRp4666
(dp4667
g66
(dp4668
sg75
g4662
sg68
(lp4669
g61
(g82
g63
NtRp4670
(dp4671
g66
(dp4672
sg75
g4666
sg68
(lp4673
g61
(g62
g63
NtRp4674
(dp4675
g66
(dp4676
g74
I4
ssg75
g4670
sg68
(lp4677
S'^\\w+\\.py$'
p4678
asbasbasbag61
(g77
g63
NtRp4679
(dp4680
g66
(dp4681
sg75
g4662
sg68
(lp4682
g61
(g82
g63
NtRp4683
(dp4684
g66
(dp4685
sg75
g4679
sg68
(lp4686
g61
(g62
g63
NtRp4687
(dp4688
g66
(dp4689
g74
I4
ssg75
g4683
sg68
(lp4690
S'^initial/\\w+\\.py$'
p4691
asbasbasbag61
(g77
g63
NtRp4692
(dp4693
g66
(dp4694
sg75
g4662
sg68
(lp4695
g61
(g82
g63
NtRp4696
(dp4697
g66
(dp4698
sg75
g4692
sg68
(lp4699
g61
(g62
g63
NtRp4700
(dp4701
g66
(dp4702
g74
I4
ssg75
g4696
sg68
(lp4703
S'^initial/principal/\\w+\\.py$'
p4704
asbasbasbasbasbasbasbag61
(g77
g63
NtRp4705
(dp4706
g66
(dp4707
sg75
g3355
sg68
(lp4708
g61
(g82
g63
NtRp4709
(dp4710
g66
(dp4711
g86
g87
ssg75
g4705
sg68
(lp4712
S'postprocessing'
p4713
asbag61
(g82
g63
NtRp4714
(dp4715
g66
(dp4716
g93
g94
ssg75
g4705
sg68
(lp4717
S':'
asbag61
(g82
g63
NtRp4718
(dp4719
g66
(dp4720
sg75
g4705
sg68
(lp4721
g61
(g62
g63
NtRp4722
(dp4723
g66
(dp4724
g74
I5
ssg75
g4718
sg68
(lp4725
g61
(g70
g63
NtRp4726
(dp4727
g66
(dp4728
g74
I4
ssg75
Nsg68
(lp4729
sbasbasbasbag61
(g77
g63
NtRp4730
(dp4731
g66
(dp4732
sg75
g3355
sg68
(lp4733
g61
(g82
g63
NtRp4734
(dp4735
g66
(dp4736
g86
g87
ssg75
g4730
sg68
(lp4737
S'session_cookie_expires'
p4738
asbag61
(g82
g63
NtRp4739
(dp4740
g66
(dp4741
g93
g94
ssg75
g4730
sg68
(lp4742
S':'
asbag61
(g82
g63
NtRp4743
(dp4744
g66
(dp4745
sg75
g4730
sg68
(lp4746
g61
(g62
g63
NtRp4747
(dp4748
g66
(dp4749
g74
I5
ssg75
g4743
sg68
(lp4750
S'None'
p4751
asbasbasbag61
(g77
g63
NtRp4752
(dp4753
g66
(dp4754
sg75
g3355
sg68
(lp4755
g61
(g82
g63
NtRp4756
(dp4757
g66
(dp4758
g86
g87
ssg75
g4752
sg68
(lp4759
S'session_data_name'
p4760
asbag61
(g82
g63
NtRp4761
(dp4762
g66
(dp4763
g93
g94
ssg75
g4752
sg68
(lp4764
S':'
asbag61
(g82
g63
NtRp4765
(dp4766
g66
(dp4767
sg75
g4752
sg68
(lp4768
g61
(g62
g63
NtRp4769
(dp4770
g66
(dp4771
g74
I5
ssg75
g4765
sg68
(lp4772
S'session_data_projeto'
p4773
asbasbasbag61
(g77
g63
NtRp4774
(dp4775
g66
(dp4776
sg75
g3355
sg68
(lp4777
g61
(g82
g63
NtRp4778
(dp4779
g66
(dp4780
g86
g87
ssg75
g4774
sg68
(lp4781
S'session_file'
p4782
asbag61
(g82
g63
NtRp4783
(dp4784
g66
(dp4785
g93
g94
ssg75
g4774
sg68
(lp4786
S':'
asbag61
(g82
g63
NtRp4787
(dp4788
g66
(dp4789
sg75
g4774
sg68
(lp4790
g61
(g62
g63
NtRp4791
(dp4792
g66
(dp4793
g74
I5
ssg75
g4787
sg68
(lp4794
S"<open file '/var/www/conferencia/applications/projeto/sessions/127.0.0.1-0fe02c32-0739-4f06-a369-3bba6377da8b', mode 'rb+' at 0x1d86660>"
p4795
asbasbasbag61
(g77
g63
NtRp4796
(dp4797
g66
(dp4798
sg75
g3355
sg68
(lp4799
g61
(g82
g63
NtRp4800
(dp4801
g66
(dp4802
g86
g87
ssg75
g4796
sg68
(lp4803
S'session_filename'
p4804
asbag61
(g82
g63
NtRp4805
(dp4806
g66
(dp4807
g93
g94
ssg75
g4796
sg68
(lp4808
S':'
asbag61
(g82
g63
NtRp4809
(dp4810
g66
(dp4811
sg75
g4796
sg68
(lp4812
g61
(g62
g63
NtRp4813
(dp4814
g66
(dp4815
g74
I5
ssg75
g4809
sg68
(lp4816
S'/var/www/conferencia/applications/projeto/sessions/127.0.0.1-0fe02c32-0739-4f06-a369-3bba6377da8b'
p4817
asbasbasbag61
(g77
g63
NtRp4818
(dp4819
g66
(dp4820
sg75
g3355
sg68
(lp4821
g61
(g82
g63
NtRp4822
(dp4823
g66
(dp4824
g86
g87
ssg75
g4818
sg68
(lp4825
S'session_id'
p4826
asbag61
(g82
g63
NtRp4827
(dp4828
g66
(dp4829
g93
g94
ssg75
g4818
sg68
(lp4830
S':'
asbag61
(g82
g63
NtRp4831
(dp4832
g66
(dp4833
sg75
g4818
sg68
(lp4834
g61
(g62
g63
NtRp4835
(dp4836
g66
(dp4837
g74
I5
ssg75
g4831
sg68
(lp4838
g479
asbasbasbag61
(g77
g63
NtRp4839
(dp4840
g66
(dp4841
sg75
g3355
sg68
(lp4842
g61
(g82
g63
NtRp4843
(dp4844
g66
(dp4845
g86
g87
ssg75
g4839
sg68
(lp4846
S'session_id_name'
p4847
asbag61
(g82
g63
NtRp4848
(dp4849
g66
(dp4850
g93
g94
ssg75
g4839
sg68
(lp4851
S':'
asbag61
(g82
g63
NtRp4852
(dp4853
g66
(dp4854
sg75
g4839
sg68
(lp4855
g61
(g62
g63
NtRp4856
(dp4857
g66
(dp4858
g74
I5
ssg75
g4852
sg68
(lp4859
g3412
asbasbasbag61
(g77
g63
NtRp4860
(dp4861
g66
(dp4862
sg75
g3355
sg68
(lp4863
g61
(g82
g63
NtRp4864
(dp4865
g66
(dp4866
g86
g87
ssg75
g4860
sg68
(lp4867
S'session_locked'
p4868
asbag61
(g82
g63
NtRp4869
(dp4870
g66
(dp4871
g93
g94
ssg75
g4860
sg68
(lp4872
S':'
asbag61
(g82
g63
NtRp4873
(dp4874
g66
(dp4875
sg75
g4860
sg68
(lp4876
g61
(g62
g63
NtRp4877
(dp4878
g66
(dp4879
g74
I5
ssg75
g4873
sg68
(lp4880
g1518
asbasbasbag61
(g77
g63
NtRp4881
(dp4882
g66
(dp4883
sg75
g3355
sg68
(lp4884
g61
(g82
g63
NtRp4885
(dp4886
g66
(dp4887
g86
g87
ssg75
g4881
sg68
(lp4888
S'session_new'
p4889
asbag61
(g82
g63
NtRp4890
(dp4891
g66
(dp4892
g93
g94
ssg75
g4881
sg68
(lp4893
S':'
asbag61
(g82
g63
NtRp4894
(dp4895
g66
(dp4896
sg75
g4881
sg68
(lp4897
g61
(g62
g63
NtRp4898
(dp4899
g66
(dp4900
g74
I5
ssg75
g4894
sg68
(lp4901
g104
asbasbasbag61
(g77
g63
NtRp4902
(dp4903
g66
(dp4904
sg75
g3355
sg68
(lp4905
g61
(g82
g63
NtRp4906
(dp4907
g66
(dp4908
g86
g87
ssg75
g4902
sg68
(lp4909
S'session_storage_type'
p4910
asbag61
(g82
g63
NtRp4911
(dp4912
g66
(dp4913
g93
g94
ssg75
g4902
sg68
(lp4914
S':'
asbag61
(g82
g63
NtRp4915
(dp4916
g66
(dp4917
sg75
g4902
sg68
(lp4918
g61
(g62
g63
NtRp4919
(dp4920
g66
(dp4921
g74
I5
ssg75
g4915
sg68
(lp4922
g2920
asbasbasbag61
(g77
g63
NtRp4923
(dp4924
g66
(dp4925
sg75
g3355
sg68
(lp4926
g61
(g82
g63
NtRp4927
(dp4928
g66
(dp4929
g86
g87
ssg75
g4923
sg68
(lp4930
S'status'
p4931
asbag61
(g82
g63
NtRp4932
(dp4933
g66
(dp4934
g93
g94
ssg75
g4923
sg68
(lp4935
S':'
asbag61
(g82
g63
NtRp4936
(dp4937
g66
(dp4938
sg75
g4923
sg68
(lp4939
g61
(g62
g63
NtRp4940
(dp4941
g66
(dp4942
g74
I5
ssg75
g4936
sg68
(lp4943
S'200'
p4944
asbasbasbag61
(g77
g63
NtRp4945
(dp4946
g66
(dp4947
sg75
g3355
sg68
(lp4948
g61
(g82
g63
NtRp4949
(dp4950
g66
(dp4951
g86
g87
ssg75
g4945
sg68
(lp4952
S'subtitle'
p4953
asbag61
(g82
g63
NtRp4954
(dp4955
g66
(dp4956
g93
g94
ssg75
g4945
sg68
(lp4957
S':'
asbag61
(g82
g63
NtRp4958
(dp4959
g66
(dp4960
sg75
g4945
sg68
(lp4961
g61
(g62
g63
NtRp4962
(dp4963
g66
(dp4964
g74
I5
ssg75
g4958
sg68
(lp4965
g3887
(S's\r\x00\x00\x00customize me!'
tRp4966
asbasbasbag61
(g77
g63
NtRp4967
(dp4968
g66
(dp4969
sg75
g3355
sg68
(lp4970
g61
(g82
g63
NtRp4971
(dp4972
g66
(dp4973
g86
g87
ssg75
g4967
sg68
(lp4974
S'title'
p4975
asbag61
(g82
g63
NtRp4976
(dp4977
g66
(dp4978
g93
g94
ssg75
g4967
sg68
(lp4979
S':'
asbag61
(g82
g63
NtRp4980
(dp4981
g66
(dp4982
sg75
g4967
sg68
(lp4983
g61
(g62
g63
NtRp4984
(dp4985
g66
(dp4986
g74
I5
ssg75
g4980
sg68
(lp4987
S'Projeto'
p4988
asbasbasbag61
(g77
g63
NtRp4989
(dp4990
g66
(dp4991
sg75
g3355
sg68
(lp4992
g61
(g82
g63
NtRp4993
(dp4994
g66
(dp4995
g86
g87
ssg75
g4989
sg68
(lp4996
S'view'
p4997
asbag61
(g82
g63
NtRp4998
(dp4999
g66
(dp5000
g93
g94
ssg75
g4989
sg68
(lp5001
S':'
asbag61
(g82
g63
NtRp5002
(dp5003
g66
(dp5004
sg75
g4989
sg68
(lp5005
g61
(g62
g63
NtRp5006
(dp5007
g66
(dp5008
g74
I5
ssg75
g5002
sg68
(lp5009
S'initial/principal.html'
p5010
asbasbasbasbasbsS'locals'
p5011
(dp5012
S'exc'
p5013
S'ProgrammingError(\'ERROR\', \'42P16\', \'multiple primary keys for table "meetme" are not allowed\')'
p5014
sS'msg_class'
p5015
S"<class 'gluon.contrib.pg8000.protocol.ReadyForQuery'>"
p5016
sS'self'
p5017
S'<gluon.contrib.pg8000.protocol.MessageReader object>'
p5018
sg46
S'()'
p5019
sS'handler'
p5020
S'<function <lambda>>'
p5021
sS'kwargs'
p5022
g21
sS'msg'
p5023
S'<ReadyForQuery Idle in Failed Transaction>'
p5024
sS'msg_handled'
p5025
g1518
sS'retval'
p5026
S'1'
sssS'traceback'
p5027
S'Traceback (most recent call last):\n  File "/var/www/conferencia/gluon/restricted.py", line 212, in restricted\n    exec ccode in environment\n  File "/var/www/conferencia/applications/projeto/models/models.py", line 14, in <module>\n    primarykey=[\'confno\']\n  File "/var/www/conferencia/gluon/dal.py", line 7186, in define_table\n    table = self.lazy_define_table(tablename,*fields,**args)\n  File "/var/www/conferencia/gluon/dal.py", line 7222, in lazy_define_table\n    polymodel=polymodel)\n  File "/var/www/conferencia/gluon/dal.py", line 935, in create_table\n    self.create_sequence_and_triggers(query,table)\n  File "/var/www/conferencia/gluon/dal.py", line 2483, in create_sequence_and_triggers\n    self.execute(query)\n  File "/var/www/conferencia/gluon/dal.py", line 1709, in execute\n    return self.log_execute(*a, **b)\n  File "/var/www/conferencia/gluon/dal.py", line 1703, in log_execute\n    ret = self.cursor.execute(*a, **b)\n  File "/var/www/conferencia/gluon/contrib/pg8000/dbapi.py", line 246, in _fn\n    return fn(self, *args, **kwargs)\n  File "/var/www/conferencia/gluon/contrib/pg8000/dbapi.py", line 317, in execute\n    self._execute(operation, args)\n  File "/var/www/conferencia/gluon/contrib/pg8000/dbapi.py", line 322, in _execute\n    self.cursor.execute(new_query, *new_args)\n  File "/var/www/conferencia/gluon/contrib/pg8000/interface.py", line 399, in execute\n    self._stmt.execute(*args, **kwargs)\n  File "/var/www/conferencia/gluon/contrib/pg8000/interface.py", line 169, in execute\n    self._row_desc, cmd = self.c.bind(self._portal_name, self._statement_name, args, self._parse_row_desc, kwargs.get("stream"))\n  File "/var/www/conferencia/gluon/contrib/pg8000/protocol.py", line 943, in _fn\n    return fn(self, *args, **kwargs)\n  File "/var/www/conferencia/gluon/contrib/pg8000/protocol.py", line 1142, in bind\n    return reader.handle_messages()\n  File "/var/www/conferencia/gluon/contrib/pg8000/protocol.py", line 911, in handle_messages\n    retval = handler(msg, *args, **kwargs)\n  File "/var/www/conferencia/gluon/contrib/pg8000/protocol.py", line 1181, in _bind_nodata\n    reader.handle_messages()\n  File "/var/www/conferencia/gluon/contrib/pg8000/protocol.py", line 916, in handle_messages\n    raise exc\nProgrammingError: (\'ERROR\', \'42P16\', \'multiple primary keys for table "meetme" are not allowed\')\n'
p5028
s.